ARM GAS  C:\Users\CHRIST~1\AppData\Local\Temp\cclwqoH0.s 			page 1


   1              		.cpu cortex-m0plus
   2              		.fpu softvfp
   3              		.eabi_attribute 20, 1
   4              		.eabi_attribute 21, 1
   5              		.eabi_attribute 23, 3
   6              		.eabi_attribute 24, 1
   7              		.eabi_attribute 25, 1
   8              		.eabi_attribute 26, 1
   9              		.eabi_attribute 30, 6
  10              		.eabi_attribute 34, 0
  11              		.eabi_attribute 18, 4
  12              		.code	16
  13              		.file	"ADC.c"
  14              		.text
  15              	.Ltext0:
  16              		.cfi_sections	.debug_frame
  17              		.global	ADC_initVar
  18              		.bss
  19              		.type	ADC_initVar, %object
  20              		.size	ADC_initVar, 1
  21              	ADC_initVar:
  22 0000 00       		.space	1
  23              		.global	ADC_selected
  24              		.type	ADC_selected, %object
  25              		.size	ADC_selected, 1
  26              	ADC_selected:
  27 0001 00       		.space	1
  28              		.comm	ADC_offset,14,4
  29              		.comm	ADC_countsPer10Volt,28,4
  30 0002 0000     		.align	2
  31              	ADC_currentConfig:
  32 0004 00000000 		.space	4
  33              		.align	2
  34              	ADC_channelEnMasks:
  35 0008 00000000 		.space	4
  36              		.section	.rodata
  37              		.align	2
  38              		.type	ADC_channelsConfig, %object
  39              		.size	ADC_channelsConfig, 28
  40              	ADC_channelsConfig:
  41 0000 00040000 		.word	1024
  42 0004 00140000 		.word	5120
  43 0008 00140000 		.word	5120
  44 000c 00150000 		.word	5376
  45 0010 00150000 		.word	5376
  46 0014 00140000 		.word	5120
  47 0018 00140000 		.word	5120
  48              		.section	.text.ADC_Start,"ax",%progbits
  49              		.align	2
  50              		.global	ADC_Start
  51              		.code	16
  52              		.thumb_func
  53              		.type	ADC_Start, %function
  54              	ADC_Start:
  55              	.LFB1:
  56              		.file 1 "Generated_Source\\PSoC4\\ADC.c"
   1:Generated_Source\PSoC4/ADC.c **** /***************************************************************************//**
ARM GAS  C:\Users\CHRIST~1\AppData\Local\Temp\cclwqoH0.s 			page 2


   2:Generated_Source\PSoC4/ADC.c **** * \file     ADC.c
   3:Generated_Source\PSoC4/ADC.c **** * \version  1.10
   4:Generated_Source\PSoC4/ADC.c **** *
   5:Generated_Source\PSoC4/ADC.c **** * \brief
   6:Generated_Source\PSoC4/ADC.c **** * Provides the source code to the API for the ADC Component.
   7:Generated_Source\PSoC4/ADC.c **** *
   8:Generated_Source\PSoC4/ADC.c **** ********************************************************************************
   9:Generated_Source\PSoC4/ADC.c **** * \copyright
  10:Generated_Source\PSoC4/ADC.c **** * (c) 2015-2016, Cypress Semiconductor Corporation. All rights reserved.
  11:Generated_Source\PSoC4/ADC.c **** * This software, including source code, documentation and related
  12:Generated_Source\PSoC4/ADC.c **** * materials ("Software"), is owned by Cypress Semiconductor
  13:Generated_Source\PSoC4/ADC.c **** * Corporation ("Cypress") and is protected by and subject to worldwide
  14:Generated_Source\PSoC4/ADC.c **** * patent protection (United States and foreign), United States copyright
  15:Generated_Source\PSoC4/ADC.c **** * laws and international treaty provisions. Therefore, you may use this
  16:Generated_Source\PSoC4/ADC.c **** * Software only as provided in the license agreement accompanying the
  17:Generated_Source\PSoC4/ADC.c **** * software package from which you obtained this Software ("EULA").
  18:Generated_Source\PSoC4/ADC.c **** * If no EULA applies, Cypress hereby grants you a personal, nonexclusive,
  19:Generated_Source\PSoC4/ADC.c **** * non-transferable license to copy, modify, and compile the
  20:Generated_Source\PSoC4/ADC.c **** * Software source code solely for use in connection with Cypress's
  21:Generated_Source\PSoC4/ADC.c **** * integrated circuit products. Any reproduction, modification, translation,
  22:Generated_Source\PSoC4/ADC.c **** * compilation, or representation of this Software except as specified
  23:Generated_Source\PSoC4/ADC.c **** * above is prohibited without the express written permission of Cypress.
  24:Generated_Source\PSoC4/ADC.c **** * Disclaimer: THIS SOFTWARE IS PROVIDED AS-IS, WITH NO
  25:Generated_Source\PSoC4/ADC.c **** * WARRANTY OF ANY KIND, EXPRESS OR IMPLIED, INCLUDING,
  26:Generated_Source\PSoC4/ADC.c **** * BUT NOT LIMITED TO, NONINFRINGEMENT, IMPLIED
  27:Generated_Source\PSoC4/ADC.c **** * WARRANTIES OF MERCHANTABILITY AND FITNESS FOR A
  28:Generated_Source\PSoC4/ADC.c **** * PARTICULAR PURPOSE. Cypress reserves the right to make
  29:Generated_Source\PSoC4/ADC.c **** * changes to the Software without notice. Cypress does not assume any
  30:Generated_Source\PSoC4/ADC.c **** * liability arising out of the application or use of the Software or any
  31:Generated_Source\PSoC4/ADC.c **** * product or circuit described in the Software. Cypress does not
  32:Generated_Source\PSoC4/ADC.c **** * authorize its products for use in any products where a malfunction or
  33:Generated_Source\PSoC4/ADC.c **** * failure of the Cypress product may reasonably be expected to result in
  34:Generated_Source\PSoC4/ADC.c **** * significant property damage, injury or death ("High Risk Product"). By
  35:Generated_Source\PSoC4/ADC.c **** * including Cypress's product in a High Risk Product, the manufacturer
  36:Generated_Source\PSoC4/ADC.c **** * of such system or application assumes all risk of such use and in doing
  37:Generated_Source\PSoC4/ADC.c **** * so agrees to indemnify Cypress against all liability.
  38:Generated_Source\PSoC4/ADC.c **** *******************************************************************************/
  39:Generated_Source\PSoC4/ADC.c **** #include "ADC.h"
  40:Generated_Source\PSoC4/ADC.c **** 
  41:Generated_Source\PSoC4/ADC.c **** static int32 ADC_IsChannelSigned(uint32 chan);
  42:Generated_Source\PSoC4/ADC.c **** 
  43:Generated_Source\PSoC4/ADC.c **** uint8 ADC_initVar = 0u; 
  44:Generated_Source\PSoC4/ADC.c **** 
  45:Generated_Source\PSoC4/ADC.c **** uint8 ADC_selected = 0u; /* 0 if no configuration selected. 1 otherwise. */
  46:Generated_Source\PSoC4/ADC.c **** volatile int16 ADC_offset[ADC_TOTAL_CHANNELS_NUM]; 
  47:Generated_Source\PSoC4/ADC.c **** volatile int32 ADC_countsPer10Volt[ADC_TOTAL_CHANNELS_NUM]; 
  48:Generated_Source\PSoC4/ADC.c **** 
  49:Generated_Source\PSoC4/ADC.c **** static uint32 ADC_currentConfig = 0u; /* Currently active configuration */
  50:Generated_Source\PSoC4/ADC.c **** static uint32 ADC_channelEnMasks[ADC_TOTAL_CONFIGS];
  51:Generated_Source\PSoC4/ADC.c **** 
  52:Generated_Source\PSoC4/ADC.c **** /*******************************************************************************
  53:Generated_Source\PSoC4/ADC.c **** * Local data allocation
  54:Generated_Source\PSoC4/ADC.c **** *******************************************************************************/
  55:Generated_Source\PSoC4/ADC.c **** /* Channels configuration generated by customiser */
  56:Generated_Source\PSoC4/ADC.c **** static const uint32 CYCODE ADC_channelsConfig[] = { 0x00000400UL, 0x00001400UL, 0x00001400UL, 0x000
  57:Generated_Source\PSoC4/ADC.c **** 
  58:Generated_Source\PSoC4/ADC.c **** /* Filter init */
ARM GAS  C:\Users\CHRIST~1\AppData\Local\Temp\cclwqoH0.s 			page 3


  59:Generated_Source\PSoC4/ADC.c **** #if(ADC_ANY_CONFIG_USES_FILTER	!= 0u)	
  60:Generated_Source\PSoC4/ADC.c ****     #define ADC_UABH_A_FILTER_INITPAIRSSIZE ((ADC_FILTERTYPE_USED == ADC_FILTERTOPOLOGY_LOW_Q) \
  61:Generated_Source\PSoC4/ADC.c ****                                                          ? 18u \
  62:Generated_Source\PSoC4/ADC.c ****                                                          : 18u)
  63:Generated_Source\PSoC4/ADC.c ****     static CyUAB_reg_pair ADC_UABH_A_FILTER_initPairs[ADC_UABH_A_FILTER_INITPAIRSSIZE] =
  64:Generated_Source\PSoC4/ADC.c ****     {
  65:Generated_Source\PSoC4/ADC.c ****     	/*OA_CTRL default always first element in initPairs*/
  66:Generated_Source\PSoC4/ADC.c ****         /* Topology-invariant registers */
  67:Generated_Source\PSoC4/ADC.c ****          {ADC_UABH_A_OA_CTRL_PTR        , ((uint32)ADC_UABH_A_DEFAULT_OA_CTRL)}
  68:Generated_Source\PSoC4/ADC.c ****         ,{ADC_UABH_A_SW_STATIC_PTR      , ((uint32)ADC_UABH_A_DEFAULT_SW_STATIC)}
  69:Generated_Source\PSoC4/ADC.c ****         ,{ADC_UABH_A_SW_MODBIT_SRC_PTR      , ((uint32)ADC_UABH_A_DEFAULT_SW_MODBIT_SRC)}
  70:Generated_Source\PSoC4/ADC.c ****         ,{ADC_UABH_A_SRAM_CTRL_PTR      , ((uint32)ADC_UABH_A_INVAR_SRAM_CTRL)} 
  71:Generated_Source\PSoC4/ADC.c ****         ,{ADC_UABH_A_STARTUP_DELAY_PTR  , ((uint32)ADC_UABH_A_INVAR_STARTUP_DELAY)}
  72:Generated_Source\PSoC4/ADC.c ****         ,{ADC_UABH_A_SW_BOOST_CTRL_PTR  , ((uint32)ADC_UABH_A_DEFAULT_SW_BOOST_CTRL)}
  73:Generated_Source\PSoC4/ADC.c ****         ,{ADC_UABH_A_SW_OTHER_PTR  , ((uint32)ADC_UABH_A_DEFAULT_SW_OTHER)}
  74:Generated_Source\PSoC4/ADC.c ****         
  75:Generated_Source\PSoC4/ADC.c ****         #if (ADC_FILTERTYPE_USED == ADC_FILTERTOPOLOGY_LOW_Q)
  76:Generated_Source\PSoC4/ADC.c ****             /* Filter-invariant registers */
  77:Generated_Source\PSoC4/ADC.c ****             ,{ADC_UABH_A_SW_CA_IN0_PTR      , ((uint32)ADC_UABH_A_LOWQSTAT_SW_CA_IN0)}
  78:Generated_Source\PSoC4/ADC.c ****             ,{ADC_UABH_A_SW_CA_TOP_PTR      , ((uint32)ADC_UABH_A_LOWQSTAT_SW_CA_TOP)}
  79:Generated_Source\PSoC4/ADC.c ****             ,{ADC_UABH_A_SW_CC_IN0_PTR      , ((uint32)ADC_UABH_A_LOWQSTAT_SW_CC_IN0)}
  80:Generated_Source\PSoC4/ADC.c ****             ,{ADC_UABH_A_SW_CC_IN1_PTR      , ((uint32)ADC_UABH_A_LOWQSTAT_SW_CC_IN1)}
  81:Generated_Source\PSoC4/ADC.c ****             ,{ADC_UABH_A_SW_CF_BOT_PTR      , ((uint32)ADC_UABH_A_LOWQSTAT_SW_CF_BOT)}
  82:Generated_Source\PSoC4/ADC.c **** 
  83:Generated_Source\PSoC4/ADC.c ****             /* Parameter-based registers */
  84:Generated_Source\PSoC4/ADC.c ****             ,{ADC_UABH_A_CAP_CTRL_PTR       , ((uint32)ADC_UABH_A_LOWQDYN_CAP_CTRL)}
  85:Generated_Source\PSoC4/ADC.c ****             ,{ADC_UABH_A_SW_CB_IN0_PTR      , ((uint32)ADC_UABH_A_LOWQDYN_SW_CB_IN0)}
  86:Generated_Source\PSoC4/ADC.c ****             ,{ADC_UABH_A_SW_CB_IN1_PTR      , ((uint32)ADC_UABH_A_LOWQDYN_SW_CB_IN1)}
  87:Generated_Source\PSoC4/ADC.c ****             ,{ADC_UABH_A_SW_CB_TOP_PTR      , ((uint32)ADC_UABH_A_LOWQDYN_SW_CB_TOP)}
  88:Generated_Source\PSoC4/ADC.c ****             ,{ADC_UABH_A_SW_CC_TOP_PTR      , ((uint32)ADC_UABH_A_LOWQDYN_SW_CC_TOP)}
  89:Generated_Source\PSoC4/ADC.c ****             ,{ADC_UABH_A_CAP_ABCF_VAL_PTR   , ((uint32)ADC_UABH_A_LOWQDYN_CAP_ABCF_VAL)}
  90:Generated_Source\PSoC4/ADC.c ****         #elif (ADC_FILTERTYPE_USED == ADC_FILTERTOPOLOGY_HIGH_Q)
  91:Generated_Source\PSoC4/ADC.c ****             /* Filter-invariant registers */
  92:Generated_Source\PSoC4/ADC.c ****             ,{ADC_UABH_A_SW_CA_IN0_PTR      , ((uint32)ADC_UABH_A_HIGHQSTAT_SW_CA_IN0)}
  93:Generated_Source\PSoC4/ADC.c ****             ,{ADC_UABH_A_SW_CA_TOP_PTR      , ((uint32)ADC_UABH_A_HIGHQSTAT_SW_CA_TOP)}
  94:Generated_Source\PSoC4/ADC.c ****             ,{ADC_UABH_A_SW_CB_IN0_PTR      , ((uint32)ADC_UABH_A_HIGHQSTAT_SW_CB_IN0)}
  95:Generated_Source\PSoC4/ADC.c ****             ,{ADC_UABH_A_SW_CB_IN1_PTR      , ((uint32)ADC_UABH_A_HIGHQSTAT_SW_CB_IN1)}
  96:Generated_Source\PSoC4/ADC.c ****             ,{ADC_UABH_A_SW_CC_IN0_PTR      , ((uint32)ADC_UABH_A_HIGHQSTAT_SW_CC_IN0)}
  97:Generated_Source\PSoC4/ADC.c ****             ,{ADC_UABH_A_SW_CC_IN1_PTR      , ((uint32)ADC_UABH_A_HIGHQSTAT_SW_CC_IN1)}
  98:Generated_Source\PSoC4/ADC.c ****             ,{ADC_UABH_A_SW_CC_TOP_PTR      , ((uint32)ADC_UABH_A_HIGHQSTAT_SW_CC_TOP)}
  99:Generated_Source\PSoC4/ADC.c ****             ,{ADC_UABH_A_SW_CF_BOT_PTR      , ((uint32)ADC_UABH_A_HIGHQSTAT_SW_CF_BOT)}
 100:Generated_Source\PSoC4/ADC.c **** 
 101:Generated_Source\PSoC4/ADC.c ****             /* Parameter-based registers */
 102:Generated_Source\PSoC4/ADC.c ****             ,{ADC_UABH_A_CAP_CTRL_PTR       , ((uint32)ADC_UABH_A_HIGHQDYN_CAP_CTRL)}
 103:Generated_Source\PSoC4/ADC.c ****             ,{ADC_UABH_A_SW_CB_TOP_PTR      , ((uint32)ADC_UABH_A_HIGHQDYN_SW_CB_TOP)}
 104:Generated_Source\PSoC4/ADC.c ****             ,{ADC_UABH_A_CAP_ABCF_VAL_PTR   , ((uint32)ADC_UABH_A_HIGHQDYN_CAP_ABCF_VAL)}
 105:Generated_Source\PSoC4/ADC.c ****         #endif /* (ADC_FILTERTYPE_USED == ADC_FILTERTOPOLOGY_LOW_Q) */
 106:Generated_Source\PSoC4/ADC.c ****     };
 107:Generated_Source\PSoC4/ADC.c **** 
 108:Generated_Source\PSoC4/ADC.c ****     #define ADC_UABH_B_FILTER_INITPAIRSSIZE ((ADC_FILTERTYPE_USED == ADC_FILTERTOPOLOGY_LOW_Q) \
 109:Generated_Source\PSoC4/ADC.c ****                                                          ? 19u \
 110:Generated_Source\PSoC4/ADC.c ****                                                          : 19u)
 111:Generated_Source\PSoC4/ADC.c ****     static CyUAB_reg_pair ADC_UABH_B_FILTER_initPairs[ADC_UABH_B_FILTER_INITPAIRSSIZE] = 
 112:Generated_Source\PSoC4/ADC.c ****     {
 113:Generated_Source\PSoC4/ADC.c ****         /*OA_CTRL default always first element in initPairs*/
 114:Generated_Source\PSoC4/ADC.c ****         /* Topology-invariant registers */
 115:Generated_Source\PSoC4/ADC.c ****          {ADC_UABH_B_OA_CTRL_PTR        , ((uint32)ADC_UABH_B_DEFAULT_OA_CTRL)}
ARM GAS  C:\Users\CHRIST~1\AppData\Local\Temp\cclwqoH0.s 			page 4


 116:Generated_Source\PSoC4/ADC.c ****         ,{ADC_UABH_B_SW_STATIC_PTR      , ((uint32)ADC_UABH_B_DEFAULT_SW_STATIC)}
 117:Generated_Source\PSoC4/ADC.c ****         ,{ADC_UABH_B_SW_MODBIT_SRC_PTR      , ((uint32)ADC_UABH_B_DEFAULT_SW_MODBIT_SRC)}
 118:Generated_Source\PSoC4/ADC.c ****         ,{ADC_UABH_B_SRAM_CTRL_PTR      , ((uint32)ADC_UABH_B_INVAR_SRAM_CTRL)} 
 119:Generated_Source\PSoC4/ADC.c ****         ,{ADC_UABH_B_STARTUP_DELAY_PTR  , ((uint32)ADC_UABH_B_INVAR_STARTUP_DELAY)}
 120:Generated_Source\PSoC4/ADC.c ****         ,{ADC_UABH_B_SW_BOOST_CTRL_PTR  , ((uint32)ADC_UABH_B_DEFAULT_SW_BOOST_CTRL)}
 121:Generated_Source\PSoC4/ADC.c ****         ,{ADC_UABH_B_SW_OTHER_PTR  , ((uint32)ADC_UABH_B_DEFAULT_SW_OTHER)}
 122:Generated_Source\PSoC4/ADC.c ****         
 123:Generated_Source\PSoC4/ADC.c ****         #if (ADC_FILTERTYPE_USED == ADC_FILTERTOPOLOGY_LOW_Q)
 124:Generated_Source\PSoC4/ADC.c ****                 	/* Filter-invariant registers */
 125:Generated_Source\PSoC4/ADC.c ****             ,{ADC_UABH_B_SW_CA_IN0_PTR      , ((uint32)ADC_UABH_B_LOWQSTAT_SW_CA_IN0)}
 126:Generated_Source\PSoC4/ADC.c ****             ,{ADC_UABH_B_SW_CA_IN1_PTR      , ((uint32)ADC_UABH_B_LOWQSTAT_SW_CA_IN1)}
 127:Generated_Source\PSoC4/ADC.c ****             ,{ADC_UABH_B_SW_CA_TOP_PTR      , ((uint32)ADC_UABH_B_LOWQSTAT_SW_CA_TOP)}
 128:Generated_Source\PSoC4/ADC.c ****             ,{ADC_UABH_B_SW_CB_IN0_PTR      , ((uint32)ADC_UABH_B_LOWQSTAT_SW_CB_IN0)}
 129:Generated_Source\PSoC4/ADC.c ****             ,{ADC_UABH_B_SW_CB_IN1_PTR      , ((uint32)ADC_UABH_B_LOWQSTAT_SW_CB_IN1)}
 130:Generated_Source\PSoC4/ADC.c ****             ,{ADC_UABH_B_SW_CB_TOP_PTR      , ((uint32)ADC_UABH_B_LOWQSTAT_SW_CB_TOP)}
 131:Generated_Source\PSoC4/ADC.c ****             ,{ADC_UABH_B_SW_CC_IN0_PTR      , ((uint32)ADC_UABH_B_LOWQSTAT_SW_CC_IN0)}
 132:Generated_Source\PSoC4/ADC.c ****             ,{ADC_UABH_B_SW_CC_IN1_PTR      , ((uint32)ADC_UABH_B_LOWQSTAT_SW_CC_IN1)}
 133:Generated_Source\PSoC4/ADC.c ****             ,{ADC_UABH_B_SW_CF_BOT_PTR      , ((uint32)ADC_UABH_B_LOWQSTAT_SW_CF_BOT)}
 134:Generated_Source\PSoC4/ADC.c ****             
 135:Generated_Source\PSoC4/ADC.c ****             /* Parameter-based registers */
 136:Generated_Source\PSoC4/ADC.c ****             ,{ADC_UABH_B_CAP_CTRL_PTR       , ((uint32)ADC_UABH_B_LOWQDYN_CAP_CTRL)}
 137:Generated_Source\PSoC4/ADC.c ****             ,{ADC_UABH_B_SW_CC_TOP_PTR      , ((uint32)ADC_UABH_B_LOWQDYN_SW_CC_TOP)}
 138:Generated_Source\PSoC4/ADC.c ****             ,{ADC_UABH_B_CAP_ABCF_VAL_PTR   , ((uint32)ADC_UABH_B_LOWQDYN_CAP_ABCF_VAL)}
 139:Generated_Source\PSoC4/ADC.c ****         #elif (ADC_FILTERTYPE_USED == ADC_FILTERTOPOLOGY_HIGH_Q)
 140:Generated_Source\PSoC4/ADC.c ****         	/* Filter-invariant registers */
 141:Generated_Source\PSoC4/ADC.c ****             ,{ADC_UABH_B_SW_CA_IN0_PTR      , ((uint32)ADC_UABH_B_HIGHQSTAT_SW_CA_IN0)}
 142:Generated_Source\PSoC4/ADC.c ****             ,{ADC_UABH_B_SW_CA_IN1_PTR      , ((uint32)ADC_UABH_B_HIGHQSTAT_SW_CA_IN1)}
 143:Generated_Source\PSoC4/ADC.c ****             ,{ADC_UABH_B_SW_CA_TOP_PTR      , ((uint32)ADC_UABH_B_HIGHQSTAT_SW_CA_TOP)}
 144:Generated_Source\PSoC4/ADC.c ****             ,{ADC_UABH_B_SW_CB_IN0_PTR      , ((uint32)ADC_UABH_B_HIGHQSTAT_SW_CB_IN0)}
 145:Generated_Source\PSoC4/ADC.c ****             ,{ADC_UABH_B_SW_CB_IN1_PTR      , ((uint32)ADC_UABH_B_HIGHQSTAT_SW_CB_IN1)}
 146:Generated_Source\PSoC4/ADC.c ****             ,{ADC_UABH_B_SW_CC_IN0_PTR      , ((uint32)ADC_UABH_B_HIGHQSTAT_SW_CC_IN0)}
 147:Generated_Source\PSoC4/ADC.c ****             ,{ADC_UABH_B_SW_CC_IN1_PTR      , ((uint32)ADC_UABH_B_HIGHQSTAT_SW_CC_IN1)}
 148:Generated_Source\PSoC4/ADC.c ****             ,{ADC_UABH_B_SW_CF_BOT_PTR      , ((uint32)ADC_UABH_B_HIGHQSTAT_SW_CF_BOT)}
 149:Generated_Source\PSoC4/ADC.c ****             
 150:Generated_Source\PSoC4/ADC.c ****             /* Parameter-based registers */
 151:Generated_Source\PSoC4/ADC.c ****             ,{ADC_UABH_B_CAP_CTRL_PTR       , ((uint32)ADC_UABH_B_HIGHQDYN_CAP_CTRL)}
 152:Generated_Source\PSoC4/ADC.c ****             ,{ADC_UABH_B_SW_CB_TOP_PTR      , ((uint32)ADC_UABH_B_HIGHQDYN_SW_CB_TOP)}
 153:Generated_Source\PSoC4/ADC.c ****             ,{ADC_UABH_B_SW_CC_TOP_PTR      , ((uint32)ADC_UABH_B_HIGHQDYN_SW_CC_TOP)}
 154:Generated_Source\PSoC4/ADC.c ****             ,{ADC_UABH_B_CAP_ABCF_VAL_PTR   , ((uint32)ADC_UABH_B_HIGHQDYN_CAP_ABCF_VAL)}
 155:Generated_Source\PSoC4/ADC.c ****         #endif /* #if (ADC_FILTERTYPE_USED == ADC_FILTERTOPOLOGY_LOW_Q) */
 156:Generated_Source\PSoC4/ADC.c ****     };
 157:Generated_Source\PSoC4/ADC.c **** 
 158:Generated_Source\PSoC4/ADC.c ****     static CyUAB_config ADC_UABH_A_FILTER_config = {
 159:Generated_Source\PSoC4/ADC.c ****         ADC_UABH_A_waveConfig,
 160:Generated_Source\PSoC4/ADC.c ****         ADC_UABH_A_FILTER_initPairs,
 161:Generated_Source\PSoC4/ADC.c ****         CyUAB_SHARED_SW_CFG(ADC_UABH_A_PARAM_REF_TIED,ADC_UABH_A_PARAM_AGND_TIED,
 162:Generated_Source\PSoC4/ADC.c ****             ADC_UABH_A_PARAM_SW_CC,ADC_UABH_A_PARAM_SW_BB,ADC_UABH_A_PARAM_SW_AA),
 163:Generated_Source\PSoC4/ADC.c ****         ADC_UABH_A_NUM_STEPS,
 164:Generated_Source\PSoC4/ADC.c ****         (uint8)(ADC_UABH_A_ELEMENT_COUNT(ADC_UABH_A_FILTER_initPairs))
 165:Generated_Source\PSoC4/ADC.c ****     };
 166:Generated_Source\PSoC4/ADC.c **** 
 167:Generated_Source\PSoC4/ADC.c ****     static CyUAB_config ADC_UABH_B_FILTER_config = {
 168:Generated_Source\PSoC4/ADC.c ****         ADC_UABH_B_waveConfig,
 169:Generated_Source\PSoC4/ADC.c ****         ADC_UABH_B_FILTER_initPairs,
 170:Generated_Source\PSoC4/ADC.c ****         CyUAB_SHARED_SW_CFG(ADC_UABH_B_PARAM_REF_TIED,ADC_UABH_B_PARAM_AGND_TIED,
 171:Generated_Source\PSoC4/ADC.c ****             ADC_UABH_B_PARAM_SW_CC,ADC_UABH_B_PARAM_SW_BB,ADC_UABH_B_PARAM_SW_AA),
 172:Generated_Source\PSoC4/ADC.c ****         ADC_UABH_B_NUM_STEPS,
ARM GAS  C:\Users\CHRIST~1\AppData\Local\Temp\cclwqoH0.s 			page 5


 173:Generated_Source\PSoC4/ADC.c ****         (uint8)(ADC_UABH_B_ELEMENT_COUNT(ADC_UABH_B_FILTER_initPairs))
 174:Generated_Source\PSoC4/ADC.c ****     };
 175:Generated_Source\PSoC4/ADC.c **** #endif /* (ADC_ANY_CONFIG_USES_FILTER	!= 0u)	*/
 176:Generated_Source\PSoC4/ADC.c **** /*******************************************************************************
 177:Generated_Source\PSoC4/ADC.c **** * Function Name: ADC_Start
 178:Generated_Source\PSoC4/ADC.c **** ****************************************************************************//**
 179:Generated_Source\PSoC4/ADC.c **** *
 180:Generated_Source\PSoC4/ADC.c **** * \brief Performs all required initialization for this component and enables the 
 181:Generated_Source\PSoC4/ADC.c **** *  power. The power will be set to the appropriate power based on the clock 
 182:Generated_Source\PSoC4/ADC.c **** *  frequency.
 183:Generated_Source\PSoC4/ADC.c **** * 
 184:Generated_Source\PSoC4/ADC.c **** * \param None
 185:Generated_Source\PSoC4/ADC.c **** * 
 186:Generated_Source\PSoC4/ADC.c **** * \return None
 187:Generated_Source\PSoC4/ADC.c **** * 
 188:Generated_Source\PSoC4/ADC.c **** * \sideeffect None
 189:Generated_Source\PSoC4/ADC.c **** *
 190:Generated_Source\PSoC4/ADC.c **** * \globalvars
 191:Generated_Source\PSoC4/ADC.c **** *  \ref ADC_initVar (RW)
 192:Generated_Source\PSoC4/ADC.c **** *
 193:Generated_Source\PSoC4/ADC.c **** * <b>Code Snippet</b>
 194:Generated_Source\PSoC4/ADC.c **** *  \snippet main.c snippet_ADC_Start
 195:Generated_Source\PSoC4/ADC.c **** *
 196:Generated_Source\PSoC4/ADC.c **** *******************************************************************************/
 197:Generated_Source\PSoC4/ADC.c **** void ADC_Start(void)
 198:Generated_Source\PSoC4/ADC.c **** {
  57              		.loc 1 198 0
  58              		.cfi_startproc
  59 0000 80B5     		push	{r7, lr}
  60              		.cfi_def_cfa_offset 8
  61              		.cfi_offset 7, -8
  62              		.cfi_offset 14, -4
  63 0002 00AF     		add	r7, sp, #0
  64              		.cfi_def_cfa_register 7
 199:Generated_Source\PSoC4/ADC.c ****     if (1u != (1u & ADC_initVar))
  65              		.loc 1 199 0
  66 0004 0A4B     		ldr	r3, .L4
  67 0006 1B78     		ldrb	r3, [r3]
  68 0008 0122     		mov	r2, #1
  69 000a 1340     		and	r3, r2
  70 000c DBB2     		uxtb	r3, r3
  71 000e 002B     		cmp	r3, #0
  72 0010 08D1     		bne	.L2
 200:Generated_Source\PSoC4/ADC.c ****     {
 201:Generated_Source\PSoC4/ADC.c ****         ADC_Init();
  73              		.loc 1 201 0
  74 0012 FFF7FEFF 		bl	ADC_Init
 202:Generated_Source\PSoC4/ADC.c ****         ADC_initVar |= 1u;
  75              		.loc 1 202 0
  76 0016 064B     		ldr	r3, .L4
  77 0018 1B78     		ldrb	r3, [r3]
  78 001a 0122     		mov	r2, #1
  79 001c 1343     		orr	r3, r2
  80 001e DAB2     		uxtb	r2, r3
  81 0020 034B     		ldr	r3, .L4
  82 0022 1A70     		strb	r2, [r3]
  83              	.L2:
ARM GAS  C:\Users\CHRIST~1\AppData\Local\Temp\cclwqoH0.s 			page 6


 203:Generated_Source\PSoC4/ADC.c ****     }
 204:Generated_Source\PSoC4/ADC.c ****     
 205:Generated_Source\PSoC4/ADC.c ****     ADC_Enable();
  84              		.loc 1 205 0
  85 0024 FFF7FEFF 		bl	ADC_Enable
 206:Generated_Source\PSoC4/ADC.c ****     
 207:Generated_Source\PSoC4/ADC.c ****     return;
  86              		.loc 1 207 0
  87 0028 C046     		mov	r8, r8
 208:Generated_Source\PSoC4/ADC.c **** }
  88              		.loc 1 208 0
  89 002a BD46     		mov	sp, r7
  90              		@ sp needed
  91 002c 80BD     		pop	{r7, pc}
  92              	.L5:
  93 002e C046     		.align	2
  94              	.L4:
  95 0030 00000000 		.word	ADC_initVar
  96              		.cfi_endproc
  97              	.LFE1:
  98              		.size	ADC_Start, .-ADC_Start
  99              		.section	.text.ADC_StartEx,"ax",%progbits
 100              		.align	2
 101              		.global	ADC_StartEx
 102              		.code	16
 103              		.thumb_func
 104              		.type	ADC_StartEx, %function
 105              	ADC_StartEx:
 106              	.LFB2:
 209:Generated_Source\PSoC4/ADC.c **** 
 210:Generated_Source\PSoC4/ADC.c **** /*******************************************************************************
 211:Generated_Source\PSoC4/ADC.c **** * Function Name: ADC_StartEx
 212:Generated_Source\PSoC4/ADC.c **** ****************************************************************************//**
 213:Generated_Source\PSoC4/ADC.c **** *
 214:Generated_Source\PSoC4/ADC.c **** * \brief This function starts the ADC and sets the Interrupt 
 215:Generated_Source\PSoC4/ADC.c **** * Service Routine to the provided address using the 
 216:Generated_Source\PSoC4/ADC.c **** * ADC_IRQ_StartEx() function. Refer to the Interrupt component 
 217:Generated_Source\PSoC4/ADC.c **** * datasheet for more information on the ADC_IRQ_StartEx() function.
 218:Generated_Source\PSoC4/ADC.c **** * 
 219:Generated_Source\PSoC4/ADC.c **** * \param address This is the address of a user defined function for the ISR.
 220:Generated_Source\PSoC4/ADC.c **** * 
 221:Generated_Source\PSoC4/ADC.c **** * \return None
 222:Generated_Source\PSoC4/ADC.c **** * 
 223:Generated_Source\PSoC4/ADC.c **** * \sideeffect None
 224:Generated_Source\PSoC4/ADC.c **** *
 225:Generated_Source\PSoC4/ADC.c **** * <b>Code Snippet</b>
 226:Generated_Source\PSoC4/ADC.c **** *  \snippet main.c snippet_ADC_StartEx
 227:Generated_Source\PSoC4/ADC.c **** *
 228:Generated_Source\PSoC4/ADC.c **** *******************************************************************************/
 229:Generated_Source\PSoC4/ADC.c **** void ADC_StartEx(cyisraddress address)
 230:Generated_Source\PSoC4/ADC.c **** {
 107              		.loc 1 230 0
 108              		.cfi_startproc
 109 0000 80B5     		push	{r7, lr}
 110              		.cfi_def_cfa_offset 8
 111              		.cfi_offset 7, -8
 112              		.cfi_offset 14, -4
ARM GAS  C:\Users\CHRIST~1\AppData\Local\Temp\cclwqoH0.s 			page 7


 113 0002 82B0     		sub	sp, sp, #8
 114              		.cfi_def_cfa_offset 16
 115 0004 00AF     		add	r7, sp, #0
 116              		.cfi_def_cfa_register 7
 117 0006 7860     		str	r0, [r7, #4]
 231:Generated_Source\PSoC4/ADC.c ****     ADC_Start();
 118              		.loc 1 231 0
 119 0008 FFF7FEFF 		bl	ADC_Start
 232:Generated_Source\PSoC4/ADC.c ****     ADC_IRQ_StartEx(address);
 120              		.loc 1 232 0
 121 000c 7B68     		ldr	r3, [r7, #4]
 122 000e 181C     		mov	r0, r3
 123 0010 FFF7FEFF 		bl	ADC_IRQ_StartEx
 233:Generated_Source\PSoC4/ADC.c ****     return;
 124              		.loc 1 233 0
 125 0014 C046     		mov	r8, r8
 234:Generated_Source\PSoC4/ADC.c **** }
 126              		.loc 1 234 0
 127 0016 BD46     		mov	sp, r7
 128 0018 02B0     		add	sp, sp, #8
 129              		@ sp needed
 130 001a 80BD     		pop	{r7, pc}
 131              		.cfi_endproc
 132              	.LFE2:
 133              		.size	ADC_StartEx, .-ADC_StartEx
 134              		.section	.text.ADC_Stop,"ax",%progbits
 135              		.align	2
 136              		.global	ADC_Stop
 137              		.code	16
 138              		.thumb_func
 139              		.type	ADC_Stop, %function
 140              	ADC_Stop:
 141              	.LFB3:
 235:Generated_Source\PSoC4/ADC.c **** 
 236:Generated_Source\PSoC4/ADC.c **** /*******************************************************************************
 237:Generated_Source\PSoC4/ADC.c **** * Function Name: ADC_Stop
 238:Generated_Source\PSoC4/ADC.c **** ****************************************************************************//**
 239:Generated_Source\PSoC4/ADC.c **** *
 240:Generated_Source\PSoC4/ADC.c **** * \brief This function stops ADC conversions and puts the ADC into its lowest 
 241:Generated_Source\PSoC4/ADC.c **** * power mode.
 242:Generated_Source\PSoC4/ADC.c **** * 
 243:Generated_Source\PSoC4/ADC.c **** * \param None
 244:Generated_Source\PSoC4/ADC.c **** * 
 245:Generated_Source\PSoC4/ADC.c **** * \return None
 246:Generated_Source\PSoC4/ADC.c **** * 
 247:Generated_Source\PSoC4/ADC.c **** * \sideeffect
 248:Generated_Source\PSoC4/ADC.c **** * Do not use the ADC_Stop() API to halt conversions. Instead use the 
 249:Generated_Source\PSoC4/ADC.c **** * ADC_StopConvert() API. If you use the ADC_Stop() API 
 250:Generated_Source\PSoC4/ADC.c **** * to halt conversions then later use the ADC_Start() and 
 251:Generated_Source\PSoC4/ADC.c **** * ADC_StartConvert() APIs to resume conversions, the first channel 
 252:Generated_Source\PSoC4/ADC.c **** * of the scan may be corrupt. The ADC_StopConvert() API will enable 
 253:Generated_Source\PSoC4/ADC.c **** * the ADC to complete the current scan of channels. After the 
 254:Generated_Source\PSoC4/ADC.c **** * channel scan is complete, the ADC will stop all conversions, which 
 255:Generated_Source\PSoC4/ADC.c **** * can be detected by the use of an ISR or the ADC_IsEndConversion() 
 256:Generated_Source\PSoC4/ADC.c **** * flag.
 257:Generated_Source\PSoC4/ADC.c **** *
 258:Generated_Source\PSoC4/ADC.c **** * <b>Code Snippet</b>
ARM GAS  C:\Users\CHRIST~1\AppData\Local\Temp\cclwqoH0.s 			page 8


 259:Generated_Source\PSoC4/ADC.c **** *  \snippet main.c snippet_ADC_Stop
 260:Generated_Source\PSoC4/ADC.c **** *
 261:Generated_Source\PSoC4/ADC.c **** *******************************************************************************/
 262:Generated_Source\PSoC4/ADC.c **** void ADC_Stop(void)
 263:Generated_Source\PSoC4/ADC.c **** {	
 142              		.loc 1 263 0
 143              		.cfi_startproc
 144 0000 80B5     		push	{r7, lr}
 145              		.cfi_def_cfa_offset 8
 146              		.cfi_offset 7, -8
 147              		.cfi_offset 14, -4
 148 0002 00AF     		add	r7, sp, #0
 149              		.cfi_def_cfa_register 7
 264:Generated_Source\PSoC4/ADC.c ****     #if(0u != ADC_ANY_CONFIG_USES_FILTER)	
 265:Generated_Source\PSoC4/ADC.c ****     	if((ADC_allConfigs[ADC_currentConfig].miscConfig 
 266:Generated_Source\PSoC4/ADC.c ****     	   & ADC_MISC_CONFIG_FILTER_PRESENT_MSK) 
 267:Generated_Source\PSoC4/ADC.c ****     	   == ADC_MISC_CONFIG_FILTER_PRESENT_MSK)
 268:Generated_Source\PSoC4/ADC.c ****     	{
 269:Generated_Source\PSoC4/ADC.c ****     		ADC_UABH_A_Stop();
 270:Generated_Source\PSoC4/ADC.c ****     		ADC_UABH_B_Stop();
 271:Generated_Source\PSoC4/ADC.c ****             ADC_FILTERAGND2SAR_BUFFER_Stop();
 272:Generated_Source\PSoC4/ADC.c ****     	}
 273:Generated_Source\PSoC4/ADC.c ****     #endif /* ADC_ANY_CONFIG_USES_FILTER != 0u */
 274:Generated_Source\PSoC4/ADC.c ****     ADC_SAR_CTRL_REG &= (uint32)~ADC_SAR_CTRL_ENABLED_MSK;
 150              		.loc 1 274 0
 151 0004 044B     		ldr	r3, .L10
 152 0006 044A     		ldr	r2, .L10
 153 0008 1268     		ldr	r2, [r2]
 154 000a 5200     		lsl	r2, r2, #1
 155 000c 5208     		lsr	r2, r2, #1
 156 000e 1A60     		str	r2, [r3]
 275:Generated_Source\PSoC4/ADC.c ****     return;
 157              		.loc 1 275 0
 158 0010 C046     		mov	r8, r8
 276:Generated_Source\PSoC4/ADC.c **** }
 159              		.loc 1 276 0
 160 0012 BD46     		mov	sp, r7
 161              		@ sp needed
 162 0014 80BD     		pop	{r7, pc}
 163              	.L11:
 164 0016 C046     		.align	2
 165              	.L10:
 166 0018 00003A40 		.word	1077542912
 167              		.cfi_endproc
 168              	.LFE3:
 169              		.size	ADC_Stop, .-ADC_Stop
 170              		.section	.text.ADC_InitConfig,"ax",%progbits
 171              		.align	2
 172              		.global	ADC_InitConfig
 173              		.code	16
 174              		.thumb_func
 175              		.type	ADC_InitConfig, %function
 176              	ADC_InitConfig:
 177              	.LFB4:
 277:Generated_Source\PSoC4/ADC.c **** 
 278:Generated_Source\PSoC4/ADC.c **** /* ****************************************************************************
 279:Generated_Source\PSoC4/ADC.c **** * Function Name: ADC_InitConfig
ARM GAS  C:\Users\CHRIST~1\AppData\Local\Temp\cclwqoH0.s 			page 9


 280:Generated_Source\PSoC4/ADC.c **** ****************************************************************************//*
 281:Generated_Source\PSoC4/ADC.c **** *
 282:Generated_Source\PSoC4/ADC.c **** * \brief Configures all of the registers for a given configuration for scanning.
 283:Generated_Source\PSoC4/ADC.c **** *
 284:Generated_Source\PSoC4/ADC.c **** * \param scan Number of scan defined in the ADC.
 285:Generated_Source\PSoC4/ADC.c **** *
 286:Generated_Source\PSoC4/ADC.c **** * \return None
 287:Generated_Source\PSoC4/ADC.c **** *
 288:Generated_Source\PSoC4/ADC.c **** * \sideeffect None
 289:Generated_Source\PSoC4/ADC.c **** *
 290:Generated_Source\PSoC4/ADC.c **** * <b>Code Snippet</b>
 291:Generated_Source\PSoC4/ADC.c **** *  \snippet main.c snippet_ADC_InitConfig
 292:Generated_Source\PSoC4/ADC.c **** *
 293:Generated_Source\PSoC4/ADC.c **** *******************************************************************************/
 294:Generated_Source\PSoC4/ADC.c **** void ADC_InitConfig(const ADC_CONFIG_STRUCT *config)
 295:Generated_Source\PSoC4/ADC.c **** {
 178              		.loc 1 295 0
 179              		.cfi_startproc
 180 0000 80B5     		push	{r7, lr}
 181              		.cfi_def_cfa_offset 8
 182              		.cfi_offset 7, -8
 183              		.cfi_offset 14, -4
 184 0002 84B0     		sub	sp, sp, #16
 185              		.cfi_def_cfa_offset 24
 186 0004 00AF     		add	r7, sp, #0
 187              		.cfi_def_cfa_register 7
 188 0006 7860     		str	r0, [r7, #4]
 296:Generated_Source\PSoC4/ADC.c **** 	uint32 chNum;
 297:Generated_Source\PSoC4/ADC.c ****     uint32 tmpRegVal;
 298:Generated_Source\PSoC4/ADC.c **** 	
 299:Generated_Source\PSoC4/ADC.c ****     #if(0u != ADC_ANY_CONFIG_USES_FILTER)	        
 300:Generated_Source\PSoC4/ADC.c ****     	if((config->miscConfig & ADC_MISC_CONFIG_FILTER_PRESENT_MSK) 
 301:Generated_Source\PSoC4/ADC.c ****     	    == ADC_MISC_CONFIG_FILTER_PRESENT_MSK)
 302:Generated_Source\PSoC4/ADC.c ****     	{
 303:Generated_Source\PSoC4/ADC.c ****             ADC_intUabClock_SetFractionalDividerRegister(config->filterClkDivider, 0u);    		
 304:Generated_Source\PSoC4/ADC.c ****     	}
 305:Generated_Source\PSoC4/ADC.c ****     #endif /* ADC_ANY_CONFIG_USES_FILTER != 0u */
 306:Generated_Source\PSoC4/ADC.c ****     #if (ADC_CLOCK_INTERNAL)
 307:Generated_Source\PSoC4/ADC.c ****         ADC_intSarClock_SetFractionalDividerRegister(config->clkDivider, 0u);
 308:Generated_Source\PSoC4/ADC.c ****         
 309:Generated_Source\PSoC4/ADC.c ****     #endif /* ADC_CLOCK_INTERNAL */
 310:Generated_Source\PSoC4/ADC.c ****     /* Init SAR and MUX registers */
 311:Generated_Source\PSoC4/ADC.c **** 	ADC_SAR_CTRL_REG |= config->ctrl
 189              		.loc 1 311 0
 190 0008 7B68     		ldr	r3, [r7, #4]
 191 000a 9A68     		ldr	r2, [r3, #8]
 312:Generated_Source\PSoC4/ADC.c ****    
 313:Generated_Source\PSoC4/ADC.c **** 	/* Enable the SAR internal pump when global pump is enabled */
 314:Generated_Source\PSoC4/ADC.c ****     | (((ADC_PUMP_CTRL_REG & ADC_PUMP_CTRL_ENABLED) != 0u) 
 192              		.loc 1 314 0
 193 000c 474B     		ldr	r3, .L22
 194 000e 1B68     		ldr	r3, [r3]
 195 0010 002B     		cmp	r3, #0
 196 0012 02DA     		bge	.L13
 197              		.loc 1 314 0 is_stmt 0 discriminator 1
 198 0014 8023     		mov	r3, #128
 199 0016 5B03     		lsl	r3, r3, #13
ARM GAS  C:\Users\CHRIST~1\AppData\Local\Temp\cclwqoH0.s 			page 10


 200 0018 00E0     		b	.L14
 201              	.L13:
 202              		.loc 1 314 0 discriminator 2
 203 001a 0023     		mov	r3, #0
 204              	.L14:
 205              		.loc 1 314 0 discriminator 4
 206 001c 1A43     		orr	r2, r3
 207 001e 111C     		mov	r1, r2
 311:Generated_Source\PSoC4/ADC.c ****    
 208              		.loc 1 311 0 is_stmt 1 discriminator 4
 209 0020 434B     		ldr	r3, .L22+4
 210 0022 434A     		ldr	r2, .L22+4
 211 0024 1268     		ldr	r2, [r2]
 212 0026 0A43     		orr	r2, r1
 213 0028 1A60     		str	r2, [r3]
 315:Generated_Source\PSoC4/ADC.c ****     ? ADC_SAR_CTRL_BOOSTPUMP_EN_MSK : 0u);
 316:Generated_Source\PSoC4/ADC.c **** 	
 317:Generated_Source\PSoC4/ADC.c **** 	ADC_SAR_SAMPLE_CTRL_REG = config->sampleCtrl;
 214              		.loc 1 317 0 discriminator 4
 215 002a 424A     		ldr	r2, .L22+8
 216 002c 7B68     		ldr	r3, [r7, #4]
 217 002e DB68     		ldr	r3, [r3, #12]
 218 0030 1360     		str	r3, [r2]
 318:Generated_Source\PSoC4/ADC.c **** 	ADC_SAR_RANGE_THRES_REG = config->rangeThres;	
 219              		.loc 1 318 0 discriminator 4
 220 0032 414A     		ldr	r2, .L22+12
 221 0034 7B68     		ldr	r3, [r7, #4]
 222 0036 9B69     		ldr	r3, [r3, #24]
 223 0038 1360     		str	r3, [r2]
 319:Generated_Source\PSoC4/ADC.c **** 	ADC_SAR_RANGE_COND_REG = config->rangeCond;
 224              		.loc 1 319 0 discriminator 4
 225 003a 404A     		ldr	r2, .L22+16
 226 003c 7B68     		ldr	r3, [r7, #4]
 227 003e DB69     		ldr	r3, [r3, #28]
 228 0040 1360     		str	r3, [r2]
 320:Generated_Source\PSoC4/ADC.c **** 	ADC_SAR_SAMPLE_TIME01_REG = config->sampleTime01;
 229              		.loc 1 320 0 discriminator 4
 230 0042 3F4A     		ldr	r2, .L22+20
 231 0044 7B68     		ldr	r3, [r7, #4]
 232 0046 1B69     		ldr	r3, [r3, #16]
 233 0048 1360     		str	r3, [r2]
 321:Generated_Source\PSoC4/ADC.c **** 	ADC_SAR_SAMPLE_TIME23_REG = config->sampleTime23;
 234              		.loc 1 321 0 discriminator 4
 235 004a 3E4A     		ldr	r2, .L22+24
 236 004c 7B68     		ldr	r3, [r7, #4]
 237 004e 5B69     		ldr	r3, [r3, #20]
 238 0050 1360     		str	r3, [r2]
 322:Generated_Source\PSoC4/ADC.c ****     
 323:Generated_Source\PSoC4/ADC.c **** 	/* Connect Vminus to VSSA when even one channel is single-ended or multiple channels configured */
 324:Generated_Source\PSoC4/ADC.c **** 	if(1u == ADC_MUX_SWITCH0_INIT)
 325:Generated_Source\PSoC4/ADC.c **** 	{
 326:Generated_Source\PSoC4/ADC.c **** 		ADC_MUX_SWITCH0_REG |= ADC_MUX_FW_VSSA_VMINUS;
 327:Generated_Source\PSoC4/ADC.c **** 		/* Set MUX_HW_CTRL_VSSA in MUX_SWITCH_HW_CTRL when multiple channels enabled */
 328:Generated_Source\PSoC4/ADC.c **** 		if(1ul < config->numChannels)
 329:Generated_Source\PSoC4/ADC.c **** 		{
 330:Generated_Source\PSoC4/ADC.c **** 			ADC_MUX_SWITCH_HW_CTRL_REG |= ADC_MUX_FW_VSSA_VMINUS;
 331:Generated_Source\PSoC4/ADC.c **** 		}
ARM GAS  C:\Users\CHRIST~1\AppData\Local\Temp\cclwqoH0.s 			page 11


 332:Generated_Source\PSoC4/ADC.c **** 	}
 333:Generated_Source\PSoC4/ADC.c ****     
 334:Generated_Source\PSoC4/ADC.c **** 	/* Clear and set interrupt masks */
 335:Generated_Source\PSoC4/ADC.c **** 	ADC_SAR_SATURATE_INTR_MASK_REG = 0u;
 239              		.loc 1 335 0 discriminator 4
 240 0052 3D4B     		ldr	r3, .L22+28
 241 0054 0022     		mov	r2, #0
 242 0056 1A60     		str	r2, [r3]
 336:Generated_Source\PSoC4/ADC.c ****     ADC_SAR_RANGE_INTR_MASK_REG = 0u;	
 243              		.loc 1 336 0 discriminator 4
 244 0058 3C4B     		ldr	r3, .L22+32
 245 005a 0022     		mov	r2, #0
 246 005c 1A60     		str	r2, [r3]
 337:Generated_Source\PSoC4/ADC.c **** 	ADC_SAR_SATURATE_INTR_MASK_REG = config->satIntMask;
 247              		.loc 1 337 0 discriminator 4
 248 005e 3A4A     		ldr	r2, .L22+28
 249 0060 7B68     		ldr	r3, [r7, #4]
 250 0062 9B6A     		ldr	r3, [r3, #40]
 251 0064 1360     		str	r3, [r2]
 338:Generated_Source\PSoC4/ADC.c **** 	ADC_SAR_RANGE_INTR_MASK_REG = config->rangeIntMask;
 252              		.loc 1 338 0 discriminator 4
 253 0066 394A     		ldr	r2, .L22+32
 254 0068 7B68     		ldr	r3, [r7, #4]
 255 006a 5B6A     		ldr	r3, [r3, #36]
 256 006c 1360     		str	r3, [r2]
 339:Generated_Source\PSoC4/ADC.c **** 	ADC_SAR_INTR_MASK_REG = ADC_EOS_MASK;
 257              		.loc 1 339 0 discriminator 4
 258 006e 384B     		ldr	r3, .L22+36
 259 0070 0122     		mov	r2, #1
 260 0072 1A60     		str	r2, [r3]
 340:Generated_Source\PSoC4/ADC.c ****     
 341:Generated_Source\PSoC4/ADC.c **** 	/* Double the non-overlap delay and latch enable time when using */
 342:Generated_Source\PSoC4/ADC.c ****     /* internal reference without bypass cap */
 343:Generated_Source\PSoC4/ADC.c ****     tmpRegVal = ADC_SAR_DFT_CTRL_REG;
 261              		.loc 1 343 0 discriminator 4
 262 0074 374B     		ldr	r3, .L22+40
 263 0076 1B68     		ldr	r3, [r3]
 264 0078 BB60     		str	r3, [r7, #8]
 344:Generated_Source\PSoC4/ADC.c **** 	if(((config->ctrl & ADC__SAR_CTRL_VREF_BYP_AND_SEL_MSK) 
 265              		.loc 1 344 0 discriminator 4
 266 007a 7B68     		ldr	r3, [r7, #4]
 267 007c 9B68     		ldr	r3, [r3, #8]
 268 007e F022     		mov	r2, #240
 269 0080 1340     		and	r3, r2
 270 0082 402B     		cmp	r3, #64
 271 0084 04D0     		beq	.L15
 345:Generated_Source\PSoC4/ADC.c **** 	    == ADC__INTERNAL1024) 
 346:Generated_Source\PSoC4/ADC.c **** 	    || ((config->ctrl & ADC__SAR_CTRL_VREF_BYP_AND_SEL_MSK) 
 272              		.loc 1 346 0
 273 0086 7B68     		ldr	r3, [r7, #4]
 274 0088 9B68     		ldr	r3, [r3, #8]
 275 008a F022     		mov	r2, #240
 276 008c 1340     		and	r3, r2
 277 008e 08D1     		bne	.L16
 278              	.L15:
 347:Generated_Source\PSoC4/ADC.c **** 	    == ADC__INTERNALVREF))
 348:Generated_Source\PSoC4/ADC.c **** 	{
ARM GAS  C:\Users\CHRIST~1\AppData\Local\Temp\cclwqoH0.s 			page 12


 349:Generated_Source\PSoC4/ADC.c ****         tmpRegVal &= ~ADC_SAR_DFT_CTRL_DCEN_MSK;
 279              		.loc 1 349 0
 280 0090 BB68     		ldr	r3, [r7, #8]
 281 0092 314A     		ldr	r2, .L22+44
 282 0094 1340     		and	r3, r2
 283 0096 BB60     		str	r3, [r7, #8]
 350:Generated_Source\PSoC4/ADC.c **** 		tmpRegVal |= ADC_SAR_DFT_CTRL_DLY_INC_MSK;
 284              		.loc 1 350 0
 285 0098 BB68     		ldr	r3, [r7, #8]
 286 009a 0122     		mov	r2, #1
 287 009c 1343     		orr	r3, r2
 288 009e BB60     		str	r3, [r7, #8]
 289 00a0 08E0     		b	.L17
 290              	.L16:
 351:Generated_Source\PSoC4/ADC.c **** 	}
 352:Generated_Source\PSoC4/ADC.c **** 	else
 353:Generated_Source\PSoC4/ADC.c **** 	{
 354:Generated_Source\PSoC4/ADC.c **** 		tmpRegVal |= ADC_SAR_DFT_CTRL_DCEN_MSK;
 291              		.loc 1 354 0
 292 00a2 BB68     		ldr	r3, [r7, #8]
 293 00a4 8022     		mov	r2, #128
 294 00a6 9205     		lsl	r2, r2, #22
 295 00a8 1343     		orr	r3, r2
 296 00aa BB60     		str	r3, [r7, #8]
 355:Generated_Source\PSoC4/ADC.c ****         tmpRegVal &= (uint32)~ADC_SAR_DFT_CTRL_DLY_INC_MSK;
 297              		.loc 1 355 0
 298 00ac BB68     		ldr	r3, [r7, #8]
 299 00ae 0122     		mov	r2, #1
 300 00b0 9343     		bic	r3, r2
 301 00b2 BB60     		str	r3, [r7, #8]
 302              	.L17:
 356:Generated_Source\PSoC4/ADC.c **** 	}	
 357:Generated_Source\PSoC4/ADC.c **** 	ADC_SAR_DFT_CTRL_REG = tmpRegVal;
 303              		.loc 1 357 0
 304 00b4 274B     		ldr	r3, .L22+40
 305 00b6 BA68     		ldr	r2, [r7, #8]
 306 00b8 1A60     		str	r2, [r3]
 358:Generated_Source\PSoC4/ADC.c **** 	
 359:Generated_Source\PSoC4/ADC.c **** 	for(chNum = 0u; chNum < config->numChannels; chNum++)
 307              		.loc 1 359 0
 308 00ba 0023     		mov	r3, #0
 309 00bc FB60     		str	r3, [r7, #12]
 310 00be 2CE0     		b	.L18
 311              	.L20:
 360:Generated_Source\PSoC4/ADC.c ****     {
 361:Generated_Source\PSoC4/ADC.c **** 		tmpRegVal = (ADC_channelsConfig[config->channelBase + chNum] 
 312              		.loc 1 361 0
 313 00c0 7B68     		ldr	r3, [r7, #4]
 314 00c2 1A68     		ldr	r2, [r3]
 315 00c4 FB68     		ldr	r3, [r7, #12]
 316 00c6 D218     		add	r2, r2, r3
 317 00c8 244B     		ldr	r3, .L22+48
 318 00ca 9200     		lsl	r2, r2, #2
 319 00cc D358     		ldr	r3, [r2, r3]
 320 00ce 244A     		ldr	r2, .L22+52
 321 00d0 1340     		and	r3, r2
 322 00d2 BB60     		str	r3, [r7, #8]
ARM GAS  C:\Users\CHRIST~1\AppData\Local\Temp\cclwqoH0.s 			page 13


 362:Generated_Source\PSoC4/ADC.c **** 		& ADC_CHANNEL_CONFIG_MASK);
 363:Generated_Source\PSoC4/ADC.c ****         
 364:Generated_Source\PSoC4/ADC.c ****         #if(ADC_TOTAL_CHANNELS_NUM > 1)
 365:Generated_Source\PSoC4/ADC.c ****             tmpRegVal |= ADC_InputsPlacement[config->channelBase + chNum];
 323              		.loc 1 365 0
 324 00d4 7B68     		ldr	r3, [r7, #4]
 325 00d6 1A68     		ldr	r2, [r3]
 326 00d8 FB68     		ldr	r3, [r7, #12]
 327 00da D218     		add	r2, r2, r3
 328 00dc 214B     		ldr	r3, .L22+56
 329 00de 9200     		lsl	r2, r2, #2
 330 00e0 D358     		ldr	r3, [r2, r3]
 331 00e2 BA68     		ldr	r2, [r7, #8]
 332 00e4 1343     		orr	r3, r2
 333 00e6 BB60     		str	r3, [r7, #8]
 366:Generated_Source\PSoC4/ADC.c ****             /*Non-paired differential channels set NEG_ADDR_EN and clear DIFFERENTIAL_EN */
 367:Generated_Source\PSoC4/ADC.c ****             if(0u != (ADC_InputsPlacement[config->channelBase + chNum] & ADC_CHANNEL_CONFIG_NEG_ADD
 334              		.loc 1 367 0
 335 00e8 7B68     		ldr	r3, [r7, #4]
 336 00ea 1A68     		ldr	r2, [r3]
 337 00ec FB68     		ldr	r3, [r7, #12]
 338 00ee D218     		add	r2, r2, r3
 339 00f0 1C4B     		ldr	r3, .L22+56
 340 00f2 9200     		lsl	r2, r2, #2
 341 00f4 D258     		ldr	r2, [r2, r3]
 342 00f6 8023     		mov	r3, #128
 343 00f8 5B04     		lsl	r3, r3, #17
 344 00fa 1340     		and	r3, r2
 345 00fc 03D0     		beq	.L19
 368:Generated_Source\PSoC4/ADC.c ****             {
 369:Generated_Source\PSoC4/ADC.c ****                 tmpRegVal &= ~ADC_SAR_CHAN_CONFIG_DIFFERENTIAL_EN_MSK;
 346              		.loc 1 369 0
 347 00fe BB68     		ldr	r3, [r7, #8]
 348 0100 194A     		ldr	r2, .L22+60
 349 0102 1340     		and	r3, r2
 350 0104 BB60     		str	r3, [r7, #8]
 351              	.L19:
 370:Generated_Source\PSoC4/ADC.c ****             }
 371:Generated_Source\PSoC4/ADC.c ****         #endif
 372:Generated_Source\PSoC4/ADC.c ****         
 373:Generated_Source\PSoC4/ADC.c **** 		CY_SET_REG32((reg32 *)(ADC_SAR_CHAN_CONFIG_IND + (uint32)(chNum << 2)), tmpRegVal);
 352              		.loc 1 373 0 discriminator 2
 353 0106 FB68     		ldr	r3, [r7, #12]
 354 0108 9B00     		lsl	r3, r3, #2
 355 010a 184A     		ldr	r2, .L22+64
 356 010c 9446     		mov	ip, r2
 357 010e 6344     		add	r3, r3, ip
 358 0110 BA68     		ldr	r2, [r7, #8]
 359 0112 1A60     		str	r2, [r3]
 359:Generated_Source\PSoC4/ADC.c ****     {
 360              		.loc 1 359 0 discriminator 2
 361 0114 FB68     		ldr	r3, [r7, #12]
 362 0116 0133     		add	r3, r3, #1
 363 0118 FB60     		str	r3, [r7, #12]
 364              	.L18:
 359:Generated_Source\PSoC4/ADC.c ****     {
 365              		.loc 1 359 0 is_stmt 0 discriminator 1
ARM GAS  C:\Users\CHRIST~1\AppData\Local\Temp\cclwqoH0.s 			page 14


 366 011a 7B68     		ldr	r3, [r7, #4]
 367 011c 5A68     		ldr	r2, [r3, #4]
 368 011e FB68     		ldr	r3, [r7, #12]
 369 0120 9A42     		cmp	r2, r3
 370 0122 CDD8     		bhi	.L20
 374:Generated_Source\PSoC4/ADC.c **** 	}
 375:Generated_Source\PSoC4/ADC.c **** 	
 376:Generated_Source\PSoC4/ADC.c ****     return;
 371              		.loc 1 376 0 is_stmt 1
 372 0124 C046     		mov	r8, r8
 377:Generated_Source\PSoC4/ADC.c **** }
 373              		.loc 1 377 0
 374 0126 BD46     		mov	sp, r7
 375 0128 04B0     		add	sp, sp, #16
 376              		@ sp needed
 377 012a 80BD     		pop	{r7, pc}
 378              	.L23:
 379              		.align	2
 380              	.L22:
 381 012c 80033A40 		.word	1077543808
 382 0130 00003A40 		.word	1077542912
 383 0134 04003A40 		.word	1077542916
 384 0138 18003A40 		.word	1077542936
 385 013c 1C003A40 		.word	1077542940
 386 0140 10003A40 		.word	1077542928
 387 0144 14003A40 		.word	1077542932
 388 0148 28023A40 		.word	1077543464
 389 014c 38023A40 		.word	1077543480
 390 0150 18023A40 		.word	1077543448
 391 0154 30003A40 		.word	1077542960
 392 0158 FFFFFFDF 		.word	-536870913
 393 015c 00000000 		.word	ADC_channelsConfig
 394 0160 00370080 		.word	-2147469568
 395 0164 00000000 		.word	ADC_InputsPlacement
 396 0168 FFFEFFFF 		.word	-257
 397 016c 80003A40 		.word	1077543040
 398              		.cfi_endproc
 399              	.LFE4:
 400              		.size	ADC_InitConfig, .-ADC_InitConfig
 401              		.section	.text.ADC_SelectConfig,"ax",%progbits
 402              		.align	2
 403              		.global	ADC_SelectConfig
 404              		.code	16
 405              		.thumb_func
 406              		.type	ADC_SelectConfig, %function
 407              	ADC_SelectConfig:
 408              	.LFB5:
 378:Generated_Source\PSoC4/ADC.c **** 
 379:Generated_Source\PSoC4/ADC.c **** /* ****************************************************************************
 380:Generated_Source\PSoC4/ADC.c **** * Function Name: ADC_SelectConfig
 381:Generated_Source\PSoC4/ADC.c **** ****************************************************************************//* 
 382:Generated_Source\PSoC4/ADC.c **** *
 383:Generated_Source\PSoC4/ADC.c **** * \brief Selects the predefined configuration for scanning. Disables
 384:Generated_Source\PSoC4/ADC.c **** * and re-enables the SAR and filter (if filter used).
 385:Generated_Source\PSoC4/ADC.c **** * 
 386:Generated_Source\PSoC4/ADC.c **** * \param config Number of configuration  in the ADC.
 387:Generated_Source\PSoC4/ADC.c **** * 
ARM GAS  C:\Users\CHRIST~1\AppData\Local\Temp\cclwqoH0.s 			page 15


 388:Generated_Source\PSoC4/ADC.c **** * \param restart Determines if the ADC should be  restarted after 
 389:Generated_Source\PSoC4/ADC.c **** * selecting the configuration.
 390:Generated_Source\PSoC4/ADC.c **** *
 391:Generated_Source\PSoC4/ADC.c **** * \sideeffect Calls ADC_Init() to initialize 
 392:Generated_Source\PSoC4/ADC.c **** * ADC_channelEnMasks[]
 393:Generated_Source\PSoC4/ADC.c **** *
 394:Generated_Source\PSoC4/ADC.c **** * <b>Code Snippet</b>
 395:Generated_Source\PSoC4/ADC.c **** *  \snippet main.c snippet_ADC_SelectConfig
 396:Generated_Source\PSoC4/ADC.c **** *
 397:Generated_Source\PSoC4/ADC.c **** *******************************************************************************/
 398:Generated_Source\PSoC4/ADC.c **** void ADC_SelectConfig(uint32 config, uint32 restart)
 399:Generated_Source\PSoC4/ADC.c **** {
 409              		.loc 1 399 0
 410              		.cfi_startproc
 411 0000 80B5     		push	{r7, lr}
 412              		.cfi_def_cfa_offset 8
 413              		.cfi_offset 7, -8
 414              		.cfi_offset 14, -4
 415 0002 82B0     		sub	sp, sp, #8
 416              		.cfi_def_cfa_offset 16
 417 0004 00AF     		add	r7, sp, #0
 418              		.cfi_def_cfa_register 7
 419 0006 7860     		str	r0, [r7, #4]
 420 0008 3960     		str	r1, [r7]
 400:Generated_Source\PSoC4/ADC.c ****     /* Check whether the configuration number is valid or not */
 401:Generated_Source\PSoC4/ADC.c ****     if(ADC_TOTAL_CONFIGS > config)
 421              		.loc 1 401 0
 422 000a 7B68     		ldr	r3, [r7, #4]
 423 000c 002B     		cmp	r3, #0
 424 000e 22D1     		bne	.L25
 402:Generated_Source\PSoC4/ADC.c ****     {
 403:Generated_Source\PSoC4/ADC.c ****         /* Stop the ADC before changing configurations */
 404:Generated_Source\PSoC4/ADC.c **** 	    ADC_Stop();
 425              		.loc 1 404 0
 426 0010 FFF7FEFF 		bl	ADC_Stop
 405:Generated_Source\PSoC4/ADC.c ****         ADC_selected = 1u;
 427              		.loc 1 405 0
 428 0014 124B     		ldr	r3, .L28
 429 0016 0122     		mov	r2, #1
 430 0018 1A70     		strb	r2, [r3]
 406:Generated_Source\PSoC4/ADC.c ****         
 407:Generated_Source\PSoC4/ADC.c ****     	if(0u == ADC_initVar)
 431              		.loc 1 407 0
 432 001a 124B     		ldr	r3, .L28+4
 433 001c 1B78     		ldrb	r3, [r3]
 434 001e 002B     		cmp	r3, #0
 435 0020 01D1     		bne	.L26
 408:Generated_Source\PSoC4/ADC.c ****     	{
 409:Generated_Source\PSoC4/ADC.c ****             ADC_Init();
 436              		.loc 1 409 0
 437 0022 FFF7FEFF 		bl	ADC_Init
 438              	.L26:
 410:Generated_Source\PSoC4/ADC.c ****     	}
 411:Generated_Source\PSoC4/ADC.c ****         #if (ADC_VREF_ROUTED)
 412:Generated_Source\PSoC4/ADC.c ****         ADC_vrefAMux_Select((uint8)config);
 413:Generated_Source\PSoC4/ADC.c ****         #endif
 414:Generated_Source\PSoC4/ADC.c ****     	ADC_InitConfig(&ADC_allConfigs[config]);
ARM GAS  C:\Users\CHRIST~1\AppData\Local\Temp\cclwqoH0.s 			page 16


 439              		.loc 1 414 0
 440 0026 7B68     		ldr	r3, [r7, #4]
 441 0028 3422     		mov	r2, #52
 442 002a 5A43     		mul	r2, r3
 443 002c 0E4B     		ldr	r3, .L28+8
 444 002e D318     		add	r3, r2, r3
 445 0030 181C     		mov	r0, r3
 446 0032 FFF7FEFF 		bl	ADC_InitConfig
 415:Generated_Source\PSoC4/ADC.c ****         #if(0u != ADC_ANY_CONFIG_USES_FILTER)
 416:Generated_Source\PSoC4/ADC.c ****         ADC_filterVinMux_Select((uint8)config);
 417:Generated_Source\PSoC4/ADC.c ****         #endif
 418:Generated_Source\PSoC4/ADC.c ****     	ADC_SAR_CHAN_EN_REG = ADC_channelEnMasks[config];
 447              		.loc 1 418 0
 448 0036 0D4B     		ldr	r3, .L28+12
 449 0038 0D4A     		ldr	r2, .L28+16
 450 003a 7968     		ldr	r1, [r7, #4]
 451 003c 8900     		lsl	r1, r1, #2
 452 003e 8A58     		ldr	r2, [r1, r2]
 453 0040 1A60     		str	r2, [r3]
 419:Generated_Source\PSoC4/ADC.c ****     	ADC_currentConfig = config;
 454              		.loc 1 419 0
 455 0042 0C4B     		ldr	r3, .L28+20
 456 0044 7A68     		ldr	r2, [r7, #4]
 457 0046 1A60     		str	r2, [r3]
 420:Generated_Source\PSoC4/ADC.c ****         
 421:Generated_Source\PSoC4/ADC.c ****         if(1u == restart)
 458              		.loc 1 421 0
 459 0048 3B68     		ldr	r3, [r7]
 460 004a 012B     		cmp	r3, #1
 461 004c 03D1     		bne	.L25
 422:Generated_Source\PSoC4/ADC.c ****         {
 423:Generated_Source\PSoC4/ADC.c ****             /* Restart the ADC */    
 424:Generated_Source\PSoC4/ADC.c ****             ADC_Start();
 462              		.loc 1 424 0
 463 004e FFF7FEFF 		bl	ADC_Start
 425:Generated_Source\PSoC4/ADC.c ****             
 426:Generated_Source\PSoC4/ADC.c ****             /* Restart the scan */
 427:Generated_Source\PSoC4/ADC.c ****             ADC_StartConvert();
 464              		.loc 1 427 0
 465 0052 FFF7FEFF 		bl	ADC_StartConvert
 466              	.L25:
 428:Generated_Source\PSoC4/ADC.c ****         }
 429:Generated_Source\PSoC4/ADC.c ****     }
 430:Generated_Source\PSoC4/ADC.c ****     return;
 467              		.loc 1 430 0
 468 0056 C046     		mov	r8, r8
 431:Generated_Source\PSoC4/ADC.c **** }
 469              		.loc 1 431 0
 470 0058 BD46     		mov	sp, r7
 471 005a 02B0     		add	sp, sp, #8
 472              		@ sp needed
 473 005c 80BD     		pop	{r7, pc}
 474              	.L29:
 475 005e C046     		.align	2
 476              	.L28:
 477 0060 00000000 		.word	ADC_selected
 478 0064 00000000 		.word	ADC_initVar
ARM GAS  C:\Users\CHRIST~1\AppData\Local\Temp\cclwqoH0.s 			page 17


 479 0068 00000000 		.word	ADC_allConfigs
 480 006c 20003A40 		.word	1077542944
 481 0070 08000000 		.word	ADC_channelEnMasks
 482 0074 04000000 		.word	ADC_currentConfig
 483              		.cfi_endproc
 484              	.LFE5:
 485              		.size	ADC_SelectConfig, .-ADC_SelectConfig
 486              		.section	.text.ADC_StartConvert,"ax",%progbits
 487              		.align	2
 488              		.global	ADC_StartConvert
 489              		.code	16
 490              		.thumb_func
 491              		.type	ADC_StartConvert, %function
 492              	ADC_StartConvert:
 493              	.LFB6:
 432:Generated_Source\PSoC4/ADC.c **** 
 433:Generated_Source\PSoC4/ADC.c **** /*******************************************************************************
 434:Generated_Source\PSoC4/ADC.c **** * Function Name: ADC_StartConvert
 435:Generated_Source\PSoC4/ADC.c **** ****************************************************************************//**
 436:Generated_Source\PSoC4/ADC.c **** *
 437:Generated_Source\PSoC4/ADC.c **** * \brief In continuous mode, this API starts the conversion process and it runs 
 438:Generated_Source\PSoC4/ADC.c **** * continuously. 
 439:Generated_Source\PSoC4/ADC.c **** 
 440:Generated_Source\PSoC4/ADC.c **** * In Single Shot mode, the function triggers a single scan and 
 441:Generated_Source\PSoC4/ADC.c **** * every scan requires a call of this function. The mode is set with the 
 442:Generated_Source\PSoC4/ADC.c **** * Sample Mode parameter in the customizer. The customizer setting can be 
 443:Generated_Source\PSoC4/ADC.c **** * overridden at run time with the ADC_SetConvertMode() function.
 444:Generated_Source\PSoC4/ADC.c **** * 
 445:Generated_Source\PSoC4/ADC.c **** * \param None
 446:Generated_Source\PSoC4/ADC.c **** * 
 447:Generated_Source\PSoC4/ADC.c **** * \return None
 448:Generated_Source\PSoC4/ADC.c **** * 
 449:Generated_Source\PSoC4/ADC.c **** * \sideeffect None
 450:Generated_Source\PSoC4/ADC.c **** *
 451:Generated_Source\PSoC4/ADC.c **** * <b>Code Snippet</b>
 452:Generated_Source\PSoC4/ADC.c **** *  \snippet main.c snippet_ADC_StartConvert
 453:Generated_Source\PSoC4/ADC.c **** *
 454:Generated_Source\PSoC4/ADC.c **** *******************************************************************************/
 455:Generated_Source\PSoC4/ADC.c **** void ADC_StartConvert(void)
 456:Generated_Source\PSoC4/ADC.c **** {
 494              		.loc 1 456 0
 495              		.cfi_startproc
 496 0000 80B5     		push	{r7, lr}
 497              		.cfi_def_cfa_offset 8
 498              		.cfi_offset 7, -8
 499              		.cfi_offset 14, -4
 500 0002 00AF     		add	r7, sp, #0
 501              		.cfi_def_cfa_register 7
 457:Generated_Source\PSoC4/ADC.c **** 	/* Freerunning mode */
 458:Generated_Source\PSoC4/ADC.c **** 	if((ADC_SAR_SAMPLE_CTRL_REG 
 502              		.loc 1 458 0
 503 0004 094B     		ldr	r3, .L34
 504 0006 1A68     		ldr	r2, [r3]
 459:Generated_Source\PSoC4/ADC.c **** 		& ADC_SAR_SAMPLE_CTRL_DSI_TRIGGER_LEVEL_MSK) 
 505              		.loc 1 459 0
 506 0008 8023     		mov	r3, #128
 507 000a DB02     		lsl	r3, r3, #11
ARM GAS  C:\Users\CHRIST~1\AppData\Local\Temp\cclwqoH0.s 			page 18


 508 000c 1340     		and	r3, r2
 458:Generated_Source\PSoC4/ADC.c **** 		& ADC_SAR_SAMPLE_CTRL_DSI_TRIGGER_LEVEL_MSK) 
 509              		.loc 1 458 0
 510 000e 07D0     		beq	.L31
 460:Generated_Source\PSoC4/ADC.c **** 		== ADC_SAR_SAMPLE_CTRL_DSI_TRIGGER_LEVEL_MSK)
 461:Generated_Source\PSoC4/ADC.c ****     {
 462:Generated_Source\PSoC4/ADC.c **** 		ADC_SAR_SAMPLE_CTRL_REG |= ADC_SAR_SAMPLE_CTRL_CONTINUOUS_MSK ; 
 511              		.loc 1 462 0
 512 0010 064B     		ldr	r3, .L34
 513 0012 064A     		ldr	r2, .L34
 514 0014 1268     		ldr	r2, [r2]
 515 0016 8021     		mov	r1, #128
 516 0018 4902     		lsl	r1, r1, #9
 517 001a 0A43     		orr	r2, r1
 518 001c 1A60     		str	r2, [r3]
 519 001e 02E0     		b	.L32
 520              	.L31:
 463:Generated_Source\PSoC4/ADC.c ****         #if (ADC_ANY_CONFIG_USES_FILTER)
 464:Generated_Source\PSoC4/ADC.c ****             if (0u == (ADC_initVar & 0x2u))
 465:Generated_Source\PSoC4/ADC.c ****             {
 466:Generated_Source\PSoC4/ADC.c ****                 ADC_initVar |= 0x2u;
 467:Generated_Source\PSoC4/ADC.c ****                 ADC_TrimOffset();
 468:Generated_Source\PSoC4/ADC.c ****             }
 469:Generated_Source\PSoC4/ADC.c ****         #endif /* (ADC_ANY_CONFIG_USES_FILTER && (CFG0_FILTER_TYPE == LOW_PASS)) */
 470:Generated_Source\PSoC4/ADC.c **** 	}
 471:Generated_Source\PSoC4/ADC.c **** 	else /* Firmware trigger */
 472:Generated_Source\PSoC4/ADC.c **** 	{
 473:Generated_Source\PSoC4/ADC.c **** 		ADC_SAR_START_CTRL_REG = ADC_SAR_START_CTRL_FW_TRIGGER_MSK;
 521              		.loc 1 473 0
 522 0020 034B     		ldr	r3, .L34+4
 523 0022 0122     		mov	r2, #1
 524 0024 1A60     		str	r2, [r3]
 525              	.L32:
 474:Generated_Source\PSoC4/ADC.c **** 	}
 475:Generated_Source\PSoC4/ADC.c ****     
 476:Generated_Source\PSoC4/ADC.c ****     return;
 526              		.loc 1 476 0
 527 0026 C046     		mov	r8, r8
 477:Generated_Source\PSoC4/ADC.c **** }
 528              		.loc 1 477 0
 529 0028 BD46     		mov	sp, r7
 530              		@ sp needed
 531 002a 80BD     		pop	{r7, pc}
 532              	.L35:
 533              		.align	2
 534              	.L34:
 535 002c 04003A40 		.word	1077542916
 536 0030 24003A40 		.word	1077542948
 537              		.cfi_endproc
 538              	.LFE6:
 539              		.size	ADC_StartConvert, .-ADC_StartConvert
 540              		.section	.text.ADC_StopConvert,"ax",%progbits
 541              		.align	2
 542              		.global	ADC_StopConvert
 543              		.code	16
 544              		.thumb_func
 545              		.type	ADC_StopConvert, %function
ARM GAS  C:\Users\CHRIST~1\AppData\Local\Temp\cclwqoH0.s 			page 19


 546              	ADC_StopConvert:
 547              	.LFB7:
 478:Generated_Source\PSoC4/ADC.c **** 
 479:Generated_Source\PSoC4/ADC.c **** /*******************************************************************************
 480:Generated_Source\PSoC4/ADC.c **** * Function Name: ADC_StopConvert
 481:Generated_Source\PSoC4/ADC.c **** ****************************************************************************//**
 482:Generated_Source\PSoC4/ADC.c **** *
 483:Generated_Source\PSoC4/ADC.c **** * \brief Forces the ADC to stop conversions. If a conversion is 
 484:Generated_Source\PSoC4/ADC.c **** * currently executing, that conversion will complete, but no further conversions 
 485:Generated_Source\PSoC4/ADC.c **** * will occur.
 486:Generated_Source\PSoC4/ADC.c **** * 
 487:Generated_Source\PSoC4/ADC.c **** * \param None
 488:Generated_Source\PSoC4/ADC.c **** *
 489:Generated_Source\PSoC4/ADC.c **** * \return None
 490:Generated_Source\PSoC4/ADC.c **** *
 491:Generated_Source\PSoC4/ADC.c **** * \sideeffect None
 492:Generated_Source\PSoC4/ADC.c **** *
 493:Generated_Source\PSoC4/ADC.c **** * <b>Code Snippet</b>
 494:Generated_Source\PSoC4/ADC.c **** *  \snippet main.c snippet_ADC_StopConvert
 495:Generated_Source\PSoC4/ADC.c **** *
 496:Generated_Source\PSoC4/ADC.c **** *******************************************************************************/
 497:Generated_Source\PSoC4/ADC.c **** void ADC_StopConvert(void)
 498:Generated_Source\PSoC4/ADC.c **** {
 548              		.loc 1 498 0
 549              		.cfi_startproc
 550 0000 80B5     		push	{r7, lr}
 551              		.cfi_def_cfa_offset 8
 552              		.cfi_offset 7, -8
 553              		.cfi_offset 14, -4
 554 0002 00AF     		add	r7, sp, #0
 555              		.cfi_def_cfa_register 7
 499:Generated_Source\PSoC4/ADC.c ****     if((ADC_SAR_SAMPLE_CTRL_REG  
 556              		.loc 1 499 0
 557 0004 0E4B     		ldr	r3, .L39
 558 0006 1A68     		ldr	r2, [r3]
 500:Generated_Source\PSoC4/ADC.c **** 		& ADC_SAR_SAMPLE_CTRL_DSI_TRIGGER_LEVEL_MSK) 
 559              		.loc 1 500 0
 560 0008 8023     		mov	r3, #128
 561 000a DB02     		lsl	r3, r3, #11
 562 000c 1340     		and	r3, r2
 499:Generated_Source\PSoC4/ADC.c ****     if((ADC_SAR_SAMPLE_CTRL_REG  
 563              		.loc 1 499 0
 564 000e 14D0     		beq	.L37
 501:Generated_Source\PSoC4/ADC.c **** 		== ADC_SAR_SAMPLE_CTRL_DSI_TRIGGER_LEVEL_MSK)
 502:Generated_Source\PSoC4/ADC.c **** 	{
 503:Generated_Source\PSoC4/ADC.c ****         ADC_SAR_SAMPLE_CTRL_REG &= ~ADC_SAR_SAMPLE_CTRL_CONTINUOUS_MSK;
 565              		.loc 1 503 0
 566 0010 0B4B     		ldr	r3, .L39
 567 0012 0B4A     		ldr	r2, .L39
 568 0014 1268     		ldr	r2, [r2]
 569 0016 0B49     		ldr	r1, .L39+4
 570 0018 0A40     		and	r2, r1
 571 001a 1A60     		str	r2, [r3]
 504:Generated_Source\PSoC4/ADC.c ****         
 505:Generated_Source\PSoC4/ADC.c ****         if((ADC_allConfigs[ADC_currentConfig].miscConfig 
 572              		.loc 1 505 0
 573 001c 0A4B     		ldr	r3, .L39+8
ARM GAS  C:\Users\CHRIST~1\AppData\Local\Temp\cclwqoH0.s 			page 20


 574 001e 1B68     		ldr	r3, [r3]
 575 0020 0A4A     		ldr	r2, .L39+12
 576 0022 3421     		mov	r1, #52
 577 0024 4B43     		mul	r3, r1
 578 0026 D318     		add	r3, r2, r3
 579 0028 3033     		add	r3, r3, #48
 580 002a 1B68     		ldr	r3, [r3]
 506:Generated_Source\PSoC4/ADC.c ****             & ADC_MISC_CONFIG_FILTER_PRESENT_MSK) 
 581              		.loc 1 506 0
 582 002c 0222     		mov	r2, #2
 583 002e 1340     		and	r3, r2
 505:Generated_Source\PSoC4/ADC.c ****             & ADC_MISC_CONFIG_FILTER_PRESENT_MSK) 
 584              		.loc 1 505 0
 585 0030 03D0     		beq	.L37
 507:Generated_Source\PSoC4/ADC.c ****     	    == ADC_MISC_CONFIG_FILTER_PRESENT_MSK)
 508:Generated_Source\PSoC4/ADC.c ****         {
 509:Generated_Source\PSoC4/ADC.c ****             /* Re-synchronize the Filter if a filter is present */
 510:Generated_Source\PSoC4/ADC.c ****             ADC_Stop();
 586              		.loc 1 510 0
 587 0032 FFF7FEFF 		bl	ADC_Stop
 511:Generated_Source\PSoC4/ADC.c ****             ADC_Start();
 588              		.loc 1 511 0
 589 0036 FFF7FEFF 		bl	ADC_Start
 590              	.L37:
 512:Generated_Source\PSoC4/ADC.c ****         }
 513:Generated_Source\PSoC4/ADC.c **** 	}
 514:Generated_Source\PSoC4/ADC.c ****     
 515:Generated_Source\PSoC4/ADC.c ****     return;
 591              		.loc 1 515 0
 592 003a C046     		mov	r8, r8
 516:Generated_Source\PSoC4/ADC.c **** }
 593              		.loc 1 516 0
 594 003c BD46     		mov	sp, r7
 595              		@ sp needed
 596 003e 80BD     		pop	{r7, pc}
 597              	.L40:
 598              		.align	2
 599              	.L39:
 600 0040 04003A40 		.word	1077542916
 601 0044 FFFFFEFF 		.word	-65537
 602 0048 04000000 		.word	ADC_currentConfig
 603 004c 00000000 		.word	ADC_allConfigs
 604              		.cfi_endproc
 605              	.LFE7:
 606              		.size	ADC_StopConvert, .-ADC_StopConvert
 607              		.section	.text.ADC_SetConvertMode,"ax",%progbits
 608              		.align	2
 609              		.global	ADC_SetConvertMode
 610              		.code	16
 611              		.thumb_func
 612              		.type	ADC_SetConvertMode, %function
 613              	ADC_SetConvertMode:
 614              	.LFB8:
 517:Generated_Source\PSoC4/ADC.c **** /*******************************************************************************
 518:Generated_Source\PSoC4/ADC.c **** * Function Name: ADC_SetConvertMode
 519:Generated_Source\PSoC4/ADC.c **** ****************************************************************************//**
 520:Generated_Source\PSoC4/ADC.c **** *
ARM GAS  C:\Users\CHRIST~1\AppData\Local\Temp\cclwqoH0.s 			page 21


 521:Generated_Source\PSoC4/ADC.c **** * \brief Sets the conversion mode to either Single-Shot or continuous. This 
 522:Generated_Source\PSoC4/ADC.c **** * function overrides the settings applied in the customizer. Changing 
 523:Generated_Source\PSoC4/ADC.c **** * configurations will restore the values set in the customizer.
 524:Generated_Source\PSoC4/ADC.c **** *
 525:Generated_Source\PSoC4/ADC.c **** * \param mode Sets the conversion mode. See table below for details.
 526:Generated_Source\PSoC4/ADC.c **** * | Options                          | Description                             |
 527:Generated_Source\PSoC4/ADC.c **** * | :------------------------------- | :-------------------------------------- |
 528:Generated_Source\PSoC4/ADC.c **** * | ADC_SINGLE_SHOT     | Calling the ADC_StartConvert() function after setting mode this will trig
 529:Generated_Source\PSoC4/ADC.c **** * | ADC_CONTINUOUS      | Calling the ADC_StartConvert() function after setting this mode trigger c
 530:Generated_Source\PSoC4/ADC.c **** *
 531:Generated_Source\PSoC4/ADC.c **** * \return None
 532:Generated_Source\PSoC4/ADC.c **** * 
 533:Generated_Source\PSoC4/ADC.c **** * \sideeffect None
 534:Generated_Source\PSoC4/ADC.c **** *
 535:Generated_Source\PSoC4/ADC.c **** * <b>Code Snippet</b>
 536:Generated_Source\PSoC4/ADC.c **** *  \snippet main.c snippet_ADC_SetConvertMode
 537:Generated_Source\PSoC4/ADC.c **** *
 538:Generated_Source\PSoC4/ADC.c **** *******************************************************************************/
 539:Generated_Source\PSoC4/ADC.c **** void ADC_SetConvertMode(uint32 mode)
 540:Generated_Source\PSoC4/ADC.c **** {
 615              		.loc 1 540 0
 616              		.cfi_startproc
 617 0000 80B5     		push	{r7, lr}
 618              		.cfi_def_cfa_offset 8
 619              		.cfi_offset 7, -8
 620              		.cfi_offset 14, -4
 621 0002 82B0     		sub	sp, sp, #8
 622              		.cfi_def_cfa_offset 16
 623 0004 00AF     		add	r7, sp, #0
 624              		.cfi_def_cfa_register 7
 625 0006 7860     		str	r0, [r7, #4]
 541:Generated_Source\PSoC4/ADC.c ****     if(ADC_CONTINUOUS == mode)
 626              		.loc 1 541 0
 627 0008 7B68     		ldr	r3, [r7, #4]
 628 000a 012B     		cmp	r3, #1
 629 000c 07D1     		bne	.L42
 542:Generated_Source\PSoC4/ADC.c ****     {
 543:Generated_Source\PSoC4/ADC.c ****         ADC_SAR_SAMPLE_CTRL_REG |= ADC_SAR_SAMPLE_CTRL_DSI_TRIGGER_LEVEL_MSK;       
 630              		.loc 1 543 0
 631 000e 084B     		ldr	r3, .L44
 632 0010 074A     		ldr	r2, .L44
 633 0012 1268     		ldr	r2, [r2]
 634 0014 8021     		mov	r1, #128
 635 0016 C902     		lsl	r1, r1, #11
 636 0018 0A43     		orr	r2, r1
 637 001a 1A60     		str	r2, [r3]
 638 001c 05E0     		b	.L41
 639              	.L42:
 544:Generated_Source\PSoC4/ADC.c ****     }
 545:Generated_Source\PSoC4/ADC.c ****     else
 546:Generated_Source\PSoC4/ADC.c ****     {
 547:Generated_Source\PSoC4/ADC.c ****         ADC_SAR_SAMPLE_CTRL_REG &= ~ADC_SAR_SAMPLE_CTRL_DSI_TRIGGER_LEVEL_MSK;       
 640              		.loc 1 547 0
 641 001e 044B     		ldr	r3, .L44
 642 0020 034A     		ldr	r2, .L44
 643 0022 1268     		ldr	r2, [r2]
 644 0024 0349     		ldr	r1, .L44+4
ARM GAS  C:\Users\CHRIST~1\AppData\Local\Temp\cclwqoH0.s 			page 22


 645 0026 0A40     		and	r2, r1
 646 0028 1A60     		str	r2, [r3]
 647              	.L41:
 548:Generated_Source\PSoC4/ADC.c ****     }
 549:Generated_Source\PSoC4/ADC.c **** }
 648              		.loc 1 549 0
 649 002a BD46     		mov	sp, r7
 650 002c 02B0     		add	sp, sp, #8
 651              		@ sp needed
 652 002e 80BD     		pop	{r7, pc}
 653              	.L45:
 654              		.align	2
 655              	.L44:
 656 0030 04003A40 		.word	1077542916
 657 0034 FFFFFBFF 		.word	-262145
 658              		.cfi_endproc
 659              	.LFE8:
 660              		.size	ADC_SetConvertMode, .-ADC_SetConvertMode
 661              		.section	.text.ADC_SetEosMask,"ax",%progbits
 662              		.align	2
 663              		.global	ADC_SetEosMask
 664              		.code	16
 665              		.thumb_func
 666              		.type	ADC_SetEosMask, %function
 667              	ADC_SetEosMask:
 668              	.LFB9:
 550:Generated_Source\PSoC4/ADC.c **** /* ****************************************************************************
 551:Generated_Source\PSoC4/ADC.c **** * Function Name: ADC_IRQ_Enable
 552:Generated_Source\PSoC4/ADC.c **** ****************************************************************************//*
 553:Generated_Source\PSoC4/ADC.c **** *
 554:Generated_Source\PSoC4/ADC.c **** * \brief Enables interrupts to occur at the end of a conversion. Global 
 555:Generated_Source\PSoC4/ADC.c **** * interrupts must also be enabled for the ADC interrupts to occur.
 556:Generated_Source\PSoC4/ADC.c **** *
 557:Generated_Source\PSoC4/ADC.c **** * \param None
 558:Generated_Source\PSoC4/ADC.c **** *
 559:Generated_Source\PSoC4/ADC.c **** * \return None
 560:Generated_Source\PSoC4/ADC.c **** *
 561:Generated_Source\PSoC4/ADC.c **** * \sideeffect None
 562:Generated_Source\PSoC4/ADC.c **** *
 563:Generated_Source\PSoC4/ADC.c **** * <b>Code Snippet</b>
 564:Generated_Source\PSoC4/ADC.c **** *  \snippet main.c snippet_ADC_IRQ_Enable
 565:Generated_Source\PSoC4/ADC.c **** *
 566:Generated_Source\PSoC4/ADC.c **** *******************************************************************************/
 567:Generated_Source\PSoC4/ADC.c **** 
 568:Generated_Source\PSoC4/ADC.c **** 
 569:Generated_Source\PSoC4/ADC.c **** /* ****************************************************************************
 570:Generated_Source\PSoC4/ADC.c **** * Function Name: ADC_IRQ_Disable
 571:Generated_Source\PSoC4/ADC.c **** ****************************************************************************//* 
 572:Generated_Source\PSoC4/ADC.c **** *
 573:Generated_Source\PSoC4/ADC.c **** * \brief Disables end of conversion interrupts. 
 574:Generated_Source\PSoC4/ADC.c **** *
 575:Generated_Source\PSoC4/ADC.c **** * \param None
 576:Generated_Source\PSoC4/ADC.c **** * 
 577:Generated_Source\PSoC4/ADC.c **** * \return None
 578:Generated_Source\PSoC4/ADC.c **** * 
 579:Generated_Source\PSoC4/ADC.c **** * \sideeffect None
 580:Generated_Source\PSoC4/ADC.c **** *
ARM GAS  C:\Users\CHRIST~1\AppData\Local\Temp\cclwqoH0.s 			page 23


 581:Generated_Source\PSoC4/ADC.c **** * <b>Code Snippet</b>
 582:Generated_Source\PSoC4/ADC.c **** *  \snippet main.c snippet_ADC_IRQ_Disable
 583:Generated_Source\PSoC4/ADC.c **** *
 584:Generated_Source\PSoC4/ADC.c **** *******************************************************************************/
 585:Generated_Source\PSoC4/ADC.c **** 
 586:Generated_Source\PSoC4/ADC.c **** 
 587:Generated_Source\PSoC4/ADC.c **** /*******************************************************************************
 588:Generated_Source\PSoC4/ADC.c **** * Function Name: ADC_SetEosMask
 589:Generated_Source\PSoC4/ADC.c **** ****************************************************************************//**
 590:Generated_Source\PSoC4/ADC.c **** *
 591:Generated_Source\PSoC4/ADC.c **** * \brief Sets of clears the End of Scan (EOS) interrupt mask. 
 592:Generated_Source\PSoC4/ADC.c **** *
 593:Generated_Source\PSoC4/ADC.c **** * \param mask 1 to set the mask, 0 to clear the mask.
 594:Generated_Source\PSoC4/ADC.c **** *
 595:Generated_Source\PSoC4/ADC.c **** * \return None
 596:Generated_Source\PSoC4/ADC.c **** * 
 597:Generated_Source\PSoC4/ADC.c **** * \sideeffect All other bits in the INTR register are cleared by this function.
 598:Generated_Source\PSoC4/ADC.c **** *
 599:Generated_Source\PSoC4/ADC.c **** * <b>Code Snippet</b>
 600:Generated_Source\PSoC4/ADC.c **** *  \snippet main.c snippet_ADC_SetEosMask
 601:Generated_Source\PSoC4/ADC.c **** *
 602:Generated_Source\PSoC4/ADC.c **** *******************************************************************************/
 603:Generated_Source\PSoC4/ADC.c **** void ADC_SetEosMask(uint32 mask)
 604:Generated_Source\PSoC4/ADC.c **** {
 669              		.loc 1 604 0
 670              		.cfi_startproc
 671 0000 80B5     		push	{r7, lr}
 672              		.cfi_def_cfa_offset 8
 673              		.cfi_offset 7, -8
 674              		.cfi_offset 14, -4
 675 0002 82B0     		sub	sp, sp, #8
 676              		.cfi_def_cfa_offset 16
 677 0004 00AF     		add	r7, sp, #0
 678              		.cfi_def_cfa_register 7
 679 0006 7860     		str	r0, [r7, #4]
 605:Generated_Source\PSoC4/ADC.c ****     ADC_SAR_INTR_MASK_REG = mask & ADC_EOS_MASK;
 680              		.loc 1 605 0
 681 0008 044B     		ldr	r3, .L48
 682 000a 7A68     		ldr	r2, [r7, #4]
 683 000c 0121     		mov	r1, #1
 684 000e 0A40     		and	r2, r1
 685 0010 1A60     		str	r2, [r3]
 606:Generated_Source\PSoC4/ADC.c ****     
 607:Generated_Source\PSoC4/ADC.c ****     return;
 686              		.loc 1 607 0
 687 0012 C046     		mov	r8, r8
 608:Generated_Source\PSoC4/ADC.c **** }
 688              		.loc 1 608 0
 689 0014 BD46     		mov	sp, r7
 690 0016 02B0     		add	sp, sp, #8
 691              		@ sp needed
 692 0018 80BD     		pop	{r7, pc}
 693              	.L49:
 694 001a C046     		.align	2
 695              	.L48:
 696 001c 18023A40 		.word	1077543448
 697              		.cfi_endproc
ARM GAS  C:\Users\CHRIST~1\AppData\Local\Temp\cclwqoH0.s 			page 24


 698              	.LFE9:
 699              		.size	ADC_SetEosMask, .-ADC_SetEosMask
 700              		.section	.text.ADC_SetChanMask,"ax",%progbits
 701              		.align	2
 702              		.global	ADC_SetChanMask
 703              		.code	16
 704              		.thumb_func
 705              		.type	ADC_SetChanMask, %function
 706              	ADC_SetChanMask:
 707              	.LFB10:
 609:Generated_Source\PSoC4/ADC.c **** 
 610:Generated_Source\PSoC4/ADC.c **** /* ****************************************************************************
 611:Generated_Source\PSoC4/ADC.c **** * Function Name: ADC_SetChanMask
 612:Generated_Source\PSoC4/ADC.c **** ****************************************************************************//*
 613:Generated_Source\PSoC4/ADC.c **** *
 614:Generated_Source\PSoC4/ADC.c **** * \brief Sets enable/disable mask for all channels.
 615:Generated_Source\PSoC4/ADC.c **** *
 616:Generated_Source\PSoC4/ADC.c **** *
 617:Generated_Source\PSoC4/ADC.c **** * \param chanMask
 618:Generated_Source\PSoC4/ADC.c **** *  Channel mask.
 619:Generated_Source\PSoC4/ADC.c **** *
 620:Generated_Source\PSoC4/ADC.c **** * \sideeffect
 621:Generated_Source\PSoC4/ADC.c **** *  None.
 622:Generated_Source\PSoC4/ADC.c **** *
 623:Generated_Source\PSoC4/ADC.c **** * <b>Code Snippet</b>
 624:Generated_Source\PSoC4/ADC.c **** *  \snippet main.c snippet_ADC_SetChanMask
 625:Generated_Source\PSoC4/ADC.c **** *
 626:Generated_Source\PSoC4/ADC.c **** *******************************************************************************/
 627:Generated_Source\PSoC4/ADC.c **** void ADC_SetChanMask(uint32 chanMask)
 628:Generated_Source\PSoC4/ADC.c **** {
 708              		.loc 1 628 0
 709              		.cfi_startproc
 710 0000 80B5     		push	{r7, lr}
 711              		.cfi_def_cfa_offset 8
 712              		.cfi_offset 7, -8
 713              		.cfi_offset 14, -4
 714 0002 82B0     		sub	sp, sp, #8
 715              		.cfi_def_cfa_offset 16
 716 0004 00AF     		add	r7, sp, #0
 717              		.cfi_def_cfa_register 7
 718 0006 7860     		str	r0, [r7, #4]
 629:Generated_Source\PSoC4/ADC.c ****     ADC_SAR_CHAN_EN_REG = chanMask & ADC_MAX_CHANNELS_EN_MASK;
 719              		.loc 1 629 0
 720 0008 084B     		ldr	r3, .L52
 721 000a 7A68     		ldr	r2, [r7, #4]
 722 000c 7F21     		mov	r1, #127
 723 000e 0A40     		and	r2, r1
 724 0010 1A60     		str	r2, [r3]
 630:Generated_Source\PSoC4/ADC.c ****     ADC_channelEnMasks[ADC_currentConfig] = chanMask & ADC_MAX_CHANNELS_EN_MASK;
 725              		.loc 1 630 0
 726 0012 074B     		ldr	r3, .L52+4
 727 0014 1A68     		ldr	r2, [r3]
 728 0016 7B68     		ldr	r3, [r7, #4]
 729 0018 7F21     		mov	r1, #127
 730 001a 1940     		and	r1, r3
 731 001c 054B     		ldr	r3, .L52+8
 732 001e 9200     		lsl	r2, r2, #2
ARM GAS  C:\Users\CHRIST~1\AppData\Local\Temp\cclwqoH0.s 			page 25


 733 0020 D150     		str	r1, [r2, r3]
 631:Generated_Source\PSoC4/ADC.c ****     return;
 734              		.loc 1 631 0
 735 0022 C046     		mov	r8, r8
 632:Generated_Source\PSoC4/ADC.c **** }
 736              		.loc 1 632 0
 737 0024 BD46     		mov	sp, r7
 738 0026 02B0     		add	sp, sp, #8
 739              		@ sp needed
 740 0028 80BD     		pop	{r7, pc}
 741              	.L53:
 742 002a C046     		.align	2
 743              	.L52:
 744 002c 20003A40 		.word	1077542944
 745 0030 04000000 		.word	ADC_currentConfig
 746 0034 08000000 		.word	ADC_channelEnMasks
 747              		.cfi_endproc
 748              	.LFE10:
 749              		.size	ADC_SetChanMask, .-ADC_SetChanMask
 750              		.section	.text.ADC_IsEndConversion,"ax",%progbits
 751              		.align	2
 752              		.global	ADC_IsEndConversion
 753              		.code	16
 754              		.thumb_func
 755              		.type	ADC_IsEndConversion, %function
 756              	ADC_IsEndConversion:
 757              	.LFB11:
 633:Generated_Source\PSoC4/ADC.c **** 
 634:Generated_Source\PSoC4/ADC.c **** /*******************************************************************************
 635:Generated_Source\PSoC4/ADC.c **** * Function Name: ADC_IsEndConversion
 636:Generated_Source\PSoC4/ADC.c **** ****************************************************************************//**
 637:Generated_Source\PSoC4/ADC.c **** *
 638:Generated_Source\PSoC4/ADC.c **** * \brief Immediately returns the status of the conversion or does not return 
 639:Generated_Source\PSoC4/ADC.c **** * (blocking) until the conversion completes, depending on the retMode parameter.
 640:Generated_Source\PSoC4/ADC.c **** *
 641:Generated_Source\PSoC4/ADC.c **** * \param retMode Check conversion return mode. See the following table for 
 642:Generated_Source\PSoC4/ADC.c **** * options.
 643:Generated_Source\PSoC4/ADC.c **** * | Options                              | Description                             |
 644:Generated_Source\PSoC4/ADC.c **** * | :-------------------------------     | :-------------------------------------- |
 645:Generated_Source\PSoC4/ADC.c **** * | ADC_RETURN_STATUS       | Immediately returns the conversion status for sequential channels. If
 646:Generated_Source\PSoC4/ADC.c **** * | ADC_WAIT_FOR_RESULT     | Does not return a result until the ADC conversion of all sequential c
 647:Generated_Source\PSoC4/ADC.c **** * | ADC_RETURN_STATUS_INJ   | Immediately returns the conversion status for the injection channel. 
 648:Generated_Source\PSoC4/ADC.c **** * | ADC_WAIT_FOR_RESULT_INJ | Does not return a result until the ADC completes injection channel co
 649:Generated_Source\PSoC4/ADC.c **** * 
 650:Generated_Source\PSoC4/ADC.c **** * \return uint8: If a nonzero value is returned, the last conversion is complete. 
 651:Generated_Source\PSoC4/ADC.c **** * If the returned value is zero, the ADC is still calculating the last result.
 652:Generated_Source\PSoC4/ADC.c **** *
 653:Generated_Source\PSoC4/ADC.c **** * \sideeffect This function reads the end of conversion status, and clears it afterward.
 654:Generated_Source\PSoC4/ADC.c **** * 
 655:Generated_Source\PSoC4/ADC.c **** * <b>Code Snippet</b>
 656:Generated_Source\PSoC4/ADC.c **** *  \snippet main.c snippet_ADC_IsEndConversion
 657:Generated_Source\PSoC4/ADC.c **** *
 658:Generated_Source\PSoC4/ADC.c **** *******************************************************************************/
 659:Generated_Source\PSoC4/ADC.c **** uint32 ADC_IsEndConversion(uint32 retMode)
 660:Generated_Source\PSoC4/ADC.c **** {
 758              		.loc 1 660 0
 759              		.cfi_startproc
ARM GAS  C:\Users\CHRIST~1\AppData\Local\Temp\cclwqoH0.s 			page 26


 760 0000 80B5     		push	{r7, lr}
 761              		.cfi_def_cfa_offset 8
 762              		.cfi_offset 7, -8
 763              		.cfi_offset 14, -4
 764 0002 84B0     		sub	sp, sp, #16
 765              		.cfi_def_cfa_offset 24
 766 0004 00AF     		add	r7, sp, #0
 767              		.cfi_def_cfa_register 7
 768 0006 7860     		str	r0, [r7, #4]
 661:Generated_Source\PSoC4/ADC.c ****     uint32 endOfConversion = 0u;
 769              		.loc 1 661 0
 770 0008 0023     		mov	r3, #0
 771 000a FB60     		str	r3, [r7, #12]
 662:Generated_Source\PSoC4/ADC.c ****     uint32 wdt = 0x3FFFFFFuL; /* Watchdog timer for blocking while loop */
 772              		.loc 1 662 0
 773 000c 124B     		ldr	r3, .L59
 774 000e BB60     		str	r3, [r7, #8]
 663:Generated_Source\PSoC4/ADC.c ****     if((ADC_RETURN_STATUS == retMode) || (ADC_WAIT_FOR_RESULT == retMode))
 775              		.loc 1 663 0
 776 0010 7B68     		ldr	r3, [r7, #4]
 777 0012 012B     		cmp	r3, #1
 778 0014 02D0     		beq	.L55
 779              		.loc 1 663 0 is_stmt 0 discriminator 1
 780 0016 7B68     		ldr	r3, [r7, #4]
 781 0018 022B     		cmp	r3, #2
 782 001a 17D1     		bne	.L56
 783              	.L55:
 664:Generated_Source\PSoC4/ADC.c ****     {
 665:Generated_Source\PSoC4/ADC.c ****         do
 666:Generated_Source\PSoC4/ADC.c ****         {
 667:Generated_Source\PSoC4/ADC.c ****             endOfConversion = ADC_SAR_INTR_REG & ADC_EOS_MASK;
 784              		.loc 1 667 0 is_stmt 1 discriminator 1
 785 001c 0F4B     		ldr	r3, .L59+4
 786 001e 1B68     		ldr	r3, [r3]
 787 0020 0122     		mov	r2, #1
 788 0022 1340     		and	r3, r2
 789 0024 FB60     		str	r3, [r7, #12]
 668:Generated_Source\PSoC4/ADC.c ****             wdt--;
 790              		.loc 1 668 0 discriminator 1
 791 0026 BB68     		ldr	r3, [r7, #8]
 792 0028 013B     		sub	r3, r3, #1
 793 002a BB60     		str	r3, [r7, #8]
 669:Generated_Source\PSoC4/ADC.c ****         }while(((0u == endOfConversion) 
 670:Generated_Source\PSoC4/ADC.c ****             && (((uint32) retMode & ADC_WAIT_FOR_RESULT) != 0u))
 671:Generated_Source\PSoC4/ADC.c ****             && (0uL != wdt));
 794              		.loc 1 671 0 discriminator 1
 795 002c FB68     		ldr	r3, [r7, #12]
 796 002e 002B     		cmp	r3, #0
 797 0030 06D1     		bne	.L57
 670:Generated_Source\PSoC4/ADC.c ****             && (0uL != wdt));
 798              		.loc 1 670 0
 799 0032 7B68     		ldr	r3, [r7, #4]
 800 0034 0222     		mov	r2, #2
 801 0036 1340     		and	r3, r2
 802 0038 02D0     		beq	.L57
 803              		.loc 1 671 0
 804 003a BB68     		ldr	r3, [r7, #8]
ARM GAS  C:\Users\CHRIST~1\AppData\Local\Temp\cclwqoH0.s 			page 27


 805 003c 002B     		cmp	r3, #0
 806 003e EDD1     		bne	.L55
 807              	.L57:
 672:Generated_Source\PSoC4/ADC.c **** 
 673:Generated_Source\PSoC4/ADC.c ****         if(0u != endOfConversion)
 808              		.loc 1 673 0
 809 0040 FB68     		ldr	r3, [r7, #12]
 810 0042 002B     		cmp	r3, #0
 811 0044 02D0     		beq	.L56
 674:Generated_Source\PSoC4/ADC.c ****         {
 675:Generated_Source\PSoC4/ADC.c ****             /* Clear EOS bit */
 676:Generated_Source\PSoC4/ADC.c ****             ADC_SAR_INTR_REG = ADC_EOS_MASK;
 812              		.loc 1 676 0
 813 0046 054B     		ldr	r3, .L59+4
 814 0048 0122     		mov	r2, #1
 815 004a 1A60     		str	r2, [r3]
 816              	.L56:
 677:Generated_Source\PSoC4/ADC.c ****         }
 678:Generated_Source\PSoC4/ADC.c ****     }
 679:Generated_Source\PSoC4/ADC.c ****     
 680:Generated_Source\PSoC4/ADC.c ****     return endOfConversion;
 817              		.loc 1 680 0
 818 004c FB68     		ldr	r3, [r7, #12]
 681:Generated_Source\PSoC4/ADC.c **** }
 819              		.loc 1 681 0
 820 004e 181C     		mov	r0, r3
 821 0050 BD46     		mov	sp, r7
 822 0052 04B0     		add	sp, sp, #16
 823              		@ sp needed
 824 0054 80BD     		pop	{r7, pc}
 825              	.L60:
 826 0056 C046     		.align	2
 827              	.L59:
 828 0058 FFFFFF03 		.word	67108863
 829 005c 10023A40 		.word	1077543440
 830              		.cfi_endproc
 831              	.LFE11:
 832              		.size	ADC_IsEndConversion, .-ADC_IsEndConversion
 833              		.section	.text.ADC_IsChannelSigned,"ax",%progbits
 834              		.align	2
 835              		.code	16
 836              		.thumb_func
 837              		.type	ADC_IsChannelSigned, %function
 838              	ADC_IsChannelSigned:
 839              	.LFB12:
 682:Generated_Source\PSoC4/ADC.c ****  
 683:Generated_Source\PSoC4/ADC.c **** /* ****************************************************************************
 684:Generated_Source\PSoC4/ADC.c **** * Function Name: ADC_IsChannelSigned(uint32 chan)
 685:Generated_Source\PSoC4/ADC.c **** ****************************************************************************//*
 686:Generated_Source\PSoC4/ADC.c **** *
 687:Generated_Source\PSoC4/ADC.c **** * Determines if the provided channel is in signed format. 
 688:Generated_Source\PSoC4/ADC.c **** *
 689:Generated_Source\PSoC4/ADC.c **** * \param chan The ADC channel to check. 
 690:Generated_Source\PSoC4/ADC.c **** *
 691:Generated_Source\PSoC4/ADC.c **** * \return None
 692:Generated_Source\PSoC4/ADC.c **** * 
 693:Generated_Source\PSoC4/ADC.c **** * \sideeffect None
ARM GAS  C:\Users\CHRIST~1\AppData\Local\Temp\cclwqoH0.s 			page 28


 694:Generated_Source\PSoC4/ADC.c **** *
 695:Generated_Source\PSoC4/ADC.c **** *
 696:Generated_Source\PSoC4/ADC.c **** *******************************************************************************/
 697:Generated_Source\PSoC4/ADC.c **** static int32 ADC_IsChannelSigned(uint32 chan)
 698:Generated_Source\PSoC4/ADC.c **** {
 840              		.loc 1 698 0
 841              		.cfi_startproc
 842 0000 80B5     		push	{r7, lr}
 843              		.cfi_def_cfa_offset 8
 844              		.cfi_offset 7, -8
 845              		.cfi_offset 14, -4
 846 0002 84B0     		sub	sp, sp, #16
 847              		.cfi_def_cfa_offset 24
 848 0004 00AF     		add	r7, sp, #0
 849              		.cfi_def_cfa_register 7
 850 0006 7860     		str	r0, [r7, #4]
 699:Generated_Source\PSoC4/ADC.c ****     int32 isSigned = 0;
 851              		.loc 1 699 0
 852 0008 0023     		mov	r3, #0
 853 000a FB60     		str	r3, [r7, #12]
 700:Generated_Source\PSoC4/ADC.c ****     uint32 chanConfig;
 701:Generated_Source\PSoC4/ADC.c ****     
 702:Generated_Source\PSoC4/ADC.c ****     chanConfig = CY_GET_REG32((reg32 *)(ADC_SAR_CHAN_CONFIG_IND + (uint32)(chan << 2u)));
 854              		.loc 1 702 0
 855 000c 7B68     		ldr	r3, [r7, #4]
 856 000e 9B00     		lsl	r3, r3, #2
 857 0010 144A     		ldr	r2, .L66
 858 0012 9446     		mov	ip, r2
 859 0014 6344     		add	r3, r3, ip
 860 0016 1B68     		ldr	r3, [r3]
 861 0018 BB60     		str	r3, [r7, #8]
 703:Generated_Source\PSoC4/ADC.c ****     /* If differential mode */
 704:Generated_Source\PSoC4/ADC.c ****     if(0u != (chanConfig & ADC_CHANNEL_CONFIG_DIFF_ALL_MSK))
 862              		.loc 1 704 0
 863 001a BB68     		ldr	r3, [r7, #8]
 864 001c 124A     		ldr	r2, .L66+4
 865 001e 1340     		and	r3, r2
 866 0020 0DD0     		beq	.L62
 705:Generated_Source\PSoC4/ADC.c ****     {
 706:Generated_Source\PSoC4/ADC.c ****         /*If signed differential */
 707:Generated_Source\PSoC4/ADC.c ****         if((ADC_allConfigs[ADC_currentConfig].sampleCtrl 
 867              		.loc 1 707 0
 868 0022 124B     		ldr	r3, .L66+8
 869 0024 1B68     		ldr	r3, [r3]
 870 0026 124A     		ldr	r2, .L66+12
 871 0028 3421     		mov	r1, #52
 872 002a 4B43     		mul	r3, r1
 873 002c D318     		add	r3, r2, r3
 874 002e 0833     		add	r3, r3, #8
 875 0030 5B68     		ldr	r3, [r3, #4]
 708:Generated_Source\PSoC4/ADC.c ****             & ADC_SAR_SAMPLE_CTRL_DIFFERENTIAL_SIGNED_MSK) != 0u)
 876              		.loc 1 708 0
 877 0032 0822     		mov	r2, #8
 878 0034 1340     		and	r3, r2
 707:Generated_Source\PSoC4/ADC.c ****             & ADC_SAR_SAMPLE_CTRL_DIFFERENTIAL_SIGNED_MSK) != 0u)
 879              		.loc 1 707 0
 880 0036 0FD0     		beq	.L64
ARM GAS  C:\Users\CHRIST~1\AppData\Local\Temp\cclwqoH0.s 			page 29


 709:Generated_Source\PSoC4/ADC.c ****         {
 710:Generated_Source\PSoC4/ADC.c ****             isSigned = 1;
 881              		.loc 1 710 0
 882 0038 0123     		mov	r3, #1
 883 003a FB60     		str	r3, [r7, #12]
 884 003c 0CE0     		b	.L64
 885              	.L62:
 711:Generated_Source\PSoC4/ADC.c ****         }
 712:Generated_Source\PSoC4/ADC.c ****     }
 713:Generated_Source\PSoC4/ADC.c ****     else
 714:Generated_Source\PSoC4/ADC.c ****     {
 715:Generated_Source\PSoC4/ADC.c ****         if((ADC_allConfigs[ADC_currentConfig].sampleCtrl
 886              		.loc 1 715 0
 887 003e 0B4B     		ldr	r3, .L66+8
 888 0040 1B68     		ldr	r3, [r3]
 889 0042 0B4A     		ldr	r2, .L66+12
 890 0044 3421     		mov	r1, #52
 891 0046 4B43     		mul	r3, r1
 892 0048 D318     		add	r3, r2, r3
 893 004a 0833     		add	r3, r3, #8
 894 004c 5B68     		ldr	r3, [r3, #4]
 716:Generated_Source\PSoC4/ADC.c ****             & ADC_SAR_SAMPLE_CTRL_SINGLE_ENDED_SIGNED_MSK) != 0u)
 895              		.loc 1 716 0
 896 004e 0422     		mov	r2, #4
 897 0050 1340     		and	r3, r2
 715:Generated_Source\PSoC4/ADC.c ****             & ADC_SAR_SAMPLE_CTRL_SINGLE_ENDED_SIGNED_MSK) != 0u)
 898              		.loc 1 715 0
 899 0052 01D0     		beq	.L64
 717:Generated_Source\PSoC4/ADC.c ****         {
 718:Generated_Source\PSoC4/ADC.c ****             isSigned = 1;
 900              		.loc 1 718 0
 901 0054 0123     		mov	r3, #1
 902 0056 FB60     		str	r3, [r7, #12]
 903              	.L64:
 719:Generated_Source\PSoC4/ADC.c ****         }
 720:Generated_Source\PSoC4/ADC.c ****     }
 721:Generated_Source\PSoC4/ADC.c ****     return isSigned;
 904              		.loc 1 721 0
 905 0058 FB68     		ldr	r3, [r7, #12]
 722:Generated_Source\PSoC4/ADC.c **** }
 906              		.loc 1 722 0
 907 005a 181C     		mov	r0, r3
 908 005c BD46     		mov	sp, r7
 909 005e 04B0     		add	sp, sp, #16
 910              		@ sp needed
 911 0060 80BD     		pop	{r7, pc}
 912              	.L67:
 913 0062 C046     		.align	2
 914              	.L66:
 915 0064 80003A40 		.word	1077543040
 916 0068 00010001 		.word	16777472
 917 006c 04000000 		.word	ADC_currentConfig
 918 0070 00000000 		.word	ADC_allConfigs
 919              		.cfi_endproc
 920              	.LFE12:
 921              		.size	ADC_IsChannelSigned, .-ADC_IsChannelSigned
 922              		.section	.text.ADC_GetResult16,"ax",%progbits
ARM GAS  C:\Users\CHRIST~1\AppData\Local\Temp\cclwqoH0.s 			page 30


 923              		.align	2
 924              		.global	ADC_GetResult16
 925              		.code	16
 926              		.thumb_func
 927              		.type	ADC_GetResult16, %function
 928              	ADC_GetResult16:
 929              	.LFB13:
 723:Generated_Source\PSoC4/ADC.c **** /*******************************************************************************
 724:Generated_Source\PSoC4/ADC.c **** * Function Name: ADC_GetResult16
 725:Generated_Source\PSoC4/ADC.c **** ****************************************************************************//**
 726:Generated_Source\PSoC4/ADC.c **** *
 727:Generated_Source\PSoC4/ADC.c **** * \brief Gets the data available in the channel result data register
 728:Generated_Source\PSoC4/ADC.c **** *
 729:Generated_Source\PSoC4/ADC.c **** * \param chan The ADC channel to read the result from. The first 
 730:Generated_Source\PSoC4/ADC.c **** * channel is 0 and the injection channel if enabled is the number of valid 
 731:Generated_Source\PSoC4/ADC.c **** * channels.
 732:Generated_Source\PSoC4/ADC.c **** *
 733:Generated_Source\PSoC4/ADC.c **** * \return Returns converted data as a signed 16-bit integer.
 734:Generated_Source\PSoC4/ADC.c **** * 
 735:Generated_Source\PSoC4/ADC.c **** * \sideeffect None
 736:Generated_Source\PSoC4/ADC.c **** * 
 737:Generated_Source\PSoC4/ADC.c **** * <b>Code Snippet</b>
 738:Generated_Source\PSoC4/ADC.c **** *  \snippet main.c snippet_ADC_GetResult16
 739:Generated_Source\PSoC4/ADC.c **** *
 740:Generated_Source\PSoC4/ADC.c **** *******************************************************************************/
 741:Generated_Source\PSoC4/ADC.c **** int16 ADC_GetResult16(uint32 chan)
 742:Generated_Source\PSoC4/ADC.c **** {
 930              		.loc 1 742 0
 931              		.cfi_startproc
 932 0000 80B5     		push	{r7, lr}
 933              		.cfi_def_cfa_offset 8
 934              		.cfi_offset 7, -8
 935              		.cfi_offset 14, -4
 936 0002 84B0     		sub	sp, sp, #16
 937              		.cfi_def_cfa_offset 24
 938 0004 00AF     		add	r7, sp, #0
 939              		.cfi_def_cfa_register 7
 940 0006 7860     		str	r0, [r7, #4]
 743:Generated_Source\PSoC4/ADC.c ****     uint32 adcResult;
 744:Generated_Source\PSoC4/ADC.c ****     
 745:Generated_Source\PSoC4/ADC.c ****     /* Halt CPU in debug mode if channel is out of valid range */
 746:Generated_Source\PSoC4/ADC.c ****     CYASSERT(chan < ADC_TOTAL_CHANNELS_NUM);
 941              		.loc 1 746 0
 942 0008 7B68     		ldr	r3, [r7, #4]
 943 000a 062B     		cmp	r3, #6
 944 000c 02D9     		bls	.L69
 945              		.loc 1 746 0 is_stmt 0 discriminator 1
 946 000e 0020     		mov	r0, #0
 947 0010 FFF7FEFF 		bl	CyHalt
 948              	.L69:
 747:Generated_Source\PSoC4/ADC.c **** 
 748:Generated_Source\PSoC4/ADC.c ****     if(ADC_TOTAL_CHANNELS_NUM > chan)
 949              		.loc 1 748 0 is_stmt 1
 950 0014 7B68     		ldr	r3, [r7, #4]
 951 0016 062B     		cmp	r3, #6
 952 0018 09D8     		bhi	.L70
 749:Generated_Source\PSoC4/ADC.c ****     {   
ARM GAS  C:\Users\CHRIST~1\AppData\Local\Temp\cclwqoH0.s 			page 31


 750:Generated_Source\PSoC4/ADC.c ****         adcResult = CY_GET_REG32((reg32 *)(ADC_SAR_CHAN_RESULT_IND + (uint32)(chan << 2u))) &
 953              		.loc 1 750 0
 954 001a 7B68     		ldr	r3, [r7, #4]
 955 001c 9B00     		lsl	r3, r3, #2
 956 001e 084A     		ldr	r2, .L73
 957 0020 9446     		mov	ip, r2
 958 0022 6344     		add	r3, r3, ip
 959 0024 1B68     		ldr	r3, [r3]
 960 0026 1B04     		lsl	r3, r3, #16
 961 0028 1B0C     		lsr	r3, r3, #16
 962 002a FB60     		str	r3, [r7, #12]
 963 002c 01E0     		b	.L71
 964              	.L70:
 751:Generated_Source\PSoC4/ADC.c ****             ADC_RESULT_MASK; 
 752:Generated_Source\PSoC4/ADC.c ****     }
 753:Generated_Source\PSoC4/ADC.c ****     else
 754:Generated_Source\PSoC4/ADC.c ****     {
 755:Generated_Source\PSoC4/ADC.c **** 		adcResult = 0u;
 965              		.loc 1 755 0
 966 002e 0023     		mov	r3, #0
 967 0030 FB60     		str	r3, [r7, #12]
 968              	.L71:
 756:Generated_Source\PSoC4/ADC.c ****     }
 757:Generated_Source\PSoC4/ADC.c ****     
 758:Generated_Source\PSoC4/ADC.c ****     return (int16) adcResult;
 969              		.loc 1 758 0
 970 0032 FB68     		ldr	r3, [r7, #12]
 971 0034 9BB2     		uxth	r3, r3
 972 0036 1BB2     		sxth	r3, r3
 759:Generated_Source\PSoC4/ADC.c **** }
 973              		.loc 1 759 0
 974 0038 181C     		mov	r0, r3
 975 003a BD46     		mov	sp, r7
 976 003c 04B0     		add	sp, sp, #16
 977              		@ sp needed
 978 003e 80BD     		pop	{r7, pc}
 979              	.L74:
 980              		.align	2
 981              	.L73:
 982 0040 80013A40 		.word	1077543296
 983              		.cfi_endproc
 984              	.LFE13:
 985              		.size	ADC_GetResult16, .-ADC_GetResult16
 986              		.section	.text.ADC_GetResult32,"ax",%progbits
 987              		.align	2
 988              		.global	ADC_GetResult32
 989              		.code	16
 990              		.thumb_func
 991              		.type	ADC_GetResult32, %function
 992              	ADC_GetResult32:
 993              	.LFB14:
 760:Generated_Source\PSoC4/ADC.c **** 
 761:Generated_Source\PSoC4/ADC.c **** /*******************************************************************************
 762:Generated_Source\PSoC4/ADC.c **** * Function Name: ADC_GetResult32
 763:Generated_Source\PSoC4/ADC.c **** ****************************************************************************//**
 764:Generated_Source\PSoC4/ADC.c **** *
 765:Generated_Source\PSoC4/ADC.c **** * \brief Gets the data available in the channel result data register. 
ARM GAS  C:\Users\CHRIST~1\AppData\Local\Temp\cclwqoH0.s 			page 32


 766:Generated_Source\PSoC4/ADC.c **** *
 767:Generated_Source\PSoC4/ADC.c **** * \param chan The ADC channel to read the result from. The first 
 768:Generated_Source\PSoC4/ADC.c **** * channel is 0 and the injection channel if enabled is the number of valid 
 769:Generated_Source\PSoC4/ADC.c **** * channels.
 770:Generated_Source\PSoC4/ADC.c **** *
 771:Generated_Source\PSoC4/ADC.c **** * \return Returns converted data as a signed 32-bit integer.
 772:Generated_Source\PSoC4/ADC.c **** * 
 773:Generated_Source\PSoC4/ADC.c **** * \sideeffect None
 774:Generated_Source\PSoC4/ADC.c **** *
 775:Generated_Source\PSoC4/ADC.c **** * <b>Code Snippet</b>
 776:Generated_Source\PSoC4/ADC.c **** *  \snippet main.c snippet_ADC_GetResult32
 777:Generated_Source\PSoC4/ADC.c **** *
 778:Generated_Source\PSoC4/ADC.c **** *******************************************************************************/
 779:Generated_Source\PSoC4/ADC.c **** int32 ADC_GetResult32(uint32 chan)
 780:Generated_Source\PSoC4/ADC.c **** {
 994              		.loc 1 780 0
 995              		.cfi_startproc
 996 0000 80B5     		push	{r7, lr}
 997              		.cfi_def_cfa_offset 8
 998              		.cfi_offset 7, -8
 999              		.cfi_offset 14, -4
 1000 0002 86B0     		sub	sp, sp, #24
 1001              		.cfi_def_cfa_offset 32
 1002 0004 00AF     		add	r7, sp, #0
 1003              		.cfi_def_cfa_register 7
 1004 0006 7860     		str	r0, [r7, #4]
 781:Generated_Source\PSoC4/ADC.c ****     uint32 adcResult;
 782:Generated_Source\PSoC4/ADC.c ****     int16 adcResult16;
 783:Generated_Source\PSoC4/ADC.c ****     int32 finalResult;
 784:Generated_Source\PSoC4/ADC.c ****     
 785:Generated_Source\PSoC4/ADC.c ****     /* Halt CPU in debug mode if channel is out of valid range */
 786:Generated_Source\PSoC4/ADC.c ****     CYASSERT(chan < ADC_TOTAL_CHANNELS_NUM);
 1005              		.loc 1 786 0
 1006 0008 7B68     		ldr	r3, [r7, #4]
 1007 000a 062B     		cmp	r3, #6
 1008 000c 02D9     		bls	.L76
 1009              		.loc 1 786 0 is_stmt 0 discriminator 1
 1010 000e 0020     		mov	r0, #0
 1011 0010 FFF7FEFF 		bl	CyHalt
 1012              	.L76:
 787:Generated_Source\PSoC4/ADC.c **** 
 788:Generated_Source\PSoC4/ADC.c ****     if(ADC_TOTAL_CHANNELS_NUM > chan)
 1013              		.loc 1 788 0 is_stmt 1
 1014 0014 7B68     		ldr	r3, [r7, #4]
 1015 0016 062B     		cmp	r3, #6
 1016 0018 09D8     		bhi	.L77
 789:Generated_Source\PSoC4/ADC.c ****     {
 790:Generated_Source\PSoC4/ADC.c ****         adcResult = CY_GET_REG32((reg32 *)(ADC_SAR_CHAN_RESULT_IND + (uint32)(chan << 2u))) &
 1017              		.loc 1 790 0
 1018 001a 7B68     		ldr	r3, [r7, #4]
 1019 001c 9B00     		lsl	r3, r3, #2
 1020 001e 114A     		ldr	r2, .L82
 1021 0020 9446     		mov	ip, r2
 1022 0022 6344     		add	r3, r3, ip
 1023 0024 1B68     		ldr	r3, [r3]
 1024 0026 1B04     		lsl	r3, r3, #16
 1025 0028 1B0C     		lsr	r3, r3, #16
ARM GAS  C:\Users\CHRIST~1\AppData\Local\Temp\cclwqoH0.s 			page 33


 1026 002a 7B61     		str	r3, [r7, #20]
 1027 002c 01E0     		b	.L78
 1028              	.L77:
 791:Generated_Source\PSoC4/ADC.c ****             ADC_RESULT_MASK;
 792:Generated_Source\PSoC4/ADC.c ****     }
 793:Generated_Source\PSoC4/ADC.c ****     else
 794:Generated_Source\PSoC4/ADC.c ****     {
 795:Generated_Source\PSoC4/ADC.c ****         adcResult = 0u;
 1029              		.loc 1 795 0
 1030 002e 0023     		mov	r3, #0
 1031 0030 7B61     		str	r3, [r7, #20]
 1032              	.L78:
 796:Generated_Source\PSoC4/ADC.c ****     }
 797:Generated_Source\PSoC4/ADC.c ****     /* Sign extend if channel is signed format */
 798:Generated_Source\PSoC4/ADC.c ****     if(ADC_IsChannelSigned(chan) == 1)
 1033              		.loc 1 798 0
 1034 0032 7B68     		ldr	r3, [r7, #4]
 1035 0034 181C     		mov	r0, r3
 1036 0036 FFF7FEFF 		bl	ADC_IsChannelSigned
 1037 003a 031E     		sub	r3, r0, #0
 1038 003c 012B     		cmp	r3, #1
 1039 003e 09D1     		bne	.L79
 799:Generated_Source\PSoC4/ADC.c ****     {
 800:Generated_Source\PSoC4/ADC.c ****         adcResult16 = (int16) adcResult;
 1040              		.loc 1 800 0
 1041 0040 0E23     		mov	r3, #14
 1042 0042 FB18     		add	r3, r7, r3
 1043 0044 7A69     		ldr	r2, [r7, #20]
 1044 0046 1A80     		strh	r2, [r3]
 801:Generated_Source\PSoC4/ADC.c ****         finalResult = (int32) adcResult16;
 1045              		.loc 1 801 0
 1046 0048 0E23     		mov	r3, #14
 1047 004a FB18     		add	r3, r7, r3
 1048 004c 0022     		mov	r2, #0
 1049 004e 9B5E     		ldrsh	r3, [r3, r2]
 1050 0050 3B61     		str	r3, [r7, #16]
 1051 0052 01E0     		b	.L80
 1052              	.L79:
 802:Generated_Source\PSoC4/ADC.c ****     }
 803:Generated_Source\PSoC4/ADC.c ****     else
 804:Generated_Source\PSoC4/ADC.c ****     {
 805:Generated_Source\PSoC4/ADC.c ****         finalResult = (int32) adcResult;
 1053              		.loc 1 805 0
 1054 0054 7B69     		ldr	r3, [r7, #20]
 1055 0056 3B61     		str	r3, [r7, #16]
 1056              	.L80:
 806:Generated_Source\PSoC4/ADC.c ****     }
 807:Generated_Source\PSoC4/ADC.c ****     return finalResult;
 1057              		.loc 1 807 0
 1058 0058 3B69     		ldr	r3, [r7, #16]
 808:Generated_Source\PSoC4/ADC.c **** }
 1059              		.loc 1 808 0
 1060 005a 181C     		mov	r0, r3
 1061 005c BD46     		mov	sp, r7
 1062 005e 06B0     		add	sp, sp, #24
 1063              		@ sp needed
 1064 0060 80BD     		pop	{r7, pc}
ARM GAS  C:\Users\CHRIST~1\AppData\Local\Temp\cclwqoH0.s 			page 34


 1065              	.L83:
 1066 0062 C046     		.align	2
 1067              	.L82:
 1068 0064 80013A40 		.word	1077543296
 1069              		.cfi_endproc
 1070              	.LFE14:
 1071              		.size	ADC_GetResult32, .-ADC_GetResult32
 1072              		.section	.text.ADC_SetLowLimit,"ax",%progbits
 1073              		.align	2
 1074              		.global	ADC_SetLowLimit
 1075              		.code	16
 1076              		.thumb_func
 1077              		.type	ADC_SetLowLimit, %function
 1078              	ADC_SetLowLimit:
 1079              	.LFB15:
 809:Generated_Source\PSoC4/ADC.c **** 
 810:Generated_Source\PSoC4/ADC.c **** /*******************************************************************************
 811:Generated_Source\PSoC4/ADC.c **** * Function Name: ADC_SetLowLimit
 812:Generated_Source\PSoC4/ADC.c **** ****************************************************************************//**
 813:Generated_Source\PSoC4/ADC.c **** *
 814:Generated_Source\PSoC4/ADC.c **** * \brief Sets the low limit parameter for a limit condition.
 815:Generated_Source\PSoC4/ADC.c **** *
 816:Generated_Source\PSoC4/ADC.c **** * \param lowLimit The low limit for a limit condition.
 817:Generated_Source\PSoC4/ADC.c **** *
 818:Generated_Source\PSoC4/ADC.c **** * \return None
 819:Generated_Source\PSoC4/ADC.c **** * 
 820:Generated_Source\PSoC4/ADC.c **** * \sideeffect None
 821:Generated_Source\PSoC4/ADC.c **** *
 822:Generated_Source\PSoC4/ADC.c **** * <b>Code Snippet</b>
 823:Generated_Source\PSoC4/ADC.c **** *  \snippet main.c snippet_ADC_SetLowLimit
 824:Generated_Source\PSoC4/ADC.c **** *
 825:Generated_Source\PSoC4/ADC.c **** *******************************************************************************/
 826:Generated_Source\PSoC4/ADC.c **** void ADC_SetLowLimit(uint32 lowLimit)
 827:Generated_Source\PSoC4/ADC.c **** {   
 1080              		.loc 1 827 0
 1081              		.cfi_startproc
 1082 0000 80B5     		push	{r7, lr}
 1083              		.cfi_def_cfa_offset 8
 1084              		.cfi_offset 7, -8
 1085              		.cfi_offset 14, -4
 1086 0002 82B0     		sub	sp, sp, #8
 1087              		.cfi_def_cfa_offset 16
 1088 0004 00AF     		add	r7, sp, #0
 1089              		.cfi_def_cfa_register 7
 1090 0006 7860     		str	r0, [r7, #4]
 828:Generated_Source\PSoC4/ADC.c ****     ADC_SAR_RANGE_THRES_REG &= ~(uint32)(ADC_SAR_RANGE_THRES_RANGE_LOW_MSK);
 1091              		.loc 1 828 0
 1092 0008 084B     		ldr	r3, .L86
 1093 000a 084A     		ldr	r2, .L86
 1094 000c 1268     		ldr	r2, [r2]
 1095 000e 120C     		lsr	r2, r2, #16
 1096 0010 1204     		lsl	r2, r2, #16
 1097 0012 1A60     		str	r2, [r3]
 829:Generated_Source\PSoC4/ADC.c ****     ADC_SAR_RANGE_THRES_REG |= lowLimit & ADC_SAR_RANGE_THRES_RANGE_LOW_MSK;
 1098              		.loc 1 829 0
 1099 0014 054B     		ldr	r3, .L86
 1100 0016 054A     		ldr	r2, .L86
ARM GAS  C:\Users\CHRIST~1\AppData\Local\Temp\cclwqoH0.s 			page 35


 1101 0018 1168     		ldr	r1, [r2]
 1102 001a 7A68     		ldr	r2, [r7, #4]
 1103 001c 1204     		lsl	r2, r2, #16
 1104 001e 120C     		lsr	r2, r2, #16
 1105 0020 0A43     		orr	r2, r1
 1106 0022 1A60     		str	r2, [r3]
 830:Generated_Source\PSoC4/ADC.c ****     return;
 1107              		.loc 1 830 0
 1108 0024 C046     		mov	r8, r8
 831:Generated_Source\PSoC4/ADC.c **** }
 1109              		.loc 1 831 0
 1110 0026 BD46     		mov	sp, r7
 1111 0028 02B0     		add	sp, sp, #8
 1112              		@ sp needed
 1113 002a 80BD     		pop	{r7, pc}
 1114              	.L87:
 1115              		.align	2
 1116              	.L86:
 1117 002c 18003A40 		.word	1077542936
 1118              		.cfi_endproc
 1119              	.LFE15:
 1120              		.size	ADC_SetLowLimit, .-ADC_SetLowLimit
 1121              		.section	.text.ADC_SetHighLimit,"ax",%progbits
 1122              		.align	2
 1123              		.global	ADC_SetHighLimit
 1124              		.code	16
 1125              		.thumb_func
 1126              		.type	ADC_SetHighLimit, %function
 1127              	ADC_SetHighLimit:
 1128              	.LFB16:
 832:Generated_Source\PSoC4/ADC.c **** 
 833:Generated_Source\PSoC4/ADC.c **** /*******************************************************************************
 834:Generated_Source\PSoC4/ADC.c **** * Function Name: ADC_SetHighLimit
 835:Generated_Source\PSoC4/ADC.c **** ****************************************************************************//**
 836:Generated_Source\PSoC4/ADC.c **** *
 837:Generated_Source\PSoC4/ADC.c **** * \brief Sets the high limit parameter for a limit condition.
 838:Generated_Source\PSoC4/ADC.c **** *
 839:Generated_Source\PSoC4/ADC.c **** * \param highLimit The high limit for a limit condition.
 840:Generated_Source\PSoC4/ADC.c **** *
 841:Generated_Source\PSoC4/ADC.c **** * \return None
 842:Generated_Source\PSoC4/ADC.c **** * 
 843:Generated_Source\PSoC4/ADC.c **** * \sideeffect None
 844:Generated_Source\PSoC4/ADC.c **** * 
 845:Generated_Source\PSoC4/ADC.c **** * <b>Code Snippet</b>
 846:Generated_Source\PSoC4/ADC.c **** *  \snippet main.c snippet_ADC_SetHighLimit
 847:Generated_Source\PSoC4/ADC.c **** *
 848:Generated_Source\PSoC4/ADC.c **** *******************************************************************************/
 849:Generated_Source\PSoC4/ADC.c **** void ADC_SetHighLimit(uint32 highLimit)
 850:Generated_Source\PSoC4/ADC.c **** {   
 1129              		.loc 1 850 0
 1130              		.cfi_startproc
 1131 0000 80B5     		push	{r7, lr}
 1132              		.cfi_def_cfa_offset 8
 1133              		.cfi_offset 7, -8
 1134              		.cfi_offset 14, -4
 1135 0002 82B0     		sub	sp, sp, #8
 1136              		.cfi_def_cfa_offset 16
ARM GAS  C:\Users\CHRIST~1\AppData\Local\Temp\cclwqoH0.s 			page 36


 1137 0004 00AF     		add	r7, sp, #0
 1138              		.cfi_def_cfa_register 7
 1139 0006 7860     		str	r0, [r7, #4]
 851:Generated_Source\PSoC4/ADC.c ****     ADC_SAR_RANGE_THRES_REG &= ~(uint32)(ADC_SAR_RANGE_THRES_RANGE_HIGH_MSK);
 1140              		.loc 1 851 0
 1141 0008 084B     		ldr	r3, .L90
 1142 000a 084A     		ldr	r2, .L90
 1143 000c 1268     		ldr	r2, [r2]
 1144 000e 1204     		lsl	r2, r2, #16
 1145 0010 120C     		lsr	r2, r2, #16
 1146 0012 1A60     		str	r2, [r3]
 852:Generated_Source\PSoC4/ADC.c ****     ADC_SAR_RANGE_THRES_REG |= (uint32)(highLimit << ADC_SAR_RANGE_THRES_RANGE_HIGH_SHFT);
 1147              		.loc 1 852 0
 1148 0014 054B     		ldr	r3, .L90
 1149 0016 054A     		ldr	r2, .L90
 1150 0018 1168     		ldr	r1, [r2]
 1151 001a 7A68     		ldr	r2, [r7, #4]
 1152 001c 1204     		lsl	r2, r2, #16
 1153 001e 0A43     		orr	r2, r1
 1154 0020 1A60     		str	r2, [r3]
 853:Generated_Source\PSoC4/ADC.c ****     return;
 1155              		.loc 1 853 0
 1156 0022 C046     		mov	r8, r8
 854:Generated_Source\PSoC4/ADC.c **** }
 1157              		.loc 1 854 0
 1158 0024 BD46     		mov	sp, r7
 1159 0026 02B0     		add	sp, sp, #8
 1160              		@ sp needed
 1161 0028 80BD     		pop	{r7, pc}
 1162              	.L91:
 1163 002a C046     		.align	2
 1164              	.L90:
 1165 002c 18003A40 		.word	1077542936
 1166              		.cfi_endproc
 1167              	.LFE16:
 1168              		.size	ADC_SetHighLimit, .-ADC_SetHighLimit
 1169              		.section	.text.ADC_SetLimitMask,"ax",%progbits
 1170              		.align	2
 1171              		.global	ADC_SetLimitMask
 1172              		.code	16
 1173              		.thumb_func
 1174              		.type	ADC_SetLimitMask, %function
 1175              	ADC_SetLimitMask:
 1176              	.LFB17:
 855:Generated_Source\PSoC4/ADC.c **** 
 856:Generated_Source\PSoC4/ADC.c **** /*******************************************************************************
 857:Generated_Source\PSoC4/ADC.c **** * Function Name: ADC_SetLimitMask
 858:Generated_Source\PSoC4/ADC.c **** ****************************************************************************//**
 859:Generated_Source\PSoC4/ADC.c **** *
 860:Generated_Source\PSoC4/ADC.c **** * \brief Sets the channel limit condition mask.
 861:Generated_Source\PSoC4/ADC.c **** *
 862:Generated_Source\PSoC4/ADC.c **** *
 863:Generated_Source\PSoC4/ADC.c **** * \param mask Sets which channels that may cause a limit condition interrupt. 
 864:Generated_Source\PSoC4/ADC.c **** * Setting bits for channels that do not exist will have no effect. For example, 
 865:Generated_Source\PSoC4/ADC.c **** * if only 6  channels were enabled, setting a mask of 0x0103 would only enable 
 866:Generated_Source\PSoC4/ADC.c **** * the last two channels (0 and 1).
 867:Generated_Source\PSoC4/ADC.c **** *
ARM GAS  C:\Users\CHRIST~1\AppData\Local\Temp\cclwqoH0.s 			page 37


 868:Generated_Source\PSoC4/ADC.c **** * \return None
 869:Generated_Source\PSoC4/ADC.c **** * 
 870:Generated_Source\PSoC4/ADC.c **** * \sideeffect None
 871:Generated_Source\PSoC4/ADC.c **** *
 872:Generated_Source\PSoC4/ADC.c **** * <b>Code Snippet</b>
 873:Generated_Source\PSoC4/ADC.c **** *  \snippet main.c snippet_ADC_SetLimitMask
 874:Generated_Source\PSoC4/ADC.c **** *
 875:Generated_Source\PSoC4/ADC.c **** *******************************************************************************/
 876:Generated_Source\PSoC4/ADC.c **** void ADC_SetLimitMask(uint32 mask)
 877:Generated_Source\PSoC4/ADC.c **** {   
 1177              		.loc 1 877 0
 1178              		.cfi_startproc
 1179 0000 80B5     		push	{r7, lr}
 1180              		.cfi_def_cfa_offset 8
 1181              		.cfi_offset 7, -8
 1182              		.cfi_offset 14, -4
 1183 0002 82B0     		sub	sp, sp, #8
 1184              		.cfi_def_cfa_offset 16
 1185 0004 00AF     		add	r7, sp, #0
 1186              		.cfi_def_cfa_register 7
 1187 0006 7860     		str	r0, [r7, #4]
 878:Generated_Source\PSoC4/ADC.c ****     ADC_SAR_RANGE_INTR_MASK_REG = mask & ADC_MAX_CHANNELS_EN_MASK;
 1188              		.loc 1 878 0
 1189 0008 044B     		ldr	r3, .L94
 1190 000a 7A68     		ldr	r2, [r7, #4]
 1191 000c 7F21     		mov	r1, #127
 1192 000e 0A40     		and	r2, r1
 1193 0010 1A60     		str	r2, [r3]
 879:Generated_Source\PSoC4/ADC.c ****  
 880:Generated_Source\PSoC4/ADC.c ****     return;
 1194              		.loc 1 880 0
 1195 0012 C046     		mov	r8, r8
 881:Generated_Source\PSoC4/ADC.c **** }
 1196              		.loc 1 881 0
 1197 0014 BD46     		mov	sp, r7
 1198 0016 02B0     		add	sp, sp, #8
 1199              		@ sp needed
 1200 0018 80BD     		pop	{r7, pc}
 1201              	.L95:
 1202 001a C046     		.align	2
 1203              	.L94:
 1204 001c 38023A40 		.word	1077543480
 1205              		.cfi_endproc
 1206              	.LFE17:
 1207              		.size	ADC_SetLimitMask, .-ADC_SetLimitMask
 1208              		.section	.text.ADC_SetSatMask,"ax",%progbits
 1209              		.align	2
 1210              		.global	ADC_SetSatMask
 1211              		.code	16
 1212              		.thumb_func
 1213              		.type	ADC_SetSatMask, %function
 1214              	ADC_SetSatMask:
 1215              	.LFB18:
 882:Generated_Source\PSoC4/ADC.c **** 
 883:Generated_Source\PSoC4/ADC.c **** /*******************************************************************************
 884:Generated_Source\PSoC4/ADC.c **** * Function Name: ADC_SetSatMask
 885:Generated_Source\PSoC4/ADC.c **** ****************************************************************************//**
ARM GAS  C:\Users\CHRIST~1\AppData\Local\Temp\cclwqoH0.s 			page 38


 886:Generated_Source\PSoC4/ADC.c **** *
 887:Generated_Source\PSoC4/ADC.c **** * \brief Sets the channel saturation event mask.
 888:Generated_Source\PSoC4/ADC.c **** *
 889:Generated_Source\PSoC4/ADC.c **** * \param mask Sets which channels that may cause a saturation event interrupt. 
 890:Generated_Source\PSoC4/ADC.c **** * Setting bits for channels that do not exist will have no effect. For example, 
 891:Generated_Source\PSoC4/ADC.c **** * if only 8 channels were enabled, setting a mask of 0x01C0 would only enable two 
 892:Generated_Source\PSoC4/ADC.c **** * channels (6 and 7).
 893:Generated_Source\PSoC4/ADC.c **** *
 894:Generated_Source\PSoC4/ADC.c **** * \return None
 895:Generated_Source\PSoC4/ADC.c **** * 
 896:Generated_Source\PSoC4/ADC.c **** * \sideeffect None
 897:Generated_Source\PSoC4/ADC.c **** *
 898:Generated_Source\PSoC4/ADC.c **** * <b>Code Snippet</b>
 899:Generated_Source\PSoC4/ADC.c **** *  \snippet main.c snippet_ADC_SetSatMask
 900:Generated_Source\PSoC4/ADC.c **** *
 901:Generated_Source\PSoC4/ADC.c **** *******************************************************************************/
 902:Generated_Source\PSoC4/ADC.c **** void ADC_SetSatMask(uint32 mask)
 903:Generated_Source\PSoC4/ADC.c **** {   
 1216              		.loc 1 903 0
 1217              		.cfi_startproc
 1218 0000 80B5     		push	{r7, lr}
 1219              		.cfi_def_cfa_offset 8
 1220              		.cfi_offset 7, -8
 1221              		.cfi_offset 14, -4
 1222 0002 82B0     		sub	sp, sp, #8
 1223              		.cfi_def_cfa_offset 16
 1224 0004 00AF     		add	r7, sp, #0
 1225              		.cfi_def_cfa_register 7
 1226 0006 7860     		str	r0, [r7, #4]
 904:Generated_Source\PSoC4/ADC.c ****     ADC_SAR_SATURATE_INTR_MASK_REG = mask & ADC_MAX_CHANNELS_EN_MASK;    
 1227              		.loc 1 904 0
 1228 0008 044B     		ldr	r3, .L98
 1229 000a 7A68     		ldr	r2, [r7, #4]
 1230 000c 7F21     		mov	r1, #127
 1231 000e 0A40     		and	r2, r1
 1232 0010 1A60     		str	r2, [r3]
 905:Generated_Source\PSoC4/ADC.c ****     return;
 1233              		.loc 1 905 0
 1234 0012 C046     		mov	r8, r8
 906:Generated_Source\PSoC4/ADC.c **** }
 1235              		.loc 1 906 0
 1236 0014 BD46     		mov	sp, r7
 1237 0016 02B0     		add	sp, sp, #8
 1238              		@ sp needed
 1239 0018 80BD     		pop	{r7, pc}
 1240              	.L99:
 1241 001a C046     		.align	2
 1242              	.L98:
 1243 001c 28023A40 		.word	1077543464
 1244              		.cfi_endproc
 1245              	.LFE18:
 1246              		.size	ADC_SetSatMask, .-ADC_SetSatMask
 1247              		.section	.text.ADC_SetOffset,"ax",%progbits
 1248              		.align	2
 1249              		.global	ADC_SetOffset
 1250              		.code	16
 1251              		.thumb_func
ARM GAS  C:\Users\CHRIST~1\AppData\Local\Temp\cclwqoH0.s 			page 39


 1252              		.type	ADC_SetOffset, %function
 1253              	ADC_SetOffset:
 1254              	.LFB19:
 907:Generated_Source\PSoC4/ADC.c **** 
 908:Generated_Source\PSoC4/ADC.c **** /*******************************************************************************
 909:Generated_Source\PSoC4/ADC.c **** * Function Name: ADC_SetOffset
 910:Generated_Source\PSoC4/ADC.c **** ****************************************************************************//**
 911:Generated_Source\PSoC4/ADC.c **** *
 912:Generated_Source\PSoC4/ADC.c **** * \brief Sets the ADC offset which is used by the functions 
 913:Generated_Source\PSoC4/ADC.c **** * ADC_CountsTo_uVolts, ADC_CountsTo_mVolts and 
 914:Generated_Source\PSoC4/ADC.c **** * ADC_CountsTo_Volts to subtract the offset from the given reading 
 915:Generated_Source\PSoC4/ADC.c **** * before calculating the voltage conversion.
 916:Generated_Source\PSoC4/ADC.c **** *
 917:Generated_Source\PSoC4/ADC.c **** * \param chan ADC channel number. 
 918:Generated_Source\PSoC4/ADC.c **** * 
 919:Generated_Source\PSoC4/ADC.c **** * \param offset This value is a measured value when the inputs are shorted or 
 920:Generated_Source\PSoC4/ADC.c **** * connected to the same input voltage.
 921:Generated_Source\PSoC4/ADC.c **** *
 922:Generated_Source\PSoC4/ADC.c **** * \return None
 923:Generated_Source\PSoC4/ADC.c **** * 
 924:Generated_Source\PSoC4/ADC.c **** * \sideeffect None
 925:Generated_Source\PSoC4/ADC.c **** *
 926:Generated_Source\PSoC4/ADC.c **** * <b>Code Snippet</b>
 927:Generated_Source\PSoC4/ADC.c **** *  \snippet main.c snippet_ADC_SetOffset
 928:Generated_Source\PSoC4/ADC.c **** *
 929:Generated_Source\PSoC4/ADC.c **** *******************************************************************************/
 930:Generated_Source\PSoC4/ADC.c **** void ADC_SetOffset(uint32 chan, int16 offset)
 931:Generated_Source\PSoC4/ADC.c **** {   
 1255              		.loc 1 931 0
 1256              		.cfi_startproc
 1257 0000 80B5     		push	{r7, lr}
 1258              		.cfi_def_cfa_offset 8
 1259              		.cfi_offset 7, -8
 1260              		.cfi_offset 14, -4
 1261 0002 82B0     		sub	sp, sp, #8
 1262              		.cfi_def_cfa_offset 16
 1263 0004 00AF     		add	r7, sp, #0
 1264              		.cfi_def_cfa_register 7
 1265 0006 7860     		str	r0, [r7, #4]
 1266 0008 0A1C     		mov	r2, r1
 1267 000a BB1C     		add	r3, r7, #2
 1268 000c 1A80     		strh	r2, [r3]
 932:Generated_Source\PSoC4/ADC.c ****     /* Halt CPU in debug mode if channel is out of valid range */
 933:Generated_Source\PSoC4/ADC.c ****     CYASSERT(chan < ADC_TOTAL_CHANNELS_NUM);
 1269              		.loc 1 933 0
 1270 000e 7B68     		ldr	r3, [r7, #4]
 1271 0010 062B     		cmp	r3, #6
 1272 0012 02D9     		bls	.L101
 1273              		.loc 1 933 0 is_stmt 0 discriminator 1
 1274 0014 0020     		mov	r0, #0
 1275 0016 FFF7FEFF 		bl	CyHalt
 1276              	.L101:
 934:Generated_Source\PSoC4/ADC.c **** 
 935:Generated_Source\PSoC4/ADC.c ****     ADC_offset[ADC_allConfigs[ADC_currentConfig].channelBase + chan] = offset;
 1277              		.loc 1 935 0 is_stmt 1
 1278 001a 084B     		ldr	r3, .L103
 1279 001c 1A68     		ldr	r2, [r3]
ARM GAS  C:\Users\CHRIST~1\AppData\Local\Temp\cclwqoH0.s 			page 40


 1280 001e 084B     		ldr	r3, .L103+4
 1281 0020 3421     		mov	r1, #52
 1282 0022 4A43     		mul	r2, r1
 1283 0024 D258     		ldr	r2, [r2, r3]
 1284 0026 7B68     		ldr	r3, [r7, #4]
 1285 0028 D218     		add	r2, r2, r3
 1286 002a 064B     		ldr	r3, .L103+8
 1287 002c 5200     		lsl	r2, r2, #1
 1288 002e B91C     		add	r1, r7, #2
 1289 0030 0988     		ldrh	r1, [r1]
 1290 0032 D152     		strh	r1, [r2, r3]
 936:Generated_Source\PSoC4/ADC.c ****     return;
 1291              		.loc 1 936 0
 1292 0034 C046     		mov	r8, r8
 937:Generated_Source\PSoC4/ADC.c **** }
 1293              		.loc 1 937 0
 1294 0036 BD46     		mov	sp, r7
 1295 0038 02B0     		add	sp, sp, #8
 1296              		@ sp needed
 1297 003a 80BD     		pop	{r7, pc}
 1298              	.L104:
 1299              		.align	2
 1300              	.L103:
 1301 003c 04000000 		.word	ADC_currentConfig
 1302 0040 00000000 		.word	ADC_allConfigs
 1303 0044 00000000 		.word	ADC_offset
 1304              		.cfi_endproc
 1305              	.LFE19:
 1306              		.size	ADC_SetOffset, .-ADC_SetOffset
 1307              		.section	.text.ADC_SetGain,"ax",%progbits
 1308              		.align	2
 1309              		.global	ADC_SetGain
 1310              		.code	16
 1311              		.thumb_func
 1312              		.type	ADC_SetGain, %function
 1313              	ADC_SetGain:
 1314              	.LFB20:
 938:Generated_Source\PSoC4/ADC.c **** 
 939:Generated_Source\PSoC4/ADC.c **** /*******************************************************************************
 940:Generated_Source\PSoC4/ADC.c **** * Function Name: ADC_SetGain
 941:Generated_Source\PSoC4/ADC.c **** ****************************************************************************//**
 942:Generated_Source\PSoC4/ADC.c **** *
 943:Generated_Source\PSoC4/ADC.c **** * \brief Sets the ADC gain in counts per 10 volt for the voltage 
 944:Generated_Source\PSoC4/ADC.c **** * conversion functions below. This value is set by default by the reference and 
 945:Generated_Source\PSoC4/ADC.c **** * input range settings. It should only be used to further calibrate the 
 946:Generated_Source\PSoC4/ADC.c **** * ADC with a known input or if an external reference is used. 
 947:Generated_Source\PSoC4/ADC.c **** * Affects the ADC_CountsTo_uVolts, ADC_CountsTo_mVolts 
 948:Generated_Source\PSoC4/ADC.c **** * and ADC_CountsTo_Volts functions by supplying the correct 
 949:Generated_Source\PSoC4/ADC.c **** * conversion between ADC counts and voltage.
 950:Generated_Source\PSoC4/ADC.c **** * 
 951:Generated_Source\PSoC4/ADC.c **** * \param chan ADC channel number.
 952:Generated_Source\PSoC4/ADC.c **** * 
 953:Generated_Source\PSoC4/ADC.c **** * \param adcGain ADC gain in counts per 10 volt.
 954:Generated_Source\PSoC4/ADC.c **** *
 955:Generated_Source\PSoC4/ADC.c **** * \return None
 956:Generated_Source\PSoC4/ADC.c **** * 
 957:Generated_Source\PSoC4/ADC.c **** * \sideeffect None
ARM GAS  C:\Users\CHRIST~1\AppData\Local\Temp\cclwqoH0.s 			page 41


 958:Generated_Source\PSoC4/ADC.c **** *
 959:Generated_Source\PSoC4/ADC.c **** * <b>Code Snippet</b>
 960:Generated_Source\PSoC4/ADC.c **** *  \snippet main.c snippet_ADC_SetGain
 961:Generated_Source\PSoC4/ADC.c **** *
 962:Generated_Source\PSoC4/ADC.c **** *******************************************************************************/
 963:Generated_Source\PSoC4/ADC.c **** void ADC_SetGain(uint32 chan, int32 adcGain)
 964:Generated_Source\PSoC4/ADC.c **** {   
 1315              		.loc 1 964 0
 1316              		.cfi_startproc
 1317 0000 80B5     		push	{r7, lr}
 1318              		.cfi_def_cfa_offset 8
 1319              		.cfi_offset 7, -8
 1320              		.cfi_offset 14, -4
 1321 0002 82B0     		sub	sp, sp, #8
 1322              		.cfi_def_cfa_offset 16
 1323 0004 00AF     		add	r7, sp, #0
 1324              		.cfi_def_cfa_register 7
 1325 0006 7860     		str	r0, [r7, #4]
 1326 0008 3960     		str	r1, [r7]
 965:Generated_Source\PSoC4/ADC.c ****     /* Halt CPU in debug mode if channel is out of valid range */
 966:Generated_Source\PSoC4/ADC.c ****     CYASSERT(chan < ADC_TOTAL_CHANNELS_NUM);
 1327              		.loc 1 966 0
 1328 000a 7B68     		ldr	r3, [r7, #4]
 1329 000c 062B     		cmp	r3, #6
 1330 000e 02D9     		bls	.L106
 1331              		.loc 1 966 0 is_stmt 0 discriminator 1
 1332 0010 0020     		mov	r0, #0
 1333 0012 FFF7FEFF 		bl	CyHalt
 1334              	.L106:
 967:Generated_Source\PSoC4/ADC.c **** 
 968:Generated_Source\PSoC4/ADC.c ****     ADC_countsPer10Volt[ADC_allConfigs[ADC_currentConfig].channelBase + chan]
 1335              		.loc 1 968 0 is_stmt 1
 1336 0016 084B     		ldr	r3, .L108
 1337 0018 1A68     		ldr	r2, [r3]
 1338 001a 084B     		ldr	r3, .L108+4
 1339 001c 3421     		mov	r1, #52
 1340 001e 4A43     		mul	r2, r1
 1341 0020 D258     		ldr	r2, [r2, r3]
 1342 0022 7B68     		ldr	r3, [r7, #4]
 1343 0024 D218     		add	r2, r2, r3
 969:Generated_Source\PSoC4/ADC.c **** 	= adcGain;
 1344              		.loc 1 969 0
 1345 0026 064B     		ldr	r3, .L108+8
 1346 0028 9200     		lsl	r2, r2, #2
 1347 002a 3968     		ldr	r1, [r7]
 1348 002c D150     		str	r1, [r2, r3]
 970:Generated_Source\PSoC4/ADC.c ****     return;
 1349              		.loc 1 970 0
 1350 002e C046     		mov	r8, r8
 971:Generated_Source\PSoC4/ADC.c **** }
 1351              		.loc 1 971 0
 1352 0030 BD46     		mov	sp, r7
 1353 0032 02B0     		add	sp, sp, #8
 1354              		@ sp needed
 1355 0034 80BD     		pop	{r7, pc}
 1356              	.L109:
 1357 0036 C046     		.align	2
ARM GAS  C:\Users\CHRIST~1\AppData\Local\Temp\cclwqoH0.s 			page 42


 1358              	.L108:
 1359 0038 04000000 		.word	ADC_currentConfig
 1360 003c 00000000 		.word	ADC_allConfigs
 1361 0040 00000000 		.word	ADC_countsPer10Volt
 1362              		.cfi_endproc
 1363              	.LFE20:
 1364              		.size	ADC_SetGain, .-ADC_SetGain
 1365              		.global	__aeabi_uidiv
 1366              		.global	__aeabi_idiv
 1367              		.global	__aeabi_i2f
 1368              		.global	__aeabi_fmul
 1369              		.global	__aeabi_fdiv
 1370              		.section	.text.ADC_CountsTo_Volts,"ax",%progbits
 1371              		.align	2
 1372              		.global	ADC_CountsTo_Volts
 1373              		.code	16
 1374              		.thumb_func
 1375              		.type	ADC_CountsTo_Volts, %function
 1376              	ADC_CountsTo_Volts:
 1377              	.LFB21:
 972:Generated_Source\PSoC4/ADC.c **** 
 973:Generated_Source\PSoC4/ADC.c **** /*******************************************************************************
 974:Generated_Source\PSoC4/ADC.c **** * Function Name: ADC_CountsTo_Volts
 975:Generated_Source\PSoC4/ADC.c **** ****************************************************************************//**
 976:Generated_Source\PSoC4/ADC.c **** *
 977:Generated_Source\PSoC4/ADC.c **** * \brief Converts the ADC output to Volts as a floating point number. For 
 978:Generated_Source\PSoC4/ADC.c **** * example, if the ADC measured 0.534 volts, the return value would be 0.534. The 
 979:Generated_Source\PSoC4/ADC.c **** * calculation of voltage depends on the value of the voltage reference. When the 
 980:Generated_Source\PSoC4/ADC.c **** * Vref is based on Vdda, the value used for Vdda is set for the project in the 
 981:Generated_Source\PSoC4/ADC.c **** * System tab of the DWR.
 982:Generated_Source\PSoC4/ADC.c **** *
 983:Generated_Source\PSoC4/ADC.c **** * \param chan ADC channel number.   
 984:Generated_Source\PSoC4/ADC.c **** *
 985:Generated_Source\PSoC4/ADC.c **** * \param adcCounts Result from the ADC conversion.
 986:Generated_Source\PSoC4/ADC.c **** *
 987:Generated_Source\PSoC4/ADC.c **** * \return Result in Volts.
 988:Generated_Source\PSoC4/ADC.c **** * 
 989:Generated_Source\PSoC4/ADC.c **** * \sideeffect None
 990:Generated_Source\PSoC4/ADC.c **** *
 991:Generated_Source\PSoC4/ADC.c **** * <b>Code Snippet</b>
 992:Generated_Source\PSoC4/ADC.c **** *  \snippet main.c snippet_ADC_CountsTo_Volts
 993:Generated_Source\PSoC4/ADC.c **** *
 994:Generated_Source\PSoC4/ADC.c **** *******************************************************************************/
 995:Generated_Source\PSoC4/ADC.c **** float32 ADC_CountsTo_Volts(uint32 chan, int16 adcCounts)
 996:Generated_Source\PSoC4/ADC.c **** {   
 1378              		.loc 1 996 0
 1379              		.cfi_startproc
 1380 0000 90B5     		push	{r4, r7, lr}
 1381              		.cfi_def_cfa_offset 12
 1382              		.cfi_offset 4, -12
 1383              		.cfi_offset 7, -8
 1384              		.cfi_offset 14, -4
 1385 0002 87B0     		sub	sp, sp, #28
 1386              		.cfi_def_cfa_offset 40
 1387 0004 00AF     		add	r7, sp, #0
 1388              		.cfi_def_cfa_register 7
 1389 0006 7860     		str	r0, [r7, #4]
ARM GAS  C:\Users\CHRIST~1\AppData\Local\Temp\cclwqoH0.s 			page 43


 1390 0008 0A1C     		mov	r2, r1
 1391 000a BB1C     		add	r3, r7, #2
 1392 000c 1A80     		strh	r2, [r3]
 997:Generated_Source\PSoC4/ADC.c ****     float32 result_Volts = 0.0f;
 1393              		.loc 1 997 0
 1394 000e 0023     		mov	r3, #0
 1395 0010 7B61     		str	r3, [r7, #20]
 998:Generated_Source\PSoC4/ADC.c **** 	uint32 temp;
 999:Generated_Source\PSoC4/ADC.c **** 	uint32 averageAdcSamplesDiv;
1000:Generated_Source\PSoC4/ADC.c **** 	uint32 rawChannel;
1001:Generated_Source\PSoC4/ADC.c **** 	rawChannel = ADC_allConfigs[ADC_currentConfig].channelBase + chan;
 1396              		.loc 1 1001 0
 1397 0012 464B     		ldr	r3, .L116
 1398 0014 1A68     		ldr	r2, [r3]
 1399 0016 464B     		ldr	r3, .L116+4
 1400 0018 3421     		mov	r1, #52
 1401 001a 4A43     		mul	r2, r1
 1402 001c D258     		ldr	r2, [r2, r3]
 1403 001e 7B68     		ldr	r3, [r7, #4]
 1404 0020 D318     		add	r3, r2, r3
 1405 0022 3B61     		str	r3, [r7, #16]
1002:Generated_Source\PSoC4/ADC.c **** 	
1003:Generated_Source\PSoC4/ADC.c **** 	if((ADC_allConfigs[ADC_currentConfig].sampleCtrl 
 1406              		.loc 1 1003 0
 1407 0024 414B     		ldr	r3, .L116
 1408 0026 1B68     		ldr	r3, [r3]
 1409 0028 414A     		ldr	r2, .L116+4
 1410 002a 3421     		mov	r1, #52
 1411 002c 4B43     		mul	r3, r1
 1412 002e D318     		add	r3, r2, r3
 1413 0030 0833     		add	r3, r3, #8
 1414 0032 5B68     		ldr	r3, [r3, #4]
1004:Generated_Source\PSoC4/ADC.c **** 		& ADC_SAR_SAMPLE_CTRL_LEFT_ALIGN_MSK) 
 1415              		.loc 1 1004 0
 1416 0034 0222     		mov	r2, #2
 1417 0036 1340     		and	r3, r2
1003:Generated_Source\PSoC4/ADC.c **** 		& ADC_SAR_SAMPLE_CTRL_LEFT_ALIGN_MSK) 
 1418              		.loc 1 1003 0
 1419 0038 00D0     		beq	.LCB1213
 1420 003a 71E0     		b	.L111	@long jump
 1421              	.LCB1213:
1005:Generated_Source\PSoC4/ADC.c **** 		!= ADC_SAR_SAMPLE_CTRL_LEFT_ALIGN_MSK)
1006:Generated_Source\PSoC4/ADC.c **** 	{
1007:Generated_Source\PSoC4/ADC.c ****         /* Halt CPU in debug mode if channel is out of valid range */
1008:Generated_Source\PSoC4/ADC.c ****         CYASSERT(chan < ADC_TOTAL_CHANNELS_NUM);
 1422              		.loc 1 1008 0
 1423 003c 7B68     		ldr	r3, [r7, #4]
 1424 003e 062B     		cmp	r3, #6
 1425 0040 02D9     		bls	.L112
 1426              		.loc 1 1008 0 is_stmt 0 discriminator 1
 1427 0042 0020     		mov	r0, #0
 1428 0044 FFF7FEFF 		bl	CyHalt
 1429              	.L112:
1009:Generated_Source\PSoC4/ADC.c **** 
1010:Generated_Source\PSoC4/ADC.c ****         /* Divide the adcCount when accumulate averaging mode selected */
1011:Generated_Source\PSoC4/ADC.c **** 		if((ADC_allConfigs[ADC_currentConfig].sampleCtrl 
 1430              		.loc 1 1011 0 is_stmt 1
ARM GAS  C:\Users\CHRIST~1\AppData\Local\Temp\cclwqoH0.s 			page 44


 1431 0048 384B     		ldr	r3, .L116
 1432 004a 1B68     		ldr	r3, [r3]
 1433 004c 384A     		ldr	r2, .L116+4
 1434 004e 3421     		mov	r1, #52
 1435 0050 4B43     		mul	r3, r1
 1436 0052 D318     		add	r3, r2, r3
 1437 0054 0833     		add	r3, r3, #8
 1438 0056 5B68     		ldr	r3, [r3, #4]
1012:Generated_Source\PSoC4/ADC.c **** 			& ADC_SAR_SAMPLE_CTRL_AVG_SHIFT_MSK) 
 1439              		.loc 1 1012 0
 1440 0058 8022     		mov	r2, #128
 1441 005a 1340     		and	r3, r2
1011:Generated_Source\PSoC4/ADC.c **** 			& ADC_SAR_SAMPLE_CTRL_AVG_SHIFT_MSK) 
 1442              		.loc 1 1011 0
 1443 005c 39D1     		bne	.L113
1013:Generated_Source\PSoC4/ADC.c **** 			!= ADC_SAR_SAMPLE_CTRL_AVG_SHIFT_MSK)
1014:Generated_Source\PSoC4/ADC.c **** 		{
1015:Generated_Source\PSoC4/ADC.c ****             if((ADC_channelsConfig[rawChannel] & ADC_SAR_CHAN_CONFIG_AVG_EN_MSK) != 0u)
 1444              		.loc 1 1015 0
 1445 005e 354B     		ldr	r3, .L116+8
 1446 0060 3A69     		ldr	r2, [r7, #16]
 1447 0062 9200     		lsl	r2, r2, #2
 1448 0064 D258     		ldr	r2, [r2, r3]
 1449 0066 8023     		mov	r3, #128
 1450 0068 DB00     		lsl	r3, r3, #3
 1451 006a 1340     		and	r3, r2
 1452 006c 31D0     		beq	.L113
1016:Generated_Source\PSoC4/ADC.c ****             {
1017:Generated_Source\PSoC4/ADC.c ****                 /* Divide by 2^(AVG_CNT + 1) */
1018:Generated_Source\PSoC4/ADC.c **** 				averageAdcSamplesDiv = ((ADC_allConfigs[ADC_currentConfig].sampleCtrl 
 1453              		.loc 1 1018 0
 1454 006e 2F4B     		ldr	r3, .L116
 1455 0070 1B68     		ldr	r3, [r3]
 1456 0072 2F4A     		ldr	r2, .L116+4
 1457 0074 3421     		mov	r1, #52
 1458 0076 4B43     		mul	r3, r1
 1459 0078 D318     		add	r3, r2, r3
 1460 007a 0833     		add	r3, r3, #8
 1461 007c 5B68     		ldr	r3, [r3, #4]
1019:Generated_Source\PSoC4/ADC.c **** 					& ADC_SAR_SAMPLE_CTRL_AVG_CNT_MSK) 
 1462              		.loc 1 1019 0
 1463 007e 7022     		mov	r2, #112
 1464 0080 1340     		and	r3, r2
1018:Generated_Source\PSoC4/ADC.c **** 					& ADC_SAR_SAMPLE_CTRL_AVG_CNT_MSK) 
 1465              		.loc 1 1018 0
 1466 0082 1B09     		lsr	r3, r3, #4
 1467 0084 FB60     		str	r3, [r7, #12]
1020:Generated_Source\PSoC4/ADC.c **** 					>> ADC_SAR_SAMPLE_CTRL_AVG_CNT_SHFT);
1021:Generated_Source\PSoC4/ADC.c ****                 averageAdcSamplesDiv = (1uL << (averageAdcSamplesDiv + 1uL));
 1468              		.loc 1 1021 0
 1469 0086 FB68     		ldr	r3, [r7, #12]
 1470 0088 0133     		add	r3, r3, #1
 1471 008a 1A1C     		mov	r2, r3
 1472 008c 0123     		mov	r3, #1
 1473 008e 9340     		lsl	r3, r3, r2
 1474 0090 FB60     		str	r3, [r7, #12]
1022:Generated_Source\PSoC4/ADC.c ****                 
ARM GAS  C:\Users\CHRIST~1\AppData\Local\Temp\cclwqoH0.s 			page 45


1023:Generated_Source\PSoC4/ADC.c ****                 /* If unsigned format, prevent sign extension */
1024:Generated_Source\PSoC4/ADC.c ****                 if(0 == ADC_IsChannelSigned(chan))
 1475              		.loc 1 1024 0
 1476 0092 7B68     		ldr	r3, [r7, #4]
 1477 0094 181C     		mov	r0, r3
 1478 0096 FFF7FEFF 		bl	ADC_IsChannelSigned
 1479 009a 031E     		sub	r3, r0, #0
 1480 009c 0BD1     		bne	.L114
1025:Generated_Source\PSoC4/ADC.c ****                 {
1026:Generated_Source\PSoC4/ADC.c **** 					temp = ((uint16) adcCounts / averageAdcSamplesDiv);
 1481              		.loc 1 1026 0
 1482 009e BB1C     		add	r3, r7, #2
 1483 00a0 1B88     		ldrh	r3, [r3]
 1484 00a2 181C     		mov	r0, r3
 1485 00a4 F968     		ldr	r1, [r7, #12]
 1486 00a6 FFF7FEFF 		bl	__aeabi_uidiv
 1487 00aa 031C     		mov	r3, r0
 1488 00ac BB60     		str	r3, [r7, #8]
1027:Generated_Source\PSoC4/ADC.c ****                     adcCounts = (int16) temp;
 1489              		.loc 1 1027 0
 1490 00ae BB1C     		add	r3, r7, #2
 1491 00b0 BA68     		ldr	r2, [r7, #8]
 1492 00b2 1A80     		strh	r2, [r3]
 1493 00b4 0DE0     		b	.L113
 1494              	.L114:
1028:Generated_Source\PSoC4/ADC.c ****                 }
1029:Generated_Source\PSoC4/ADC.c ****                 else
1030:Generated_Source\PSoC4/ADC.c ****                 {
1031:Generated_Source\PSoC4/ADC.c ****                     adcCounts /= (int16) averageAdcSamplesDiv;
 1495              		.loc 1 1031 0
 1496 00b6 BB1C     		add	r3, r7, #2
 1497 00b8 0022     		mov	r2, #0
 1498 00ba 9A5E     		ldrsh	r2, [r3, r2]
 1499 00bc FB68     		ldr	r3, [r7, #12]
 1500 00be 9BB2     		uxth	r3, r3
 1501 00c0 1BB2     		sxth	r3, r3
 1502 00c2 101C     		mov	r0, r2
 1503 00c4 191C     		mov	r1, r3
 1504 00c6 FFF7FEFF 		bl	__aeabi_idiv
 1505 00ca 031C     		mov	r3, r0
 1506 00cc 1A1C     		mov	r2, r3
 1507 00ce BB1C     		add	r3, r7, #2
 1508 00d0 1A80     		strh	r2, [r3]
 1509              	.L113:
1032:Generated_Source\PSoC4/ADC.c ****                 }
1033:Generated_Source\PSoC4/ADC.c ****             }
1034:Generated_Source\PSoC4/ADC.c **** 		}
1035:Generated_Source\PSoC4/ADC.c ****         /* Subtract ADC offset */
1036:Generated_Source\PSoC4/ADC.c ****         adcCounts -= ADC_offset[rawChannel];
 1510              		.loc 1 1036 0
 1511 00d2 194B     		ldr	r3, .L116+12
 1512 00d4 3A69     		ldr	r2, [r7, #16]
 1513 00d6 5200     		lsl	r2, r2, #1
 1514 00d8 D35A     		ldrh	r3, [r2, r3]
 1515 00da 99B2     		uxth	r1, r3
 1516 00dc BB1C     		add	r3, r7, #2
 1517 00de 1A88     		ldrh	r2, [r3]
ARM GAS  C:\Users\CHRIST~1\AppData\Local\Temp\cclwqoH0.s 			page 46


 1518 00e0 8BB2     		uxth	r3, r1
 1519 00e2 D31A     		sub	r3, r2, r3
 1520 00e4 9AB2     		uxth	r2, r3
 1521 00e6 BB1C     		add	r3, r7, #2
 1522 00e8 1A80     		strh	r2, [r3]
1037:Generated_Source\PSoC4/ADC.c **** 
1038:Generated_Source\PSoC4/ADC.c ****         result_Volts = ((float32)adcCounts * ADC_10V_COUNTS) 
 1523              		.loc 1 1038 0
 1524 00ea BB1C     		add	r3, r7, #2
 1525 00ec 0022     		mov	r2, #0
 1526 00ee 9B5E     		ldrsh	r3, [r3, r2]
 1527 00f0 181C     		mov	r0, r3
 1528 00f2 FFF7FEFF 		bl	__aeabi_i2f
 1529 00f6 031C     		add	r3, r0, #0
 1530 00f8 181C     		add	r0, r3, #0
 1531 00fa 1049     		ldr	r1, .L116+16
 1532 00fc FFF7FEFF 		bl	__aeabi_fmul
 1533 0100 031C     		add	r3, r0, #0
 1534 0102 1C1C     		add	r4, r3, #0
1039:Generated_Source\PSoC4/ADC.c **** 			/ (float32)ADC_countsPer10Volt[rawChannel];
 1535              		.loc 1 1039 0
 1536 0104 0E4B     		ldr	r3, .L116+20
 1537 0106 3A69     		ldr	r2, [r7, #16]
 1538 0108 9200     		lsl	r2, r2, #2
 1539 010a D358     		ldr	r3, [r2, r3]
 1540 010c 181C     		mov	r0, r3
 1541 010e FFF7FEFF 		bl	__aeabi_i2f
 1542 0112 031C     		add	r3, r0, #0
1038:Generated_Source\PSoC4/ADC.c **** 			/ (float32)ADC_countsPer10Volt[rawChannel];
 1543              		.loc 1 1038 0
 1544 0114 201C     		add	r0, r4, #0
 1545 0116 191C     		add	r1, r3, #0
 1546 0118 FFF7FEFF 		bl	__aeabi_fdiv
 1547 011c 031C     		add	r3, r0, #0
 1548 011e 7B61     		str	r3, [r7, #20]
 1549              	.L111:
1040:Generated_Source\PSoC4/ADC.c **** 	}
1041:Generated_Source\PSoC4/ADC.c **** 	return result_Volts;
 1550              		.loc 1 1041 0
 1551 0120 7B69     		ldr	r3, [r7, #20]
1042:Generated_Source\PSoC4/ADC.c **** }
 1552              		.loc 1 1042 0
 1553 0122 181C     		add	r0, r3, #0
 1554 0124 BD46     		mov	sp, r7
 1555 0126 07B0     		add	sp, sp, #28
 1556              		@ sp needed
 1557 0128 90BD     		pop	{r4, r7, pc}
 1558              	.L117:
 1559 012a C046     		.align	2
 1560              	.L116:
 1561 012c 04000000 		.word	ADC_currentConfig
 1562 0130 00000000 		.word	ADC_allConfigs
 1563 0134 00000000 		.word	ADC_channelsConfig
 1564 0138 00000000 		.word	ADC_offset
 1565 013c 00002041 		.word	1092616192
 1566 0140 00000000 		.word	ADC_countsPer10Volt
 1567              		.cfi_endproc
ARM GAS  C:\Users\CHRIST~1\AppData\Local\Temp\cclwqoH0.s 			page 47


 1568              	.LFE21:
 1569              		.size	ADC_CountsTo_Volts, .-ADC_CountsTo_Volts
 1570              		.section	.text.ADC_CountsTo_mVolts,"ax",%progbits
 1571              		.align	2
 1572              		.global	ADC_CountsTo_mVolts
 1573              		.code	16
 1574              		.thumb_func
 1575              		.type	ADC_CountsTo_mVolts, %function
 1576              	ADC_CountsTo_mVolts:
 1577              	.LFB22:
1043:Generated_Source\PSoC4/ADC.c **** 
1044:Generated_Source\PSoC4/ADC.c **** /*******************************************************************************
1045:Generated_Source\PSoC4/ADC.c **** * Function Name: ADC_CountsTo_mVolts
1046:Generated_Source\PSoC4/ADC.c **** ****************************************************************************//**
1047:Generated_Source\PSoC4/ADC.c **** *
1048:Generated_Source\PSoC4/ADC.c **** * \brief Converts the ADC output to millivolts as a 16-bit integer. 
1049:Generated_Source\PSoC4/ADC.c **** * For example, if the ADC measured 0.534 volts, the return value 
1050:Generated_Source\PSoC4/ADC.c **** * would be 534. The calculation of voltage depends on the value of the voltage 
1051:Generated_Source\PSoC4/ADC.c **** * reference. When the Vref is based on Vdda, the value used for Vdda is set for 
1052:Generated_Source\PSoC4/ADC.c **** * the project in the System tab of the DWR.
1053:Generated_Source\PSoC4/ADC.c **** *
1054:Generated_Source\PSoC4/ADC.c **** * \param chan ADC channel number. 
1055:Generated_Source\PSoC4/ADC.c **** *
1056:Generated_Source\PSoC4/ADC.c **** * \param adcCounts Result from the ADC conversion.
1057:Generated_Source\PSoC4/ADC.c **** * 
1058:Generated_Source\PSoC4/ADC.c **** * \return Result in mV.
1059:Generated_Source\PSoC4/ADC.c **** * 
1060:Generated_Source\PSoC4/ADC.c **** * \sideeffect None.
1061:Generated_Source\PSoC4/ADC.c **** *
1062:Generated_Source\PSoC4/ADC.c **** * <b>Code Snippet</b>
1063:Generated_Source\PSoC4/ADC.c **** *  \snippet main.c snippet_ADC_CountsTo_mVolts
1064:Generated_Source\PSoC4/ADC.c **** *
1065:Generated_Source\PSoC4/ADC.c **** *******************************************************************************/
1066:Generated_Source\PSoC4/ADC.c **** int16 ADC_CountsTo_mVolts(uint32 chan, int16 adcCounts)
1067:Generated_Source\PSoC4/ADC.c **** {   
 1578              		.loc 1 1067 0
 1579              		.cfi_startproc
 1580 0000 80B5     		push	{r7, lr}
 1581              		.cfi_def_cfa_offset 8
 1582              		.cfi_offset 7, -8
 1583              		.cfi_offset 14, -4
 1584 0002 86B0     		sub	sp, sp, #24
 1585              		.cfi_def_cfa_offset 32
 1586 0004 00AF     		add	r7, sp, #0
 1587              		.cfi_def_cfa_register 7
 1588 0006 7860     		str	r0, [r7, #4]
 1589 0008 0A1C     		mov	r2, r1
 1590 000a BB1C     		add	r3, r7, #2
 1591 000c 1A80     		strh	r2, [r3]
1068:Generated_Source\PSoC4/ADC.c ****     int16 result_mVolts = 0;
 1592              		.loc 1 1068 0
 1593 000e 1623     		mov	r3, #22
 1594 0010 FB18     		add	r3, r7, r3
 1595 0012 0022     		mov	r2, #0
 1596 0014 1A80     		strh	r2, [r3]
1069:Generated_Source\PSoC4/ADC.c **** 	uint32 temp;
1070:Generated_Source\PSoC4/ADC.c **** 	uint32 averageAdcSamplesDiv;
ARM GAS  C:\Users\CHRIST~1\AppData\Local\Temp\cclwqoH0.s 			page 48


1071:Generated_Source\PSoC4/ADC.c **** 	uint32 rawChannel;
1072:Generated_Source\PSoC4/ADC.c ****     
1073:Generated_Source\PSoC4/ADC.c **** 	rawChannel = ADC_allConfigs[ADC_currentConfig].channelBase + chan;
 1597              		.loc 1 1073 0
 1598 0016 4F4B     		ldr	r3, .L128
 1599 0018 1A68     		ldr	r2, [r3]
 1600 001a 4F4B     		ldr	r3, .L128+4
 1601 001c 3421     		mov	r1, #52
 1602 001e 4A43     		mul	r2, r1
 1603 0020 D258     		ldr	r2, [r2, r3]
 1604 0022 7B68     		ldr	r3, [r7, #4]
 1605 0024 D318     		add	r3, r2, r3
 1606 0026 3B61     		str	r3, [r7, #16]
1074:Generated_Source\PSoC4/ADC.c **** 	
1075:Generated_Source\PSoC4/ADC.c **** 	if((ADC_allConfigs[ADC_currentConfig].sampleCtrl 
 1607              		.loc 1 1075 0
 1608 0028 4A4B     		ldr	r3, .L128
 1609 002a 1B68     		ldr	r3, [r3]
 1610 002c 4A4A     		ldr	r2, .L128+4
 1611 002e 3421     		mov	r1, #52
 1612 0030 4B43     		mul	r3, r1
 1613 0032 D318     		add	r3, r2, r3
 1614 0034 0833     		add	r3, r3, #8
 1615 0036 5B68     		ldr	r3, [r3, #4]
1076:Generated_Source\PSoC4/ADC.c **** 		& ADC_SAR_SAMPLE_CTRL_LEFT_ALIGN_MSK) 
 1616              		.loc 1 1076 0
 1617 0038 0222     		mov	r2, #2
 1618 003a 1340     		and	r3, r2
1075:Generated_Source\PSoC4/ADC.c **** 		& ADC_SAR_SAMPLE_CTRL_LEFT_ALIGN_MSK) 
 1619              		.loc 1 1075 0
 1620 003c 00D0     		beq	.LCB1394
 1621 003e 80E0     		b	.L119	@long jump
 1622              	.LCB1394:
1077:Generated_Source\PSoC4/ADC.c **** 		!= ADC_SAR_SAMPLE_CTRL_LEFT_ALIGN_MSK)
1078:Generated_Source\PSoC4/ADC.c **** 	{
1079:Generated_Source\PSoC4/ADC.c **** 		/* Halt CPU in debug mode if channel is out of valid range */
1080:Generated_Source\PSoC4/ADC.c **** 	    CYASSERT(chan < ADC_TOTAL_CHANNELS_NUM);
 1623              		.loc 1 1080 0
 1624 0040 7B68     		ldr	r3, [r7, #4]
 1625 0042 062B     		cmp	r3, #6
 1626 0044 02D9     		bls	.L120
 1627              		.loc 1 1080 0 is_stmt 0 discriminator 1
 1628 0046 0020     		mov	r0, #0
 1629 0048 FFF7FEFF 		bl	CyHalt
 1630              	.L120:
1081:Generated_Source\PSoC4/ADC.c **** 
1082:Generated_Source\PSoC4/ADC.c **** 	    /* Divide the adcCount when accumulate averaging mode selected */
1083:Generated_Source\PSoC4/ADC.c **** 		if((ADC_allConfigs[ADC_currentConfig].sampleCtrl 
 1631              		.loc 1 1083 0 is_stmt 1
 1632 004c 414B     		ldr	r3, .L128
 1633 004e 1B68     		ldr	r3, [r3]
 1634 0050 414A     		ldr	r2, .L128+4
 1635 0052 3421     		mov	r1, #52
 1636 0054 4B43     		mul	r3, r1
 1637 0056 D318     		add	r3, r2, r3
 1638 0058 0833     		add	r3, r3, #8
 1639 005a 5B68     		ldr	r3, [r3, #4]
ARM GAS  C:\Users\CHRIST~1\AppData\Local\Temp\cclwqoH0.s 			page 49


1084:Generated_Source\PSoC4/ADC.c **** 			& ADC_SAR_SAMPLE_CTRL_AVG_SHIFT_MSK) 
 1640              		.loc 1 1084 0
 1641 005c 8022     		mov	r2, #128
 1642 005e 1340     		and	r3, r2
1083:Generated_Source\PSoC4/ADC.c **** 			& ADC_SAR_SAMPLE_CTRL_AVG_SHIFT_MSK) 
 1643              		.loc 1 1083 0
 1644 0060 39D1     		bne	.L121
1085:Generated_Source\PSoC4/ADC.c **** 			!= ADC_SAR_SAMPLE_CTRL_AVG_SHIFT_MSK)
1086:Generated_Source\PSoC4/ADC.c **** 		{
1087:Generated_Source\PSoC4/ADC.c **** 	        if((ADC_channelsConfig[rawChannel] 
 1645              		.loc 1 1087 0
 1646 0062 3E4B     		ldr	r3, .L128+8
 1647 0064 3A69     		ldr	r2, [r7, #16]
 1648 0066 9200     		lsl	r2, r2, #2
 1649 0068 D258     		ldr	r2, [r2, r3]
1088:Generated_Source\PSoC4/ADC.c **** 				& ADC_SAR_CHAN_CONFIG_AVG_EN_MSK) != 0u)
 1650              		.loc 1 1088 0
 1651 006a 8023     		mov	r3, #128
 1652 006c DB00     		lsl	r3, r3, #3
 1653 006e 1340     		and	r3, r2
1087:Generated_Source\PSoC4/ADC.c **** 				& ADC_SAR_CHAN_CONFIG_AVG_EN_MSK) != 0u)
 1654              		.loc 1 1087 0
 1655 0070 31D0     		beq	.L121
1089:Generated_Source\PSoC4/ADC.c **** 	        {
1090:Generated_Source\PSoC4/ADC.c ****                 /* Divide by 2^(AVG_CNT + 1) */
1091:Generated_Source\PSoC4/ADC.c **** 	            averageAdcSamplesDiv = ((ADC_allConfigs[ADC_currentConfig].sampleCtrl 
 1656              		.loc 1 1091 0
 1657 0072 384B     		ldr	r3, .L128
 1658 0074 1B68     		ldr	r3, [r3]
 1659 0076 384A     		ldr	r2, .L128+4
 1660 0078 3421     		mov	r1, #52
 1661 007a 4B43     		mul	r3, r1
 1662 007c D318     		add	r3, r2, r3
 1663 007e 0833     		add	r3, r3, #8
 1664 0080 5B68     		ldr	r3, [r3, #4]
1092:Generated_Source\PSoC4/ADC.c **** 					& ADC_SAR_SAMPLE_CTRL_AVG_CNT_MSK) 
 1665              		.loc 1 1092 0
 1666 0082 7022     		mov	r2, #112
 1667 0084 1340     		and	r3, r2
1091:Generated_Source\PSoC4/ADC.c **** 					& ADC_SAR_SAMPLE_CTRL_AVG_CNT_MSK) 
 1668              		.loc 1 1091 0
 1669 0086 1B09     		lsr	r3, r3, #4
 1670 0088 FB60     		str	r3, [r7, #12]
1093:Generated_Source\PSoC4/ADC.c **** 					>> ADC_SAR_SAMPLE_CTRL_AVG_CNT_SHFT);
1094:Generated_Source\PSoC4/ADC.c ****                 averageAdcSamplesDiv = (1uL << (averageAdcSamplesDiv + 1uL));
 1671              		.loc 1 1094 0
 1672 008a FB68     		ldr	r3, [r7, #12]
 1673 008c 0133     		add	r3, r3, #1
 1674 008e 1A1C     		mov	r2, r3
 1675 0090 0123     		mov	r3, #1
 1676 0092 9340     		lsl	r3, r3, r2
 1677 0094 FB60     		str	r3, [r7, #12]
1095:Generated_Source\PSoC4/ADC.c ****                 
1096:Generated_Source\PSoC4/ADC.c ****                 /* If unsigned format, prevent sign extension */
1097:Generated_Source\PSoC4/ADC.c ****                 if(0 == ADC_IsChannelSigned(chan))
 1678              		.loc 1 1097 0
 1679 0096 7B68     		ldr	r3, [r7, #4]
ARM GAS  C:\Users\CHRIST~1\AppData\Local\Temp\cclwqoH0.s 			page 50


 1680 0098 181C     		mov	r0, r3
 1681 009a FFF7FEFF 		bl	ADC_IsChannelSigned
 1682 009e 031E     		sub	r3, r0, #0
 1683 00a0 0BD1     		bne	.L122
1098:Generated_Source\PSoC4/ADC.c ****                 {
1099:Generated_Source\PSoC4/ADC.c **** 					temp = ((uint16) adcCounts / averageAdcSamplesDiv);
 1684              		.loc 1 1099 0
 1685 00a2 BB1C     		add	r3, r7, #2
 1686 00a4 1B88     		ldrh	r3, [r3]
 1687 00a6 181C     		mov	r0, r3
 1688 00a8 F968     		ldr	r1, [r7, #12]
 1689 00aa FFF7FEFF 		bl	__aeabi_uidiv
 1690 00ae 031C     		mov	r3, r0
 1691 00b0 BB60     		str	r3, [r7, #8]
1100:Generated_Source\PSoC4/ADC.c ****                     adcCounts = (int16) temp;
 1692              		.loc 1 1100 0
 1693 00b2 BB1C     		add	r3, r7, #2
 1694 00b4 BA68     		ldr	r2, [r7, #8]
 1695 00b6 1A80     		strh	r2, [r3]
 1696 00b8 0DE0     		b	.L121
 1697              	.L122:
1101:Generated_Source\PSoC4/ADC.c ****                 }
1102:Generated_Source\PSoC4/ADC.c ****                 else
1103:Generated_Source\PSoC4/ADC.c ****                 {
1104:Generated_Source\PSoC4/ADC.c ****                     adcCounts /= (int16) averageAdcSamplesDiv;
 1698              		.loc 1 1104 0
 1699 00ba BB1C     		add	r3, r7, #2
 1700 00bc 0022     		mov	r2, #0
 1701 00be 9A5E     		ldrsh	r2, [r3, r2]
 1702 00c0 FB68     		ldr	r3, [r7, #12]
 1703 00c2 9BB2     		uxth	r3, r3
 1704 00c4 1BB2     		sxth	r3, r3
 1705 00c6 101C     		mov	r0, r2
 1706 00c8 191C     		mov	r1, r3
 1707 00ca FFF7FEFF 		bl	__aeabi_idiv
 1708 00ce 031C     		mov	r3, r0
 1709 00d0 1A1C     		mov	r2, r3
 1710 00d2 BB1C     		add	r3, r7, #2
 1711 00d4 1A80     		strh	r2, [r3]
 1712              	.L121:
1105:Generated_Source\PSoC4/ADC.c ****                 }
1106:Generated_Source\PSoC4/ADC.c **** 	        }
1107:Generated_Source\PSoC4/ADC.c **** 	    }
1108:Generated_Source\PSoC4/ADC.c **** 
1109:Generated_Source\PSoC4/ADC.c **** 	    /* Subtract ADC offset */
1110:Generated_Source\PSoC4/ADC.c **** 	    adcCounts -= ADC_offset[rawChannel];
 1713              		.loc 1 1110 0
 1714 00d6 224B     		ldr	r3, .L128+12
 1715 00d8 3A69     		ldr	r2, [r7, #16]
 1716 00da 5200     		lsl	r2, r2, #1
 1717 00dc D35A     		ldrh	r3, [r2, r3]
 1718 00de 99B2     		uxth	r1, r3
 1719 00e0 BB1C     		add	r3, r7, #2
 1720 00e2 1A88     		ldrh	r2, [r3]
 1721 00e4 8BB2     		uxth	r3, r1
 1722 00e6 D31A     		sub	r3, r2, r3
 1723 00e8 9AB2     		uxth	r2, r3
ARM GAS  C:\Users\CHRIST~1\AppData\Local\Temp\cclwqoH0.s 			page 51


 1724 00ea BB1C     		add	r3, r7, #2
 1725 00ec 1A80     		strh	r2, [r3]
1111:Generated_Source\PSoC4/ADC.c **** 
1112:Generated_Source\PSoC4/ADC.c **** 	    result_mVolts = (int16)((((int32)adcCounts * ADC_10MV_COUNTS) + ( (adcCounts > 0) ? 
 1726              		.loc 1 1112 0
 1727 00ee BB1C     		add	r3, r7, #2
 1728 00f0 0022     		mov	r2, #0
 1729 00f2 9B5E     		ldrsh	r3, [r3, r2]
 1730 00f4 1B4A     		ldr	r2, .L128+16
 1731 00f6 5A43     		mul	r2, r3
1113:Generated_Source\PSoC4/ADC.c **** 	             (ADC_countsPer10Volt[rawChannel] / 2) 
1114:Generated_Source\PSoC4/ADC.c **** 				: (-(ADC_countsPer10Volt[rawChannel] / 2)) )) 
 1732              		.loc 1 1114 0
 1733 00f8 BB1C     		add	r3, r7, #2
 1734 00fa 0021     		mov	r1, #0
 1735 00fc 5B5E     		ldrsh	r3, [r3, r1]
 1736 00fe 002B     		cmp	r3, #0
 1737 0100 08DD     		ble	.L123
1113:Generated_Source\PSoC4/ADC.c **** 	             (ADC_countsPer10Volt[rawChannel] / 2) 
 1738              		.loc 1 1113 0 discriminator 1
 1739 0102 194B     		ldr	r3, .L128+20
 1740 0104 3969     		ldr	r1, [r7, #16]
 1741 0106 8900     		lsl	r1, r1, #2
 1742 0108 CB58     		ldr	r3, [r1, r3]
 1743              		.loc 1 1114 0 discriminator 1
 1744 010a 002B     		cmp	r3, #0
 1745 010c 00DA     		bge	.L124
 1746 010e 0133     		add	r3, r3, #1
 1747              	.L124:
 1748 0110 5B10     		asr	r3, r3, #1
 1749 0112 08E0     		b	.L125
 1750              	.L123:
 1751              		.loc 1 1114 0 is_stmt 0 discriminator 2
 1752 0114 144B     		ldr	r3, .L128+20
 1753 0116 3969     		ldr	r1, [r7, #16]
 1754 0118 8900     		lsl	r1, r1, #2
 1755 011a CB58     		ldr	r3, [r1, r3]
 1756 011c 002B     		cmp	r3, #0
 1757 011e 00DA     		bge	.L126
 1758 0120 0133     		add	r3, r3, #1
 1759              	.L126:
 1760 0122 5B10     		asr	r3, r3, #1
 1761 0124 5B42     		neg	r3, r3
 1762              	.L125:
1112:Generated_Source\PSoC4/ADC.c **** 	             (ADC_countsPer10Volt[rawChannel] / 2) 
 1763              		.loc 1 1112 0 is_stmt 1
 1764 0126 D118     		add	r1, r2, r3
1115:Generated_Source\PSoC4/ADC.c **** 	             / ADC_countsPer10Volt[rawChannel]);
 1765              		.loc 1 1115 0
 1766 0128 0F4B     		ldr	r3, .L128+20
 1767 012a 3A69     		ldr	r2, [r7, #16]
 1768 012c 9200     		lsl	r2, r2, #2
 1769 012e D358     		ldr	r3, [r2, r3]
 1770 0130 081C     		mov	r0, r1
 1771 0132 191C     		mov	r1, r3
 1772 0134 FFF7FEFF 		bl	__aeabi_idiv
 1773 0138 031C     		mov	r3, r0
ARM GAS  C:\Users\CHRIST~1\AppData\Local\Temp\cclwqoH0.s 			page 52


 1774 013a 1A1C     		mov	r2, r3
1112:Generated_Source\PSoC4/ADC.c **** 	             (ADC_countsPer10Volt[rawChannel] / 2) 
 1775              		.loc 1 1112 0
 1776 013c 1623     		mov	r3, #22
 1777 013e FB18     		add	r3, r7, r3
 1778 0140 1A80     		strh	r2, [r3]
 1779              	.L119:
1116:Generated_Source\PSoC4/ADC.c **** 	}
1117:Generated_Source\PSoC4/ADC.c ****     return result_mVolts;
 1780              		.loc 1 1117 0
 1781 0142 1623     		mov	r3, #22
 1782 0144 FB18     		add	r3, r7, r3
 1783 0146 1B88     		ldrh	r3, [r3]
 1784 0148 1BB2     		sxth	r3, r3
1118:Generated_Source\PSoC4/ADC.c **** }
 1785              		.loc 1 1118 0
 1786 014a 181C     		mov	r0, r3
 1787 014c BD46     		mov	sp, r7
 1788 014e 06B0     		add	sp, sp, #24
 1789              		@ sp needed
 1790 0150 80BD     		pop	{r7, pc}
 1791              	.L129:
 1792 0152 C046     		.align	2
 1793              	.L128:
 1794 0154 04000000 		.word	ADC_currentConfig
 1795 0158 00000000 		.word	ADC_allConfigs
 1796 015c 00000000 		.word	ADC_channelsConfig
 1797 0160 00000000 		.word	ADC_offset
 1798 0164 10270000 		.word	10000
 1799 0168 00000000 		.word	ADC_countsPer10Volt
 1800              		.cfi_endproc
 1801              	.LFE22:
 1802              		.size	ADC_CountsTo_mVolts, .-ADC_CountsTo_mVolts
 1803              		.global	__aeabi_lmul
 1804              		.global	__aeabi_ldivmod
 1805              		.section	.text.ADC_CountsTo_uVolts,"ax",%progbits
 1806              		.align	2
 1807              		.global	ADC_CountsTo_uVolts
 1808              		.code	16
 1809              		.thumb_func
 1810              		.type	ADC_CountsTo_uVolts, %function
 1811              	ADC_CountsTo_uVolts:
 1812              	.LFB23:
1119:Generated_Source\PSoC4/ADC.c **** 
1120:Generated_Source\PSoC4/ADC.c **** /*******************************************************************************
1121:Generated_Source\PSoC4/ADC.c **** * Function Name: ADC_CountsTo_uVolts
1122:Generated_Source\PSoC4/ADC.c **** ****************************************************************************//**
1123:Generated_Source\PSoC4/ADC.c **** *
1124:Generated_Source\PSoC4/ADC.c **** * \brief Converts the ADC output to microvolts as a 32-bit integer. 
1125:Generated_Source\PSoC4/ADC.c **** * For example, if the ADC measured 0.534 volts, the return value 
1126:Generated_Source\PSoC4/ADC.c **** * would be 534000. The calculation of voltage depends on the value of the voltage 
1127:Generated_Source\PSoC4/ADC.c **** * reference. When the Vref is based on Vdda, the value used for Vdda is set for 
1128:Generated_Source\PSoC4/ADC.c **** * the project in the System tab of the DWR.
1129:Generated_Source\PSoC4/ADC.c **** *
1130:Generated_Source\PSoC4/ADC.c **** * \param chan ADC channel number.   
1131:Generated_Source\PSoC4/ADC.c **** *
1132:Generated_Source\PSoC4/ADC.c **** * \param adcCounts Result from the ADC conversion.
ARM GAS  C:\Users\CHRIST~1\AppData\Local\Temp\cclwqoH0.s 			page 53


1133:Generated_Source\PSoC4/ADC.c **** *
1134:Generated_Source\PSoC4/ADC.c **** * \return Result in microvolts.
1135:Generated_Source\PSoC4/ADC.c **** * 
1136:Generated_Source\PSoC4/ADC.c **** * \sideeffect None
1137:Generated_Source\PSoC4/ADC.c **** *
1138:Generated_Source\PSoC4/ADC.c **** * <b>Code Snippet</b>
1139:Generated_Source\PSoC4/ADC.c **** *  \snippet main.c snippet_ADC_CountsTo_uVolts
1140:Generated_Source\PSoC4/ADC.c **** *
1141:Generated_Source\PSoC4/ADC.c **** *******************************************************************************/
1142:Generated_Source\PSoC4/ADC.c **** int32 ADC_CountsTo_uVolts(uint32 chan, int16 adcCounts)
1143:Generated_Source\PSoC4/ADC.c **** {   
 1813              		.loc 1 1143 0
 1814              		.cfi_startproc
 1815 0000 F0B5     		push	{r4, r5, r6, r7, lr}
 1816              		.cfi_def_cfa_offset 20
 1817              		.cfi_offset 4, -20
 1818              		.cfi_offset 5, -16
 1819              		.cfi_offset 6, -12
 1820              		.cfi_offset 7, -8
 1821              		.cfi_offset 14, -4
 1822 0002 8BB0     		sub	sp, sp, #44
 1823              		.cfi_def_cfa_offset 64
 1824 0004 00AF     		add	r7, sp, #0
 1825              		.cfi_def_cfa_register 7
 1826 0006 F860     		str	r0, [r7, #12]
 1827 0008 0A1C     		mov	r2, r1
 1828 000a 0A23     		mov	r3, #10
 1829 000c FB18     		add	r3, r7, r3
 1830 000e 1A80     		strh	r2, [r3]
1144:Generated_Source\PSoC4/ADC.c ****     int64 result_uVolts = 0;
 1831              		.loc 1 1144 0
 1832 0010 0023     		mov	r3, #0
 1833 0012 0024     		mov	r4, #0
 1834 0014 3B62     		str	r3, [r7, #32]
 1835 0016 7C62     		str	r4, [r7, #36]
1145:Generated_Source\PSoC4/ADC.c **** 	uint32 temp;
1146:Generated_Source\PSoC4/ADC.c **** 	uint32 averageAdcSamplesDiv;
1147:Generated_Source\PSoC4/ADC.c **** 	uint32 rawChannel;
1148:Generated_Source\PSoC4/ADC.c **** 	rawChannel = ADC_allConfigs[ADC_currentConfig].channelBase + chan;
 1836              		.loc 1 1148 0
 1837 0018 4B4B     		ldr	r3, .L136
 1838 001a 1A68     		ldr	r2, [r3]
 1839 001c 4B4B     		ldr	r3, .L136+4
 1840 001e 3421     		mov	r1, #52
 1841 0020 4A43     		mul	r2, r1
 1842 0022 D258     		ldr	r2, [r2, r3]
 1843 0024 FB68     		ldr	r3, [r7, #12]
 1844 0026 D318     		add	r3, r2, r3
 1845 0028 FB61     		str	r3, [r7, #28]
1149:Generated_Source\PSoC4/ADC.c **** 
1150:Generated_Source\PSoC4/ADC.c **** 	if((ADC_allConfigs[ADC_currentConfig].sampleCtrl 
 1846              		.loc 1 1150 0
 1847 002a 474B     		ldr	r3, .L136
 1848 002c 1B68     		ldr	r3, [r3]
 1849 002e 474A     		ldr	r2, .L136+4
 1850 0030 3421     		mov	r1, #52
 1851 0032 4B43     		mul	r3, r1
ARM GAS  C:\Users\CHRIST~1\AppData\Local\Temp\cclwqoH0.s 			page 54


 1852 0034 D318     		add	r3, r2, r3
 1853 0036 0833     		add	r3, r3, #8
 1854 0038 5B68     		ldr	r3, [r3, #4]
1151:Generated_Source\PSoC4/ADC.c **** 		& ADC_SAR_SAMPLE_CTRL_LEFT_ALIGN_MSK) 
 1855              		.loc 1 1151 0
 1856 003a 0222     		mov	r2, #2
 1857 003c 1340     		and	r3, r2
1150:Generated_Source\PSoC4/ADC.c **** 		& ADC_SAR_SAMPLE_CTRL_LEFT_ALIGN_MSK) 
 1858              		.loc 1 1150 0
 1859 003e 00D0     		beq	.LCB1606
 1860 0040 7CE0     		b	.L131	@long jump
 1861              	.LCB1606:
1152:Generated_Source\PSoC4/ADC.c **** 		!= ADC_SAR_SAMPLE_CTRL_LEFT_ALIGN_MSK)
1153:Generated_Source\PSoC4/ADC.c **** 	{
1154:Generated_Source\PSoC4/ADC.c ****         /* Halt CPU in debug mode if channel is out of valid range */
1155:Generated_Source\PSoC4/ADC.c ****         CYASSERT(chan < ADC_TOTAL_CHANNELS_NUM);
 1862              		.loc 1 1155 0
 1863 0042 FB68     		ldr	r3, [r7, #12]
 1864 0044 062B     		cmp	r3, #6
 1865 0046 02D9     		bls	.L132
 1866              		.loc 1 1155 0 is_stmt 0 discriminator 1
 1867 0048 0020     		mov	r0, #0
 1868 004a FFF7FEFF 		bl	CyHalt
 1869              	.L132:
1156:Generated_Source\PSoC4/ADC.c **** 
1157:Generated_Source\PSoC4/ADC.c ****         /* Divide the adcCount when accumulate averaging mode selected */
1158:Generated_Source\PSoC4/ADC.c **** 		if((ADC_allConfigs[ADC_currentConfig].sampleCtrl 
 1870              		.loc 1 1158 0 is_stmt 1
 1871 004e 3E4B     		ldr	r3, .L136
 1872 0050 1B68     		ldr	r3, [r3]
 1873 0052 3E4A     		ldr	r2, .L136+4
 1874 0054 3421     		mov	r1, #52
 1875 0056 4B43     		mul	r3, r1
 1876 0058 D318     		add	r3, r2, r3
 1877 005a 0833     		add	r3, r3, #8
 1878 005c 5B68     		ldr	r3, [r3, #4]
1159:Generated_Source\PSoC4/ADC.c **** 			& ADC_SAR_SAMPLE_CTRL_AVG_SHIFT_MSK) 
 1879              		.loc 1 1159 0
 1880 005e 8022     		mov	r2, #128
 1881 0060 1340     		and	r3, r2
1158:Generated_Source\PSoC4/ADC.c **** 			& ADC_SAR_SAMPLE_CTRL_AVG_SHIFT_MSK) 
 1882              		.loc 1 1158 0
 1883 0062 3DD1     		bne	.L133
1160:Generated_Source\PSoC4/ADC.c **** 			!= ADC_SAR_SAMPLE_CTRL_AVG_SHIFT_MSK)
1161:Generated_Source\PSoC4/ADC.c **** 		{
1162:Generated_Source\PSoC4/ADC.c **** 	        if((ADC_channelsConfig[rawChannel] & ADC_SAR_CHAN_CONFIG_AVG_EN_MSK) != 0u)
 1884              		.loc 1 1162 0
 1885 0064 3A4B     		ldr	r3, .L136+8
 1886 0066 FA69     		ldr	r2, [r7, #28]
 1887 0068 9200     		lsl	r2, r2, #2
 1888 006a D258     		ldr	r2, [r2, r3]
 1889 006c 8023     		mov	r3, #128
 1890 006e DB00     		lsl	r3, r3, #3
 1891 0070 1340     		and	r3, r2
 1892 0072 35D0     		beq	.L133
1163:Generated_Source\PSoC4/ADC.c **** 	        {
1164:Generated_Source\PSoC4/ADC.c ****                 /* Divide by 2^(AVG_CNT + 1) */
ARM GAS  C:\Users\CHRIST~1\AppData\Local\Temp\cclwqoH0.s 			page 55


1165:Generated_Source\PSoC4/ADC.c **** 				averageAdcSamplesDiv = ((ADC_allConfigs[ADC_currentConfig].sampleCtrl 
 1893              		.loc 1 1165 0
 1894 0074 344B     		ldr	r3, .L136
 1895 0076 1B68     		ldr	r3, [r3]
 1896 0078 344A     		ldr	r2, .L136+4
 1897 007a 3421     		mov	r1, #52
 1898 007c 4B43     		mul	r3, r1
 1899 007e D318     		add	r3, r2, r3
 1900 0080 0833     		add	r3, r3, #8
 1901 0082 5B68     		ldr	r3, [r3, #4]
1166:Generated_Source\PSoC4/ADC.c **** 					& ADC_SAR_SAMPLE_CTRL_AVG_CNT_MSK) 
 1902              		.loc 1 1166 0
 1903 0084 7022     		mov	r2, #112
 1904 0086 1340     		and	r3, r2
1165:Generated_Source\PSoC4/ADC.c **** 					& ADC_SAR_SAMPLE_CTRL_AVG_CNT_MSK) 
 1905              		.loc 1 1165 0
 1906 0088 1B09     		lsr	r3, r3, #4
 1907 008a BB61     		str	r3, [r7, #24]
1167:Generated_Source\PSoC4/ADC.c **** 					>> ADC_SAR_SAMPLE_CTRL_AVG_CNT_SHFT);
1168:Generated_Source\PSoC4/ADC.c ****                 averageAdcSamplesDiv = (1uL << (averageAdcSamplesDiv + 1uL));
 1908              		.loc 1 1168 0
 1909 008c BB69     		ldr	r3, [r7, #24]
 1910 008e 0133     		add	r3, r3, #1
 1911 0090 1A1C     		mov	r2, r3
 1912 0092 0123     		mov	r3, #1
 1913 0094 9340     		lsl	r3, r3, r2
 1914 0096 BB61     		str	r3, [r7, #24]
1169:Generated_Source\PSoC4/ADC.c ****                 
1170:Generated_Source\PSoC4/ADC.c ****                 /* If unsigned format, prevent sign extension */
1171:Generated_Source\PSoC4/ADC.c ****                 if(0 == ADC_IsChannelSigned(chan))
 1915              		.loc 1 1171 0
 1916 0098 FB68     		ldr	r3, [r7, #12]
 1917 009a 181C     		mov	r0, r3
 1918 009c FFF7FEFF 		bl	ADC_IsChannelSigned
 1919 00a0 031E     		sub	r3, r0, #0
 1920 00a2 0DD1     		bne	.L134
1172:Generated_Source\PSoC4/ADC.c ****                 {
1173:Generated_Source\PSoC4/ADC.c **** 					temp = ((uint16) adcCounts / averageAdcSamplesDiv);
 1921              		.loc 1 1173 0
 1922 00a4 0A23     		mov	r3, #10
 1923 00a6 FB18     		add	r3, r7, r3
 1924 00a8 1B88     		ldrh	r3, [r3]
 1925 00aa 181C     		mov	r0, r3
 1926 00ac B969     		ldr	r1, [r7, #24]
 1927 00ae FFF7FEFF 		bl	__aeabi_uidiv
 1928 00b2 031C     		mov	r3, r0
 1929 00b4 7B61     		str	r3, [r7, #20]
1174:Generated_Source\PSoC4/ADC.c ****                     adcCounts = (int16) temp;
 1930              		.loc 1 1174 0
 1931 00b6 0A23     		mov	r3, #10
 1932 00b8 FB18     		add	r3, r7, r3
 1933 00ba 7A69     		ldr	r2, [r7, #20]
 1934 00bc 1A80     		strh	r2, [r3]
 1935 00be 0FE0     		b	.L133
 1936              	.L134:
1175:Generated_Source\PSoC4/ADC.c ****                 }
1176:Generated_Source\PSoC4/ADC.c ****                 else
ARM GAS  C:\Users\CHRIST~1\AppData\Local\Temp\cclwqoH0.s 			page 56


1177:Generated_Source\PSoC4/ADC.c ****                 {
1178:Generated_Source\PSoC4/ADC.c ****                     adcCounts /= (int16) averageAdcSamplesDiv;
 1937              		.loc 1 1178 0
 1938 00c0 0A23     		mov	r3, #10
 1939 00c2 FB18     		add	r3, r7, r3
 1940 00c4 0022     		mov	r2, #0
 1941 00c6 9A5E     		ldrsh	r2, [r3, r2]
 1942 00c8 BB69     		ldr	r3, [r7, #24]
 1943 00ca 9BB2     		uxth	r3, r3
 1944 00cc 1BB2     		sxth	r3, r3
 1945 00ce 101C     		mov	r0, r2
 1946 00d0 191C     		mov	r1, r3
 1947 00d2 FFF7FEFF 		bl	__aeabi_idiv
 1948 00d6 031C     		mov	r3, r0
 1949 00d8 1A1C     		mov	r2, r3
 1950 00da 0A23     		mov	r3, #10
 1951 00dc FB18     		add	r3, r7, r3
 1952 00de 1A80     		strh	r2, [r3]
 1953              	.L133:
1179:Generated_Source\PSoC4/ADC.c ****                 }
1180:Generated_Source\PSoC4/ADC.c ****             }
1181:Generated_Source\PSoC4/ADC.c ****         }
1182:Generated_Source\PSoC4/ADC.c **** 
1183:Generated_Source\PSoC4/ADC.c ****         /* Subtract ADC offset */
1184:Generated_Source\PSoC4/ADC.c ****         adcCounts -= ADC_offset[rawChannel];
 1954              		.loc 1 1184 0
 1955 00e0 1C4B     		ldr	r3, .L136+12
 1956 00e2 FA69     		ldr	r2, [r7, #28]
 1957 00e4 5200     		lsl	r2, r2, #1
 1958 00e6 D35A     		ldrh	r3, [r2, r3]
 1959 00e8 99B2     		uxth	r1, r3
 1960 00ea 0A23     		mov	r3, #10
 1961 00ec FB18     		add	r3, r7, r3
 1962 00ee 1A88     		ldrh	r2, [r3]
 1963 00f0 8BB2     		uxth	r3, r1
 1964 00f2 D31A     		sub	r3, r2, r3
 1965 00f4 9AB2     		uxth	r2, r3
 1966 00f6 0A23     		mov	r3, #10
 1967 00f8 FB18     		add	r3, r7, r3
 1968 00fa 1A80     		strh	r2, [r3]
1185:Generated_Source\PSoC4/ADC.c **** 
1186:Generated_Source\PSoC4/ADC.c ****         result_uVolts = ((int64)adcCounts * ADC_10UV_COUNTS) 
 1969              		.loc 1 1186 0
 1970 00fc 0A23     		mov	r3, #10
 1971 00fe FB18     		add	r3, r7, r3
 1972 0100 1B88     		ldrh	r3, [r3]
 1973 0102 1BB2     		sxth	r3, r3
 1974 0104 3B60     		str	r3, [r7]
 1975 0106 DB17     		asr	r3, r3, #31
 1976 0108 7B60     		str	r3, [r7, #4]
 1977 010a 3868     		ldr	r0, [r7]
 1978 010c 7968     		ldr	r1, [r7, #4]
 1979 010e 124A     		ldr	r2, .L136+16
 1980 0110 0023     		mov	r3, #0
 1981 0112 FFF7FEFF 		bl	__aeabi_lmul
 1982 0116 031C     		mov	r3, r0
 1983 0118 0C1C     		mov	r4, r1
ARM GAS  C:\Users\CHRIST~1\AppData\Local\Temp\cclwqoH0.s 			page 57


 1984 011a 181C     		mov	r0, r3
 1985 011c 211C     		mov	r1, r4
1187:Generated_Source\PSoC4/ADC.c **** 			/ ADC_countsPer10Volt[rawChannel];
 1986              		.loc 1 1187 0
 1987 011e 0F4B     		ldr	r3, .L136+20
 1988 0120 FA69     		ldr	r2, [r7, #28]
 1989 0122 9200     		lsl	r2, r2, #2
 1990 0124 D358     		ldr	r3, [r2, r3]
 1991 0126 1D1C     		mov	r5, r3
 1992 0128 DB17     		asr	r3, r3, #31
 1993 012a 1E1C     		mov	r6, r3
1186:Generated_Source\PSoC4/ADC.c **** 			/ ADC_countsPer10Volt[rawChannel];
 1994              		.loc 1 1186 0
 1995 012c 2A1C     		mov	r2, r5
 1996 012e 331C     		mov	r3, r6
 1997 0130 FFF7FEFF 		bl	__aeabi_ldivmod
 1998 0134 031C     		mov	r3, r0
 1999 0136 0C1C     		mov	r4, r1
 2000 0138 3B62     		str	r3, [r7, #32]
 2001 013a 7C62     		str	r4, [r7, #36]
 2002              	.L131:
1188:Generated_Source\PSoC4/ADC.c **** 	}
1189:Generated_Source\PSoC4/ADC.c **** 	return ( (int32)result_uVolts );
 2003              		.loc 1 1189 0
 2004 013c 3B6A     		ldr	r3, [r7, #32]
1190:Generated_Source\PSoC4/ADC.c **** }
 2005              		.loc 1 1190 0
 2006 013e 181C     		mov	r0, r3
 2007 0140 BD46     		mov	sp, r7
 2008 0142 0BB0     		add	sp, sp, #44
 2009              		@ sp needed
 2010 0144 F0BD     		pop	{r4, r5, r6, r7, pc}
 2011              	.L137:
 2012 0146 C046     		.align	2
 2013              	.L136:
 2014 0148 04000000 		.word	ADC_currentConfig
 2015 014c 00000000 		.word	ADC_allConfigs
 2016 0150 00000000 		.word	ADC_channelsConfig
 2017 0154 00000000 		.word	ADC_offset
 2018 0158 80969800 		.word	10000000
 2019 015c 00000000 		.word	ADC_countsPer10Volt
 2020              		.cfi_endproc
 2021              	.LFE23:
 2022              		.size	ADC_CountsTo_uVolts, .-ADC_CountsTo_uVolts
 2023              		.section	.text.ADC_Init,"ax",%progbits
 2024              		.align	2
 2025              		.global	ADC_Init
 2026              		.code	16
 2027              		.thumb_func
 2028              		.type	ADC_Init, %function
 2029              	ADC_Init:
 2030              	.LFB24:
1191:Generated_Source\PSoC4/ADC.c **** 
1192:Generated_Source\PSoC4/ADC.c **** #if(0u != ADC_ANY_CONFIG_USES_FILTER)		
1193:Generated_Source\PSoC4/ADC.c ****     /* ****************************************************************************
1194:Generated_Source\PSoC4/ADC.c ****     * Function Name: ADC_TrimOffset
1195:Generated_Source\PSoC4/ADC.c ****     ****************************************************************************//*
ARM GAS  C:\Users\CHRIST~1\AppData\Local\Temp\cclwqoH0.s 			page 58


1196:Generated_Source\PSoC4/ADC.c ****     *
1197:Generated_Source\PSoC4/ADC.c ****     * \brief Runs an algorithm to reduce offset using the UAB's opamp trim.
1198:Generated_Source\PSoC4/ADC.c ****     *
1199:Generated_Source\PSoC4/ADC.c ****     * \param None
1200:Generated_Source\PSoC4/ADC.c ****     * 
1201:Generated_Source\PSoC4/ADC.c ****     * \return None
1202:Generated_Source\PSoC4/ADC.c ****     *
1203:Generated_Source\PSoC4/ADC.c ****     * \sideeffect None
1204:Generated_Source\PSoC4/ADC.c ****     *
1205:Generated_Source\PSoC4/ADC.c ****     * <b>Code Snippet</b>
1206:Generated_Source\PSoC4/ADC.c ****     *  \snippet main.c snippet_ADC_TrimOffset
1207:Generated_Source\PSoC4/ADC.c ****     *
1208:Generated_Source\PSoC4/ADC.c ****     *******************************************************************************/
1209:Generated_Source\PSoC4/ADC.c ****     void ADC_TrimOffset(void)
1210:Generated_Source\PSoC4/ADC.c ****     {
1211:Generated_Source\PSoC4/ADC.c ****         uint32 curTrim = 0uL;
1212:Generated_Source\PSoC4/ADC.c ****         uint32 bestTrim = 0uL;
1213:Generated_Source\PSoC4/ADC.c ****         int16 curResult = 0;
1214:Generated_Source\PSoC4/ADC.c ****         int16 bestResult = (int16)0x7fff; /* Max positive 16-bit number */
1215:Generated_Source\PSoC4/ADC.c ****         int16 targResult = 0;
1216:Generated_Source\PSoC4/ADC.c **** 
1217:Generated_Source\PSoC4/ADC.c ****         ADC_Stop();
1218:Generated_Source\PSoC4/ADC.c ****         ADC_Start();
1219:Generated_Source\PSoC4/ADC.c ****         ADC_StartConvert();
1220:Generated_Source\PSoC4/ADC.c ****         /* Set firmware modbit. */
1221:Generated_Source\PSoC4/ADC.c ****         ADC_UABH_A_CAP_ABCF_VAL_REG |= (0x1uL << CyUAB_SIGN_VAL_SHIFT);
1222:Generated_Source\PSoC4/ADC.c ****         ADC_UABH_B_CAP_ABCF_VAL_REG |= (0x1uL << CyUAB_SIGN_VAL_SHIFT);
1223:Generated_Source\PSoC4/ADC.c ****         /* Unsigned mode zero is 0x800, signed mode zero is 0 */
1224:Generated_Source\PSoC4/ADC.c ****         targResult = (0u != (ADC_SAR_SAMPLE_CTRL_REG 
1225:Generated_Source\PSoC4/ADC.c ****                                  & ADC_SAR_SAMPLE_CTRL_DIFFERENTIAL_SIGNED_MSK))
1226:Generated_Source\PSoC4/ADC.c ****                            ? 0
1227:Generated_Source\PSoC4/ADC.c ****                            : (int16)0x0800;
1228:Generated_Source\PSoC4/ADC.c ****                         
1229:Generated_Source\PSoC4/ADC.c ****         /* Check each trim value. Remember trim that created smallest offset.*/
1230:Generated_Source\PSoC4/ADC.c ****         for(curTrim = 0uL; curTrim < 0x10uL; curTrim++)
1231:Generated_Source\PSoC4/ADC.c ****         {
1232:Generated_Source\PSoC4/ADC.c ****             /* Use defines from cydevice_trm to set trim. */
1233:Generated_Source\PSoC4/ADC.c ****             CY_SET_REG32(CYREG_UAB0_OA_TRIM0, 
1234:Generated_Source\PSoC4/ADC.c ****                 CY_GET_REG32(CYREG_UAB0_OA_TRIM0) & ~(0xfuL << CyUAB_OA_OFFSET_SHIFT));
1235:Generated_Source\PSoC4/ADC.c ****             CY_SET_REG32(CYREG_UAB0_OA_TRIM0, 
1236:Generated_Source\PSoC4/ADC.c ****                 CY_GET_REG32(CYREG_UAB0_OA_TRIM0) | (curTrim << CyUAB_OA_OFFSET_SHIFT));
1237:Generated_Source\PSoC4/ADC.c ****             CyDelayUs(100u);
1238:Generated_Source\PSoC4/ADC.c ****             (void)ADC_IsEndConversion(ADC_WAIT_FOR_RESULT);
1239:Generated_Source\PSoC4/ADC.c ****             curResult = ADC_GetResult16(0uL) - targResult;
1240:Generated_Source\PSoC4/ADC.c ****             if (curResult < 0)
1241:Generated_Source\PSoC4/ADC.c ****             {
1242:Generated_Source\PSoC4/ADC.c ****                 curResult *= -1;
1243:Generated_Source\PSoC4/ADC.c ****             }
1244:Generated_Source\PSoC4/ADC.c ****             if (curResult < bestResult)
1245:Generated_Source\PSoC4/ADC.c ****             {
1246:Generated_Source\PSoC4/ADC.c ****                 bestResult = curResult;
1247:Generated_Source\PSoC4/ADC.c ****                 bestTrim = curTrim;
1248:Generated_Source\PSoC4/ADC.c ****             }
1249:Generated_Source\PSoC4/ADC.c ****         }
1250:Generated_Source\PSoC4/ADC.c ****         
1251:Generated_Source\PSoC4/ADC.c ****         /* Set the best trim. */
1252:Generated_Source\PSoC4/ADC.c ****         CY_SET_REG32(CYREG_UAB0_OA_TRIM0, 
ARM GAS  C:\Users\CHRIST~1\AppData\Local\Temp\cclwqoH0.s 			page 59


1253:Generated_Source\PSoC4/ADC.c ****             CY_GET_REG32(CYREG_UAB0_OA_TRIM0) & ~(0xfuL << CyUAB_OA_OFFSET_SHIFT));
1254:Generated_Source\PSoC4/ADC.c ****         CY_SET_REG32(CYREG_UAB0_OA_TRIM0, 
1255:Generated_Source\PSoC4/ADC.c ****             CY_GET_REG32(CYREG_UAB0_OA_TRIM0) | (bestTrim << CyUAB_OA_OFFSET_SHIFT));
1256:Generated_Source\PSoC4/ADC.c ****         
1257:Generated_Source\PSoC4/ADC.c ****         /* Clear the modbit */
1258:Generated_Source\PSoC4/ADC.c ****         ADC_UABH_A_CAP_ABCF_VAL_REG &= ~(0x1uL << CyUAB_SIGN_VAL_SHIFT);
1259:Generated_Source\PSoC4/ADC.c ****         ADC_UABH_B_CAP_ABCF_VAL_REG &= ~(0x1uL << CyUAB_SIGN_VAL_SHIFT);
1260:Generated_Source\PSoC4/ADC.c ****     }
1261:Generated_Source\PSoC4/ADC.c **** #endif /* ADC_ANY_CONFIG_USES_FILTER != 0u */
1262:Generated_Source\PSoC4/ADC.c **** /* ****************************************************************************
1263:Generated_Source\PSoC4/ADC.c **** * Function Name: ADC_Init
1264:Generated_Source\PSoC4/ADC.c **** ****************************************************************************//*
1265:Generated_Source\PSoC4/ADC.c **** *
1266:Generated_Source\PSoC4/ADC.c **** * \brief Initialize the component according to parameters defined in the 
1267:Generated_Source\PSoC4/ADC.c **** * customizer.
1268:Generated_Source\PSoC4/ADC.c **** *
1269:Generated_Source\PSoC4/ADC.c **** * \param None
1270:Generated_Source\PSoC4/ADC.c **** * 
1271:Generated_Source\PSoC4/ADC.c **** * \return None
1272:Generated_Source\PSoC4/ADC.c **** *
1273:Generated_Source\PSoC4/ADC.c **** * \sideeffect None
1274:Generated_Source\PSoC4/ADC.c **** *
1275:Generated_Source\PSoC4/ADC.c **** * <b>Code Snippet</b>
1276:Generated_Source\PSoC4/ADC.c **** *  \snippet main.c snippet_ADC_Init
1277:Generated_Source\PSoC4/ADC.c **** *
1278:Generated_Source\PSoC4/ADC.c **** *******************************************************************************/
1279:Generated_Source\PSoC4/ADC.c **** void ADC_Init(void)
1280:Generated_Source\PSoC4/ADC.c **** {
 2031              		.loc 1 1280 0
 2032              		.cfi_startproc
 2033 0000 80B5     		push	{r7, lr}
 2034              		.cfi_def_cfa_offset 8
 2035              		.cfi_offset 7, -8
 2036              		.cfi_offset 14, -4
 2037 0002 84B0     		sub	sp, sp, #16
 2038              		.cfi_def_cfa_offset 24
 2039 0004 00AF     		add	r7, sp, #0
 2040              		.cfi_def_cfa_register 7
1281:Generated_Source\PSoC4/ADC.c **** 	uint32 chNum = 0ul;
 2041              		.loc 1 1281 0
 2042 0006 0023     		mov	r3, #0
 2043 0008 FB60     		str	r3, [r7, #12]
1282:Generated_Source\PSoC4/ADC.c **** 	uint32 configNum = 0u;
 2044              		.loc 1 1282 0
 2045 000a 0023     		mov	r3, #0
 2046 000c BB60     		str	r3, [r7, #8]
1283:Generated_Source\PSoC4/ADC.c **** 	int32 counts;
1284:Generated_Source\PSoC4/ADC.c **** 	
1285:Generated_Source\PSoC4/ADC.c **** 	if(0u == ADC_initVar)
 2047              		.loc 1 1285 0
 2048 000e 654B     		ldr	r3, .L155
 2049 0010 1B78     		ldrb	r3, [r3]
 2050 0012 002B     		cmp	r3, #0
 2051 0014 00D0     		beq	.LCB1780
 2052 0016 C0E0     		b	.L139	@long jump
 2053              	.LCB1780:
1286:Generated_Source\PSoC4/ADC.c **** 	{
ARM GAS  C:\Users\CHRIST~1\AppData\Local\Temp\cclwqoH0.s 			page 60


1287:Generated_Source\PSoC4/ADC.c **** 		/* Set offset and countsPer10Volt for all channels */
1288:Generated_Source\PSoC4/ADC.c **** 		for(chNum = 0ul; chNum < ADC_TOTAL_CHANNELS_NUM; chNum++)
 2054              		.loc 1 1288 0
 2055 0018 0023     		mov	r3, #0
 2056 001a FB60     		str	r3, [r7, #12]
 2057 001c 85E0     		b	.L140
 2058              	.L151:
1289:Generated_Source\PSoC4/ADC.c **** 		{      
1290:Generated_Source\PSoC4/ADC.c **** 			if((ADC_channelsConfig[chNum] & ADC_SAR_CHAN_CONFIG_RESOLUTION_MSK) != 0u)
 2059              		.loc 1 1290 0
 2060 001e 624B     		ldr	r3, .L155+4
 2061 0020 FA68     		ldr	r2, [r7, #12]
 2062 0022 9200     		lsl	r2, r2, #2
 2063 0024 D258     		ldr	r2, [r2, r3]
 2064 0026 8023     		mov	r3, #128
 2065 0028 9B00     		lsl	r3, r3, #2
 2066 002a 1340     		and	r3, r2
 2067 002c 11D0     		beq	.L141
1291:Generated_Source\PSoC4/ADC.c ****         	{
1292:Generated_Source\PSoC4/ADC.c **** 				if((ADC_allConfigs[configNum].sampleCtrl 
 2068              		.loc 1 1292 0
 2069 002e 5F4A     		ldr	r2, .L155+8
 2070 0030 BB68     		ldr	r3, [r7, #8]
 2071 0032 3421     		mov	r1, #52
 2072 0034 4B43     		mul	r3, r1
 2073 0036 D318     		add	r3, r2, r3
 2074 0038 0833     		add	r3, r3, #8
 2075 003a 5B68     		ldr	r3, [r3, #4]
1293:Generated_Source\PSoC4/ADC.c **** 					& ADC_SAR_SAMPLE_CTRL_SUB_RESOLUTION_MSK) 
 2076              		.loc 1 1293 0
 2077 003c 0122     		mov	r2, #1
 2078 003e 1340     		and	r3, r2
1292:Generated_Source\PSoC4/ADC.c **** 					& ADC_SAR_SAMPLE_CTRL_SUB_RESOLUTION_MSK) 
 2079              		.loc 1 1292 0
 2080 0040 03D0     		beq	.L142
1294:Generated_Source\PSoC4/ADC.c **** 					== ADC_SUB_RESOLUTION_10B)
1295:Generated_Source\PSoC4/ADC.c **** 				{
1296:Generated_Source\PSoC4/ADC.c **** 					counts = (int32) ADC_SAR_WRK_MAX_10BIT;
 2081              		.loc 1 1296 0
 2082 0042 8023     		mov	r3, #128
 2083 0044 DB00     		lsl	r3, r3, #3
 2084 0046 7B60     		str	r3, [r7, #4]
 2085 0048 06E0     		b	.L144
 2086              	.L142:
1297:Generated_Source\PSoC4/ADC.c **** 				}
1298:Generated_Source\PSoC4/ADC.c **** 				else
1299:Generated_Source\PSoC4/ADC.c **** 				{
1300:Generated_Source\PSoC4/ADC.c **** 					counts = (int32) ADC_SAR_WRK_MAX_8BIT;
 2087              		.loc 1 1300 0
 2088 004a 8023     		mov	r3, #128
 2089 004c 5B00     		lsl	r3, r3, #1
 2090 004e 7B60     		str	r3, [r7, #4]
 2091 0050 02E0     		b	.L144
 2092              	.L141:
1301:Generated_Source\PSoC4/ADC.c **** 				}
1302:Generated_Source\PSoC4/ADC.c ****         	}
1303:Generated_Source\PSoC4/ADC.c ****         	else
ARM GAS  C:\Users\CHRIST~1\AppData\Local\Temp\cclwqoH0.s 			page 61


1304:Generated_Source\PSoC4/ADC.c ****         	{
1305:Generated_Source\PSoC4/ADC.c ****                counts = (int32)ADC_SAR_WRK_MAX_12BIT;
 2093              		.loc 1 1305 0
 2094 0052 8023     		mov	r3, #128
 2095 0054 5B01     		lsl	r3, r3, #5
 2096 0056 7B60     		str	r3, [r7, #4]
 2097              	.L144:
1306:Generated_Source\PSoC4/ADC.c ****         	}
1307:Generated_Source\PSoC4/ADC.c **** 			
1308:Generated_Source\PSoC4/ADC.c **** 			/* Single Ended Channel */
1309:Generated_Source\PSoC4/ADC.c **** 			if((ADC_channelsConfig[chNum] & ADC_SAR_CHAN_CONFIG_DIFFERENTIAL_EN_MSK) == 0u)
 2098              		.loc 1 1309 0
 2099 0058 534B     		ldr	r3, .L155+4
 2100 005a FA68     		ldr	r2, [r7, #12]
 2101 005c 9200     		lsl	r2, r2, #2
 2102 005e D258     		ldr	r2, [r2, r3]
 2103 0060 8023     		mov	r3, #128
 2104 0062 5B00     		lsl	r3, r3, #1
 2105 0064 1340     		and	r3, r2
 2106 0066 29D1     		bne	.L145
1310:Generated_Source\PSoC4/ADC.c ****         	{
1311:Generated_Source\PSoC4/ADC.c **** 				if(((ADC_allConfigs[configNum].sampleCtrl 
 2107              		.loc 1 1311 0
 2108 0068 504A     		ldr	r2, .L155+8
 2109 006a BB68     		ldr	r3, [r7, #8]
 2110 006c 3421     		mov	r1, #52
 2111 006e 4B43     		mul	r3, r1
 2112 0070 D318     		add	r3, r2, r3
 2113 0072 0833     		add	r3, r3, #8
 2114 0074 5B68     		ldr	r3, [r3, #4]
1312:Generated_Source\PSoC4/ADC.c **** 					& ADC_SAR_SAMPLE_CTRL_SINGLE_ENDED_SIGNED_MSK) 
 2115              		.loc 1 1312 0
 2116 0076 0422     		mov	r2, #4
 2117 0078 1340     		and	r3, r2
1311:Generated_Source\PSoC4/ADC.c **** 					& ADC_SAR_SAMPLE_CTRL_SINGLE_ENDED_SIGNED_MSK) 
 2118              		.loc 1 1311 0
 2119 007a 19D0     		beq	.L146
1313:Generated_Source\PSoC4/ADC.c **** 					== ADC_SAR_SAMPLE_CTRL_SINGLE_ENDED_SIGNED_MSK) && 
1314:Generated_Source\PSoC4/ADC.c **** 					((ADC_allConfigs[configNum].ctrl & ADC_SAR_CTRL_NEG_SEL_MSK) 
 2120              		.loc 1 1314 0
 2121 007c 4B4A     		ldr	r2, .L155+8
 2122 007e BB68     		ldr	r3, [r7, #8]
 2123 0080 3421     		mov	r1, #52
 2124 0082 4B43     		mul	r3, r1
 2125 0084 D318     		add	r3, r2, r3
 2126 0086 0833     		add	r3, r3, #8
 2127 0088 1A68     		ldr	r2, [r3]
 2128 008a E023     		mov	r3, #224
 2129 008c 1B01     		lsl	r3, r3, #4
 2130 008e 1A40     		and	r2, r3
1313:Generated_Source\PSoC4/ADC.c **** 					== ADC_SAR_SAMPLE_CTRL_SINGLE_ENDED_SIGNED_MSK) && 
 2131              		.loc 1 1313 0
 2132 0090 E023     		mov	r3, #224
 2133 0092 1B01     		lsl	r3, r3, #4
 2134 0094 9A42     		cmp	r2, r3
 2135 0096 0BD1     		bne	.L146
1315:Generated_Source\PSoC4/ADC.c **** 					== ADC_NEG_VREF_SHIFTED))
ARM GAS  C:\Users\CHRIST~1\AppData\Local\Temp\cclwqoH0.s 			page 62


1316:Generated_Source\PSoC4/ADC.c **** 				{
1317:Generated_Source\PSoC4/ADC.c **** 					/* Set offset to the minus half scale to convert results to unsigned format */
1318:Generated_Source\PSoC4/ADC.c ****                 	ADC_offset[chNum] = (int16)(counts / -2);		
 2136              		.loc 1 1318 0
 2137 0098 7B68     		ldr	r3, [r7, #4]
 2138 009a 002B     		cmp	r3, #0
 2139 009c 00DA     		bge	.L147
 2140 009e 0133     		add	r3, r3, #1
 2141              	.L147:
 2142 00a0 5B10     		asr	r3, r3, #1
 2143 00a2 5B42     		neg	r3, r3
 2144 00a4 99B2     		uxth	r1, r3
 2145 00a6 424B     		ldr	r3, .L155+12
 2146 00a8 FA68     		ldr	r2, [r7, #12]
 2147 00aa 5200     		lsl	r2, r2, #1
 2148 00ac D152     		strh	r1, [r2, r3]
 2149 00ae 0AE0     		b	.L149
 2150              	.L146:
1319:Generated_Source\PSoC4/ADC.c ****             	}
1320:Generated_Source\PSoC4/ADC.c **** 				else
1321:Generated_Source\PSoC4/ADC.c **** 				{
1322:Generated_Source\PSoC4/ADC.c ****                 	ADC_offset[chNum] = 0;	
 2151              		.loc 1 1322 0
 2152 00b0 3F4B     		ldr	r3, .L155+12
 2153 00b2 FA68     		ldr	r2, [r7, #12]
 2154 00b4 5200     		lsl	r2, r2, #1
 2155 00b6 0021     		mov	r1, #0
 2156 00b8 D152     		strh	r1, [r2, r3]
 2157 00ba 04E0     		b	.L149
 2158              	.L145:
1323:Generated_Source\PSoC4/ADC.c **** 				}
1324:Generated_Source\PSoC4/ADC.c **** 			}
1325:Generated_Source\PSoC4/ADC.c **** 			else    /* Differential channel */
1326:Generated_Source\PSoC4/ADC.c ****         	{
1327:Generated_Source\PSoC4/ADC.c ****                	ADC_offset[chNum] = 0; 
 2159              		.loc 1 1327 0
 2160 00bc 3C4B     		ldr	r3, .L155+12
 2161 00be FA68     		ldr	r2, [r7, #12]
 2162 00c0 5200     		lsl	r2, r2, #1
 2163 00c2 0021     		mov	r1, #0
 2164 00c4 D152     		strh	r1, [r2, r3]
 2165              	.L149:
1328:Generated_Source\PSoC4/ADC.c **** 			}
1329:Generated_Source\PSoC4/ADC.c ****             
1330:Generated_Source\PSoC4/ADC.c **** 			/* Calculate gain in counts per 10 volts with rounding */
1331:Generated_Source\PSoC4/ADC.c ****         	ADC_countsPer10Volt[chNum] = (int16)(((counts * ADC_10MV_COUNTS) \
 2166              		.loc 1 1331 0
 2167 00c6 7B68     		ldr	r3, [r7, #4]
 2168 00c8 3A4A     		ldr	r2, .L155+16
 2169 00ca 5A43     		mul	r2, r3
1332:Generated_Source\PSoC4/ADC.c ****                             + ADC_allConfigs[configNum].vrefMvValue) \
 2170              		.loc 1 1332 0
 2171 00cc 3749     		ldr	r1, .L155+8
 2172 00ce BB68     		ldr	r3, [r7, #8]
 2173 00d0 3420     		mov	r0, #52
 2174 00d2 4343     		mul	r3, r0
 2175 00d4 CB18     		add	r3, r1, r3
ARM GAS  C:\Users\CHRIST~1\AppData\Local\Temp\cclwqoH0.s 			page 63


 2176 00d6 2833     		add	r3, r3, #40
 2177 00d8 5B68     		ldr	r3, [r3, #4]
 2178 00da D018     		add	r0, r2, r3
1333:Generated_Source\PSoC4/ADC.c **** 							/ (ADC_allConfigs[configNum].vrefMvValue * 2));
 2179              		.loc 1 1333 0
 2180 00dc 334A     		ldr	r2, .L155+8
 2181 00de BB68     		ldr	r3, [r7, #8]
 2182 00e0 3421     		mov	r1, #52
 2183 00e2 4B43     		mul	r3, r1
 2184 00e4 D318     		add	r3, r2, r3
 2185 00e6 2833     		add	r3, r3, #40
 2186 00e8 5B68     		ldr	r3, [r3, #4]
 2187 00ea 5B00     		lsl	r3, r3, #1
 2188 00ec 191C     		mov	r1, r3
 2189 00ee FFF7FEFF 		bl	__aeabi_idiv
 2190 00f2 031C     		mov	r3, r0
1331:Generated_Source\PSoC4/ADC.c ****                             + ADC_allConfigs[configNum].vrefMvValue) \
 2191              		.loc 1 1331 0
 2192 00f4 9BB2     		uxth	r3, r3
 2193 00f6 19B2     		sxth	r1, r3
 2194 00f8 2F4B     		ldr	r3, .L155+20
 2195 00fa FA68     		ldr	r2, [r7, #12]
 2196 00fc 9200     		lsl	r2, r2, #2
 2197 00fe D150     		str	r1, [r2, r3]
1334:Generated_Source\PSoC4/ADC.c ****             
1335:Generated_Source\PSoC4/ADC.c ****             /* Increment configuration number after rolling over to the next configuration*/
1336:Generated_Source\PSoC4/ADC.c **** 			if((ADC_allConfigs[configNum].channelBase
 2198              		.loc 1 1336 0
 2199 0100 2A4B     		ldr	r3, .L155+8
 2200 0102 BA68     		ldr	r2, [r7, #8]
 2201 0104 3421     		mov	r1, #52
 2202 0106 4A43     		mul	r2, r1
 2203 0108 D258     		ldr	r2, [r2, r3]
1337:Generated_Source\PSoC4/ADC.c **** 				+ ADC_allConfigs[configNum].numChannels) == chNum)
 2204              		.loc 1 1337 0
 2205 010a 2849     		ldr	r1, .L155+8
 2206 010c BB68     		ldr	r3, [r7, #8]
 2207 010e 3420     		mov	r0, #52
 2208 0110 4343     		mul	r3, r0
 2209 0112 CB18     		add	r3, r1, r3
 2210 0114 5B68     		ldr	r3, [r3, #4]
 2211 0116 D218     		add	r2, r2, r3
1336:Generated_Source\PSoC4/ADC.c **** 				+ ADC_allConfigs[configNum].numChannels) == chNum)
 2212              		.loc 1 1336 0
 2213 0118 FB68     		ldr	r3, [r7, #12]
 2214 011a 9A42     		cmp	r2, r3
 2215 011c 02D1     		bne	.L150
1338:Generated_Source\PSoC4/ADC.c **** 			{
1339:Generated_Source\PSoC4/ADC.c **** 				configNum++;
 2216              		.loc 1 1339 0
 2217 011e BB68     		ldr	r3, [r7, #8]
 2218 0120 0133     		add	r3, r3, #1
 2219 0122 BB60     		str	r3, [r7, #8]
 2220              	.L150:
1288:Generated_Source\PSoC4/ADC.c **** 		{      
 2221              		.loc 1 1288 0 discriminator 2
 2222 0124 FB68     		ldr	r3, [r7, #12]
ARM GAS  C:\Users\CHRIST~1\AppData\Local\Temp\cclwqoH0.s 			page 64


 2223 0126 0133     		add	r3, r3, #1
 2224 0128 FB60     		str	r3, [r7, #12]
 2225              	.L140:
1288:Generated_Source\PSoC4/ADC.c **** 		{      
 2226              		.loc 1 1288 0 is_stmt 0 discriminator 1
 2227 012a FB68     		ldr	r3, [r7, #12]
 2228 012c 062B     		cmp	r3, #6
 2229 012e 00D8     		bhi	.LCB1948
 2230 0130 75E7     		b	.L151	@long jump
 2231              	.LCB1948:
1340:Generated_Source\PSoC4/ADC.c **** 			}
1341:Generated_Source\PSoC4/ADC.c **** 		} /* for(chNum = 0ul; chNum < ADC_TOTAL_CHANNELS_NUM; chNum++) */
1342:Generated_Source\PSoC4/ADC.c ****         
1343:Generated_Source\PSoC4/ADC.c ****         #if(ADC_IRQ_REMOVE == 0u)
1344:Generated_Source\PSoC4/ADC.c ****             /* Start and set interrupt vector */
1345:Generated_Source\PSoC4/ADC.c ****             CyIntSetPriority(ADC_INTC_NUMBER, ADC_INTC_PRIOR_NUMBER);
 2232              		.loc 1 1345 0 is_stmt 1
 2233 0132 0F20     		mov	r0, #15
 2234 0134 0321     		mov	r1, #3
 2235 0136 FFF7FEFF 		bl	CyIntSetPriority
1346:Generated_Source\PSoC4/ADC.c ****             (void)CyIntSetVector(ADC_INTC_NUMBER, &ADC_ISR);
 2236              		.loc 1 1346 0
 2237 013a 204B     		ldr	r3, .L155+24
 2238 013c 0F20     		mov	r0, #15
 2239 013e 191C     		mov	r1, r3
 2240 0140 FFF7FEFF 		bl	CyIntSetVector
1347:Generated_Source\PSoC4/ADC.c ****         #endif   /* End ADC_IRQ_REMOVE */
1348:Generated_Source\PSoC4/ADC.c ****         
1349:Generated_Source\PSoC4/ADC.c ****         /* Initialize the channel enable masks for each configuration */
1350:Generated_Source\PSoC4/ADC.c ****         for(configNum=0u; configNum < ADC_TOTAL_CONFIGS; configNum++)
 2241              		.loc 1 1350 0
 2242 0144 0023     		mov	r3, #0
 2243 0146 BB60     		str	r3, [r7, #8]
 2244 0148 0DE0     		b	.L152
 2245              	.L153:
1351:Generated_Source\PSoC4/ADC.c **** 		{
1352:Generated_Source\PSoC4/ADC.c **** 			ADC_channelEnMasks[configNum] = ADC_allConfigs[configNum].chanEn;
 2246              		.loc 1 1352 0 discriminator 3
 2247 014a 184A     		ldr	r2, .L155+8
 2248 014c BB68     		ldr	r3, [r7, #8]
 2249 014e 3421     		mov	r1, #52
 2250 0150 4B43     		mul	r3, r1
 2251 0152 D318     		add	r3, r2, r3
 2252 0154 2033     		add	r3, r3, #32
 2253 0156 1968     		ldr	r1, [r3]
 2254 0158 194B     		ldr	r3, .L155+28
 2255 015a BA68     		ldr	r2, [r7, #8]
 2256 015c 9200     		lsl	r2, r2, #2
 2257 015e D150     		str	r1, [r2, r3]
1350:Generated_Source\PSoC4/ADC.c **** 		{
 2258              		.loc 1 1350 0 discriminator 3
 2259 0160 BB68     		ldr	r3, [r7, #8]
 2260 0162 0133     		add	r3, r3, #1
 2261 0164 BB60     		str	r3, [r7, #8]
 2262              	.L152:
1350:Generated_Source\PSoC4/ADC.c **** 		{
 2263              		.loc 1 1350 0 is_stmt 0 discriminator 1
ARM GAS  C:\Users\CHRIST~1\AppData\Local\Temp\cclwqoH0.s 			page 65


 2264 0166 BB68     		ldr	r3, [r7, #8]
 2265 0168 002B     		cmp	r3, #0
 2266 016a EED0     		beq	.L153
1353:Generated_Source\PSoC4/ADC.c **** 		}
1354:Generated_Source\PSoC4/ADC.c ****         
1355:Generated_Source\PSoC4/ADC.c ****         #if(0u != ADC_ANY_CONFIG_USES_FILTER)		
1356:Generated_Source\PSoC4/ADC.c **** 		    /* Configure the common filter settings if any configuration filters */
1357:Generated_Source\PSoC4/ADC.c **** 		    ADC_UABH_A_Init(&ADC_UABH_A_FILTER_config);
1358:Generated_Source\PSoC4/ADC.c **** 		    ADC_UABH_B_Init(&ADC_UABH_B_FILTER_config);
1359:Generated_Source\PSoC4/ADC.c ****             ADC_FILTERAGND2SAR_BUFFER_Init();
1360:Generated_Source\PSoC4/ADC.c ****             /* Set several of the UAB switches or buffers based on what source is used as Vagnd/Vre
1361:Generated_Source\PSoC4/ADC.c ****             #if ADC_UABH_A_halfuab__VAGND_SRC != ADC_UABH_A_halfuab__SRC_AGNDBUF
1362:Generated_Source\PSoC4/ADC.c ****                 ADC_UABH_A_SetStaticSwitch(ADC_SW_EXTAGND, CyUAB_SW_CLOSED);
1363:Generated_Source\PSoC4/ADC.c ****             #else
1364:Generated_Source\PSoC4/ADC.c ****                 ADC_UABH_A_SetAgndPower(CyUAB_PWR_HIGH);
1365:Generated_Source\PSoC4/ADC.c ****             #endif
1366:Generated_Source\PSoC4/ADC.c ****             
1367:Generated_Source\PSoC4/ADC.c ****             /* Control UAB filter output switch with PHI3 "11" (always closed). */
1368:Generated_Source\PSoC4/ADC.c ****             ADC_UABH_B_SRAM0_REG |= 0x4u;
1369:Generated_Source\PSoC4/ADC.c ****             ADC_UABH_B_SRAM1_REG |= 0x4u;
1370:Generated_Source\PSoC4/ADC.c ****             ADC_UABH_B_SetSwitch(CyUAB_SW_PO, CyUAB_CLK_PHI3);
1371:Generated_Source\PSoC4/ADC.c ****         #endif /* ADC_ANY_CONFIG_USES_FILTER != 0u */
1372:Generated_Source\PSoC4/ADC.c ****         
1373:Generated_Source\PSoC4/ADC.c ****         /* Initialize configuration zero if SelectConfig has not been called */
1374:Generated_Source\PSoC4/ADC.c ****         if(0u == ADC_selected)
 2267              		.loc 1 1374 0 is_stmt 1
 2268 016c 154B     		ldr	r3, .L155+32
 2269 016e 1B78     		ldrb	r3, [r3]
 2270 0170 002B     		cmp	r3, #0
 2271 0172 12D1     		bne	.L139
1375:Generated_Source\PSoC4/ADC.c **** 	    {
1376:Generated_Source\PSoC4/ADC.c ****             ADC_selected = 1u;
 2272              		.loc 1 1376 0
 2273 0174 134B     		ldr	r3, .L155+32
 2274 0176 0122     		mov	r2, #1
 2275 0178 1A70     		strb	r2, [r3]
1377:Generated_Source\PSoC4/ADC.c ****             configNum = 0u;
 2276              		.loc 1 1377 0
 2277 017a 0023     		mov	r3, #0
 2278 017c BB60     		str	r3, [r7, #8]
1378:Generated_Source\PSoC4/ADC.c ****             /* Change Vref selection if is was routed by Creator */
1379:Generated_Source\PSoC4/ADC.c ****             #if (ADC_VREF_ROUTED)
1380:Generated_Source\PSoC4/ADC.c ****             ADC_vrefAMux_Select((uint8)configNum);
1381:Generated_Source\PSoC4/ADC.c ****             #endif
1382:Generated_Source\PSoC4/ADC.c ****             ADC_InitConfig(&ADC_allConfigs[configNum]);
 2279              		.loc 1 1382 0
 2280 017e BB68     		ldr	r3, [r7, #8]
 2281 0180 3422     		mov	r2, #52
 2282 0182 5A43     		mul	r2, r3
 2283 0184 094B     		ldr	r3, .L155+8
 2284 0186 D318     		add	r3, r2, r3
 2285 0188 181C     		mov	r0, r3
 2286 018a FFF7FEFF 		bl	ADC_InitConfig
1383:Generated_Source\PSoC4/ADC.c ****             ADC_SAR_CHAN_EN_REG = ADC_channelEnMasks[configNum];
 2287              		.loc 1 1383 0
 2288 018e 0E4B     		ldr	r3, .L155+36
 2289 0190 0B4A     		ldr	r2, .L155+28
ARM GAS  C:\Users\CHRIST~1\AppData\Local\Temp\cclwqoH0.s 			page 66


 2290 0192 B968     		ldr	r1, [r7, #8]
 2291 0194 8900     		lsl	r1, r1, #2
 2292 0196 8A58     		ldr	r2, [r1, r2]
 2293 0198 1A60     		str	r2, [r3]
 2294              	.L139:
1384:Generated_Source\PSoC4/ADC.c ****             #if(0u != ADC_ANY_CONFIG_USES_FILTER)	
1385:Generated_Source\PSoC4/ADC.c ****                 ADC_filterVinMux_Select((uint8)configNum);
1386:Generated_Source\PSoC4/ADC.c ****             #endif
1387:Generated_Source\PSoC4/ADC.c ****         }           
1388:Generated_Source\PSoC4/ADC.c **** 	}
1389:Generated_Source\PSoC4/ADC.c ****     return;
 2295              		.loc 1 1389 0
 2296 019a C046     		mov	r8, r8
1390:Generated_Source\PSoC4/ADC.c **** }
 2297              		.loc 1 1390 0
 2298 019c BD46     		mov	sp, r7
 2299 019e 04B0     		add	sp, sp, #16
 2300              		@ sp needed
 2301 01a0 80BD     		pop	{r7, pc}
 2302              	.L156:
 2303 01a2 C046     		.align	2
 2304              	.L155:
 2305 01a4 00000000 		.word	ADC_initVar
 2306 01a8 00000000 		.word	ADC_channelsConfig
 2307 01ac 00000000 		.word	ADC_allConfigs
 2308 01b0 00000000 		.word	ADC_offset
 2309 01b4 10270000 		.word	10000
 2310 01b8 00000000 		.word	ADC_countsPer10Volt
 2311 01bc 00000000 		.word	ADC_ISR
 2312 01c0 08000000 		.word	ADC_channelEnMasks
 2313 01c4 00000000 		.word	ADC_selected
 2314 01c8 20003A40 		.word	1077542944
 2315              		.cfi_endproc
 2316              	.LFE24:
 2317              		.size	ADC_Init, .-ADC_Init
 2318              		.section	.text.ADC_Enable,"ax",%progbits
 2319              		.align	2
 2320              		.global	ADC_Enable
 2321              		.code	16
 2322              		.thumb_func
 2323              		.type	ADC_Enable, %function
 2324              	ADC_Enable:
 2325              	.LFB25:
1391:Generated_Source\PSoC4/ADC.c **** 
1392:Generated_Source\PSoC4/ADC.c **** /* ****************************************************************************
1393:Generated_Source\PSoC4/ADC.c **** * Function Name: ADC_Enable
1394:Generated_Source\PSoC4/ADC.c **** ****************************************************************************//*
1395:Generated_Source\PSoC4/ADC.c **** *
1396:Generated_Source\PSoC4/ADC.c **** * \brief Enables the component. 
1397:Generated_Source\PSoC4/ADC.c **** *
1398:Generated_Source\PSoC4/ADC.c **** * \param None
1399:Generated_Source\PSoC4/ADC.c **** * 
1400:Generated_Source\PSoC4/ADC.c **** * \return None
1401:Generated_Source\PSoC4/ADC.c **** * 
1402:Generated_Source\PSoC4/ADC.c **** * \sideeffect
1403:Generated_Source\PSoC4/ADC.c **** *  None
1404:Generated_Source\PSoC4/ADC.c **** *
ARM GAS  C:\Users\CHRIST~1\AppData\Local\Temp\cclwqoH0.s 			page 67


1405:Generated_Source\PSoC4/ADC.c **** * <b>Code Snippet</b>
1406:Generated_Source\PSoC4/ADC.c **** *  \snippet main.c snippet_ADC_Enable
1407:Generated_Source\PSoC4/ADC.c **** *
1408:Generated_Source\PSoC4/ADC.c **** *******************************************************************************/
1409:Generated_Source\PSoC4/ADC.c **** void ADC_Enable(void) 
1410:Generated_Source\PSoC4/ADC.c **** {
 2326              		.loc 1 1410 0
 2327              		.cfi_startproc
 2328 0000 80B5     		push	{r7, lr}
 2329              		.cfi_def_cfa_offset 8
 2330              		.cfi_offset 7, -8
 2331              		.cfi_offset 14, -4
 2332 0002 00AF     		add	r7, sp, #0
 2333              		.cfi_def_cfa_register 7
1411:Generated_Source\PSoC4/ADC.c **** 
1412:Generated_Source\PSoC4/ADC.c ****     #if(0u != ADC_ANY_CONFIG_USES_FILTER)	
1413:Generated_Source\PSoC4/ADC.c ****     	if((ADC_allConfigs[ADC_currentConfig].miscConfig
1414:Generated_Source\PSoC4/ADC.c ****     		& ADC_MISC_CONFIG_FILTER_PRESENT_MSK)
1415:Generated_Source\PSoC4/ADC.c ****     		== ADC_MISC_CONFIG_FILTER_PRESENT_MSK)
1416:Generated_Source\PSoC4/ADC.c ****     	{
1417:Generated_Source\PSoC4/ADC.c ****             ADC_FILTERAGND2SAR_BUFFER_Enable();
1418:Generated_Source\PSoC4/ADC.c ****     		ADC_UABH_A_Enable();
1419:Generated_Source\PSoC4/ADC.c ****     		ADC_UABH_B_Enable();
1420:Generated_Source\PSoC4/ADC.c ****             ADC_UABH_A_SetModbitSource(31u, 31u);
1421:Generated_Source\PSoC4/ADC.c ****             ADC_UABH_B_SetModbitSource(31u, 31u);
1422:Generated_Source\PSoC4/ADC.c ****             ADC_UABH_A_SetStartupDelay(ADC_allConfigs[ADC_currentConfig].filterStartDelay);
1423:Generated_Source\PSoC4/ADC.c ****             ADC_UABH_B_SetStartupDelay(ADC_allConfigs[ADC_currentConfig].filterStartDelay);
1424:Generated_Source\PSoC4/ADC.c ****             ADC_UABH_B_Run(1u);
1425:Generated_Source\PSoC4/ADC.c ****             ADC_UABH_A_Run(1u);
1426:Generated_Source\PSoC4/ADC.c ****     	}
1427:Generated_Source\PSoC4/ADC.c ****     #endif /* ADC_ANY_CONFIG_USES_FILTER != 0u */
1428:Generated_Source\PSoC4/ADC.c ****         
1429:Generated_Source\PSoC4/ADC.c ****     if (0u == (ADC_SAR_CTRL_REG & ADC_SAR_CTRL_ENABLED_MSK))
 2334              		.loc 1 1429 0
 2335 0004 0A4B     		ldr	r3, .L161
 2336 0006 1B68     		ldr	r3, [r3]
 2337 0008 002B     		cmp	r3, #0
 2338 000a 0EDB     		blt	.L158
1430:Generated_Source\PSoC4/ADC.c ****     {
1431:Generated_Source\PSoC4/ADC.c ****         while (0u != (ADC_SAR_STATUS_REG & ADC_BUSY_MSK))
 2339              		.loc 1 1431 0
 2340 000c C046     		mov	r8, r8
 2341              	.L159:
 2342              		.loc 1 1431 0 is_stmt 0 discriminator 1
 2343 000e 094B     		ldr	r3, .L161+4
 2344 0010 1B68     		ldr	r3, [r3]
 2345 0012 002B     		cmp	r3, #0
 2346 0014 FBDB     		blt	.L159
1432:Generated_Source\PSoC4/ADC.c ****         {
1433:Generated_Source\PSoC4/ADC.c ****             /* wait for SAR to go idle to avoid deadlock */
1434:Generated_Source\PSoC4/ADC.c ****         }
1435:Generated_Source\PSoC4/ADC.c ****         
1436:Generated_Source\PSoC4/ADC.c ****         ADC_SAR_CTRL_REG |= ADC_SAR_CTRL_ENABLED_MSK;
 2347              		.loc 1 1436 0 is_stmt 1
 2348 0016 064B     		ldr	r3, .L161
 2349 0018 054A     		ldr	r2, .L161
 2350 001a 1268     		ldr	r2, [r2]
ARM GAS  C:\Users\CHRIST~1\AppData\Local\Temp\cclwqoH0.s 			page 68


 2351 001c 8021     		mov	r1, #128
 2352 001e 0906     		lsl	r1, r1, #24
 2353 0020 0A43     		orr	r2, r1
 2354 0022 1A60     		str	r2, [r3]
1437:Generated_Source\PSoC4/ADC.c ****         
1438:Generated_Source\PSoC4/ADC.c ****         /* The block is ready to use 10 us after the enable signal is set high. */
1439:Generated_Source\PSoC4/ADC.c ****         CyDelayUs(ADC_10US_DELAY);
 2355              		.loc 1 1439 0
 2356 0024 0A20     		mov	r0, #10
 2357 0026 FFF7FEFF 		bl	CyDelayUs
 2358              	.L158:
1440:Generated_Source\PSoC4/ADC.c ****     }
1441:Generated_Source\PSoC4/ADC.c ****     return;
 2359              		.loc 1 1441 0
 2360 002a C046     		mov	r8, r8
1442:Generated_Source\PSoC4/ADC.c **** }
 2361              		.loc 1 1442 0
 2362 002c BD46     		mov	sp, r7
 2363              		@ sp needed
 2364 002e 80BD     		pop	{r7, pc}
 2365              	.L162:
 2366              		.align	2
 2367              	.L161:
 2368 0030 00003A40 		.word	1077542912
 2369 0034 A0023A40 		.word	1077543584
 2370              		.cfi_endproc
 2371              	.LFE25:
 2372              		.size	ADC_Enable, .-ADC_Enable
 2373              		.text
 2374              	.Letext0:
 2375              		.file 2 "Generated_Source\\PSoC4\\cytypes.h"
 2376              		.file 3 "Generated_Source\\PSoC4\\ADC.h"