ARM GAS  C:\Users\CHRIST~1\AppData\Local\Temp\ccnwnJfb.s 			page 1


   1              		.cpu cortex-m0plus
   2              		.fpu softvfp
   3              		.eabi_attribute 20, 1
   4              		.eabi_attribute 21, 1
   5              		.eabi_attribute 23, 3
   6              		.eabi_attribute 24, 1
   7              		.eabi_attribute 25, 1
   8              		.eabi_attribute 26, 1
   9              		.eabi_attribute 30, 6
  10              		.eabi_attribute 34, 0
  11              		.eabi_attribute 18, 4
  12              		.code	16
  13              		.file	"AmbientLightSensor.c"
  14              		.text
  15              	.Ltext0:
  16              		.cfi_sections	.debug_frame
  17              		.comm	ALSOffsetCount,2,2
  18              		.global	__aeabi_idiv
  19              		.section	.text.CalculateAmbientLight,"ax",%progbits
  20              		.align	2
  21              		.global	CalculateAmbientLight
  22              		.code	16
  23              		.thumb_func
  24              		.type	CalculateAmbientLight, %function
  25              	CalculateAmbientLight:
  26              	.LFB35:
  27              		.file 1 "AmbientLightSensor.c"
   1:AmbientLightSensor.c **** /*******************************************************************************
   2:AmbientLightSensor.c **** * File Name: AmbientLightSensor.c
   3:AmbientLightSensor.c **** *
   4:AmbientLightSensor.c **** * Version: 1.0
   5:AmbientLightSensor.c **** *
   6:AmbientLightSensor.c **** * Description:
   7:AmbientLightSensor.c **** * This source file has functions related to Ambient Light Sensor measurement.
   8:AmbientLightSensor.c **** *
   9:AmbientLightSensor.c **** * Owner:
  10:AmbientLightSensor.c **** * GRAA
  11:AmbientLightSensor.c **** *
  12:AmbientLightSensor.c **** * Code Tested With:
  13:AmbientLightSensor.c **** * 1. PSoC Creator 3.3 SP2 build 9598
  14:AmbientLightSensor.c **** *
  15:AmbientLightSensor.c **** ********************************************************************************
  16:AmbientLightSensor.c **** * Copyright (2016) , Cypress Semiconductor Corporation.
  17:AmbientLightSensor.c **** ********************************************************************************
  18:AmbientLightSensor.c **** * This software is owned by Cypress Semiconductor Corporation (Cypress) and is
  19:AmbientLightSensor.c **** * protected by and subject to worldwide patent protection (United States and
  20:AmbientLightSensor.c **** * foreign), United States copyright laws and international treaty provisions.
  21:AmbientLightSensor.c **** * Cypress hereby grants to licensee a personal, non-exclusive, non-transferable
  22:AmbientLightSensor.c **** * license to copy, use, modify, create derivative works of, and compile the
  23:AmbientLightSensor.c **** * Cypress Source Code and derivative works for the sole purpose of creating
  24:AmbientLightSensor.c **** * custom software in support of licensee product to be used only in conjunction
  25:AmbientLightSensor.c **** * with a Cypress integrated circuit as specified in the applicable agreement.
  26:AmbientLightSensor.c **** * Any reproduction, modification, translation, compilation, or representation of
  27:AmbientLightSensor.c **** * this software except as specified above is prohibited without the express
  28:AmbientLightSensor.c **** * written permission of Cypress.
  29:AmbientLightSensor.c **** *
  30:AmbientLightSensor.c **** * Disclaimer: CYPRESS MAKES NO WARRANTY OF ANY KIND, EXPRESS OR IMPLIED, WITH
ARM GAS  C:\Users\CHRIST~1\AppData\Local\Temp\ccnwnJfb.s 			page 2


  31:AmbientLightSensor.c **** * REGARD TO THIS MATERIAL, INCLUDING, BUT NOT LIMITED TO, THE IMPLIED
  32:AmbientLightSensor.c **** * WARRANTIES OF MERCHANTABILITY AND FITNESS FOR A PARTICULAR PURPOSE.
  33:AmbientLightSensor.c **** * Cypress reserves the right to make changes without further notice to the
  34:AmbientLightSensor.c **** * materials described herein. Cypress does not assume any liability arising out
  35:AmbientLightSensor.c **** * of the application or use of any product or circuit described herein. Cypress
  36:AmbientLightSensor.c **** * does not authorize its products for use as critical components in life-support
  37:AmbientLightSensor.c **** * systems where a malfunction or failure may reasonably be expected to result in
  38:AmbientLightSensor.c **** * significant injury to the user. The inclusion of Cypress' product in a life
  39:AmbientLightSensor.c **** * support systems application implies that the manufacturer assumes all risk of
  40:AmbientLightSensor.c **** * such use and in doing so indemnifies Cypress against all charges. Use may be
  41:AmbientLightSensor.c **** * limited by and subject to the applicable Cypress software license agreement.
  42:AmbientLightSensor.c **** *******************************************************************************/
  43:AmbientLightSensor.c **** 
  44:AmbientLightSensor.c **** #include <project.h>
  45:AmbientLightSensor.c **** #include <AmbientLightSensor.h>
  46:AmbientLightSensor.c **** #include <main.h>
  47:AmbientLightSensor.c **** #include <filters.h>
  48:AmbientLightSensor.c **** 
  49:AmbientLightSensor.c **** int16 CalculateAlsCurrent(int16 ADCResult);
  50:AmbientLightSensor.c **** uint16 CalculateAmbientLight(uint16 ALSCurrent);
  51:AmbientLightSensor.c **** uint16 ALSOffsetCount;
  52:AmbientLightSensor.c **** 
  53:AmbientLightSensor.c **** /*******************************************************************************
  54:AmbientLightSensor.c **** * Function Name: uint16 CalculateAmbientLight(uint16 ALSCurrent)
  55:AmbientLightSensor.c **** ********************************************************************************
  56:AmbientLightSensor.c **** *
  57:AmbientLightSensor.c **** * Summary:
  58:AmbientLightSensor.c **** *  This function takes photo diode current as parameter, calculates and returns
  59:AmbientLightSensor.c **** *  ambient light in lumens
  60:AmbientLightSensor.c **** *
  61:AmbientLightSensor.c **** * Parameters:
  62:AmbientLightSensor.c **** *  uint16 ALSCurrent 	- 	Current in nA.  This is an unsigned integer
  63:AmbientLightSensor.c **** *
  64:AmbientLightSensor.c **** * Return:
  65:AmbientLightSensor.c **** *  uint16 LightIntensity - Returns light intensity in Lumens
  66:AmbientLightSensor.c **** *
  67:AmbientLightSensor.c **** * Side Effects:
  68:AmbientLightSensor.c **** *   None
  69:AmbientLightSensor.c **** *******************************************************************************/
  70:AmbientLightSensor.c **** uint16 CalculateAmbientLight(uint16 ALSCurrent)
  71:AmbientLightSensor.c **** {
  28              		.loc 1 71 0
  29              		.cfi_startproc
  30 0000 80B5     		push	{r7, lr}
  31              		.cfi_def_cfa_offset 8
  32              		.cfi_offset 7, -8
  33              		.cfi_offset 14, -4
  34 0002 84B0     		sub	sp, sp, #16
  35              		.cfi_def_cfa_offset 24
  36 0004 00AF     		add	r7, sp, #0
  37              		.cfi_def_cfa_register 7
  38 0006 021C     		mov	r2, r0
  39 0008 BB1D     		add	r3, r7, #6
  40 000a 1A80     		strh	r2, [r3]
  72:AmbientLightSensor.c **** 	uint32 LightIntensity;
  73:AmbientLightSensor.c ****     
  74:AmbientLightSensor.c **** 	/* Calculate light intensity */
ARM GAS  C:\Users\CHRIST~1\AppData\Local\Temp\ccnwnJfb.s 			page 3


  75:AmbientLightSensor.c **** 	LightIntensity = (ALSCurrent * ALS_LIGHT_SCALE_FACTOR_NUMERATOR)/ALS_LIGHT_SCALE_FACTOR_DENOMINATO
  41              		.loc 1 75 0
  42 000c BB1D     		add	r3, r7, #6
  43 000e 1B88     		ldrh	r3, [r3]
  44 0010 074A     		ldr	r2, .L3
  45 0012 5343     		mul	r3, r2
  46 0014 181C     		mov	r0, r3
  47 0016 FA23     		mov	r3, #250
  48 0018 9900     		lsl	r1, r3, #2
  49 001a FFF7FEFF 		bl	__aeabi_idiv
  50 001e 031C     		mov	r3, r0
  51 0020 FB60     		str	r3, [r7, #12]
  76:AmbientLightSensor.c **** 	
  77:AmbientLightSensor.c **** 	return (int16)LightIntensity;
  52              		.loc 1 77 0
  53 0022 FB68     		ldr	r3, [r7, #12]
  54 0024 9BB2     		uxth	r3, r3
  78:AmbientLightSensor.c **** }
  55              		.loc 1 78 0
  56 0026 181C     		mov	r0, r3
  57 0028 BD46     		mov	sp, r7
  58 002a 04B0     		add	sp, sp, #16
  59              		@ sp needed
  60 002c 80BD     		pop	{r7, pc}
  61              	.L4:
  62 002e C046     		.align	2
  63              	.L3:
  64 0030 050D0000 		.word	3333
  65              		.cfi_endproc
  66              	.LFE35:
  67              		.size	CalculateAmbientLight, .-CalculateAmbientLight
  68              		.section	.text.AmbientLightSensorTask,"ax",%progbits
  69              		.align	2
  70              		.global	AmbientLightSensorTask
  71              		.code	16
  72              		.thumb_func
  73              		.type	AmbientLightSensorTask, %function
  74              	AmbientLightSensorTask:
  75              	.LFB36:
  79:AmbientLightSensor.c **** 
  80:AmbientLightSensor.c **** /*******************************************************************************
  81:AmbientLightSensor.c **** * Function Name: void AmbientLightSensorTask(void)
  82:AmbientLightSensor.c **** ********************************************************************************
  83:AmbientLightSensor.c **** *
  84:AmbientLightSensor.c **** * Summary:
  85:AmbientLightSensor.c **** *  This function performs the ambient light measurement task
  86:AmbientLightSensor.c **** *  The function reads ADC counts from ALS channel, passes the result through
  87:AmbientLightSensor.c **** *  a low pass filter, calls respective functions to calculate photo diode
  88:AmbientLightSensor.c **** *  current and ambient light and updates the respective variables in the
  89:AmbientLightSensor.c **** *  ProcessValues structure
  90:AmbientLightSensor.c **** *
  91:AmbientLightSensor.c **** * Parameters:
  92:AmbientLightSensor.c **** *  None
  93:AmbientLightSensor.c **** *
  94:AmbientLightSensor.c **** * Return:
  95:AmbientLightSensor.c **** *  None
  96:AmbientLightSensor.c **** *
ARM GAS  C:\Users\CHRIST~1\AppData\Local\Temp\ccnwnJfb.s 			page 4


  97:AmbientLightSensor.c **** * Side Effects:
  98:AmbientLightSensor.c **** *   None
  99:AmbientLightSensor.c **** *******************************************************************************/
 100:AmbientLightSensor.c **** void AmbientLightSensorTask(void)
 101:AmbientLightSensor.c **** {
  76              		.loc 1 101 0
  77              		.cfi_startproc
  78 0000 80B5     		push	{r7, lr}
  79              		.cfi_def_cfa_offset 8
  80              		.cfi_offset 7, -8
  81              		.cfi_offset 14, -4
  82 0002 82B0     		sub	sp, sp, #8
  83              		.cfi_def_cfa_offset 16
  84 0004 00AF     		add	r7, sp, #0
  85              		.cfi_def_cfa_register 7
 102:AmbientLightSensor.c **** 	uint16 ADCResult_ALS_Direct, ADCResult_ALS_Reverse, ADCResult;
 103:AmbientLightSensor.c ****     
 104:AmbientLightSensor.c ****     ADCResult_ALS_Direct = ADC_GetResult16(ADC_CHANNEL_ALS_DIRECT);
  86              		.loc 1 104 0
  87 0006 0320     		mov	r0, #3
  88 0008 FFF7FEFF 		bl	ADC_GetResult16
  89 000c 031C     		mov	r3, r0
  90 000e 1A1C     		mov	r2, r3
  91 0010 BB1D     		add	r3, r7, #6
  92 0012 1A80     		strh	r2, [r3]
 105:AmbientLightSensor.c **** 	ADCResult_ALS_Reverse = ADC_GetResult16(ADC_CHANNEL_ALS_REVERSE);
  93              		.loc 1 105 0
  94 0014 0420     		mov	r0, #4
  95 0016 FFF7FEFF 		bl	ADC_GetResult16
  96 001a 031C     		mov	r3, r0
  97 001c 1A1C     		mov	r2, r3
  98 001e 3B1D     		add	r3, r7, #4
  99 0020 1A80     		strh	r2, [r3]
 106:AmbientLightSensor.c ****     
 107:AmbientLightSensor.c **** 	ADCResult = LowPassFilter((int16)(ADCResult_ALS_Direct - ADCResult_ALS_Reverse)/2, LPF_CHANNEL_ALS
 100              		.loc 1 107 0
 101 0022 BA1D     		add	r2, r7, #6
 102 0024 3B1D     		add	r3, r7, #4
 103 0026 1288     		ldrh	r2, [r2]
 104 0028 1B88     		ldrh	r3, [r3]
 105 002a D31A     		sub	r3, r2, r3
 106 002c 9BB2     		uxth	r3, r3
 107 002e 9BB2     		uxth	r3, r3
 108 0030 1BB2     		sxth	r3, r3
 109 0032 002B     		cmp	r3, #0
 110 0034 00DA     		bge	.L6
 111 0036 0133     		add	r3, r3, #1
 112              	.L6:
 113 0038 5B10     		asr	r3, r3, #1
 114 003a 9BB2     		uxth	r3, r3
 115 003c 1BB2     		sxth	r3, r3
 116 003e 181C     		mov	r0, r3
 117 0040 0221     		mov	r1, #2
 118 0042 FFF7FEFF 		bl	LowPassFilter
 119 0046 021C     		mov	r2, r0
 120 0048 BB1C     		add	r3, r7, #2
 121 004a 1A80     		strh	r2, [r3]
ARM GAS  C:\Users\CHRIST~1\AppData\Local\Temp\ccnwnJfb.s 			page 5


 108:AmbientLightSensor.c **** 	
 109:AmbientLightSensor.c **** 	if(I2CRegsCommand)
 122              		.loc 1 109 0
 123 004c 134B     		ldr	r3, .L8
 124 004e 1B88     		ldrh	r3, [r3]
 125 0050 002B     		cmp	r3, #0
 126 0052 08D0     		beq	.L7
 110:AmbientLightSensor.c **** 	{
 111:AmbientLightSensor.c **** 		/* Read the offset count */		
 112:AmbientLightSensor.c **** 		ALSOffsetCount = ADCResult;
 127              		.loc 1 112 0
 128 0054 124B     		ldr	r3, .L8+4
 129 0056 BA1C     		add	r2, r7, #2
 130 0058 1288     		ldrh	r2, [r2]
 131 005a 1A80     		strh	r2, [r3]
 113:AmbientLightSensor.c **** 		
 114:AmbientLightSensor.c **** 		/* Clear the calibration command register */
 115:AmbientLightSensor.c **** 		I2CRegsCommand = 0;
 132              		.loc 1 115 0
 133 005c 0F4B     		ldr	r3, .L8
 134 005e 0022     		mov	r2, #0
 135 0060 1A80     		strh	r2, [r3]
 116:AmbientLightSensor.c **** 		
 117:AmbientLightSensor.c **** 		/* Write to flash */
 118:AmbientLightSensor.c **** 		WriteALSOffset();
 136              		.loc 1 118 0
 137 0062 FFF7FEFF 		bl	WriteALSOffset
 138              	.L7:
 119:AmbientLightSensor.c **** 	}
 120:AmbientLightSensor.c **** 	
 121:AmbientLightSensor.c ****   	ProcessValues.ALSCurrent = CalculateAlsCurrent(ADCResult - ALSOffsetCount);
 139              		.loc 1 121 0
 140 0066 0E4B     		ldr	r3, .L8+4
 141 0068 1B88     		ldrh	r3, [r3]
 142 006a BA1C     		add	r2, r7, #2
 143 006c 1288     		ldrh	r2, [r2]
 144 006e D31A     		sub	r3, r2, r3
 145 0070 9BB2     		uxth	r3, r3
 146 0072 9BB2     		uxth	r3, r3
 147 0074 1BB2     		sxth	r3, r3
 148 0076 181C     		mov	r0, r3
 149 0078 FFF7FEFF 		bl	CalculateAlsCurrent
 150 007c 031C     		mov	r3, r0
 151 007e 9AB2     		uxth	r2, r3
 152 0080 084B     		ldr	r3, .L8+8
 153 0082 1A81     		strh	r2, [r3, #8]
 122:AmbientLightSensor.c **** 	
 123:AmbientLightSensor.c **** 	ProcessValues.LightIntensity = CalculateAmbientLight(ProcessValues.ALSCurrent);
 154              		.loc 1 123 0
 155 0084 074B     		ldr	r3, .L8+8
 156 0086 1B89     		ldrh	r3, [r3, #8]
 157 0088 181C     		mov	r0, r3
 158 008a FFF7FEFF 		bl	CalculateAmbientLight
 159 008e 031C     		mov	r3, r0
 160 0090 1A1C     		mov	r2, r3
 161 0092 044B     		ldr	r3, .L8+8
 162 0094 5A81     		strh	r2, [r3, #10]
ARM GAS  C:\Users\CHRIST~1\AppData\Local\Temp\ccnwnJfb.s 			page 6


 124:AmbientLightSensor.c **** }	
 163              		.loc 1 124 0
 164 0096 BD46     		mov	sp, r7
 165 0098 02B0     		add	sp, sp, #8
 166              		@ sp needed
 167 009a 80BD     		pop	{r7, pc}
 168              	.L9:
 169              		.align	2
 170              	.L8:
 171 009c 00000000 		.word	I2CRegsCommand
 172 00a0 00000000 		.word	ALSOffsetCount
 173 00a4 00000000 		.word	ProcessValues
 174              		.cfi_endproc
 175              	.LFE36:
 176              		.size	AmbientLightSensorTask, .-AmbientLightSensorTask
 177              		.section	.text.CalculateAlsCurrent,"ax",%progbits
 178              		.align	2
 179              		.global	CalculateAlsCurrent
 180              		.code	16
 181              		.thumb_func
 182              		.type	CalculateAlsCurrent, %function
 183              	CalculateAlsCurrent:
 184              	.LFB37:
 125:AmbientLightSensor.c **** 
 126:AmbientLightSensor.c **** /*******************************************************************************
 127:AmbientLightSensor.c **** * Function Name: int16 CalculateAlsCurrent(int16 ADCResult)
 128:AmbientLightSensor.c **** ********************************************************************************
 129:AmbientLightSensor.c **** *
 130:AmbientLightSensor.c **** * Summary:
 131:AmbientLightSensor.c **** *  This function takes ADC Counts as input and calculates and returns photo
 132:AmbientLightSensor.c **** *  diode current.  The function limits the current to a +ve value
 133:AmbientLightSensor.c **** *
 134:AmbientLightSensor.c **** * Parameters:
 135:AmbientLightSensor.c **** *  int16 ADCResult 	- 	16 bit ADC result
 136:AmbientLightSensor.c **** *
 137:AmbientLightSensor.c **** * Return:
 138:AmbientLightSensor.c **** *  int16 DiodeCurrent - Returns diode current in nA
 139:AmbientLightSensor.c **** *
 140:AmbientLightSensor.c **** * Side Effects:
 141:AmbientLightSensor.c **** *   None
 142:AmbientLightSensor.c **** *******************************************************************************/
 143:AmbientLightSensor.c **** int16 CalculateAlsCurrent(int16 ADCResult)
 144:AmbientLightSensor.c **** {
 185              		.loc 1 144 0
 186              		.cfi_startproc
 187 0000 80B5     		push	{r7, lr}
 188              		.cfi_def_cfa_offset 8
 189              		.cfi_offset 7, -8
 190              		.cfi_offset 14, -4
 191 0002 84B0     		sub	sp, sp, #16
 192              		.cfi_def_cfa_offset 24
 193 0004 00AF     		add	r7, sp, #0
 194              		.cfi_def_cfa_register 7
 195 0006 021C     		mov	r2, r0
 196 0008 BB1D     		add	r3, r7, #6
 197 000a 1A80     		strh	r2, [r3]
 145:AmbientLightSensor.c **** 	int32 DiodeCurrent;
ARM GAS  C:\Users\CHRIST~1\AppData\Local\Temp\ccnwnJfb.s 			page 7


 146:AmbientLightSensor.c **** 	
 147:AmbientLightSensor.c **** 	/* Calculate photo diode current */
 148:AmbientLightSensor.c **** 	DiodeCurrent = (ADCResult * ALS_CURRENT_SCALE_FACTOR_NUMERATOR)/ALS_CURRENT_SCALE_FACTOR_DENOMINAT
 198              		.loc 1 148 0
 199 000c BB1D     		add	r3, r7, #6
 200 000e 0022     		mov	r2, #0
 201 0010 9B5E     		ldrsh	r3, [r3, r2]
 202 0012 0A4A     		ldr	r2, .L13
 203 0014 5343     		mul	r3, r2
 204 0016 181C     		mov	r0, r3
 205 0018 0949     		ldr	r1, .L13+4
 206 001a FFF7FEFF 		bl	__aeabi_idiv
 207 001e 031C     		mov	r3, r0
 208 0020 FB60     		str	r3, [r7, #12]
 149:AmbientLightSensor.c **** 	
 150:AmbientLightSensor.c **** 	/* If the calculated current is -ve, limit this to zero */
 151:AmbientLightSensor.c **** 	if(DiodeCurrent < 0)
 209              		.loc 1 151 0
 210 0022 FB68     		ldr	r3, [r7, #12]
 211 0024 002B     		cmp	r3, #0
 212 0026 01DA     		bge	.L11
 152:AmbientLightSensor.c **** 	{
 153:AmbientLightSensor.c **** 		DiodeCurrent = 0;
 213              		.loc 1 153 0
 214 0028 0023     		mov	r3, #0
 215 002a FB60     		str	r3, [r7, #12]
 216              	.L11:
 154:AmbientLightSensor.c **** 	}
 155:AmbientLightSensor.c ****     
 156:AmbientLightSensor.c **** 	return DiodeCurrent;
 217              		.loc 1 156 0
 218 002c FB68     		ldr	r3, [r7, #12]
 219 002e 9BB2     		uxth	r3, r3
 220 0030 1BB2     		sxth	r3, r3
 157:AmbientLightSensor.c **** }
 221              		.loc 1 157 0
 222 0032 181C     		mov	r0, r3
 223 0034 BD46     		mov	sp, r7
 224 0036 04B0     		add	sp, sp, #16
 225              		@ sp needed
 226 0038 80BD     		pop	{r7, pc}
 227              	.L14:
 228 003a C046     		.align	2
 229              	.L13:
 230 003c 79A7FFFF 		.word	-22663
 231 0040 10270000 		.word	10000
 232              		.cfi_endproc
 233              	.LFE37:
 234              		.size	CalculateAlsCurrent, .-CalculateAlsCurrent
 235              		.section	.text.AmbientLightSensor_Start,"ax",%progbits
 236              		.align	2
 237              		.global	AmbientLightSensor_Start
 238              		.code	16
 239              		.thumb_func
 240              		.type	AmbientLightSensor_Start, %function
 241              	AmbientLightSensor_Start:
 242              	.LFB38:
ARM GAS  C:\Users\CHRIST~1\AppData\Local\Temp\ccnwnJfb.s 			page 8


 158:AmbientLightSensor.c **** 
 159:AmbientLightSensor.c **** void AmbientLightSensor_Start(void)
 160:AmbientLightSensor.c **** {
 243              		.loc 1 160 0
 244              		.cfi_startproc
 245 0000 80B5     		push	{r7, lr}
 246              		.cfi_def_cfa_offset 8
 247              		.cfi_offset 7, -8
 248              		.cfi_offset 14, -4
 249 0002 00AF     		add	r7, sp, #0
 250              		.cfi_def_cfa_register 7
 161:AmbientLightSensor.c **** 	/* Start the TIA */
 162:AmbientLightSensor.c **** 	Opamp_TIA_Start();
 251              		.loc 1 162 0
 252 0004 FFF7FEFF 		bl	Opamp_TIA_Start
 163:AmbientLightSensor.c **** 
 164:AmbientLightSensor.c ****     /* Initialize the ALS current and light intensity values to zero */
 165:AmbientLightSensor.c ****     ProcessValues.ALSCurrent = 0;
 253              		.loc 1 165 0
 254 0008 064B     		ldr	r3, .L16
 255 000a 0022     		mov	r2, #0
 256 000c 1A81     		strh	r2, [r3, #8]
 166:AmbientLightSensor.c ****     ProcessValues.LightIntensity = 0;
 257              		.loc 1 166 0
 258 000e 054B     		ldr	r3, .L16
 259 0010 0022     		mov	r2, #0
 260 0012 5A81     		strh	r2, [r3, #10]
 167:AmbientLightSensor.c **** 	
 168:AmbientLightSensor.c **** 	/* Read ALS offset from flash */
 169:AmbientLightSensor.c **** 	ALSOffsetCount = (*((uint16 *) CY_TEST_FLASH_ADDR));
 261              		.loc 1 169 0
 262 0014 FE23     		mov	r3, #254
 263 0016 DB01     		lsl	r3, r3, #7
 264 0018 1A88     		ldrh	r2, [r3]
 265 001a 034B     		ldr	r3, .L16+4
 266 001c 1A80     		strh	r2, [r3]
 170:AmbientLightSensor.c **** }
 267              		.loc 1 170 0
 268 001e BD46     		mov	sp, r7
 269              		@ sp needed
 270 0020 80BD     		pop	{r7, pc}
 271              	.L17:
 272 0022 C046     		.align	2
 273              	.L16:
 274 0024 00000000 		.word	ProcessValues
 275 0028 00000000 		.word	ALSOffsetCount
 276              		.cfi_endproc
 277              	.LFE38:
 278              		.size	AmbientLightSensor_Start, .-AmbientLightSensor_Start
 279              		.section	.text.AmbientLightSensor_Stop,"ax",%progbits
 280              		.align	2
 281              		.global	AmbientLightSensor_Stop
 282              		.code	16
 283              		.thumb_func
 284              		.type	AmbientLightSensor_Stop, %function
 285              	AmbientLightSensor_Stop:
 286              	.LFB39:
ARM GAS  C:\Users\CHRIST~1\AppData\Local\Temp\ccnwnJfb.s 			page 9


 171:AmbientLightSensor.c **** 
 172:AmbientLightSensor.c **** void AmbientLightSensor_Stop(void)
 173:AmbientLightSensor.c **** {
 287              		.loc 1 173 0
 288              		.cfi_startproc
 289 0000 80B5     		push	{r7, lr}
 290              		.cfi_def_cfa_offset 8
 291              		.cfi_offset 7, -8
 292              		.cfi_offset 14, -4
 293 0002 00AF     		add	r7, sp, #0
 294              		.cfi_def_cfa_register 7
 174:AmbientLightSensor.c **** 	/* Stop the TIA */
 175:AmbientLightSensor.c **** 	Opamp_TIA_Stop();
 295              		.loc 1 175 0
 296 0004 FFF7FEFF 		bl	Opamp_TIA_Stop
 176:AmbientLightSensor.c ****     
 177:AmbientLightSensor.c ****     /* Initialize the ALS current and light intensity values to zero */
 178:AmbientLightSensor.c ****     ProcessValues.ALSCurrent = 0;
 297              		.loc 1 178 0
 298 0008 034B     		ldr	r3, .L19
 299 000a 0022     		mov	r2, #0
 300 000c 1A81     		strh	r2, [r3, #8]
 179:AmbientLightSensor.c ****     ProcessValues.LightIntensity = 0;
 301              		.loc 1 179 0
 302 000e 024B     		ldr	r3, .L19
 303 0010 0022     		mov	r2, #0
 304 0012 5A81     		strh	r2, [r3, #10]
 180:AmbientLightSensor.c **** }
 305              		.loc 1 180 0
 306 0014 BD46     		mov	sp, r7
 307              		@ sp needed
 308 0016 80BD     		pop	{r7, pc}
 309              	.L20:
 310              		.align	2
 311              	.L19:
 312 0018 00000000 		.word	ProcessValues
 313              		.cfi_endproc
 314              	.LFE39:
 315              		.size	AmbientLightSensor_Stop, .-AmbientLightSensor_Stop
 316              		.section	.text.WriteALSOffset,"ax",%progbits
 317              		.align	2
 318              		.global	WriteALSOffset
 319              		.code	16
 320              		.thumb_func
 321              		.type	WriteALSOffset, %function
 322              	WriteALSOffset:
 323              	.LFB40:
 181:AmbientLightSensor.c **** 
 182:AmbientLightSensor.c **** void WriteALSOffset(void)
 183:AmbientLightSensor.c **** {
 324              		.loc 1 183 0
 325              		.cfi_startproc
 326 0000 80B5     		push	{r7, lr}
 327              		.cfi_def_cfa_offset 8
 328              		.cfi_offset 7, -8
 329              		.cfi_offset 14, -4
 330 0002 A2B0     		sub	sp, sp, #136
ARM GAS  C:\Users\CHRIST~1\AppData\Local\Temp\ccnwnJfb.s 			page 10


 331              		.cfi_def_cfa_offset 144
 332 0004 00AF     		add	r7, sp, #0
 333              		.cfi_def_cfa_register 7
 184:AmbientLightSensor.c **** 	uint16 rowPattern[CY_FLASH_SIZEOF_ROW/2];
 185:AmbientLightSensor.c **** 	
 186:AmbientLightSensor.c **** 	cystatus returnValue = CYRET_SUCCESS;
 334              		.loc 1 186 0
 335 0006 0023     		mov	r3, #0
 336 0008 8422     		mov	r2, #132
 337 000a BA18     		add	r2, r7, r2
 338 000c 1360     		str	r3, [r2]
 187:AmbientLightSensor.c **** 	
 188:AmbientLightSensor.c **** 	rowPattern[0] = ALSOffsetCount;
 339              		.loc 1 188 0
 340 000e 084B     		ldr	r3, .L22
 341 0010 1A88     		ldrh	r2, [r3]
 342 0012 3B1D     		add	r3, r7, #4
 343 0014 1A80     		strh	r2, [r3]
 189:AmbientLightSensor.c **** 	
 190:AmbientLightSensor.c **** 	/* Erases a row of Flash and programs it with the rowPattern */
 191:AmbientLightSensor.c ****     returnValue = CySysFlashWriteRow(CY_TEST_FLASH_ROW, (uint8 *)rowPattern);
 344              		.loc 1 191 0
 345 0016 3B1D     		add	r3, r7, #4
 346 0018 FE20     		mov	r0, #254
 347 001a 191C     		mov	r1, r3
 348 001c FFF7FEFF 		bl	CySysFlashWriteRow
 349 0020 031C     		mov	r3, r0
 350 0022 8422     		mov	r2, #132
 351 0024 BA18     		add	r2, r7, r2
 352 0026 1360     		str	r3, [r2]
 192:AmbientLightSensor.c **** 
 193:AmbientLightSensor.c ****     /* Check if operration is successful */
 194:AmbientLightSensor.c ****     if (returnValue != CY_SYS_FLASH_SUCCESS)
 195:AmbientLightSensor.c ****     {
 196:AmbientLightSensor.c **** 		
 197:AmbientLightSensor.c ****     }
 198:AmbientLightSensor.c **** }
 353              		.loc 1 198 0
 354 0028 BD46     		mov	sp, r7
 355 002a 22B0     		add	sp, sp, #136
 356              		@ sp needed
 357 002c 80BD     		pop	{r7, pc}
 358              	.L23:
 359 002e C046     		.align	2
 360              	.L22:
 361 0030 00000000 		.word	ALSOffsetCount
 362              		.cfi_endproc
 363              	.LFE40:
 364              		.size	WriteALSOffset, .-WriteALSOffset
 365              		.text
 366              	.Letext0:
 367              		.file 2 "Generated_Source\\PSoC4/cytypes.h"
 368              		.file 3 "./main.h"