ARM GAS  C:\Users\CHRIST~1\AppData\Local\Temp\cc3qJgtv.s 			page 1


   1              		.cpu cortex-m0plus
   2              		.fpu softvfp
   3              		.eabi_attribute 20, 1
   4              		.eabi_attribute 21, 1
   5              		.eabi_attribute 23, 3
   6              		.eabi_attribute 24, 1
   7              		.eabi_attribute 25, 1
   8              		.eabi_attribute 26, 1
   9              		.eabi_attribute 30, 6
  10              		.eabi_attribute 34, 0
  11              		.eabi_attribute 18, 4
  12              		.code	16
  13              		.file	"Clock_2.c"
  14              		.text
  15              	.Ltext0:
  16              		.cfi_sections	.debug_frame
  17              		.section	.text.Clock_2_StartEx,"ax",%progbits
  18              		.align	2
  19              		.global	Clock_2_StartEx
  20              		.code	16
  21              		.thumb_func
  22              		.type	Clock_2_StartEx, %function
  23              	Clock_2_StartEx:
  24              	.LFB0:
  25              		.file 1 "Generated_Source\\PSoC4\\Clock_2.c"
   1:Generated_Source\PSoC4/Clock_2.c **** /*******************************************************************************
   2:Generated_Source\PSoC4/Clock_2.c **** * File Name: Clock_2.c
   3:Generated_Source\PSoC4/Clock_2.c **** * Version 2.20
   4:Generated_Source\PSoC4/Clock_2.c **** *
   5:Generated_Source\PSoC4/Clock_2.c **** *  Description:
   6:Generated_Source\PSoC4/Clock_2.c **** *   Provides system API for the clocking, interrupts and watchdog timer.
   7:Generated_Source\PSoC4/Clock_2.c **** *
   8:Generated_Source\PSoC4/Clock_2.c **** *  Note:
   9:Generated_Source\PSoC4/Clock_2.c **** *   Documentation of the API's in this file is located in the
  10:Generated_Source\PSoC4/Clock_2.c **** *   System Reference Guide provided with PSoC Creator.
  11:Generated_Source\PSoC4/Clock_2.c **** *
  12:Generated_Source\PSoC4/Clock_2.c **** ********************************************************************************
  13:Generated_Source\PSoC4/Clock_2.c **** * Copyright 2008-2012, Cypress Semiconductor Corporation.  All rights reserved.
  14:Generated_Source\PSoC4/Clock_2.c **** * You may use this file only in accordance with the license, terms, conditions,
  15:Generated_Source\PSoC4/Clock_2.c **** * disclaimers, and limitations in the end user license agreement accompanying
  16:Generated_Source\PSoC4/Clock_2.c **** * the software package with which this file was provided.
  17:Generated_Source\PSoC4/Clock_2.c **** *******************************************************************************/
  18:Generated_Source\PSoC4/Clock_2.c **** 
  19:Generated_Source\PSoC4/Clock_2.c **** #include <cydevice_trm.h>
  20:Generated_Source\PSoC4/Clock_2.c **** #include "Clock_2.h"
  21:Generated_Source\PSoC4/Clock_2.c **** 
  22:Generated_Source\PSoC4/Clock_2.c **** #if defined CYREG_PERI_DIV_CMD
  23:Generated_Source\PSoC4/Clock_2.c **** 
  24:Generated_Source\PSoC4/Clock_2.c **** /*******************************************************************************
  25:Generated_Source\PSoC4/Clock_2.c **** * Function Name: Clock_2_StartEx
  26:Generated_Source\PSoC4/Clock_2.c **** ********************************************************************************
  27:Generated_Source\PSoC4/Clock_2.c **** *
  28:Generated_Source\PSoC4/Clock_2.c **** * Summary:
  29:Generated_Source\PSoC4/Clock_2.c **** *  Starts the clock, aligned to the specified running clock.
  30:Generated_Source\PSoC4/Clock_2.c **** *
  31:Generated_Source\PSoC4/Clock_2.c **** * Parameters:
  32:Generated_Source\PSoC4/Clock_2.c **** *  alignClkDiv:  The divider to which phase alignment is performed when the
ARM GAS  C:\Users\CHRIST~1\AppData\Local\Temp\cc3qJgtv.s 			page 2


  33:Generated_Source\PSoC4/Clock_2.c **** *    clock is started.
  34:Generated_Source\PSoC4/Clock_2.c **** *
  35:Generated_Source\PSoC4/Clock_2.c **** * Returns:
  36:Generated_Source\PSoC4/Clock_2.c **** *  None
  37:Generated_Source\PSoC4/Clock_2.c **** *
  38:Generated_Source\PSoC4/Clock_2.c **** *******************************************************************************/
  39:Generated_Source\PSoC4/Clock_2.c **** void Clock_2_StartEx(uint32 alignClkDiv)
  40:Generated_Source\PSoC4/Clock_2.c **** {
  26              		.loc 1 40 0
  27              		.cfi_startproc
  28 0000 80B5     		push	{r7, lr}
  29              		.cfi_def_cfa_offset 8
  30              		.cfi_offset 7, -8
  31              		.cfi_offset 14, -4
  32 0002 82B0     		sub	sp, sp, #8
  33              		.cfi_def_cfa_offset 16
  34 0004 00AF     		add	r7, sp, #0
  35              		.cfi_def_cfa_register 7
  36 0006 7860     		str	r0, [r7, #4]
  41:Generated_Source\PSoC4/Clock_2.c ****     /* Make sure any previous start command has finished. */
  42:Generated_Source\PSoC4/Clock_2.c ****     while((Clock_2_CMD_REG & Clock_2_CMD_ENABLE_MASK) != 0u)
  37              		.loc 1 42 0
  38 0008 C046     		mov	r8, r8
  39              	.L2:
  40              		.loc 1 42 0 is_stmt 0 discriminator 1
  41 000a 8023     		mov	r3, #128
  42 000c DB05     		lsl	r3, r3, #23
  43 000e 1B68     		ldr	r3, [r3]
  44 0010 002B     		cmp	r3, #0
  45 0012 FADB     		blt	.L2
  43:Generated_Source\PSoC4/Clock_2.c ****     {
  44:Generated_Source\PSoC4/Clock_2.c ****     }
  45:Generated_Source\PSoC4/Clock_2.c ****     
  46:Generated_Source\PSoC4/Clock_2.c ****     /* Specify the target divider and it's alignment divider, and enable. */
  47:Generated_Source\PSoC4/Clock_2.c ****     Clock_2_CMD_REG =
  46              		.loc 1 47 0 is_stmt 1
  47 0014 8023     		mov	r3, #128
  48 0016 DB05     		lsl	r3, r3, #23
  48:Generated_Source\PSoC4/Clock_2.c ****         ((uint32)Clock_2__DIV_ID << Clock_2_CMD_DIV_SHIFT)|
  49:Generated_Source\PSoC4/Clock_2.c ****         (alignClkDiv << Clock_2_CMD_PA_DIV_SHIFT) |
  49              		.loc 1 49 0
  50 0018 7A68     		ldr	r2, [r7, #4]
  51 001a 1202     		lsl	r2, r2, #8
  52 001c 0249     		ldr	r1, .L3
  53 001e 0A43     		orr	r2, r1
  47:Generated_Source\PSoC4/Clock_2.c ****         ((uint32)Clock_2__DIV_ID << Clock_2_CMD_DIV_SHIFT)|
  54              		.loc 1 47 0
  55 0020 1A60     		str	r2, [r3]
  50:Generated_Source\PSoC4/Clock_2.c ****         (uint32)Clock_2_CMD_ENABLE_MASK;
  51:Generated_Source\PSoC4/Clock_2.c **** }
  56              		.loc 1 51 0
  57 0022 BD46     		mov	sp, r7
  58 0024 02B0     		add	sp, sp, #8
  59              		@ sp needed
  60 0026 80BD     		pop	{r7, pc}
  61              	.L4:
  62              		.align	2
ARM GAS  C:\Users\CHRIST~1\AppData\Local\Temp\cc3qJgtv.s 			page 3


  63              	.L3:
  64 0028 81000080 		.word	-2147483519
  65              		.cfi_endproc
  66              	.LFE0:
  67              		.size	Clock_2_StartEx, .-Clock_2_StartEx
  68              		.section	.text.Clock_2_Stop,"ax",%progbits
  69              		.align	2
  70              		.global	Clock_2_Stop
  71              		.code	16
  72              		.thumb_func
  73              		.type	Clock_2_Stop, %function
  74              	Clock_2_Stop:
  75              	.LFB1:
  52:Generated_Source\PSoC4/Clock_2.c **** 
  53:Generated_Source\PSoC4/Clock_2.c **** #else
  54:Generated_Source\PSoC4/Clock_2.c **** 
  55:Generated_Source\PSoC4/Clock_2.c **** /*******************************************************************************
  56:Generated_Source\PSoC4/Clock_2.c **** * Function Name: Clock_2_Start
  57:Generated_Source\PSoC4/Clock_2.c **** ********************************************************************************
  58:Generated_Source\PSoC4/Clock_2.c **** *
  59:Generated_Source\PSoC4/Clock_2.c **** * Summary:
  60:Generated_Source\PSoC4/Clock_2.c **** *  Starts the clock.
  61:Generated_Source\PSoC4/Clock_2.c **** *
  62:Generated_Source\PSoC4/Clock_2.c **** * Parameters:
  63:Generated_Source\PSoC4/Clock_2.c **** *  None
  64:Generated_Source\PSoC4/Clock_2.c **** *
  65:Generated_Source\PSoC4/Clock_2.c **** * Returns:
  66:Generated_Source\PSoC4/Clock_2.c **** *  None
  67:Generated_Source\PSoC4/Clock_2.c **** *
  68:Generated_Source\PSoC4/Clock_2.c **** *******************************************************************************/
  69:Generated_Source\PSoC4/Clock_2.c **** 
  70:Generated_Source\PSoC4/Clock_2.c **** void Clock_2_Start(void)
  71:Generated_Source\PSoC4/Clock_2.c **** {
  72:Generated_Source\PSoC4/Clock_2.c ****     /* Set the bit to enable the clock. */
  73:Generated_Source\PSoC4/Clock_2.c ****     Clock_2_ENABLE_REG |= Clock_2__ENABLE_MASK;
  74:Generated_Source\PSoC4/Clock_2.c **** }
  75:Generated_Source\PSoC4/Clock_2.c **** 
  76:Generated_Source\PSoC4/Clock_2.c **** #endif /* CYREG_PERI_DIV_CMD */
  77:Generated_Source\PSoC4/Clock_2.c **** 
  78:Generated_Source\PSoC4/Clock_2.c **** 
  79:Generated_Source\PSoC4/Clock_2.c **** /*******************************************************************************
  80:Generated_Source\PSoC4/Clock_2.c **** * Function Name: Clock_2_Stop
  81:Generated_Source\PSoC4/Clock_2.c **** ********************************************************************************
  82:Generated_Source\PSoC4/Clock_2.c **** *
  83:Generated_Source\PSoC4/Clock_2.c **** * Summary:
  84:Generated_Source\PSoC4/Clock_2.c **** *  Stops the clock and returns immediately. This API does not require the
  85:Generated_Source\PSoC4/Clock_2.c **** *  source clock to be running but may return before the hardware is actually
  86:Generated_Source\PSoC4/Clock_2.c **** *  disabled.
  87:Generated_Source\PSoC4/Clock_2.c **** *
  88:Generated_Source\PSoC4/Clock_2.c **** * Parameters:
  89:Generated_Source\PSoC4/Clock_2.c **** *  None
  90:Generated_Source\PSoC4/Clock_2.c **** *
  91:Generated_Source\PSoC4/Clock_2.c **** * Returns:
  92:Generated_Source\PSoC4/Clock_2.c **** *  None
  93:Generated_Source\PSoC4/Clock_2.c **** *
  94:Generated_Source\PSoC4/Clock_2.c **** *******************************************************************************/
  95:Generated_Source\PSoC4/Clock_2.c **** void Clock_2_Stop(void)
ARM GAS  C:\Users\CHRIST~1\AppData\Local\Temp\cc3qJgtv.s 			page 4


  96:Generated_Source\PSoC4/Clock_2.c **** {
  76              		.loc 1 96 0
  77              		.cfi_startproc
  78 0000 80B5     		push	{r7, lr}
  79              		.cfi_def_cfa_offset 8
  80              		.cfi_offset 7, -8
  81              		.cfi_offset 14, -4
  82 0002 00AF     		add	r7, sp, #0
  83              		.cfi_def_cfa_register 7
  97:Generated_Source\PSoC4/Clock_2.c **** #if defined CYREG_PERI_DIV_CMD
  98:Generated_Source\PSoC4/Clock_2.c **** 
  99:Generated_Source\PSoC4/Clock_2.c ****     /* Make sure any previous start command has finished. */
 100:Generated_Source\PSoC4/Clock_2.c ****     while((Clock_2_CMD_REG & Clock_2_CMD_ENABLE_MASK) != 0u)
  84              		.loc 1 100 0
  85 0004 C046     		mov	r8, r8
  86              	.L6:
  87              		.loc 1 100 0 is_stmt 0 discriminator 1
  88 0006 8023     		mov	r3, #128
  89 0008 DB05     		lsl	r3, r3, #23
  90 000a 1B68     		ldr	r3, [r3]
  91 000c 002B     		cmp	r3, #0
  92 000e FADB     		blt	.L6
 101:Generated_Source\PSoC4/Clock_2.c ****     {
 102:Generated_Source\PSoC4/Clock_2.c ****     }
 103:Generated_Source\PSoC4/Clock_2.c ****     
 104:Generated_Source\PSoC4/Clock_2.c ****     /* Specify the target divider and it's alignment divider, and disable. */
 105:Generated_Source\PSoC4/Clock_2.c ****     Clock_2_CMD_REG =
  93              		.loc 1 105 0 is_stmt 1
  94 0010 8023     		mov	r3, #128
  95 0012 DB05     		lsl	r3, r3, #23
  96 0014 014A     		ldr	r2, .L7
  97 0016 1A60     		str	r2, [r3]
 106:Generated_Source\PSoC4/Clock_2.c ****         ((uint32)Clock_2__DIV_ID << Clock_2_CMD_DIV_SHIFT)|
 107:Generated_Source\PSoC4/Clock_2.c ****         ((uint32)Clock_2_CMD_DISABLE_MASK);
 108:Generated_Source\PSoC4/Clock_2.c **** 
 109:Generated_Source\PSoC4/Clock_2.c **** #else
 110:Generated_Source\PSoC4/Clock_2.c **** 
 111:Generated_Source\PSoC4/Clock_2.c ****     /* Clear the bit to disable the clock. */
 112:Generated_Source\PSoC4/Clock_2.c ****     Clock_2_ENABLE_REG &= (uint32)(~Clock_2__ENABLE_MASK);
 113:Generated_Source\PSoC4/Clock_2.c ****     
 114:Generated_Source\PSoC4/Clock_2.c **** #endif /* CYREG_PERI_DIV_CMD */
 115:Generated_Source\PSoC4/Clock_2.c **** }
  98              		.loc 1 115 0
  99 0018 BD46     		mov	sp, r7
 100              		@ sp needed
 101 001a 80BD     		pop	{r7, pc}
 102              	.L8:
 103              		.align	2
 104              	.L7:
 105 001c 81000040 		.word	1073741953
 106              		.cfi_endproc
 107              	.LFE1:
 108              		.size	Clock_2_Stop, .-Clock_2_Stop
 109              		.section	.text.Clock_2_SetFractionalDividerRegister,"ax",%progbits
 110              		.align	2
 111              		.global	Clock_2_SetFractionalDividerRegister
 112              		.code	16
ARM GAS  C:\Users\CHRIST~1\AppData\Local\Temp\cc3qJgtv.s 			page 5


 113              		.thumb_func
 114              		.type	Clock_2_SetFractionalDividerRegister, %function
 115              	Clock_2_SetFractionalDividerRegister:
 116              	.LFB2:
 116:Generated_Source\PSoC4/Clock_2.c **** 
 117:Generated_Source\PSoC4/Clock_2.c **** 
 118:Generated_Source\PSoC4/Clock_2.c **** /*******************************************************************************
 119:Generated_Source\PSoC4/Clock_2.c **** * Function Name: Clock_2_SetFractionalDividerRegister
 120:Generated_Source\PSoC4/Clock_2.c **** ********************************************************************************
 121:Generated_Source\PSoC4/Clock_2.c **** *
 122:Generated_Source\PSoC4/Clock_2.c **** * Summary:
 123:Generated_Source\PSoC4/Clock_2.c **** *  Modifies the clock divider and the fractional divider.
 124:Generated_Source\PSoC4/Clock_2.c **** *
 125:Generated_Source\PSoC4/Clock_2.c **** * Parameters:
 126:Generated_Source\PSoC4/Clock_2.c **** *  clkDivider:  Divider register value (0-65535). This value is NOT the
 127:Generated_Source\PSoC4/Clock_2.c **** *    divider; the clock hardware divides by clkDivider plus one. For example,
 128:Generated_Source\PSoC4/Clock_2.c **** *    to divide the clock by 2, this parameter should be set to 1.
 129:Generated_Source\PSoC4/Clock_2.c **** *  fracDivider:  Fractional Divider register value (0-31).
 130:Generated_Source\PSoC4/Clock_2.c **** * Returns:
 131:Generated_Source\PSoC4/Clock_2.c **** *  None
 132:Generated_Source\PSoC4/Clock_2.c **** *
 133:Generated_Source\PSoC4/Clock_2.c **** *******************************************************************************/
 134:Generated_Source\PSoC4/Clock_2.c **** void Clock_2_SetFractionalDividerRegister(uint16 clkDivider, uint8 clkFractional)
 135:Generated_Source\PSoC4/Clock_2.c **** {
 117              		.loc 1 135 0
 118              		.cfi_startproc
 119 0000 80B5     		push	{r7, lr}
 120              		.cfi_def_cfa_offset 8
 121              		.cfi_offset 7, -8
 122              		.cfi_offset 14, -4
 123 0002 84B0     		sub	sp, sp, #16
 124              		.cfi_def_cfa_offset 24
 125 0004 00AF     		add	r7, sp, #0
 126              		.cfi_def_cfa_register 7
 127 0006 021C     		mov	r2, r0
 128 0008 BB1D     		add	r3, r7, #6
 129 000a 1A80     		strh	r2, [r3]
 130 000c 7B1D     		add	r3, r7, #5
 131 000e 0A1C     		add	r2, r1, #0
 132 0010 1A70     		strb	r2, [r3]
 136:Generated_Source\PSoC4/Clock_2.c ****     uint32 maskVal;
 137:Generated_Source\PSoC4/Clock_2.c ****     uint32 regVal;
 138:Generated_Source\PSoC4/Clock_2.c ****     
 139:Generated_Source\PSoC4/Clock_2.c **** #if defined (Clock_2__FRAC_MASK) || defined (CYREG_PERI_DIV_CMD)
 140:Generated_Source\PSoC4/Clock_2.c ****     
 141:Generated_Source\PSoC4/Clock_2.c **** 	/* get all but divider bits */
 142:Generated_Source\PSoC4/Clock_2.c ****     maskVal = Clock_2_DIV_REG & 
 133              		.loc 1 142 0
 134 0012 0B4B     		ldr	r3, .L10
 135 0014 1B68     		ldr	r3, [r3]
 136 0016 0722     		mov	r2, #7
 137 0018 1340     		and	r3, r2
 138 001a FB60     		str	r3, [r7, #12]
 143:Generated_Source\PSoC4/Clock_2.c ****                     (uint32)(~(uint32)(Clock_2_DIV_INT_MASK | Clock_2_DIV_FRAC_MASK)); 
 144:Generated_Source\PSoC4/Clock_2.c **** 	/* combine mask and new divider vals into 32-bit value */
 145:Generated_Source\PSoC4/Clock_2.c ****     regVal = maskVal |
 146:Generated_Source\PSoC4/Clock_2.c ****         ((uint32)((uint32)clkDivider <<  Clock_2_DIV_INT_SHIFT) & Clock_2_DIV_INT_MASK) |
ARM GAS  C:\Users\CHRIST~1\AppData\Local\Temp\cc3qJgtv.s 			page 6


 139              		.loc 1 146 0
 140 001c BB1D     		add	r3, r7, #6
 141 001e 1B88     		ldrh	r3, [r3]
 142 0020 1A02     		lsl	r2, r3, #8
 145:Generated_Source\PSoC4/Clock_2.c ****         ((uint32)((uint32)clkDivider <<  Clock_2_DIV_INT_SHIFT) & Clock_2_DIV_INT_MASK) |
 143              		.loc 1 145 0
 144 0022 FB68     		ldr	r3, [r7, #12]
 145 0024 1A43     		orr	r2, r3
 147:Generated_Source\PSoC4/Clock_2.c ****         ((uint32)((uint32)clkFractional << Clock_2_DIV_FRAC_SHIFT) & Clock_2_DIV_FRAC_MASK);
 146              		.loc 1 147 0
 147 0026 7B1D     		add	r3, r7, #5
 148 0028 1B78     		ldrb	r3, [r3]
 149 002a DB00     		lsl	r3, r3, #3
 150 002c FF21     		mov	r1, #255
 151 002e 0B40     		and	r3, r1
 145:Generated_Source\PSoC4/Clock_2.c ****         ((uint32)((uint32)clkDivider <<  Clock_2_DIV_INT_SHIFT) & Clock_2_DIV_INT_MASK) |
 152              		.loc 1 145 0
 153 0030 1343     		orr	r3, r2
 154 0032 BB60     		str	r3, [r7, #8]
 148:Generated_Source\PSoC4/Clock_2.c ****     
 149:Generated_Source\PSoC4/Clock_2.c **** #else
 150:Generated_Source\PSoC4/Clock_2.c ****     /* get all but integer divider bits */
 151:Generated_Source\PSoC4/Clock_2.c ****     maskVal = Clock_2_DIV_REG & (uint32)(~(uint32)Clock_2__DIVIDER_MASK);
 152:Generated_Source\PSoC4/Clock_2.c ****     /* combine mask and new divider val into 32-bit value */
 153:Generated_Source\PSoC4/Clock_2.c ****     regVal = clkDivider | maskVal;
 154:Generated_Source\PSoC4/Clock_2.c ****     
 155:Generated_Source\PSoC4/Clock_2.c **** #endif /* Clock_2__FRAC_MASK || CYREG_PERI_DIV_CMD */
 156:Generated_Source\PSoC4/Clock_2.c **** 
 157:Generated_Source\PSoC4/Clock_2.c ****     Clock_2_DIV_REG = regVal;
 155              		.loc 1 157 0
 156 0034 024B     		ldr	r3, .L10
 157 0036 BA68     		ldr	r2, [r7, #8]
 158 0038 1A60     		str	r2, [r3]
 158:Generated_Source\PSoC4/Clock_2.c **** }
 159              		.loc 1 158 0
 160 003a BD46     		mov	sp, r7
 161 003c 04B0     		add	sp, sp, #16
 162              		@ sp needed
 163 003e 80BD     		pop	{r7, pc}
 164              	.L11:
 165              		.align	2
 166              	.L10:
 167 0040 04040040 		.word	1073742852
 168              		.cfi_endproc
 169              	.LFE2:
 170              		.size	Clock_2_SetFractionalDividerRegister, .-Clock_2_SetFractionalDividerRegister
 171              		.section	.text.Clock_2_GetDividerRegister,"ax",%progbits
 172              		.align	2
 173              		.global	Clock_2_GetDividerRegister
 174              		.code	16
 175              		.thumb_func
 176              		.type	Clock_2_GetDividerRegister, %function
 177              	Clock_2_GetDividerRegister:
 178              	.LFB3:
 159:Generated_Source\PSoC4/Clock_2.c **** 
 160:Generated_Source\PSoC4/Clock_2.c **** 
 161:Generated_Source\PSoC4/Clock_2.c **** /*******************************************************************************
ARM GAS  C:\Users\CHRIST~1\AppData\Local\Temp\cc3qJgtv.s 			page 7


 162:Generated_Source\PSoC4/Clock_2.c **** * Function Name: Clock_2_GetDividerRegister
 163:Generated_Source\PSoC4/Clock_2.c **** ********************************************************************************
 164:Generated_Source\PSoC4/Clock_2.c **** *
 165:Generated_Source\PSoC4/Clock_2.c **** * Summary:
 166:Generated_Source\PSoC4/Clock_2.c **** *  Gets the clock divider register value.
 167:Generated_Source\PSoC4/Clock_2.c **** *
 168:Generated_Source\PSoC4/Clock_2.c **** * Parameters:
 169:Generated_Source\PSoC4/Clock_2.c **** *  None
 170:Generated_Source\PSoC4/Clock_2.c **** *
 171:Generated_Source\PSoC4/Clock_2.c **** * Returns:
 172:Generated_Source\PSoC4/Clock_2.c **** *  Divide value of the clock minus 1. For example, if the clock is set to
 173:Generated_Source\PSoC4/Clock_2.c **** *  divide by 2, the return value will be 1.
 174:Generated_Source\PSoC4/Clock_2.c **** *
 175:Generated_Source\PSoC4/Clock_2.c **** *******************************************************************************/
 176:Generated_Source\PSoC4/Clock_2.c **** uint16 Clock_2_GetDividerRegister(void)
 177:Generated_Source\PSoC4/Clock_2.c **** {
 179              		.loc 1 177 0
 180              		.cfi_startproc
 181 0000 80B5     		push	{r7, lr}
 182              		.cfi_def_cfa_offset 8
 183              		.cfi_offset 7, -8
 184              		.cfi_offset 14, -4
 185 0002 00AF     		add	r7, sp, #0
 186              		.cfi_def_cfa_register 7
 178:Generated_Source\PSoC4/Clock_2.c ****     return (uint16)((Clock_2_DIV_REG & Clock_2_DIV_INT_MASK)
 187              		.loc 1 178 0
 188 0004 034B     		ldr	r3, .L14
 189 0006 1B68     		ldr	r3, [r3]
 179:Generated_Source\PSoC4/Clock_2.c ****         >> Clock_2_DIV_INT_SHIFT);
 190              		.loc 1 179 0
 191 0008 1B0A     		lsr	r3, r3, #8
 178:Generated_Source\PSoC4/Clock_2.c ****     return (uint16)((Clock_2_DIV_REG & Clock_2_DIV_INT_MASK)
 192              		.loc 1 178 0
 193 000a 9BB2     		uxth	r3, r3
 180:Generated_Source\PSoC4/Clock_2.c **** }
 194              		.loc 1 180 0
 195 000c 181C     		mov	r0, r3
 196 000e BD46     		mov	sp, r7
 197              		@ sp needed
 198 0010 80BD     		pop	{r7, pc}
 199              	.L15:
 200 0012 C046     		.align	2
 201              	.L14:
 202 0014 04040040 		.word	1073742852
 203              		.cfi_endproc
 204              	.LFE3:
 205              		.size	Clock_2_GetDividerRegister, .-Clock_2_GetDividerRegister
 206              		.section	.text.Clock_2_GetFractionalDividerRegister,"ax",%progbits
 207              		.align	2
 208              		.global	Clock_2_GetFractionalDividerRegister
 209              		.code	16
 210              		.thumb_func
 211              		.type	Clock_2_GetFractionalDividerRegister, %function
 212              	Clock_2_GetFractionalDividerRegister:
 213              	.LFB4:
 181:Generated_Source\PSoC4/Clock_2.c **** 
 182:Generated_Source\PSoC4/Clock_2.c **** 
ARM GAS  C:\Users\CHRIST~1\AppData\Local\Temp\cc3qJgtv.s 			page 8


 183:Generated_Source\PSoC4/Clock_2.c **** /*******************************************************************************
 184:Generated_Source\PSoC4/Clock_2.c **** * Function Name: Clock_2_GetFractionalDividerRegister
 185:Generated_Source\PSoC4/Clock_2.c **** ********************************************************************************
 186:Generated_Source\PSoC4/Clock_2.c **** *
 187:Generated_Source\PSoC4/Clock_2.c **** * Summary:
 188:Generated_Source\PSoC4/Clock_2.c **** *  Gets the clock fractional divider register value.
 189:Generated_Source\PSoC4/Clock_2.c **** *
 190:Generated_Source\PSoC4/Clock_2.c **** * Parameters:
 191:Generated_Source\PSoC4/Clock_2.c **** *  None
 192:Generated_Source\PSoC4/Clock_2.c **** *
 193:Generated_Source\PSoC4/Clock_2.c **** * Returns:
 194:Generated_Source\PSoC4/Clock_2.c **** *  Fractional Divide value of the clock
 195:Generated_Source\PSoC4/Clock_2.c **** *  0 if the fractional divider is not in use.
 196:Generated_Source\PSoC4/Clock_2.c **** *
 197:Generated_Source\PSoC4/Clock_2.c **** *******************************************************************************/
 198:Generated_Source\PSoC4/Clock_2.c **** uint8 Clock_2_GetFractionalDividerRegister(void)
 199:Generated_Source\PSoC4/Clock_2.c **** {
 214              		.loc 1 199 0
 215              		.cfi_startproc
 216 0000 80B5     		push	{r7, lr}
 217              		.cfi_def_cfa_offset 8
 218              		.cfi_offset 7, -8
 219              		.cfi_offset 14, -4
 220 0002 00AF     		add	r7, sp, #0
 221              		.cfi_def_cfa_register 7
 200:Generated_Source\PSoC4/Clock_2.c **** #if defined (Clock_2__FRAC_MASK)
 201:Generated_Source\PSoC4/Clock_2.c ****     /* return fractional divider bits */
 202:Generated_Source\PSoC4/Clock_2.c ****     return (uint8)((Clock_2_DIV_REG & Clock_2_DIV_FRAC_MASK)
 222              		.loc 1 202 0
 223 0004 044B     		ldr	r3, .L18
 224 0006 1B68     		ldr	r3, [r3]
 225 0008 F822     		mov	r2, #248
 226 000a 1340     		and	r3, r2
 203:Generated_Source\PSoC4/Clock_2.c ****         >> Clock_2_DIV_FRAC_SHIFT);
 227              		.loc 1 203 0
 228 000c DB08     		lsr	r3, r3, #3
 202:Generated_Source\PSoC4/Clock_2.c ****         >> Clock_2_DIV_FRAC_SHIFT);
 229              		.loc 1 202 0
 230 000e DBB2     		uxtb	r3, r3
 204:Generated_Source\PSoC4/Clock_2.c **** #else
 205:Generated_Source\PSoC4/Clock_2.c ****     return 0u;
 206:Generated_Source\PSoC4/Clock_2.c **** #endif /* Clock_2__FRAC_MASK */
 207:Generated_Source\PSoC4/Clock_2.c **** }
 231              		.loc 1 207 0
 232 0010 181C     		mov	r0, r3
 233 0012 BD46     		mov	sp, r7
 234              		@ sp needed
 235 0014 80BD     		pop	{r7, pc}
 236              	.L19:
 237 0016 C046     		.align	2
 238              	.L18:
 239 0018 04040040 		.word	1073742852
 240              		.cfi_endproc
 241              	.LFE4:
 242              		.size	Clock_2_GetFractionalDividerRegister, .-Clock_2_GetFractionalDividerRegister
 243              		.text
 244              	.Letext0:
ARM GAS  C:\Users\CHRIST~1\AppData\Local\Temp\cc3qJgtv.s 			page 9


 245              		.file 2 "Generated_Source\\PSoC4/cytypes.h"