ARM GAS  C:\Users\CHRIST~1\AppData\Local\Temp\ccIPpNky.s 			page 1


   1              		.cpu cortex-m0plus
   2              		.fpu softvfp
   3              		.eabi_attribute 20, 1
   4              		.eabi_attribute 21, 1
   5              		.eabi_attribute 23, 3
   6              		.eabi_attribute 24, 1
   7              		.eabi_attribute 25, 1
   8              		.eabi_attribute 26, 1
   9              		.eabi_attribute 30, 6
  10              		.eabi_attribute 34, 0
  11              		.eabi_attribute 18, 4
  12              		.code	16
  13              		.file	"CSD_Sensing.c"
  14              		.text
  15              	.Ltext0:
  16              		.cfi_sections	.debug_frame
  17              		.global	CSD_scanFreqIndex
  18              		.section	.rodata
  19              		.type	CSD_scanFreqIndex, %object
  20              		.size	CSD_scanFreqIndex, 1
  21              	CSD_scanFreqIndex:
  22 0000 00       		.space	1
  23              		.global	CSD_widgetIndex
  24              		.bss
  25              		.type	CSD_widgetIndex, %object
  26              		.size	CSD_widgetIndex, 1
  27              	CSD_widgetIndex:
  28 0000 00       		.space	1
  29              		.global	CSD_sensorIndex
  30              		.type	CSD_sensorIndex, %object
  31              		.size	CSD_sensorIndex, 1
  32              	CSD_sensorIndex:
  33 0001 00       		.space	1
  34              		.global	CSD_requestScanAllWidget
  35              		.type	CSD_requestScanAllWidget, %object
  36              		.size	CSD_requestScanAllWidget, 1
  37              	CSD_requestScanAllWidget:
  38 0002 00       		.space	1
  39              		.comm	CSD_curRamSnsPtr,4,4
  40              		.section	.text.CSD_IsBusy,"ax",%progbits
  41              		.align	2
  42              		.global	CSD_IsBusy
  43              		.code	16
  44              		.thumb_func
  45              		.type	CSD_IsBusy, %function
  46              	CSD_IsBusy:
  47              	.LFB1:
  48              		.file 1 "Generated_Source\\PSoC4\\CSD_Sensing.c"
   1:Generated_Source\PSoC4/CSD_Sensing.c **** /***************************************************************************//**
   2:Generated_Source\PSoC4/CSD_Sensing.c **** * \file CSD_Sensing.c
   3:Generated_Source\PSoC4/CSD_Sensing.c **** * \version 3.0
   4:Generated_Source\PSoC4/CSD_Sensing.c **** *
   5:Generated_Source\PSoC4/CSD_Sensing.c **** * \brief
   6:Generated_Source\PSoC4/CSD_Sensing.c **** *   This file contains the source of functions common for
   7:Generated_Source\PSoC4/CSD_Sensing.c **** *   different sensing methods.
   8:Generated_Source\PSoC4/CSD_Sensing.c **** *
   9:Generated_Source\PSoC4/CSD_Sensing.c **** * \see CapSense P4 v3.0 Datasheet
ARM GAS  C:\Users\CHRIST~1\AppData\Local\Temp\ccIPpNky.s 			page 2


  10:Generated_Source\PSoC4/CSD_Sensing.c **** *
  11:Generated_Source\PSoC4/CSD_Sensing.c **** *//*****************************************************************************
  12:Generated_Source\PSoC4/CSD_Sensing.c **** * Copyright (2016), Cypress Semiconductor Corporation.
  13:Generated_Source\PSoC4/CSD_Sensing.c **** ********************************************************************************
  14:Generated_Source\PSoC4/CSD_Sensing.c **** * This software is owned by Cypress Semiconductor Corporation (Cypress) and is
  15:Generated_Source\PSoC4/CSD_Sensing.c **** * protected by and subject to worldwide patent protection (United States and
  16:Generated_Source\PSoC4/CSD_Sensing.c **** * foreign), United States copyright laws and international treaty provisions.
  17:Generated_Source\PSoC4/CSD_Sensing.c **** * Cypress hereby grants to licensee a personal, non-exclusive, non-transferable
  18:Generated_Source\PSoC4/CSD_Sensing.c **** * license to copy, use, modify, create derivative works of, and compile the
  19:Generated_Source\PSoC4/CSD_Sensing.c **** * Cypress Source Code and derivative works for the sole purpose of creating
  20:Generated_Source\PSoC4/CSD_Sensing.c **** * custom software in support of licensee product to be used only in conjunction
  21:Generated_Source\PSoC4/CSD_Sensing.c **** * with a Cypress integrated circuit as specified in the applicable agreement.
  22:Generated_Source\PSoC4/CSD_Sensing.c **** * Any reproduction, modification, translation, compilation, or representation of
  23:Generated_Source\PSoC4/CSD_Sensing.c **** * this software except as specified above is prohibited without the express
  24:Generated_Source\PSoC4/CSD_Sensing.c **** * written permission of Cypress.
  25:Generated_Source\PSoC4/CSD_Sensing.c **** *
  26:Generated_Source\PSoC4/CSD_Sensing.c **** * Disclaimer: CYPRESS MAKES NO WARRANTY OF ANY KIND, EXPRESS OR IMPLIED, WITH
  27:Generated_Source\PSoC4/CSD_Sensing.c **** * REGARD TO THIS MATERIAL, INCLUDING, BUT NOT LIMITED TO, THE IMPLIED
  28:Generated_Source\PSoC4/CSD_Sensing.c **** * WARRANTIES OF MERCHANTABILITY AND FITNESS FOR A PARTICULAR PURPOSE.
  29:Generated_Source\PSoC4/CSD_Sensing.c **** * Cypress reserves the right to make changes without further notice to the
  30:Generated_Source\PSoC4/CSD_Sensing.c **** * materials described herein. Cypress does not assume any liability arising out
  31:Generated_Source\PSoC4/CSD_Sensing.c **** * of the application or use of any product or circuit described herein. Cypress
  32:Generated_Source\PSoC4/CSD_Sensing.c **** * does not authorize its products for use as critical components in life-support
  33:Generated_Source\PSoC4/CSD_Sensing.c **** * systems where a malfunction or failure may reasonably be expected to result in
  34:Generated_Source\PSoC4/CSD_Sensing.c **** * significant injury to the user. The inclusion of Cypress' product in a life-
  35:Generated_Source\PSoC4/CSD_Sensing.c **** * support systems application implies that the manufacturer assumes all risk of
  36:Generated_Source\PSoC4/CSD_Sensing.c **** * such use and in doing so indemnifies Cypress against all charges. Use may be
  37:Generated_Source\PSoC4/CSD_Sensing.c **** * limited by and subject to the applicable Cypress software license agreement.
  38:Generated_Source\PSoC4/CSD_Sensing.c **** *******************************************************************************/
  39:Generated_Source\PSoC4/CSD_Sensing.c **** 
  40:Generated_Source\PSoC4/CSD_Sensing.c **** #include "CSD_Sensing.h"
  41:Generated_Source\PSoC4/CSD_Sensing.c **** #include "CSD_Structure.h"
  42:Generated_Source\PSoC4/CSD_Sensing.c **** #include "cyfitter.h"
  43:Generated_Source\PSoC4/CSD_Sensing.c **** 
  44:Generated_Source\PSoC4/CSD_Sensing.c **** /***************************************
  45:Generated_Source\PSoC4/CSD_Sensing.c **** * API Constants
  46:Generated_Source\PSoC4/CSD_Sensing.c **** ***************************************/
  47:Generated_Source\PSoC4/CSD_Sensing.c **** 
  48:Generated_Source\PSoC4/CSD_Sensing.c **** #define CSD_WIDGET_NUM_32                          (32u)
  49:Generated_Source\PSoC4/CSD_Sensing.c **** #define CSD_WIDGET_NUM_32_DIV_SHIFT                (5u)
  50:Generated_Source\PSoC4/CSD_Sensing.c **** #define CSD_WIDGET_NUM_32_MASK                     (0x0000001FLu)
  51:Generated_Source\PSoC4/CSD_Sensing.c **** #define CSD_CALIBRATION_RESOLUTION                 (12u)
  52:Generated_Source\PSoC4/CSD_Sensing.c **** #define CSD_COARSE_TRIM_THRESHOLD_1                (40u)
  53:Generated_Source\PSoC4/CSD_Sensing.c **** #define CSD_COARSE_TRIM_THRESHOLD_2                (215u)
  54:Generated_Source\PSoC4/CSD_Sensing.c **** #define CSD_FREQUENCY_OFFSET_5                     (20u)
  55:Generated_Source\PSoC4/CSD_Sensing.c **** #define CSD_FREQUENCY_OFFSET_10                    (40u)
  56:Generated_Source\PSoC4/CSD_Sensing.c **** #define CSD_CALIBRATION_FREQ_KHZ                   (1500u)
  57:Generated_Source\PSoC4/CSD_Sensing.c **** #define CSD_CALIBRATION_MD                         (2u)
  58:Generated_Source\PSoC4/CSD_Sensing.c **** #define CSD_MIN_IMO_FREQ_KHZ                       (6000u)
  59:Generated_Source\PSoC4/CSD_Sensing.c **** #define CSD_CSD_AUTOTUNE_CAL_LEVEL                 (CSD_CSD_RAWCOUNT_CAL_LEVEL)
  60:Generated_Source\PSoC4/CSD_Sensing.c **** #define CSD_CP_MIN                                 (0u)
  61:Generated_Source\PSoC4/CSD_Sensing.c **** #define CSD_CP_MAX                                 (65000Lu)
  62:Generated_Source\PSoC4/CSD_Sensing.c **** #define CSD_CP_ERROR                               (4000Lu)
  63:Generated_Source\PSoC4/CSD_Sensing.c **** #define CSD_CLK_SOURCE_LFSR_SCALE_OFFSET           (4u)
  64:Generated_Source\PSoC4/CSD_Sensing.c **** 
  65:Generated_Source\PSoC4/CSD_Sensing.c **** #if (CSD_CLK_SOURCE_DIRECT != CSD_CSD_SNS_CLK_SOURCE)
  66:Generated_Source\PSoC4/CSD_Sensing.c ****     #if (CSD_ENABLE == CSD_CSDV2)
ARM GAS  C:\Users\CHRIST~1\AppData\Local\Temp\ccIPpNky.s 			page 3


  67:Generated_Source\PSoC4/CSD_Sensing.c ****         #define CSD_PRS_FACTOR_DIV                 (2u)
  68:Generated_Source\PSoC4/CSD_Sensing.c ****     #else
  69:Generated_Source\PSoC4/CSD_Sensing.c ****         #define CSD_PRS_FACTOR_DIV                 (1u)
  70:Generated_Source\PSoC4/CSD_Sensing.c ****     #endif /* (CSD_ENABLE == CSD_CSDV2) */
  71:Generated_Source\PSoC4/CSD_Sensing.c **** #else
  72:Generated_Source\PSoC4/CSD_Sensing.c ****     #define CSD_PRS_FACTOR_DIV                     (0u)
  73:Generated_Source\PSoC4/CSD_Sensing.c **** #endif /* (CSD_CLK_SOURCE_DIRECT != CSD_CSD_SNS_CLK_SOURCE) */
  74:Generated_Source\PSoC4/CSD_Sensing.c **** 
  75:Generated_Source\PSoC4/CSD_Sensing.c **** #define CSD_FLIP_FLOP_DIV                          (1u)
  76:Generated_Source\PSoC4/CSD_Sensing.c **** 
  77:Generated_Source\PSoC4/CSD_Sensing.c **** #define CSD_MOD_CSD_CLK_12000KHZ                   (12000uL)
  78:Generated_Source\PSoC4/CSD_Sensing.c **** #define CSD_MOD_CSD_CLK_24000KHZ                   (24000uL)
  79:Generated_Source\PSoC4/CSD_Sensing.c **** #define CSD_MOD_CSD_CLK_48000KHZ                   (48000uL)
  80:Generated_Source\PSoC4/CSD_Sensing.c **** 
  81:Generated_Source\PSoC4/CSD_Sensing.c **** #if ((CSD_CLK_SOURCE_PRS8 == CSD_CSD_SNS_CLK_SOURCE) || \
  82:Generated_Source\PSoC4/CSD_Sensing.c ****     (CSD_CLK_SOURCE_PRS12 == CSD_CSD_SNS_CLK_SOURCE) || \
  83:Generated_Source\PSoC4/CSD_Sensing.c ****     (CSD_CLK_SOURCE_PRSAUTO == CSD_CSD_SNS_CLK_SOURCE))
  84:Generated_Source\PSoC4/CSD_Sensing.c ****     #define CSD_FACTOR_FILTER_DELAY_12MHZ          (2u)
  85:Generated_Source\PSoC4/CSD_Sensing.c **** #else
  86:Generated_Source\PSoC4/CSD_Sensing.c ****     #define CSD_FACTOR_FILTER_DELAY_12MHZ          (4u)
  87:Generated_Source\PSoC4/CSD_Sensing.c **** #endif /* (CSD_CLK_SOURCE_DIRECT != CSD_CSD_SNS_CLK_SOURCE) */
  88:Generated_Source\PSoC4/CSD_Sensing.c **** 
  89:Generated_Source\PSoC4/CSD_Sensing.c **** #define CSD_FACTOR_MOD_SNS                         (8u)
  90:Generated_Source\PSoC4/CSD_Sensing.c **** #define CSD_UINT8_MAX_VAL                          (0xFFu)
  91:Generated_Source\PSoC4/CSD_Sensing.c **** #define CSD_MSB_OFFSET                             (8u)
  92:Generated_Source\PSoC4/CSD_Sensing.c **** 
  93:Generated_Source\PSoC4/CSD_Sensing.c **** /*****************************************************************************/
  94:Generated_Source\PSoC4/CSD_Sensing.c **** /* Enumeration types definition                                               */
  95:Generated_Source\PSoC4/CSD_Sensing.c **** /*****************************************************************************/
  96:Generated_Source\PSoC4/CSD_Sensing.c **** 
  97:Generated_Source\PSoC4/CSD_Sensing.c **** typedef enum
  98:Generated_Source\PSoC4/CSD_Sensing.c **** {
  99:Generated_Source\PSoC4/CSD_Sensing.c ****     CSD_RES_PULLUP_E   = 0x02u,
 100:Generated_Source\PSoC4/CSD_Sensing.c ****     CSD_RES_PULLDOWN_E = 0x03u
 101:Generated_Source\PSoC4/CSD_Sensing.c **** } CSD_PORT_TEST_DM;
 102:Generated_Source\PSoC4/CSD_Sensing.c **** 
 103:Generated_Source\PSoC4/CSD_Sensing.c **** typedef enum
 104:Generated_Source\PSoC4/CSD_Sensing.c **** {
 105:Generated_Source\PSoC4/CSD_Sensing.c ****     CSD_STS_RESET      = 0x01u,
 106:Generated_Source\PSoC4/CSD_Sensing.c ****     CSD_STS_NO_RESET   = 0x02u
 107:Generated_Source\PSoC4/CSD_Sensing.c **** } CSD_TEST_TYPE;
 108:Generated_Source\PSoC4/CSD_Sensing.c **** 
 109:Generated_Source\PSoC4/CSD_Sensing.c **** 
 110:Generated_Source\PSoC4/CSD_Sensing.c **** /*******************************************************************************
 111:Generated_Source\PSoC4/CSD_Sensing.c **** * Static Function Prototypes
 112:Generated_Source\PSoC4/CSD_Sensing.c **** *******************************************************************************/
 113:Generated_Source\PSoC4/CSD_Sensing.c **** /**
 114:Generated_Source\PSoC4/CSD_Sensing.c **** * \if SECTION_CAPSENSE_INTERNAL
 115:Generated_Source\PSoC4/CSD_Sensing.c **** * \addtogroup group_capsense_internal
 116:Generated_Source\PSoC4/CSD_Sensing.c **** * \{
 117:Generated_Source\PSoC4/CSD_Sensing.c **** */
 118:Generated_Source\PSoC4/CSD_Sensing.c **** 
 119:Generated_Source\PSoC4/CSD_Sensing.c **** #if (CSD_DISABLE == CSD_CSDV2)
 120:Generated_Source\PSoC4/CSD_Sensing.c ****     static void CSD_SsTrimIdacs(void);
 121:Generated_Source\PSoC4/CSD_Sensing.c ****     #if ((CSD_ENABLE == CSD_CSX_EN) || \
 122:Generated_Source\PSoC4/CSD_Sensing.c ****          (CSD_IDAC_SINKING == CSD_CSD_IDAC_CONFIG))
 123:Generated_Source\PSoC4/CSD_Sensing.c ****         static void CSD_SsTrimIdacsSinking(void);
ARM GAS  C:\Users\CHRIST~1\AppData\Local\Temp\ccIPpNky.s 			page 4


 124:Generated_Source\PSoC4/CSD_Sensing.c ****     #endif /* ((CSD_ENABLE == CSD_CSX_EN) || \
 125:Generated_Source\PSoC4/CSD_Sensing.c ****                (CSD_IDAC_SINKING == CSD_CSD_IDAC_CONFIG)) */
 126:Generated_Source\PSoC4/CSD_Sensing.c ****     #if ((CSD_ENABLE == CSD_CSX_EN) || \
 127:Generated_Source\PSoC4/CSD_Sensing.c ****          (CSD_IDAC_SOURCING == CSD_CSD_IDAC_CONFIG))
 128:Generated_Source\PSoC4/CSD_Sensing.c ****         static void CSD_SsTrimIdacsSourcing(void);
 129:Generated_Source\PSoC4/CSD_Sensing.c ****     #endif /* ((CSD_ENABLE == CSD_CSX_EN) || \
 130:Generated_Source\PSoC4/CSD_Sensing.c ****                (CSD_IDAC_SOURCING == CSD_CSD_IDAC_CONFIG)) */
 131:Generated_Source\PSoC4/CSD_Sensing.c **** #endif /* (CSD_ENABLE == CSD_CSDV2) */
 132:Generated_Source\PSoC4/CSD_Sensing.c **** #if ((CSD_ENABLE == CSD_CSD_CSX_EN) || \
 133:Generated_Source\PSoC4/CSD_Sensing.c ****      (CSD_ENABLE == CSD_ADC_EN))
 134:Generated_Source\PSoC4/CSD_Sensing.c ****     #if (CSD_ENABLE == CSD_CSD_EN)
 135:Generated_Source\PSoC4/CSD_Sensing.c ****         static void CSD_SsCSDDisableMode(void);
 136:Generated_Source\PSoC4/CSD_Sensing.c ****     #endif /* (CSD_ENABLE == CSD_CSD_EN) */
 137:Generated_Source\PSoC4/CSD_Sensing.c ****     #if (CSD_ENABLE == CSD_CSX_EN)
 138:Generated_Source\PSoC4/CSD_Sensing.c ****         static void CSD_SsDisableCSXMode(void);
 139:Generated_Source\PSoC4/CSD_Sensing.c ****     #endif /* (CSD_ENABLE == CSD_CSX_EN) */
 140:Generated_Source\PSoC4/CSD_Sensing.c **** #endif /* ((CSD_ENABLE == CSD_CSD_CSX_EN) || \
 141:Generated_Source\PSoC4/CSD_Sensing.c ****            (CSD_ENABLE == CSD_ADC_EN)) */
 142:Generated_Source\PSoC4/CSD_Sensing.c **** #if (CSD_CSD_SS_DIS != CSD_CSD_AUTOTUNE)
 143:Generated_Source\PSoC4/CSD_Sensing.c ****     static void CSD_SsSetDirectClockMode(void);
 144:Generated_Source\PSoC4/CSD_Sensing.c **** #endif /* (CSD_CSD_SS_DIS != CSD_CSD_AUTOTUNE) */
 145:Generated_Source\PSoC4/CSD_Sensing.c **** 
 146:Generated_Source\PSoC4/CSD_Sensing.c **** 
 147:Generated_Source\PSoC4/CSD_Sensing.c **** /** \}
 148:Generated_Source\PSoC4/CSD_Sensing.c **** * \endif */
 149:Generated_Source\PSoC4/CSD_Sensing.c **** 
 150:Generated_Source\PSoC4/CSD_Sensing.c **** /*******************************************************************************
 151:Generated_Source\PSoC4/CSD_Sensing.c **** * Define module variables
 152:Generated_Source\PSoC4/CSD_Sensing.c **** *******************************************************************************/
 153:Generated_Source\PSoC4/CSD_Sensing.c **** 
 154:Generated_Source\PSoC4/CSD_Sensing.c **** #if ((CSD_ENABLE == CSD_CSD_CSX_EN) || \
 155:Generated_Source\PSoC4/CSD_Sensing.c ****      (CSD_ENABLE == CSD_ADC_EN))
 156:Generated_Source\PSoC4/CSD_Sensing.c ****     CSD_SENSE_METHOD_ENUM CSD_currentSenseMethod = CSD_UNDEFINED_E;
 157:Generated_Source\PSoC4/CSD_Sensing.c **** #endif /* ((CSD_ENABLE == CSD_CSD_CSX_EN) || \
 158:Generated_Source\PSoC4/CSD_Sensing.c ****            (CSD_ENABLE == CSD_ADC_EN))) */
 159:Generated_Source\PSoC4/CSD_Sensing.c **** 
 160:Generated_Source\PSoC4/CSD_Sensing.c **** #if(CSD_ENABLE == CSD_MULTI_FREQ_SCAN_EN)
 161:Generated_Source\PSoC4/CSD_Sensing.c ****     /*  Module variable keep track of frequency hopping channel index   */
 162:Generated_Source\PSoC4/CSD_Sensing.c ****     uint8 CSD_scanFreqIndex = 0u;
 163:Generated_Source\PSoC4/CSD_Sensing.c ****     /*  Variable keep frequency offsets */
 164:Generated_Source\PSoC4/CSD_Sensing.c ****     uint8 CSD_immunity[CSD_NUM_SCAN_FREQS] = {0u, 0u, 0u};
 165:Generated_Source\PSoC4/CSD_Sensing.c **** #else
 166:Generated_Source\PSoC4/CSD_Sensing.c ****     /* const allows C-compiler to do optimization */
 167:Generated_Source\PSoC4/CSD_Sensing.c ****     const uint8 CSD_scanFreqIndex = 0u;
 168:Generated_Source\PSoC4/CSD_Sensing.c **** #endif /* (CSD_ENABLE == CSD_MULTI_FREQ_SCAN_EN) */
 169:Generated_Source\PSoC4/CSD_Sensing.c **** 
 170:Generated_Source\PSoC4/CSD_Sensing.c **** /* Global software variables */
 171:Generated_Source\PSoC4/CSD_Sensing.c **** volatile uint8 CSD_widgetIndex = 0u;    /* Index of the scanning widget */
 172:Generated_Source\PSoC4/CSD_Sensing.c **** volatile uint8 CSD_sensorIndex = 0u;    /* Index of the scanning sensor */
 173:Generated_Source\PSoC4/CSD_Sensing.c **** uint8 CSD_requestScanAllWidget = 0u;
 174:Generated_Source\PSoC4/CSD_Sensing.c **** #if (CSD_CSD_SS_DIS != CSD_CSD_AUTOTUNE)
 175:Generated_Source\PSoC4/CSD_Sensing.c ****     uint8 CSD_prescalersTuningDone = 0u;
 176:Generated_Source\PSoC4/CSD_Sensing.c **** #endif /* (CSD_CSD_SS_DIS != CSD_CSD_AUTOTUNE) */
 177:Generated_Source\PSoC4/CSD_Sensing.c **** 
 178:Generated_Source\PSoC4/CSD_Sensing.c **** /* Pointer to RAM_SNS_STRUCT structure  */
 179:Generated_Source\PSoC4/CSD_Sensing.c **** CSD_RAM_SNS_STRUCT *CSD_curRamSnsPtr;
 180:Generated_Source\PSoC4/CSD_Sensing.c **** 
ARM GAS  C:\Users\CHRIST~1\AppData\Local\Temp\ccIPpNky.s 			page 5


 181:Generated_Source\PSoC4/CSD_Sensing.c **** #if ((CSD_ENABLE == CSD_CSD_GANGED_SNS_EN) || \
 182:Generated_Source\PSoC4/CSD_Sensing.c ****      (CSD_ENABLE == CSD_CSX_EN))
 183:Generated_Source\PSoC4/CSD_Sensing.c ****     /*  Pointer to Flash structure holding configuration of widget to be scanned  */
 184:Generated_Source\PSoC4/CSD_Sensing.c ****     CSD_FLASH_WD_STRUCT const *CSD_curFlashWdgtPtr = 0u;
 185:Generated_Source\PSoC4/CSD_Sensing.c **** #endif /* ((CSD_ENABLE == CSD_CSD_GANGED_SNS_EN) || \
 186:Generated_Source\PSoC4/CSD_Sensing.c ****            (CSD_ENABLE == CSD_CSX_EN))  */
 187:Generated_Source\PSoC4/CSD_Sensing.c **** #if (CSD_ENABLE == CSD_CSD_GANGED_SNS_EN)
 188:Generated_Source\PSoC4/CSD_Sensing.c ****     /*  Pointer to Flash structure holding info of sensor to be scanned  */
 189:Generated_Source\PSoC4/CSD_Sensing.c ****     CSD_FLASH_SNS_STRUCT const *CSD_curFlashSnsPtr = 0u;
 190:Generated_Source\PSoC4/CSD_Sensing.c **** #endif /* (CSD_ENABLE == CSD_CSD_GANGED_SNS_EN) */
 191:Generated_Source\PSoC4/CSD_Sensing.c **** 
 192:Generated_Source\PSoC4/CSD_Sensing.c **** #if(((CSD_ENABLE == CSD_CSX_EN) && (CSD_ENABLE == CSD_CSDV2) && (CSD_CLK_SOURCE_PRSAUTO == CSD_CSX_
 193:Generated_Source\PSoC4/CSD_Sensing.c ****     ((CSD_ENABLE == CSD_CSD_EN) && (CSD_ENABLE == CSD_CSDV2) && (CSD_CLK_SOURCE_PRSAUTO == CSD_CSD_
 194:Generated_Source\PSoC4/CSD_Sensing.c ****     static CY_INLINE uint8 CSD_SsCalcLfsrSize(uint32 modClkDivider, uint32 snsClkDivider, uint32 co
 195:Generated_Source\PSoC4/CSD_Sensing.c ****     static CY_INLINE uint8 CSD_SsCalcLfsrScale(uint32 snsClkDivider, uint8 lfsrSize);
 196:Generated_Source\PSoC4/CSD_Sensing.c **** #endif /* (((CSD_ENABLE == CSD_CSX_EN) && (CSD_ENABLE == CSD_CSDV2) && (CSD_CLK_SOURCE_PRSAUTO == C
 197:Generated_Source\PSoC4/CSD_Sensing.c ****     ((CSD_ENABLE == CSD_CSD_EN) && (CSD_ENABLE == CSD_CSDV2) && (CSD_CLK_SOURCE_PRSAUTO == CSD_CSD_
 198:Generated_Source\PSoC4/CSD_Sensing.c **** 
 199:Generated_Source\PSoC4/CSD_Sensing.c **** #if (CSD_ENABLE == CSD_CSD_EN)
 200:Generated_Source\PSoC4/CSD_Sensing.c ****     void CSD_SsSetWidgetSenseClkSrc(uint32 wdgtIndex, CSD_RAM_WD_BASE_STRUCT * ptrWdgt);
 201:Generated_Source\PSoC4/CSD_Sensing.c **** #endif /* (CSD_ENABLE == CSD_CSD_EN) */
 202:Generated_Source\PSoC4/CSD_Sensing.c **** 
 203:Generated_Source\PSoC4/CSD_Sensing.c **** #if ((CSD_ENABLE == CSD_CSX_EN) && (CSD_ENABLE == CSD_CSDV2))
 204:Generated_Source\PSoC4/CSD_Sensing.c ****     void CSD_SsSetWidgetTxClkSrc(uint32 wdgtIndex, CSD_RAM_WD_BASE_STRUCT * ptrWdgt);
 205:Generated_Source\PSoC4/CSD_Sensing.c **** #endif /* ((CSD_ENABLE == CSD_CSX_EN) && (CSD_ENABLE == CSD_CSDV2)) */
 206:Generated_Source\PSoC4/CSD_Sensing.c **** 
 207:Generated_Source\PSoC4/CSD_Sensing.c **** /*******************************************************************************
 208:Generated_Source\PSoC4/CSD_Sensing.c **** * Function Name: CSD_IsBusy
 209:Generated_Source\PSoC4/CSD_Sensing.c **** ****************************************************************************//**
 210:Generated_Source\PSoC4/CSD_Sensing.c **** *
 211:Generated_Source\PSoC4/CSD_Sensing.c **** * \brief
 212:Generated_Source\PSoC4/CSD_Sensing.c **** *  Returns the current status of the component (scan completed or scan in
 213:Generated_Source\PSoC4/CSD_Sensing.c **** *  progress).
 214:Generated_Source\PSoC4/CSD_Sensing.c **** *
 215:Generated_Source\PSoC4/CSD_Sensing.c **** * \details
 216:Generated_Source\PSoC4/CSD_Sensing.c **** *  This function returns the status of the hardware block whether a scan is
 217:Generated_Source\PSoC4/CSD_Sensing.c **** *  currently in progress or not. If the component is busy, no new scan or setup
 218:Generated_Source\PSoC4/CSD_Sensing.c **** *  widgets should be made. It is recommended to use the critical section (i.e.
 219:Generated_Source\PSoC4/CSD_Sensing.c **** *  disable global interrupt) in the application when the device transitions from
 220:Generated_Source\PSoC4/CSD_Sensing.c **** *  the active mode to sleep or deep sleep mode.
 221:Generated_Source\PSoC4/CSD_Sensing.c **** *
 222:Generated_Source\PSoC4/CSD_Sensing.c **** * \return
 223:Generated_Source\PSoC4/CSD_Sensing.c **** *  Returns the current status of the component:
 224:Generated_Source\PSoC4/CSD_Sensing.c **** *    - CSD_NOT_BUSY if there is no scan in progress and a next scan
 225:Generated_Source\PSoC4/CSD_Sensing.c **** *      can be initiated.
 226:Generated_Source\PSoC4/CSD_Sensing.c **** *    - CSD_SW_STS_BUSY if the previous scanning is not completed
 227:Generated_Source\PSoC4/CSD_Sensing.c **** *      and the hardware block is busy.
 228:Generated_Source\PSoC4/CSD_Sensing.c **** *
 229:Generated_Source\PSoC4/CSD_Sensing.c **** *******************************************************************************/
 230:Generated_Source\PSoC4/CSD_Sensing.c **** uint32 CSD_IsBusy(void)
 231:Generated_Source\PSoC4/CSD_Sensing.c **** {
  49              		.loc 1 231 0
  50              		.cfi_startproc
  51 0000 80B5     		push	{r7, lr}
  52              		.cfi_def_cfa_offset 8
  53              		.cfi_offset 7, -8
  54              		.cfi_offset 14, -4
ARM GAS  C:\Users\CHRIST~1\AppData\Local\Temp\ccIPpNky.s 			page 6


  55 0002 00AF     		add	r7, sp, #0
  56              		.cfi_def_cfa_register 7
 232:Generated_Source\PSoC4/CSD_Sensing.c ****     return ((*(volatile uint8 *)&CSD_dsRam.status) & CSD_SW_STS_BUSY);
  57              		.loc 1 232 0
  58 0004 044B     		ldr	r3, .L3
  59 0006 1B78     		ldrb	r3, [r3]
  60 0008 DBB2     		uxtb	r3, r3
  61 000a 1A1C     		mov	r2, r3
  62 000c 8023     		mov	r3, #128
  63 000e 1340     		and	r3, r2
 233:Generated_Source\PSoC4/CSD_Sensing.c **** }
  64              		.loc 1 233 0
  65 0010 181C     		mov	r0, r3
  66 0012 BD46     		mov	sp, r7
  67              		@ sp needed
  68 0014 80BD     		pop	{r7, pc}
  69              	.L4:
  70 0016 C046     		.align	2
  71              	.L3:
  72 0018 08000000 		.word	CSD_dsRam+8
  73              		.cfi_endproc
  74              	.LFE1:
  75              		.size	CSD_IsBusy, .-CSD_IsBusy
  76              		.section	.text.CSD_SetupWidget,"ax",%progbits
  77              		.align	2
  78              		.global	CSD_SetupWidget
  79              		.code	16
  80              		.thumb_func
  81              		.type	CSD_SetupWidget, %function
  82              	CSD_SetupWidget:
  83              	.LFB2:
 234:Generated_Source\PSoC4/CSD_Sensing.c **** 
 235:Generated_Source\PSoC4/CSD_Sensing.c **** /*******************************************************************************
 236:Generated_Source\PSoC4/CSD_Sensing.c **** * Function Name: CSD_SetupWidget
 237:Generated_Source\PSoC4/CSD_Sensing.c **** ****************************************************************************//**
 238:Generated_Source\PSoC4/CSD_Sensing.c **** *
 239:Generated_Source\PSoC4/CSD_Sensing.c **** * \brief
 240:Generated_Source\PSoC4/CSD_Sensing.c **** *  Performs the initialization required to scan the specified widget.
 241:Generated_Source\PSoC4/CSD_Sensing.c **** *
 242:Generated_Source\PSoC4/CSD_Sensing.c **** * \details
 243:Generated_Source\PSoC4/CSD_Sensing.c **** *  This function prepares the component to scan all sensors in the specified
 244:Generated_Source\PSoC4/CSD_Sensing.c **** *  widget, by executing the following tasks.
 245:Generated_Source\PSoC4/CSD_Sensing.c **** *    1. Re-initialize the hardware if it is not configured to perform the
 246:Generated_Source\PSoC4/CSD_Sensing.c **** *       sensing method used by the specified widget, this happens only if the
 247:Generated_Source\PSoC4/CSD_Sensing.c **** *       CSD and CSX methods are used in the component.
 248:Generated_Source\PSoC4/CSD_Sensing.c **** *    2. Initialize the hardware with specific sensing configuration (e.g.
 249:Generated_Source\PSoC4/CSD_Sensing.c **** *       sensor clock, scan resolution) used by the widget.
 250:Generated_Source\PSoC4/CSD_Sensing.c **** *    3. Disconnect all previously connected electrodes, if the electrodes
 251:Generated_Source\PSoC4/CSD_Sensing.c **** *       connected by the CSD_CSDSetupWidgetExt(),
 252:Generated_Source\PSoC4/CSD_Sensing.c **** *       CSD_CSXSetupWidgetExt() or CSD_CSDConnectSns()
 253:Generated_Source\PSoC4/CSD_Sensing.c **** *       functions and not disconnected.
 254:Generated_Source\PSoC4/CSD_Sensing.c **** *
 255:Generated_Source\PSoC4/CSD_Sensing.c **** *  This function does not start sensor scanning, the CSD_Scan()
 256:Generated_Source\PSoC4/CSD_Sensing.c **** *  function must be called to start the scan sensors in the widget. If this
 257:Generated_Source\PSoC4/CSD_Sensing.c **** *  function is called more than once, it does not break the component operation,
 258:Generated_Source\PSoC4/CSD_Sensing.c **** *  but only the last initialized widget is in effect.
 259:Generated_Source\PSoC4/CSD_Sensing.c **** 
ARM GAS  C:\Users\CHRIST~1\AppData\Local\Temp\ccIPpNky.s 			page 7


 260:Generated_Source\PSoC4/CSD_Sensing.c **** *
 261:Generated_Source\PSoC4/CSD_Sensing.c **** * \param wdgtIndex
 262:Generated_Source\PSoC4/CSD_Sensing.c **** *  Specify the ID number of the widget to be initialized for scanning.
 263:Generated_Source\PSoC4/CSD_Sensing.c **** *  A macro for the widget ID can be found in the
 264:Generated_Source\PSoC4/CSD_Sensing.c **** *  CSD_Configuration.h file defined as
 265:Generated_Source\PSoC4/CSD_Sensing.c **** *  CSD_<WidgetName>_WDGT_ID
 266:Generated_Source\PSoC4/CSD_Sensing.c **** *
 267:Generated_Source\PSoC4/CSD_Sensing.c **** * \return
 268:Generated_Source\PSoC4/CSD_Sensing.c **** *  Returns the status of the widget setting up operation:
 269:Generated_Source\PSoC4/CSD_Sensing.c **** *    - CYRET_SUCCESS if the operation is successfully completed.
 270:Generated_Source\PSoC4/CSD_Sensing.c **** *    - CYRET_BAD_PARAM if the widget is invalid or if the specified widget is
 271:Generated_Source\PSoC4/CSD_Sensing.c **** *      disabled
 272:Generated_Source\PSoC4/CSD_Sensing.c **** *    - CYRET_INVALID_STATE if the previous scanning is not completed and the
 273:Generated_Source\PSoC4/CSD_Sensing.c **** *      hardware block is busy.
 274:Generated_Source\PSoC4/CSD_Sensing.c **** *    - CYRET_UNKNOWN if an unknown sensing method is used by the widget or
 275:Generated_Source\PSoC4/CSD_Sensing.c **** *      other spurious errors.
 276:Generated_Source\PSoC4/CSD_Sensing.c **** *
 277:Generated_Source\PSoC4/CSD_Sensing.c **** **********************************************************************************/
 278:Generated_Source\PSoC4/CSD_Sensing.c **** cystatus CSD_SetupWidget(uint32 wdgtIndex)
 279:Generated_Source\PSoC4/CSD_Sensing.c **** {
  84              		.loc 1 279 0
  85              		.cfi_startproc
  86 0000 80B5     		push	{r7, lr}
  87              		.cfi_def_cfa_offset 8
  88              		.cfi_offset 7, -8
  89              		.cfi_offset 14, -4
  90 0002 84B0     		sub	sp, sp, #16
  91              		.cfi_def_cfa_offset 24
  92 0004 00AF     		add	r7, sp, #0
  93              		.cfi_def_cfa_register 7
  94 0006 7860     		str	r0, [r7, #4]
 280:Generated_Source\PSoC4/CSD_Sensing.c ****     cystatus widgetStatus;
 281:Generated_Source\PSoC4/CSD_Sensing.c **** 
 282:Generated_Source\PSoC4/CSD_Sensing.c ****     if (CSD_WDGT_SW_STS_BUSY == (CSD_dsRam.status & CSD_WDGT_SW_STS_BUSY))
  95              		.loc 1 282 0
  96 0008 154B     		ldr	r3, .L11
  97 000a 9A68     		ldr	r2, [r3, #8]
  98 000c 8023     		mov	r3, #128
  99 000e 5B02     		lsl	r3, r3, #9
 100 0010 1340     		and	r3, r2
 101 0012 02D0     		beq	.L6
 283:Generated_Source\PSoC4/CSD_Sensing.c ****     {
 284:Generated_Source\PSoC4/CSD_Sensing.c ****         /* Previous widget is being scanned. Return error. */
 285:Generated_Source\PSoC4/CSD_Sensing.c ****         widgetStatus = CYRET_INVALID_STATE;
 102              		.loc 1 285 0
 103 0014 1123     		mov	r3, #17
 104 0016 FB60     		str	r3, [r7, #12]
 105 0018 16E0     		b	.L7
 106              	.L6:
 286:Generated_Source\PSoC4/CSD_Sensing.c ****     }
 287:Generated_Source\PSoC4/CSD_Sensing.c ****     /*
 288:Generated_Source\PSoC4/CSD_Sensing.c ****      *  Check if widget id is valid, specified widget is enabled and widget did not
 289:Generated_Source\PSoC4/CSD_Sensing.c ****      *  detect any fault conditions if BIST is enabled. If all conditions are met,
 290:Generated_Source\PSoC4/CSD_Sensing.c ****      *  set widgetStatus as good, if not, set widgetStatus as bad.
 291:Generated_Source\PSoC4/CSD_Sensing.c ****      */
 292:Generated_Source\PSoC4/CSD_Sensing.c ****     else if ((CSD_TOTAL_WIDGETS > wdgtIndex) &&
 107              		.loc 1 292 0
ARM GAS  C:\Users\CHRIST~1\AppData\Local\Temp\ccIPpNky.s 			page 8


 108 001a 7B68     		ldr	r3, [r7, #4]
 109 001c 002B     		cmp	r3, #0
 110 001e 11D1     		bne	.L8
 293:Generated_Source\PSoC4/CSD_Sensing.c ****         (0u != CSD_GET_WIDGET_EN_STATUS(wdgtIndex)))
 111              		.loc 1 293 0 discriminator 1
 112 0020 7B68     		ldr	r3, [r7, #4]
 113 0022 5B09     		lsr	r3, r3, #5
 114 0024 0E4A     		ldr	r2, .L11
 115 0026 0233     		add	r3, r3, #2
 116 0028 9B00     		lsl	r3, r3, #2
 117 002a D318     		add	r3, r2, r3
 118 002c 5A68     		ldr	r2, [r3, #4]
 119 002e 7B68     		ldr	r3, [r7, #4]
 120 0030 1F21     		mov	r1, #31
 121 0032 0B40     		and	r3, r1
 122 0034 DA40     		lsr	r2, r2, r3
 123 0036 131C     		mov	r3, r2
 124 0038 0122     		mov	r2, #1
 125 003a 1340     		and	r3, r2
 292:Generated_Source\PSoC4/CSD_Sensing.c ****         (0u != CSD_GET_WIDGET_EN_STATUS(wdgtIndex)))
 126              		.loc 1 292 0 discriminator 1
 127 003c 02D0     		beq	.L8
 294:Generated_Source\PSoC4/CSD_Sensing.c **** 
 295:Generated_Source\PSoC4/CSD_Sensing.c ****     {
 296:Generated_Source\PSoC4/CSD_Sensing.c ****         widgetStatus = CYRET_SUCCESS;
 128              		.loc 1 296 0
 129 003e 0023     		mov	r3, #0
 130 0040 FB60     		str	r3, [r7, #12]
 131 0042 01E0     		b	.L7
 132              	.L8:
 297:Generated_Source\PSoC4/CSD_Sensing.c ****     }
 298:Generated_Source\PSoC4/CSD_Sensing.c ****     else
 299:Generated_Source\PSoC4/CSD_Sensing.c ****     {
 300:Generated_Source\PSoC4/CSD_Sensing.c ****         widgetStatus = CYRET_BAD_PARAM;
 133              		.loc 1 300 0
 134 0044 0123     		mov	r3, #1
 135 0046 FB60     		str	r3, [r7, #12]
 136              	.L7:
 301:Generated_Source\PSoC4/CSD_Sensing.c ****     }
 302:Generated_Source\PSoC4/CSD_Sensing.c **** 
 303:Generated_Source\PSoC4/CSD_Sensing.c ****     /*
 304:Generated_Source\PSoC4/CSD_Sensing.c ****      * Check widgetStatus flag that is set earlier, if flag is good, then set up only
 305:Generated_Source\PSoC4/CSD_Sensing.c ****      * widget
 306:Generated_Source\PSoC4/CSD_Sensing.c ****      */
 307:Generated_Source\PSoC4/CSD_Sensing.c ****     if (CYRET_SUCCESS == widgetStatus)
 137              		.loc 1 307 0
 138 0048 FB68     		ldr	r3, [r7, #12]
 139 004a 002B     		cmp	r3, #0
 140 004c 03D1     		bne	.L9
 308:Generated_Source\PSoC4/CSD_Sensing.c ****     {
 309:Generated_Source\PSoC4/CSD_Sensing.c ****         /*  Check if CSD2X is enabled   */
 310:Generated_Source\PSoC4/CSD_Sensing.c ****         #if (CSD_ENABLE == CSD_CSD2X_EN)
 311:Generated_Source\PSoC4/CSD_Sensing.c ****             /******************************
 312:Generated_Source\PSoC4/CSD_Sensing.c ****             * This is the place where CSD_SetupWidget2x(uint32 slotIndex)
 313:Generated_Source\PSoC4/CSD_Sensing.c ****             * API should be implemented.
 314:Generated_Source\PSoC4/CSD_Sensing.c ****             * CSD2X will be implemented
 315:Generated_Source\PSoC4/CSD_Sensing.c ****             * in the next component version.
ARM GAS  C:\Users\CHRIST~1\AppData\Local\Temp\ccIPpNky.s 			page 9


 316:Generated_Source\PSoC4/CSD_Sensing.c ****             *********************************/
 317:Generated_Source\PSoC4/CSD_Sensing.c ****             widgetStatus = CYRET_UNKNOWN;
 318:Generated_Source\PSoC4/CSD_Sensing.c ****             #error "CSD2x not implemented in this version of component"
 319:Generated_Source\PSoC4/CSD_Sensing.c **** 
 320:Generated_Source\PSoC4/CSD_Sensing.c ****         #elif (CSD_ENABLE == CSD_CSD_CSX_EN)
 321:Generated_Source\PSoC4/CSD_Sensing.c ****             /*  Check widget sensing method is CSX and call CSX APIs    */
 322:Generated_Source\PSoC4/CSD_Sensing.c ****             if (CSD_SENSE_METHOD_CSX_E ==
 323:Generated_Source\PSoC4/CSD_Sensing.c ****                 (CSD_SENSE_METHOD_ENUM)CSD_GET_SENSE_METHOD(&CSD_dsFlash.wdgtArray[wdgtIndex]))
 324:Generated_Source\PSoC4/CSD_Sensing.c ****             {
 325:Generated_Source\PSoC4/CSD_Sensing.c ****                 /*  Set up widget for CSX scan  */
 326:Generated_Source\PSoC4/CSD_Sensing.c ****                 CSD_CSXSetupWidget(wdgtIndex);
 327:Generated_Source\PSoC4/CSD_Sensing.c ****             }
 328:Generated_Source\PSoC4/CSD_Sensing.c ****             /*  Check widget sensing method is CSD and call appropriate API */
 329:Generated_Source\PSoC4/CSD_Sensing.c ****             else if (CSD_SENSE_METHOD_CSD_E ==
 330:Generated_Source\PSoC4/CSD_Sensing.c ****                      (CSD_SENSE_METHOD_ENUM)CSD_GET_SENSE_METHOD(&CSD_dsFlash.wdgtArray[wdgtIndex])
 331:Generated_Source\PSoC4/CSD_Sensing.c ****             {
 332:Generated_Source\PSoC4/CSD_Sensing.c ****                 /*  Set up widget for CSD scan  */
 333:Generated_Source\PSoC4/CSD_Sensing.c ****                 CSD_CSDSetupWidget(wdgtIndex);
 334:Generated_Source\PSoC4/CSD_Sensing.c ****             }
 335:Generated_Source\PSoC4/CSD_Sensing.c ****             else
 336:Generated_Source\PSoC4/CSD_Sensing.c ****             {
 337:Generated_Source\PSoC4/CSD_Sensing.c ****                 /*  Sensing method is invalid, return error to caller  */
 338:Generated_Source\PSoC4/CSD_Sensing.c ****                 widgetStatus = CYRET_UNKNOWN;
 339:Generated_Source\PSoC4/CSD_Sensing.c ****             }
 340:Generated_Source\PSoC4/CSD_Sensing.c ****         #elif (CSD_ENABLE == CSD_CSD_EN)
 341:Generated_Source\PSoC4/CSD_Sensing.c ****             /*  Set up widget for scan */
 342:Generated_Source\PSoC4/CSD_Sensing.c ****             CSD_CSDSetupWidget(wdgtIndex);
 141              		.loc 1 342 0
 142 004e 7B68     		ldr	r3, [r7, #4]
 143 0050 181C     		mov	r0, r3
 144 0052 FFF7FEFF 		bl	CSD_CSDSetupWidget
 145              	.L9:
 343:Generated_Source\PSoC4/CSD_Sensing.c ****         #elif (CSD_ENABLE == CSD_CSX_EN)
 344:Generated_Source\PSoC4/CSD_Sensing.c ****             /*  Set up widgets for scan     */
 345:Generated_Source\PSoC4/CSD_Sensing.c ****             CSD_CSXSetupWidget(wdgtIndex);
 346:Generated_Source\PSoC4/CSD_Sensing.c ****         #else
 347:Generated_Source\PSoC4/CSD_Sensing.c ****             widgetStatus = CYRET_UNKNOWN;
 348:Generated_Source\PSoC4/CSD_Sensing.c ****             #error "No sensing method enabled, component cannot work in this mode"
 349:Generated_Source\PSoC4/CSD_Sensing.c ****         #endif  /* (CSD_ENABLE == CSD_CSD2X_EN) */
 350:Generated_Source\PSoC4/CSD_Sensing.c ****     }
 351:Generated_Source\PSoC4/CSD_Sensing.c **** 
 352:Generated_Source\PSoC4/CSD_Sensing.c ****     return (widgetStatus);
 146              		.loc 1 352 0
 147 0056 FB68     		ldr	r3, [r7, #12]
 353:Generated_Source\PSoC4/CSD_Sensing.c **** }
 148              		.loc 1 353 0
 149 0058 181C     		mov	r0, r3
 150 005a BD46     		mov	sp, r7
 151 005c 04B0     		add	sp, sp, #16
 152              		@ sp needed
 153 005e 80BD     		pop	{r7, pc}
 154              	.L12:
 155              		.align	2
 156              	.L11:
 157 0060 00000000 		.word	CSD_dsRam
 158              		.cfi_endproc
 159              	.LFE2:
ARM GAS  C:\Users\CHRIST~1\AppData\Local\Temp\ccIPpNky.s 			page 10


 160              		.size	CSD_SetupWidget, .-CSD_SetupWidget
 161              		.section	.text.CSD_Scan,"ax",%progbits
 162              		.align	2
 163              		.global	CSD_Scan
 164              		.code	16
 165              		.thumb_func
 166              		.type	CSD_Scan, %function
 167              	CSD_Scan:
 168              	.LFB3:
 354:Generated_Source\PSoC4/CSD_Sensing.c **** 
 355:Generated_Source\PSoC4/CSD_Sensing.c **** 
 356:Generated_Source\PSoC4/CSD_Sensing.c **** /*******************************************************************************
 357:Generated_Source\PSoC4/CSD_Sensing.c **** * Function Name: CSD_Scan
 358:Generated_Source\PSoC4/CSD_Sensing.c **** ****************************************************************************//**
 359:Generated_Source\PSoC4/CSD_Sensing.c **** *
 360:Generated_Source\PSoC4/CSD_Sensing.c **** * \brief
 361:Generated_Source\PSoC4/CSD_Sensing.c **** *  Initiates scan of all sensors in the widget which is initialized by
 362:Generated_Source\PSoC4/CSD_Sensing.c **** *  CSD_SetupWidget(), if the no scan is in progress.
 363:Generated_Source\PSoC4/CSD_Sensing.c **** *
 364:Generated_Source\PSoC4/CSD_Sensing.c **** * \details
 365:Generated_Source\PSoC4/CSD_Sensing.c **** *  This function should be called only after the CSD_SetupWidget()
 366:Generated_Source\PSoC4/CSD_Sensing.c **** *  function is called to start the scanning of the sensors in the widget. The
 367:Generated_Source\PSoC4/CSD_Sensing.c **** *  status of a sensor scan must be checked using the CSD_IsBusy()
 368:Generated_Source\PSoC4/CSD_Sensing.c **** *  API prior to starting a next scan or setting up another widget.
 369:Generated_Source\PSoC4/CSD_Sensing.c **** *
 370:Generated_Source\PSoC4/CSD_Sensing.c **** * \return
 371:Generated_Source\PSoC4/CSD_Sensing.c **** *  Returns the status of the scan initiation operation:
 372:Generated_Source\PSoC4/CSD_Sensing.c **** *    - CYRET_SUCCESS if scanning is successfully started.
 373:Generated_Source\PSoC4/CSD_Sensing.c **** *    - CYRET_INVALID_STATE if the previous scanning is not completed and the
 374:Generated_Source\PSoC4/CSD_Sensing.c **** *      hardware block is busy.
 375:Generated_Source\PSoC4/CSD_Sensing.c **** *    - CYRET_UNKNOWN if an unknown sensing method is used by the widget.
 376:Generated_Source\PSoC4/CSD_Sensing.c **** *
 377:Generated_Source\PSoC4/CSD_Sensing.c **** ********************************************************************************/
 378:Generated_Source\PSoC4/CSD_Sensing.c **** cystatus CSD_Scan(void)
 379:Generated_Source\PSoC4/CSD_Sensing.c **** {
 169              		.loc 1 379 0
 170              		.cfi_startproc
 171 0000 80B5     		push	{r7, lr}
 172              		.cfi_def_cfa_offset 8
 173              		.cfi_offset 7, -8
 174              		.cfi_offset 14, -4
 175 0002 82B0     		sub	sp, sp, #8
 176              		.cfi_def_cfa_offset 16
 177 0004 00AF     		add	r7, sp, #0
 178              		.cfi_def_cfa_register 7
 380:Generated_Source\PSoC4/CSD_Sensing.c ****     cystatus scanStatus = CYRET_SUCCESS;
 179              		.loc 1 380 0
 180 0006 0023     		mov	r3, #0
 181 0008 7B60     		str	r3, [r7, #4]
 381:Generated_Source\PSoC4/CSD_Sensing.c **** 
 382:Generated_Source\PSoC4/CSD_Sensing.c ****     if (CSD_WDGT_SW_STS_BUSY == (CSD_dsRam.status & CSD_WDGT_SW_STS_BUSY))
 182              		.loc 1 382 0
 183 000a 084B     		ldr	r3, .L17
 184 000c 9A68     		ldr	r2, [r3, #8]
 185 000e 8023     		mov	r3, #128
 186 0010 5B02     		lsl	r3, r3, #9
 187 0012 1340     		and	r3, r2
ARM GAS  C:\Users\CHRIST~1\AppData\Local\Temp\ccIPpNky.s 			page 11


 188 0014 02D0     		beq	.L14
 383:Generated_Source\PSoC4/CSD_Sensing.c ****     {
 384:Generated_Source\PSoC4/CSD_Sensing.c ****         /* Previous widget is being scanned. Return error. */
 385:Generated_Source\PSoC4/CSD_Sensing.c ****         scanStatus = CYRET_INVALID_STATE;
 189              		.loc 1 385 0
 190 0016 1123     		mov	r3, #17
 191 0018 7B60     		str	r3, [r7, #4]
 192 001a 01E0     		b	.L15
 193              	.L14:
 386:Generated_Source\PSoC4/CSD_Sensing.c ****     }
 387:Generated_Source\PSoC4/CSD_Sensing.c ****     else
 388:Generated_Source\PSoC4/CSD_Sensing.c ****     {
 389:Generated_Source\PSoC4/CSD_Sensing.c ****         /*  If CSD2X is enabled, call CSD2X scan    */
 390:Generated_Source\PSoC4/CSD_Sensing.c ****     #if (CSD_ENABLE == CSD_CSD2X_EN)
 391:Generated_Source\PSoC4/CSD_Sensing.c ****         scanStatus = CSD_Scan2x();
 392:Generated_Source\PSoC4/CSD_Sensing.c **** 
 393:Generated_Source\PSoC4/CSD_Sensing.c ****     /*  If both CSD and CSX are enabled, call scan API based on widget sensing method    */
 394:Generated_Source\PSoC4/CSD_Sensing.c ****     #elif (CSD_ENABLE == CSD_CSD_CSX_EN)
 395:Generated_Source\PSoC4/CSD_Sensing.c ****         /*  Check widget sensing method and call appropriate APIs   */
 396:Generated_Source\PSoC4/CSD_Sensing.c ****         switch (CSD_currentSenseMethod)
 397:Generated_Source\PSoC4/CSD_Sensing.c ****         {
 398:Generated_Source\PSoC4/CSD_Sensing.c ****             case CSD_SENSE_METHOD_CSX_E:
 399:Generated_Source\PSoC4/CSD_Sensing.c ****                 CSD_CSXScan();
 400:Generated_Source\PSoC4/CSD_Sensing.c ****                 break;
 401:Generated_Source\PSoC4/CSD_Sensing.c **** 
 402:Generated_Source\PSoC4/CSD_Sensing.c ****             case CSD_SENSE_METHOD_CSD_E:
 403:Generated_Source\PSoC4/CSD_Sensing.c ****                  CSD_CSDScan();
 404:Generated_Source\PSoC4/CSD_Sensing.c ****                 break;
 405:Generated_Source\PSoC4/CSD_Sensing.c **** 
 406:Generated_Source\PSoC4/CSD_Sensing.c ****             default:
 407:Generated_Source\PSoC4/CSD_Sensing.c ****                 scanStatus = CYRET_UNKNOWN;
 408:Generated_Source\PSoC4/CSD_Sensing.c ****                 break;
 409:Generated_Source\PSoC4/CSD_Sensing.c ****         }
 410:Generated_Source\PSoC4/CSD_Sensing.c **** 
 411:Generated_Source\PSoC4/CSD_Sensing.c ****     /*  If only CSD is enabled, call CSD scan   */
 412:Generated_Source\PSoC4/CSD_Sensing.c ****     #elif (CSD_ENABLE == CSD_CSD_EN)
 413:Generated_Source\PSoC4/CSD_Sensing.c ****         CSD_CSDScan();
 194              		.loc 1 413 0
 195 001c FFF7FEFF 		bl	CSD_CSDScan
 196              	.L15:
 414:Generated_Source\PSoC4/CSD_Sensing.c **** 
 415:Generated_Source\PSoC4/CSD_Sensing.c ****     /*  If only CSX is enabled, call CSX scan   */
 416:Generated_Source\PSoC4/CSD_Sensing.c ****     #elif (CSD_ENABLE == CSD_CSX_EN)
 417:Generated_Source\PSoC4/CSD_Sensing.c ****         CSD_CSXScan();
 418:Generated_Source\PSoC4/CSD_Sensing.c **** 
 419:Generated_Source\PSoC4/CSD_Sensing.c ****     #else
 420:Generated_Source\PSoC4/CSD_Sensing.c ****         scanStatus = CYRET_UNKNOWN;
 421:Generated_Source\PSoC4/CSD_Sensing.c ****         #error "No sensing method enabled, component cannot work in this mode"
 422:Generated_Source\PSoC4/CSD_Sensing.c ****     #endif  /* (CSD_ENABLE == CSD_CSD2X_EN) */
 423:Generated_Source\PSoC4/CSD_Sensing.c ****     }
 424:Generated_Source\PSoC4/CSD_Sensing.c **** 
 425:Generated_Source\PSoC4/CSD_Sensing.c ****     return (scanStatus);
 197              		.loc 1 425 0
 198 0020 7B68     		ldr	r3, [r7, #4]
 426:Generated_Source\PSoC4/CSD_Sensing.c **** }
 199              		.loc 1 426 0
 200 0022 181C     		mov	r0, r3
ARM GAS  C:\Users\CHRIST~1\AppData\Local\Temp\ccIPpNky.s 			page 12


 201 0024 BD46     		mov	sp, r7
 202 0026 02B0     		add	sp, sp, #8
 203              		@ sp needed
 204 0028 80BD     		pop	{r7, pc}
 205              	.L18:
 206 002a C046     		.align	2
 207              	.L17:
 208 002c 00000000 		.word	CSD_dsRam
 209              		.cfi_endproc
 210              	.LFE3:
 211              		.size	CSD_Scan, .-CSD_Scan
 212              		.section	.text.CSD_ScanAllWidgets,"ax",%progbits
 213              		.align	2
 214              		.global	CSD_ScanAllWidgets
 215              		.code	16
 216              		.thumb_func
 217              		.type	CSD_ScanAllWidgets, %function
 218              	CSD_ScanAllWidgets:
 219              	.LFB4:
 427:Generated_Source\PSoC4/CSD_Sensing.c **** 
 428:Generated_Source\PSoC4/CSD_Sensing.c **** 
 429:Generated_Source\PSoC4/CSD_Sensing.c **** /*******************************************************************************
 430:Generated_Source\PSoC4/CSD_Sensing.c **** * Function Name: CSD_ScanAllWidgets
 431:Generated_Source\PSoC4/CSD_Sensing.c **** ****************************************************************************//**
 432:Generated_Source\PSoC4/CSD_Sensing.c **** *
 433:Generated_Source\PSoC4/CSD_Sensing.c **** * \brief
 434:Generated_Source\PSoC4/CSD_Sensing.c **** *  Initializes the first enabled widget and scans of all the sensors in the
 435:Generated_Source\PSoC4/CSD_Sensing.c **** *  widget, then the same process is repeated for all widgets in the component.
 436:Generated_Source\PSoC4/CSD_Sensing.c **** *  I.e. scan all the widgets in the component.
 437:Generated_Source\PSoC4/CSD_Sensing.c **** *
 438:Generated_Source\PSoC4/CSD_Sensing.c **** * \details
 439:Generated_Source\PSoC4/CSD_Sensing.c **** *  This function initializes a widget and scans all the sensors in the widget,
 440:Generated_Source\PSoC4/CSD_Sensing.c **** *  and then repeats the same for all the widgets in the component. The tasks of
 441:Generated_Source\PSoC4/CSD_Sensing.c **** *  the CSD_SetupWidget() and CSD_Scan() functions are
 442:Generated_Source\PSoC4/CSD_Sensing.c **** *  executed by these functions. The status of a sensor scan must be checked
 443:Generated_Source\PSoC4/CSD_Sensing.c **** *  using the the CSD_IsBusy() API prior to starting a next scan
 444:Generated_Source\PSoC4/CSD_Sensing.c **** *  or setting up another widget.
 445:Generated_Source\PSoC4/CSD_Sensing.c **** *
 446:Generated_Source\PSoC4/CSD_Sensing.c **** * \return
 447:Generated_Source\PSoC4/CSD_Sensing.c **** *  Returns the status of operation:
 448:Generated_Source\PSoC4/CSD_Sensing.c **** *    - CYRET_SUCCESS if scanning is successfully started.
 449:Generated_Source\PSoC4/CSD_Sensing.c **** *    - CYRET_BAD_PARAM if all the widgets are disabled.
 450:Generated_Source\PSoC4/CSD_Sensing.c **** *    - CYRET_INVALID_STATE if the previous scanning is not completed and the HW block is busy.
 451:Generated_Source\PSoC4/CSD_Sensing.c **** *    - CYRET_UNKNOWN if there are unknown errors.
 452:Generated_Source\PSoC4/CSD_Sensing.c **** *
 453:Generated_Source\PSoC4/CSD_Sensing.c **** *******************************************************************************/
 454:Generated_Source\PSoC4/CSD_Sensing.c **** cystatus CSD_ScanAllWidgets(void)
 455:Generated_Source\PSoC4/CSD_Sensing.c **** {
 220              		.loc 1 455 0
 221              		.cfi_startproc
 222 0000 80B5     		push	{r7, lr}
 223              		.cfi_def_cfa_offset 8
 224              		.cfi_offset 7, -8
 225              		.cfi_offset 14, -4
 226 0002 82B0     		sub	sp, sp, #8
 227              		.cfi_def_cfa_offset 16
 228 0004 00AF     		add	r7, sp, #0
ARM GAS  C:\Users\CHRIST~1\AppData\Local\Temp\ccIPpNky.s 			page 13


 229              		.cfi_def_cfa_register 7
 456:Generated_Source\PSoC4/CSD_Sensing.c ****     cystatus scanStatus = CYRET_UNKNOWN;
 230              		.loc 1 456 0
 231 0006 0123     		mov	r3, #1
 232 0008 5B42     		neg	r3, r3
 233 000a 7B60     		str	r3, [r7, #4]
 457:Generated_Source\PSoC4/CSD_Sensing.c **** 
 458:Generated_Source\PSoC4/CSD_Sensing.c ****     #if (CSD_DISABLE == CSD_CSD2X_EN)
 459:Generated_Source\PSoC4/CSD_Sensing.c ****         uint32 wdgtIndex;
 460:Generated_Source\PSoC4/CSD_Sensing.c **** 
 461:Generated_Source\PSoC4/CSD_Sensing.c ****         if (CSD_SW_STS_BUSY == (CSD_dsRam.status & CSD_SW_STS_BUSY))
 234              		.loc 1 461 0
 235 000c 134B     		ldr	r3, .L26
 236 000e 9B68     		ldr	r3, [r3, #8]
 237 0010 8022     		mov	r2, #128
 238 0012 1340     		and	r3, r2
 239 0014 02D0     		beq	.L20
 462:Generated_Source\PSoC4/CSD_Sensing.c ****         {
 463:Generated_Source\PSoC4/CSD_Sensing.c ****             /* Previous widget is being scanned. Return error. */
 464:Generated_Source\PSoC4/CSD_Sensing.c ****             scanStatus = CYRET_INVALID_STATE;
 240              		.loc 1 464 0
 241 0016 1123     		mov	r3, #17
 242 0018 7B60     		str	r3, [r7, #4]
 243 001a 19E0     		b	.L21
 244              	.L20:
 465:Generated_Source\PSoC4/CSD_Sensing.c ****         }
 466:Generated_Source\PSoC4/CSD_Sensing.c ****         else
 467:Generated_Source\PSoC4/CSD_Sensing.c ****         {
 468:Generated_Source\PSoC4/CSD_Sensing.c ****             /*
 469:Generated_Source\PSoC4/CSD_Sensing.c ****              *  Set up widget first widget.
 470:Generated_Source\PSoC4/CSD_Sensing.c ****              *  If widget returned error, set up next, continue same until widget does not return e
 471:Generated_Source\PSoC4/CSD_Sensing.c ****              */
 472:Generated_Source\PSoC4/CSD_Sensing.c ****             for (wdgtIndex = 0u;
 245              		.loc 1 472 0
 246 001c 0023     		mov	r3, #0
 247 001e 3B60     		str	r3, [r7]
 248 0020 13E0     		b	.L22
 249              	.L24:
 473:Generated_Source\PSoC4/CSD_Sensing.c ****                  wdgtIndex < CSD_TOTAL_WIDGETS;
 474:Generated_Source\PSoC4/CSD_Sensing.c ****                  wdgtIndex++)
 475:Generated_Source\PSoC4/CSD_Sensing.c ****             {
 476:Generated_Source\PSoC4/CSD_Sensing.c **** 
 477:Generated_Source\PSoC4/CSD_Sensing.c ****                 scanStatus = CSD_SetupWidget(wdgtIndex);
 250              		.loc 1 477 0
 251 0022 3B68     		ldr	r3, [r7]
 252 0024 181C     		mov	r0, r3
 253 0026 FFF7FEFF 		bl	CSD_SetupWidget
 254 002a 031C     		mov	r3, r0
 255 002c 7B60     		str	r3, [r7, #4]
 478:Generated_Source\PSoC4/CSD_Sensing.c **** 
 479:Generated_Source\PSoC4/CSD_Sensing.c ****                 if (CYRET_SUCCESS == scanStatus)
 256              		.loc 1 479 0
 257 002e 7B68     		ldr	r3, [r7, #4]
 258 0030 002B     		cmp	r3, #0
 259 0032 07D1     		bne	.L23
 480:Generated_Source\PSoC4/CSD_Sensing.c ****                 {
 481:Generated_Source\PSoC4/CSD_Sensing.c ****                     #if (0u != (CSD_TOTAL_WIDGETS - 1u))
ARM GAS  C:\Users\CHRIST~1\AppData\Local\Temp\ccIPpNky.s 			page 14


 482:Generated_Source\PSoC4/CSD_Sensing.c ****                         /* If there are more than one widget to be scanned, request callback to sca
 483:Generated_Source\PSoC4/CSD_Sensing.c ****                         if ((CSD_TOTAL_WIDGETS - 1u) > wdgtIndex)
 484:Generated_Source\PSoC4/CSD_Sensing.c ****                         {
 485:Generated_Source\PSoC4/CSD_Sensing.c ****                              /* Request callback to scan next widget in ISR */
 486:Generated_Source\PSoC4/CSD_Sensing.c ****                             CSD_requestScanAllWidget = CSD_ENABLE;
 487:Generated_Source\PSoC4/CSD_Sensing.c ****                         }
 488:Generated_Source\PSoC4/CSD_Sensing.c ****                         else
 489:Generated_Source\PSoC4/CSD_Sensing.c ****                         {
 490:Generated_Source\PSoC4/CSD_Sensing.c ****                             /* Request to exit in ISR (Do not scan the next widgets) */
 491:Generated_Source\PSoC4/CSD_Sensing.c ****                             CSD_requestScanAllWidget = CSD_DISABLE;
 492:Generated_Source\PSoC4/CSD_Sensing.c ****                         }
 493:Generated_Source\PSoC4/CSD_Sensing.c ****                     #else
 494:Generated_Source\PSoC4/CSD_Sensing.c ****                         {
 495:Generated_Source\PSoC4/CSD_Sensing.c ****                             /* Request to exit in ISR (We have only one widget) */
 496:Generated_Source\PSoC4/CSD_Sensing.c ****                             CSD_requestScanAllWidget = CSD_DISABLE;
 260              		.loc 1 496 0
 261 0034 0A4B     		ldr	r3, .L26+4
 262 0036 0022     		mov	r2, #0
 263 0038 1A70     		strb	r2, [r3]
 497:Generated_Source\PSoC4/CSD_Sensing.c ****                         }
 498:Generated_Source\PSoC4/CSD_Sensing.c ****                     #endif  /* (0u != (CSD_TOTAL_WIDGETS - 1u)) */
 499:Generated_Source\PSoC4/CSD_Sensing.c **** 
 500:Generated_Source\PSoC4/CSD_Sensing.c ****                     /*  Initiate scan and quit loop */
 501:Generated_Source\PSoC4/CSD_Sensing.c ****                     scanStatus = CSD_Scan();
 264              		.loc 1 501 0
 265 003a FFF7FEFF 		bl	CSD_Scan
 266 003e 031C     		mov	r3, r0
 267 0040 7B60     		str	r3, [r7, #4]
 502:Generated_Source\PSoC4/CSD_Sensing.c **** 
 503:Generated_Source\PSoC4/CSD_Sensing.c ****                     break;
 268              		.loc 1 503 0
 269 0042 05E0     		b	.L21
 270              	.L23:
 474:Generated_Source\PSoC4/CSD_Sensing.c ****             {
 271              		.loc 1 474 0
 272 0044 3B68     		ldr	r3, [r7]
 273 0046 0133     		add	r3, r3, #1
 274 0048 3B60     		str	r3, [r7]
 275              	.L22:
 472:Generated_Source\PSoC4/CSD_Sensing.c ****                  wdgtIndex < CSD_TOTAL_WIDGETS;
 276              		.loc 1 472 0 discriminator 1
 277 004a 3B68     		ldr	r3, [r7]
 278 004c 002B     		cmp	r3, #0
 279 004e E8D0     		beq	.L24
 280              	.L21:
 504:Generated_Source\PSoC4/CSD_Sensing.c ****                 }
 505:Generated_Source\PSoC4/CSD_Sensing.c ****             }
 506:Generated_Source\PSoC4/CSD_Sensing.c ****         }
 507:Generated_Source\PSoC4/CSD_Sensing.c ****     #else
 508:Generated_Source\PSoC4/CSD_Sensing.c ****         /******************************
 509:Generated_Source\PSoC4/CSD_Sensing.c ****         * This is the place where the Scan2x
 510:Generated_Source\PSoC4/CSD_Sensing.c ****         * setup should be implemented.
 511:Generated_Source\PSoC4/CSD_Sensing.c ****         * Scan2x will be implemented
 512:Generated_Source\PSoC4/CSD_Sensing.c ****         * in the next component version.
 513:Generated_Source\PSoC4/CSD_Sensing.c ****         *********************************/
 514:Generated_Source\PSoC4/CSD_Sensing.c ****     #endif /* (CSD_DISABLE == CSD_CSD2X_EN) */
 515:Generated_Source\PSoC4/CSD_Sensing.c **** 
ARM GAS  C:\Users\CHRIST~1\AppData\Local\Temp\ccIPpNky.s 			page 15


 516:Generated_Source\PSoC4/CSD_Sensing.c ****     return (scanStatus);
 281              		.loc 1 516 0
 282 0050 7B68     		ldr	r3, [r7, #4]
 517:Generated_Source\PSoC4/CSD_Sensing.c **** }
 283              		.loc 1 517 0
 284 0052 181C     		mov	r0, r3
 285 0054 BD46     		mov	sp, r7
 286 0056 02B0     		add	sp, sp, #8
 287              		@ sp needed
 288 0058 80BD     		pop	{r7, pc}
 289              	.L27:
 290 005a C046     		.align	2
 291              	.L26:
 292 005c 00000000 		.word	CSD_dsRam
 293 0060 00000000 		.word	CSD_requestScanAllWidget
 294              		.cfi_endproc
 295              	.LFE4:
 296              		.size	CSD_ScanAllWidgets, .-CSD_ScanAllWidgets
 297              		.section	.text.CSD_SsInitialize,"ax",%progbits
 298              		.align	2
 299              		.global	CSD_SsInitialize
 300              		.code	16
 301              		.thumb_func
 302              		.type	CSD_SsInitialize, %function
 303              	CSD_SsInitialize:
 304              	.LFB5:
 518:Generated_Source\PSoC4/CSD_Sensing.c **** 
 519:Generated_Source\PSoC4/CSD_Sensing.c **** 
 520:Generated_Source\PSoC4/CSD_Sensing.c **** /*******************************************************************************
 521:Generated_Source\PSoC4/CSD_Sensing.c **** * Function Name: CSD_SsInitialize
 522:Generated_Source\PSoC4/CSD_Sensing.c **** ****************************************************************************//**
 523:Generated_Source\PSoC4/CSD_Sensing.c **** *
 524:Generated_Source\PSoC4/CSD_Sensing.c **** * \brief
 525:Generated_Source\PSoC4/CSD_Sensing.c **** *   Performs hardware and firmware initialization required for proper operation
 526:Generated_Source\PSoC4/CSD_Sensing.c **** *   of the CSD component. This function is called from
 527:Generated_Source\PSoC4/CSD_Sensing.c **** *   the CSD_Start() API prior to calling any other APIs of the component.
 528:Generated_Source\PSoC4/CSD_Sensing.c **** *
 529:Generated_Source\PSoC4/CSD_Sensing.c **** * \details
 530:Generated_Source\PSoC4/CSD_Sensing.c **** *   Performs hardware and firmware initialization required for proper operation
 531:Generated_Source\PSoC4/CSD_Sensing.c **** *   of the CSD component. This function is called from
 532:Generated_Source\PSoC4/CSD_Sensing.c **** *   the CSD_Start() API prior to calling any other APIs of the component.
 533:Generated_Source\PSoC4/CSD_Sensing.c **** *   1. The function initializes immunity offsets when the frequency hopping is
 534:Generated_Source\PSoC4/CSD_Sensing.c **** *      enabled.
 535:Generated_Source\PSoC4/CSD_Sensing.c **** *   2. Depending on the configuration, the function initializes the CSD block
 536:Generated_Source\PSoC4/CSD_Sensing.c **** *      for the CSD2X, CSD, CSX, or CSD+CSX modes.
 537:Generated_Source\PSoC4/CSD_Sensing.c **** *   3. The function updates the dsRam.wdgtWorking variable with 1 when Self Test
 538:Generated_Source\PSoC4/CSD_Sensing.c **** *      is enabled.
 539:Generated_Source\PSoC4/CSD_Sensing.c **** *
 540:Generated_Source\PSoC4/CSD_Sensing.c **** *   Calling the CSD_Start API is the recommended method to initialize
 541:Generated_Source\PSoC4/CSD_Sensing.c **** *   the CSD component at power-up. The CSD_SsInitialize()
 542:Generated_Source\PSoC4/CSD_Sensing.c **** *   API should not be used for initialization, resume, or wake-up operations.
 543:Generated_Source\PSoC4/CSD_Sensing.c **** *   The dsRam.wdgtWorking variable is updated.
 544:Generated_Source\PSoC4/CSD_Sensing.c **** *
 545:Generated_Source\PSoC4/CSD_Sensing.c **** * \return status
 546:Generated_Source\PSoC4/CSD_Sensing.c **** *   Returns status of operation:
 547:Generated_Source\PSoC4/CSD_Sensing.c **** *   - Zero        - Indicates successful initialization.
 548:Generated_Source\PSoC4/CSD_Sensing.c **** *   - Non-zero    - One or more errors occurred in the initialization process.
ARM GAS  C:\Users\CHRIST~1\AppData\Local\Temp\ccIPpNky.s 			page 16


 549:Generated_Source\PSoC4/CSD_Sensing.c **** *
 550:Generated_Source\PSoC4/CSD_Sensing.c **** *******************************************************************************/
 551:Generated_Source\PSoC4/CSD_Sensing.c **** cystatus CSD_SsInitialize(void)
 552:Generated_Source\PSoC4/CSD_Sensing.c **** {
 305              		.loc 1 552 0
 306              		.cfi_startproc
 307 0000 80B5     		push	{r7, lr}
 308              		.cfi_def_cfa_offset 8
 309              		.cfi_offset 7, -8
 310              		.cfi_offset 14, -4
 311 0002 82B0     		sub	sp, sp, #8
 312              		.cfi_def_cfa_offset 16
 313 0004 00AF     		add	r7, sp, #0
 314              		.cfi_def_cfa_register 7
 553:Generated_Source\PSoC4/CSD_Sensing.c ****     cystatus initStatus = CYRET_SUCCESS;
 315              		.loc 1 553 0
 316 0006 0023     		mov	r3, #0
 317 0008 7B60     		str	r3, [r7, #4]
 554:Generated_Source\PSoC4/CSD_Sensing.c **** 
 555:Generated_Source\PSoC4/CSD_Sensing.c ****     #if (CSD_ENABLE == CSD_MULTI_FREQ_SCAN_EN)
 556:Generated_Source\PSoC4/CSD_Sensing.c ****         CSD_immunity[CSD_FREQ_CHANNEL_0] = (uint8)CY_GET_REG32(CY_SYS_CLK_IMO_TRIM1_PTR);
 557:Generated_Source\PSoC4/CSD_Sensing.c ****         if (CSD_COARSE_TRIM_THRESHOLD_1 > CSD_immunity[CSD_FREQ_CHANNEL_0])
 558:Generated_Source\PSoC4/CSD_Sensing.c ****         {
 559:Generated_Source\PSoC4/CSD_Sensing.c ****             CSD_immunity[CSD_FREQ_CHANNEL_1] =
 560:Generated_Source\PSoC4/CSD_Sensing.c ****             CSD_immunity[CSD_FREQ_CHANNEL_0] + CSD_FREQUENCY_OFFSET_5;
 561:Generated_Source\PSoC4/CSD_Sensing.c ****             CSD_immunity[CSD_FREQ_CHANNEL_2] =
 562:Generated_Source\PSoC4/CSD_Sensing.c ****             CSD_immunity[CSD_FREQ_CHANNEL_0] + CSD_FREQUENCY_OFFSET_10;
 563:Generated_Source\PSoC4/CSD_Sensing.c ****         }
 564:Generated_Source\PSoC4/CSD_Sensing.c ****         else if (CSD_COARSE_TRIM_THRESHOLD_2 > CSD_immunity[CSD_FREQ_CHANNEL_0])
 565:Generated_Source\PSoC4/CSD_Sensing.c ****         {
 566:Generated_Source\PSoC4/CSD_Sensing.c ****             CSD_immunity[CSD_FREQ_CHANNEL_1] =
 567:Generated_Source\PSoC4/CSD_Sensing.c ****             CSD_immunity[CSD_FREQ_CHANNEL_0] - CSD_FREQUENCY_OFFSET_5;
 568:Generated_Source\PSoC4/CSD_Sensing.c ****             CSD_immunity[CSD_FREQ_CHANNEL_2] =
 569:Generated_Source\PSoC4/CSD_Sensing.c ****             CSD_immunity[CSD_FREQ_CHANNEL_0] + CSD_FREQUENCY_OFFSET_5;
 570:Generated_Source\PSoC4/CSD_Sensing.c ****         }
 571:Generated_Source\PSoC4/CSD_Sensing.c ****         else
 572:Generated_Source\PSoC4/CSD_Sensing.c ****         {
 573:Generated_Source\PSoC4/CSD_Sensing.c ****             CSD_immunity[CSD_FREQ_CHANNEL_1] =
 574:Generated_Source\PSoC4/CSD_Sensing.c ****             CSD_immunity[CSD_FREQ_CHANNEL_0] - CSD_FREQUENCY_OFFSET_5;
 575:Generated_Source\PSoC4/CSD_Sensing.c ****             CSD_immunity[CSD_FREQ_CHANNEL_2] =
 576:Generated_Source\PSoC4/CSD_Sensing.c ****             CSD_immunity[CSD_FREQ_CHANNEL_0] - CSD_FREQUENCY_OFFSET_10;
 577:Generated_Source\PSoC4/CSD_Sensing.c ****         }
 578:Generated_Source\PSoC4/CSD_Sensing.c ****     #endif /* (CSD_ENABLE == CSD_MULTI_FREQ_SCAN_EN) */
 579:Generated_Source\PSoC4/CSD_Sensing.c **** 
 580:Generated_Source\PSoC4/CSD_Sensing.c ****     #if (CSD_DISABLE == CSD_CSDV2)
 581:Generated_Source\PSoC4/CSD_Sensing.c ****         CSD_SsTrimIdacs();
 582:Generated_Source\PSoC4/CSD_Sensing.c ****     #endif /* (CSD_ENABLE == CSD_CSDV2) */
 583:Generated_Source\PSoC4/CSD_Sensing.c **** 
 584:Generated_Source\PSoC4/CSD_Sensing.c ****     #if((CSD_ENABLE == CSD_CSD_EN) ||\
 585:Generated_Source\PSoC4/CSD_Sensing.c ****     ((CSD_ENABLE == CSD_CSX_EN) && (CSD_ENABLE == CSD_CSDV2)))
 586:Generated_Source\PSoC4/CSD_Sensing.c ****         CSD_SsInitializeSourceSenseClk();
 318              		.loc 1 586 0
 319 000a FFF7FEFF 		bl	CSD_SsInitializeSourceSenseClk
 587:Generated_Source\PSoC4/CSD_Sensing.c ****     #endif /* ((CSD_ENABLE == CSD_CSD_EN) ||\
 588:Generated_Source\PSoC4/CSD_Sensing.c ****               ((CSD_ENABLE == CSD_CSX_EN) && (CSD_ENABLE == CSD_CSDV2))) */
 589:Generated_Source\PSoC4/CSD_Sensing.c **** 
 590:Generated_Source\PSoC4/CSD_Sensing.c ****     /*
ARM GAS  C:\Users\CHRIST~1\AppData\Local\Temp\ccIPpNky.s 			page 17


 591:Generated_Source\PSoC4/CSD_Sensing.c ****      *  Check if CSD2X is enabled, if yes, initialize CSD component
 592:Generated_Source\PSoC4/CSD_Sensing.c ****      *  for CSD2x operation
 593:Generated_Source\PSoC4/CSD_Sensing.c ****      */
 594:Generated_Source\PSoC4/CSD_Sensing.c ****     #if (CSD_ENABLE == CSD_CSD2X_EN)
 595:Generated_Source\PSoC4/CSD_Sensing.c ****         /*
 596:Generated_Source\PSoC4/CSD_Sensing.c ****          *  Check if CSX or CSD enable along with CSD2X, if yes, provide the error
 597:Generated_Source\PSoC4/CSD_Sensing.c ****          *  message as CSD2X can not coexist with CSD or CSX
 598:Generated_Source\PSoC4/CSD_Sensing.c ****          */
 599:Generated_Source\PSoC4/CSD_Sensing.c ****         #if (CSD_ENABLE == CSD_CSX_EN)
 600:Generated_Source\PSoC4/CSD_Sensing.c ****             #error "CSD2X and CSX can not be enabled together"
 601:Generated_Source\PSoC4/CSD_Sensing.c ****             initStatus = CYRET_UNKNOWN;
 602:Generated_Source\PSoC4/CSD_Sensing.c ****         #elif (CSD_ENABLE == CSD_CSD_EN)
 603:Generated_Source\PSoC4/CSD_Sensing.c ****             #error "CSD2X and CSD can not be enabled together"
 604:Generated_Source\PSoC4/CSD_Sensing.c ****             initStatus = CYRET_UNKNOWN;
 605:Generated_Source\PSoC4/CSD_Sensing.c ****         #endif /* (CSD_CSX_EN == CSD_ENABLE) */
 606:Generated_Source\PSoC4/CSD_Sensing.c **** 
 607:Generated_Source\PSoC4/CSD_Sensing.c ****         /* Initialize both CSD blocks for CSD2X scanning    */
 608:Generated_Source\PSoC4/CSD_Sensing.c ****         CSD_CSD2XInitialize();
 609:Generated_Source\PSoC4/CSD_Sensing.c **** 
 610:Generated_Source\PSoC4/CSD_Sensing.c ****     #elif (CSD_ENABLE == CSD_CSD_CSX_EN)
 611:Generated_Source\PSoC4/CSD_Sensing.c ****         /*
 612:Generated_Source\PSoC4/CSD_Sensing.c ****          * CSD hardware shall be initialized in the Setup Widget based
 613:Generated_Source\PSoC4/CSD_Sensing.c ****          * on widget sensing method
 614:Generated_Source\PSoC4/CSD_Sensing.c ****          */
 615:Generated_Source\PSoC4/CSD_Sensing.c ****         CSD_currentSenseMethod = CSD_UNDEFINED_E;
 616:Generated_Source\PSoC4/CSD_Sensing.c **** 
 617:Generated_Source\PSoC4/CSD_Sensing.c ****         /* Set all IO states to default state  */
 618:Generated_Source\PSoC4/CSD_Sensing.c ****         CSD_SsSetIOsInDefaultState();
 619:Generated_Source\PSoC4/CSD_Sensing.c ****         #if (0u != CSD_CSD_TOTAL_SHIELD_COUNT)
 620:Generated_Source\PSoC4/CSD_Sensing.c ****             CSD_SsCSDDisableShieldElectrodes();
 621:Generated_Source\PSoC4/CSD_Sensing.c ****         #endif /* (0u != CSD_CSD_TOTAL_SHIELD_COUNT) */
 622:Generated_Source\PSoC4/CSD_Sensing.c ****     #elif (CSD_ENABLE == CSD_CSD_EN)
 623:Generated_Source\PSoC4/CSD_Sensing.c ****         /*  Initialize CSD block for CSD scanning   */
 624:Generated_Source\PSoC4/CSD_Sensing.c ****         CSD_SsCSDInitialize();
 320              		.loc 1 624 0
 321 000e FFF7FEFF 		bl	CSD_SsCSDInitialize
 625:Generated_Source\PSoC4/CSD_Sensing.c **** 
 626:Generated_Source\PSoC4/CSD_Sensing.c ****     #elif (CSD_ENABLE == CSD_CSX_EN)
 627:Generated_Source\PSoC4/CSD_Sensing.c ****         /*  Initialize CSD block for CSX scanning   */
 628:Generated_Source\PSoC4/CSD_Sensing.c ****         CSD_CSXInitialize();
 629:Generated_Source\PSoC4/CSD_Sensing.c **** 
 630:Generated_Source\PSoC4/CSD_Sensing.c ****     #else
 631:Generated_Source\PSoC4/CSD_Sensing.c ****         #error "No sensing method enabled, component cannot work in this mode"
 632:Generated_Source\PSoC4/CSD_Sensing.c ****         initStatus = CYRET_UNKNOWN;
 633:Generated_Source\PSoC4/CSD_Sensing.c ****     #endif  /* (CSD_ENABLE == CSD_CSD2X_EN) */
 634:Generated_Source\PSoC4/CSD_Sensing.c **** 
 635:Generated_Source\PSoC4/CSD_Sensing.c ****     return (initStatus);
 322              		.loc 1 635 0
 323 0012 7B68     		ldr	r3, [r7, #4]
 636:Generated_Source\PSoC4/CSD_Sensing.c **** }
 324              		.loc 1 636 0
 325 0014 181C     		mov	r0, r3
 326 0016 BD46     		mov	sp, r7
 327 0018 02B0     		add	sp, sp, #8
 328              		@ sp needed
 329 001a 80BD     		pop	{r7, pc}
 330              		.cfi_endproc
ARM GAS  C:\Users\CHRIST~1\AppData\Local\Temp\ccIPpNky.s 			page 18


 331              	.LFE5:
 332              		.size	CSD_SsInitialize, .-CSD_SsInitialize
 333              		.section	.text.CSD_SetPinState,"ax",%progbits
 334              		.align	2
 335              		.global	CSD_SetPinState
 336              		.code	16
 337              		.thumb_func
 338              		.type	CSD_SetPinState, %function
 339              	CSD_SetPinState:
 340              	.LFB6:
 637:Generated_Source\PSoC4/CSD_Sensing.c **** 
 638:Generated_Source\PSoC4/CSD_Sensing.c **** 
 639:Generated_Source\PSoC4/CSD_Sensing.c **** /*******************************************************************************
 640:Generated_Source\PSoC4/CSD_Sensing.c **** * Function Name: CSD_SetPinState
 641:Generated_Source\PSoC4/CSD_Sensing.c **** ****************************************************************************//**
 642:Generated_Source\PSoC4/CSD_Sensing.c **** *
 643:Generated_Source\PSoC4/CSD_Sensing.c **** * \brief
 644:Generated_Source\PSoC4/CSD_Sensing.c **** *  Sets the state (drive mode and output state) of port pin used by a sensor.
 645:Generated_Source\PSoC4/CSD_Sensing.c **** *  The possible states are GND, Shield, High-Z, Tx or Rx, sensor. If the sensor
 646:Generated_Source\PSoC4/CSD_Sensing.c **** *  specified in the input parameter is a ganged sensor, then state of all pins
 647:Generated_Source\PSoC4/CSD_Sensing.c **** *  associated with ganged sensor is updated.
 648:Generated_Source\PSoC4/CSD_Sensing.c **** *
 649:Generated_Source\PSoC4/CSD_Sensing.c **** * \details
 650:Generated_Source\PSoC4/CSD_Sensing.c **** *  This function sets a specified state to the specified sensor pin. If the
 651:Generated_Source\PSoC4/CSD_Sensing.c **** *  sensor is a ganged sensor, then the specified state is also set for all
 652:Generated_Source\PSoC4/CSD_Sensing.c **** *  ganged pins of this sensor. Scanning should be completed before calling
 653:Generated_Source\PSoC4/CSD_Sensing.c **** *  this API.
 654:Generated_Source\PSoC4/CSD_Sensing.c **** *
 655:Generated_Source\PSoC4/CSD_Sensing.c **** *  The CSD_SHIELD and CSD_SENSOR states are not
 656:Generated_Source\PSoC4/CSD_Sensing.c **** *  allowed if there is no CSD widget configured in the users project.
 657:Generated_Source\PSoC4/CSD_Sensing.c **** *  The CSD_TX_PIN and CSD_RX_PIN states are not
 658:Generated_Source\PSoC4/CSD_Sensing.c **** *  allowed if there is no CSX widget configured in the users project.
 659:Generated_Source\PSoC4/CSD_Sensing.c **** *
 660:Generated_Source\PSoC4/CSD_Sensing.c **** *  It is not recommended to call this function directly from the application
 661:Generated_Source\PSoC4/CSD_Sensing.c **** *  layer. This function should be used to implement only the users specific
 662:Generated_Source\PSoC4/CSD_Sensing.c **** *  use cases. Functions that perform a setup and scan of the sensor/widget
 663:Generated_Source\PSoC4/CSD_Sensing.c **** *  automatically set needed pin states. They do not take into account changes
 664:Generated_Source\PSoC4/CSD_Sensing.c **** *  in the design made by the CSD_SetPinState() function.
 665:Generated_Source\PSoC4/CSD_Sensing.c **** *
 666:Generated_Source\PSoC4/CSD_Sensing.c **** *  \param wdgtIndex
 667:Generated_Source\PSoC4/CSD_Sensing.c **** *  Specify the ID number of the widget to change the pin state of the specified
 668:Generated_Source\PSoC4/CSD_Sensing.c **** *  sensor.
 669:Generated_Source\PSoC4/CSD_Sensing.c **** *  A macro for the widget ID can be found in CSD_Configuration.h
 670:Generated_Source\PSoC4/CSD_Sensing.c **** *  file defined as CSD_<WidgetName>_WDGT_ID Specifies the ID of
 671:Generated_Source\PSoC4/CSD_Sensing.c **** *  the widget.
 672:Generated_Source\PSoC4/CSD_Sensing.c **** *
 673:Generated_Source\PSoC4/CSD_Sensing.c **** *  \param snsIndex
 674:Generated_Source\PSoC4/CSD_Sensing.c **** *  Specify the ID number of the sensor within the widget to change its pin
 675:Generated_Source\PSoC4/CSD_Sensing.c **** *  state.
 676:Generated_Source\PSoC4/CSD_Sensing.c **** *  A macro for the sensor ID within a specified widget can be found in
 677:Generated_Source\PSoC4/CSD_Sensing.c **** *  CSD_Configuration.h file defined as
 678:Generated_Source\PSoC4/CSD_Sensing.c **** *  CSD_<WidgetName>_SNS<SensorNumber>_ID
 679:Generated_Source\PSoC4/CSD_Sensing.c **** *
 680:Generated_Source\PSoC4/CSD_Sensing.c **** *  \param state
 681:Generated_Source\PSoC4/CSD_Sensing.c **** *   Specify the state of the sensor that needs to be set:
 682:Generated_Source\PSoC4/CSD_Sensing.c **** *     1. CSD_GROUND - The pin is connected to ground.
 683:Generated_Source\PSoC4/CSD_Sensing.c **** *     2. CSD_HIGHZ - The drive mode of the pin is set to High-Z
ARM GAS  C:\Users\CHRIST~1\AppData\Local\Temp\ccIPpNky.s 			page 19


 684:Generated_Source\PSoC4/CSD_Sensing.c **** *        Analog.
 685:Generated_Source\PSoC4/CSD_Sensing.c **** *     3. CSD_SHIELD - The shield signal is routed to the pin (only
 686:Generated_Source\PSoC4/CSD_Sensing.c **** *        in CSD sensing method when shield electrode is enabled).
 687:Generated_Source\PSoC4/CSD_Sensing.c **** *     4. CSD_SENSOR  The pin is connected to the scanning bus
 688:Generated_Source\PSoC4/CSD_Sensing.c **** *        (only in CSD sensing method).
 689:Generated_Source\PSoC4/CSD_Sensing.c **** *     5. CSD_TX_PIN  The TX signal is routed to the sensor
 690:Generated_Source\PSoC4/CSD_Sensing.c **** *        (only in CSX sensing method).
 691:Generated_Source\PSoC4/CSD_Sensing.c **** *     6. CSD_RX_PIN  The pin is connected to the scanning bus
 692:Generated_Source\PSoC4/CSD_Sensing.c **** *        (only in CSX sensing method).
 693:Generated_Source\PSoC4/CSD_Sensing.c **** *
 694:Generated_Source\PSoC4/CSD_Sensing.c **** *******************************************************************************/
 695:Generated_Source\PSoC4/CSD_Sensing.c **** void CSD_SetPinState(uint32 wdgtIndex, uint32 snsIndex, uint32 state)
 696:Generated_Source\PSoC4/CSD_Sensing.c **** {
 341              		.loc 1 696 0
 342              		.cfi_startproc
 343 0000 90B5     		push	{r4, r7, lr}
 344              		.cfi_def_cfa_offset 12
 345              		.cfi_offset 4, -12
 346              		.cfi_offset 7, -8
 347              		.cfi_offset 14, -4
 348 0002 8BB0     		sub	sp, sp, #44
 349              		.cfi_def_cfa_offset 56
 350 0004 00AF     		add	r7, sp, #0
 351              		.cfi_def_cfa_register 7
 352 0006 F860     		str	r0, [r7, #12]
 353 0008 B960     		str	r1, [r7, #8]
 354 000a 7A60     		str	r2, [r7, #4]
 697:Generated_Source\PSoC4/CSD_Sensing.c ****     CSD_FLASH_IO_STRUCT const *curSnsIOPtr;
 698:Generated_Source\PSoC4/CSD_Sensing.c ****     #if (CSD_ENABLE == CSD_CSD_GANGED_SNS_EN)
 699:Generated_Source\PSoC4/CSD_Sensing.c ****         CSD_FLASH_SNS_STRUCT const *curFlashSnsPtr;
 700:Generated_Source\PSoC4/CSD_Sensing.c ****         uint32 tempVal;
 701:Generated_Source\PSoC4/CSD_Sensing.c ****     #endif /* (CSD_ENABLE == CSD_CSD_GANGED_SNS_EN) */
 702:Generated_Source\PSoC4/CSD_Sensing.c ****     uint32 newRegisterValue;
 703:Generated_Source\PSoC4/CSD_Sensing.c ****     uint8  interruptState;
 704:Generated_Source\PSoC4/CSD_Sensing.c ****     uint32 pinHSIOMShift;
 705:Generated_Source\PSoC4/CSD_Sensing.c ****     uint32 pinModeShift;
 706:Generated_Source\PSoC4/CSD_Sensing.c **** 
 707:Generated_Source\PSoC4/CSD_Sensing.c ****     #if (CSD_ENABLE == CSD_CSD_GANGED_SNS_EN)
 708:Generated_Source\PSoC4/CSD_Sensing.c ****         /* Check ganged sns flag  */
 709:Generated_Source\PSoC4/CSD_Sensing.c ****         if (CSD_GANGED_SNS_MASK == (CSD_dsFlash.wdgtArray[wdgtIndex].staticConfig &
 710:Generated_Source\PSoC4/CSD_Sensing.c ****             CSD_GANGED_SNS_MASK))
 711:Generated_Source\PSoC4/CSD_Sensing.c ****         {
 712:Generated_Source\PSoC4/CSD_Sensing.c ****             curFlashSnsPtr = CSD_dsFlash.wdgtArray[wdgtIndex].ptr2SnsFlash;
 713:Generated_Source\PSoC4/CSD_Sensing.c ****             curFlashSnsPtr += snsIndex;
 714:Generated_Source\PSoC4/CSD_Sensing.c ****             curSnsIOPtr = &CSD_ioList[curFlashSnsPtr->firstPinId];
 715:Generated_Source\PSoC4/CSD_Sensing.c **** 
 716:Generated_Source\PSoC4/CSD_Sensing.c ****             /* Get number of ganged pins  */
 717:Generated_Source\PSoC4/CSD_Sensing.c ****             tempVal = curFlashSnsPtr->numPins;
 718:Generated_Source\PSoC4/CSD_Sensing.c ****         }
 719:Generated_Source\PSoC4/CSD_Sensing.c ****         else
 720:Generated_Source\PSoC4/CSD_Sensing.c ****         {
 721:Generated_Source\PSoC4/CSD_Sensing.c ****             curSnsIOPtr = (CSD_FLASH_IO_STRUCT const *)
 722:Generated_Source\PSoC4/CSD_Sensing.c ****                                     CSD_dsFlash.wdgtArray[wdgtIndex].ptr2SnsFlash + snsIndex;
 723:Generated_Source\PSoC4/CSD_Sensing.c ****             /* There are no ganged pins */
 724:Generated_Source\PSoC4/CSD_Sensing.c ****             tempVal = 1u;
 725:Generated_Source\PSoC4/CSD_Sensing.c ****         }
 726:Generated_Source\PSoC4/CSD_Sensing.c ****     #else
ARM GAS  C:\Users\CHRIST~1\AppData\Local\Temp\ccIPpNky.s 			page 20


 727:Generated_Source\PSoC4/CSD_Sensing.c ****         curSnsIOPtr = (CSD_FLASH_IO_STRUCT const *)
 728:Generated_Source\PSoC4/CSD_Sensing.c ****                                     CSD_dsFlash.wdgtArray[wdgtIndex].ptr2SnsFlash + snsIndex;
 355              		.loc 1 728 0
 356 000c 4449     		ldr	r1, .L36
 357 000e FA68     		ldr	r2, [r7, #12]
 358 0010 131C     		mov	r3, r2
 359 0012 DB00     		lsl	r3, r3, #3
 360 0014 9B1A     		sub	r3, r3, r2
 361 0016 9B00     		lsl	r3, r3, #2
 362 0018 5958     		ldr	r1, [r3, r1]
 363 001a BA68     		ldr	r2, [r7, #8]
 364 001c 131C     		mov	r3, r2
 365 001e DB00     		lsl	r3, r3, #3
 366 0020 9B1A     		sub	r3, r3, r2
 367 0022 9B00     		lsl	r3, r3, #2
 727:Generated_Source\PSoC4/CSD_Sensing.c ****                                     CSD_dsFlash.wdgtArray[wdgtIndex].ptr2SnsFlash + snsIndex;
 368              		.loc 1 727 0
 369 0024 CB18     		add	r3, r1, r3
 370 0026 7B62     		str	r3, [r7, #36]
 729:Generated_Source\PSoC4/CSD_Sensing.c ****     #endif  /* (CSD_ENABLE == CSD_CSD_GANGED_SNS_EN) */
 730:Generated_Source\PSoC4/CSD_Sensing.c **** 
 731:Generated_Source\PSoC4/CSD_Sensing.c ****     #if (CSD_ENABLE == CSD_CSD_GANGED_SNS_EN)
 732:Generated_Source\PSoC4/CSD_Sensing.c ****         /* Reconfigure all ganged sensors  */
 733:Generated_Source\PSoC4/CSD_Sensing.c ****         do
 734:Generated_Source\PSoC4/CSD_Sensing.c ****         {
 735:Generated_Source\PSoC4/CSD_Sensing.c ****     #endif  /* (CSD_ENABLE == CSD_CSD_GANGED_SNS_EN) */
 736:Generated_Source\PSoC4/CSD_Sensing.c **** 
 737:Generated_Source\PSoC4/CSD_Sensing.c ****             /* Get HSIOM and port mode shifts */
 738:Generated_Source\PSoC4/CSD_Sensing.c ****             pinHSIOMShift = (uint32)curSnsIOPtr->hsiomShift;
 371              		.loc 1 738 0
 372 0028 7B6A     		ldr	r3, [r7, #36]
 373 002a 1B7E     		ldrb	r3, [r3, #24]
 374 002c 3B62     		str	r3, [r7, #32]
 739:Generated_Source\PSoC4/CSD_Sensing.c ****             pinModeShift = (uint32)curSnsIOPtr->shift;
 375              		.loc 1 739 0
 376 002e 7B6A     		ldr	r3, [r7, #36]
 377 0030 9B7E     		ldrb	r3, [r3, #26]
 378 0032 FB61     		str	r3, [r7, #28]
 740:Generated_Source\PSoC4/CSD_Sensing.c **** 
 741:Generated_Source\PSoC4/CSD_Sensing.c ****             /* Reset HSIOM register */
 742:Generated_Source\PSoC4/CSD_Sensing.c ****             CY_SET_REG32(curSnsIOPtr->hsiomPtr, CY_GET_REG32(curSnsIOPtr->hsiomPtr) & ~(CSD_HSIOM_S
 379              		.loc 1 742 0
 380 0034 7B6A     		ldr	r3, [r7, #36]
 381 0036 1B68     		ldr	r3, [r3]
 382 0038 7A6A     		ldr	r2, [r7, #36]
 383 003a 1268     		ldr	r2, [r2]
 384 003c 1268     		ldr	r2, [r2]
 385 003e 396A     		ldr	r1, [r7, #32]
 386 0040 0F20     		mov	r0, #15
 387 0042 8840     		lsl	r0, r0, r1
 388 0044 011C     		mov	r1, r0
 389 0046 C943     		mvn	r1, r1
 390 0048 0A40     		and	r2, r1
 391 004a 1A60     		str	r2, [r3]
 743:Generated_Source\PSoC4/CSD_Sensing.c **** 
 744:Generated_Source\PSoC4/CSD_Sensing.c ****             switch (state)
 392              		.loc 1 744 0
ARM GAS  C:\Users\CHRIST~1\AppData\Local\Temp\ccIPpNky.s 			page 21


 393 004c 7B68     		ldr	r3, [r7, #4]
 394 004e 012B     		cmp	r3, #1
 395 0050 34D0     		beq	.L32
 396 0052 02D3     		bcc	.L33
 397 0054 032B     		cmp	r3, #3
 398 0056 5BD0     		beq	.L34
 745:Generated_Source\PSoC4/CSD_Sensing.c ****             {
 746:Generated_Source\PSoC4/CSD_Sensing.c ****             case CSD_GROUND:
 747:Generated_Source\PSoC4/CSD_Sensing.c ****                 interruptState = CyEnterCriticalSection();
 748:Generated_Source\PSoC4/CSD_Sensing.c **** 
 749:Generated_Source\PSoC4/CSD_Sensing.c ****                 /* Update port configuration register (drive mode) for sensor */
 750:Generated_Source\PSoC4/CSD_Sensing.c ****                 newRegisterValue = CY_GET_REG32(curSnsIOPtr->pcPtr);
 751:Generated_Source\PSoC4/CSD_Sensing.c ****                 newRegisterValue &= ~(CSD_GPIO_PC_MASK << pinModeShift);
 752:Generated_Source\PSoC4/CSD_Sensing.c ****                 newRegisterValue |= (CSD_SNS_GROUND_CONNECT << pinModeShift);
 753:Generated_Source\PSoC4/CSD_Sensing.c ****                 CY_SET_REG32(curSnsIOPtr->pcPtr, newRegisterValue);
 754:Generated_Source\PSoC4/CSD_Sensing.c **** 
 755:Generated_Source\PSoC4/CSD_Sensing.c ****                 CyExitCriticalSection(interruptState);
 756:Generated_Source\PSoC4/CSD_Sensing.c **** 
 757:Generated_Source\PSoC4/CSD_Sensing.c ****                 /* Set logic 0 to port data register */
 758:Generated_Source\PSoC4/CSD_Sensing.c ****                 CY_SET_REG32(curSnsIOPtr->drPtr, CY_GET_REG32(curSnsIOPtr->drPtr) & (uint32)~(uint3
 759:Generated_Source\PSoC4/CSD_Sensing.c ****                 break;
 760:Generated_Source\PSoC4/CSD_Sensing.c **** 
 761:Generated_Source\PSoC4/CSD_Sensing.c ****             case CSD_HIGHZ:
 762:Generated_Source\PSoC4/CSD_Sensing.c ****                 interruptState = CyEnterCriticalSection();
 763:Generated_Source\PSoC4/CSD_Sensing.c **** 
 764:Generated_Source\PSoC4/CSD_Sensing.c ****                 /* Update port configuration register (drive mode) for sensor */
 765:Generated_Source\PSoC4/CSD_Sensing.c ****                 newRegisterValue = CY_GET_REG32(curSnsIOPtr->pcPtr);
 766:Generated_Source\PSoC4/CSD_Sensing.c ****                 newRegisterValue &= ~(CSD_GPIO_PC_MASK << pinModeShift);
 767:Generated_Source\PSoC4/CSD_Sensing.c ****                 CY_SET_REG32(curSnsIOPtr->pcPtr, newRegisterValue);
 768:Generated_Source\PSoC4/CSD_Sensing.c **** 
 769:Generated_Source\PSoC4/CSD_Sensing.c ****                 CyExitCriticalSection(interruptState);
 770:Generated_Source\PSoC4/CSD_Sensing.c **** 
 771:Generated_Source\PSoC4/CSD_Sensing.c ****                 /* Set logic 0 to port data register */
 772:Generated_Source\PSoC4/CSD_Sensing.c ****                 CY_SET_REG32(curSnsIOPtr->drPtr, CY_GET_REG32(curSnsIOPtr->drPtr) & (uint32)~(uint3
 773:Generated_Source\PSoC4/CSD_Sensing.c ****                 break;
 774:Generated_Source\PSoC4/CSD_Sensing.c **** 
 775:Generated_Source\PSoC4/CSD_Sensing.c ****             #if (CSD_ENABLE == CSD_CSD_SHIELD_EN)
 776:Generated_Source\PSoC4/CSD_Sensing.c ****                 case CSD_SHIELD:
 777:Generated_Source\PSoC4/CSD_Sensing.c ****                     /* Set drive mode to Analog */
 778:Generated_Source\PSoC4/CSD_Sensing.c ****                     CY_SET_REG32(curSnsIOPtr->pcPtr, CY_GET_REG32(curSnsIOPtr->pcPtr) &
 779:Generated_Source\PSoC4/CSD_Sensing.c ****                                ~(CSD_GPIO_PC_MASK <<(curSnsIOPtr->shift)));
 780:Generated_Source\PSoC4/CSD_Sensing.c **** 
 781:Generated_Source\PSoC4/CSD_Sensing.c ****                     /* Set appropriate bit in HSIOM register to configure pin to shield mode */
 782:Generated_Source\PSoC4/CSD_Sensing.c ****                     CY_SET_REG32(curSnsIOPtr->hsiomPtr, CY_GET_REG32(curSnsIOPtr->hsiomPtr) |
 783:Generated_Source\PSoC4/CSD_Sensing.c ****                                                        (CSD_HSIOM_SEL_CSD_SHIELD << pinHSIOMShift))
 784:Generated_Source\PSoC4/CSD_Sensing.c ****                     break;
 785:Generated_Source\PSoC4/CSD_Sensing.c ****             #endif  /* (CSD_ENABLE == CSD_CSD_SHIELD_EN) */
 786:Generated_Source\PSoC4/CSD_Sensing.c **** 
 787:Generated_Source\PSoC4/CSD_Sensing.c ****             #if ((CSD_ENABLE == CSD_CSD_EN) || \
 788:Generated_Source\PSoC4/CSD_Sensing.c ****                  (CSD_ENABLE == CSD_CSD_CSX_EN))
 789:Generated_Source\PSoC4/CSD_Sensing.c ****                 case CSD_SENSOR:
 790:Generated_Source\PSoC4/CSD_Sensing.c ****                     /* Enable sensor */
 791:Generated_Source\PSoC4/CSD_Sensing.c ****                     CSD_CSDConnectSns(curSnsIOPtr);
 792:Generated_Source\PSoC4/CSD_Sensing.c ****                     break;
 793:Generated_Source\PSoC4/CSD_Sensing.c ****             #endif  /* ((CSD_ENABLE == CSD_CSD_EN) || \
 794:Generated_Source\PSoC4/CSD_Sensing.c ****                         (CSD_ENABLE == CSD_CSD_CSX_EN)) */
 795:Generated_Source\PSoC4/CSD_Sensing.c **** 
ARM GAS  C:\Users\CHRIST~1\AppData\Local\Temp\ccIPpNky.s 			page 22


 796:Generated_Source\PSoC4/CSD_Sensing.c ****             #if ((CSD_ENABLE == CSD_CSX_EN) || \
 797:Generated_Source\PSoC4/CSD_Sensing.c ****                  (CSD_ENABLE == CSD_CSD_CSX_EN))
 798:Generated_Source\PSoC4/CSD_Sensing.c ****                 case CSD_TX_PIN:
 799:Generated_Source\PSoC4/CSD_Sensing.c ****                     CY_SET_REG32(curSnsIOPtr->hsiomPtr, CY_GET_REG32(curSnsIOPtr->hsiomPtr) | (CSD_
 800:Generated_Source\PSoC4/CSD_Sensing.c ****                     CY_SET_REG32(curSnsIOPtr->pcPtr, CY_GET_REG32(curSnsIOPtr->pcPtr) | (CSD_GPIO_S
 801:Generated_Source\PSoC4/CSD_Sensing.c ****                     break;
 802:Generated_Source\PSoC4/CSD_Sensing.c **** 
 803:Generated_Source\PSoC4/CSD_Sensing.c ****                 case CSD_RX_PIN:
 804:Generated_Source\PSoC4/CSD_Sensing.c ****                     CY_SET_REG32(curSnsIOPtr->hsiomPtr, CY_GET_REG32(curSnsIOPtr->hsiomPtr) | (CSD_
 805:Generated_Source\PSoC4/CSD_Sensing.c ****                     CY_SET_REG32(curSnsIOPtr->pcPtr, CY_GET_REG32(curSnsIOPtr->pcPtr) & ~(CSD_GPIO_
 806:Generated_Source\PSoC4/CSD_Sensing.c ****                     break;
 807:Generated_Source\PSoC4/CSD_Sensing.c ****             #endif  /* ((CSD_ENABLE == CSD_CSX_EN) || \
 808:Generated_Source\PSoC4/CSD_Sensing.c ****                         (CSD_ENABLE == CSD_CSD_CSX_EN)) */
 809:Generated_Source\PSoC4/CSD_Sensing.c **** 
 810:Generated_Source\PSoC4/CSD_Sensing.c ****             default:
 811:Generated_Source\PSoC4/CSD_Sensing.c ****                 /* Wrong input */
 812:Generated_Source\PSoC4/CSD_Sensing.c ****                 break;
 399              		.loc 1 812 0
 400 0058 5FE0     		b	.L30
 401              	.L33:
 747:Generated_Source\PSoC4/CSD_Sensing.c **** 
 402              		.loc 1 747 0
 403 005a 1B23     		mov	r3, #27
 404 005c FC18     		add	r4, r7, r3
 405 005e FFF7FEFF 		bl	CyEnterCriticalSection
 406 0062 031C     		mov	r3, r0
 407 0064 2370     		strb	r3, [r4]
 750:Generated_Source\PSoC4/CSD_Sensing.c ****                 newRegisterValue &= ~(CSD_GPIO_PC_MASK << pinModeShift);
 408              		.loc 1 750 0
 409 0066 7B6A     		ldr	r3, [r7, #36]
 410 0068 5B68     		ldr	r3, [r3, #4]
 411 006a 1B68     		ldr	r3, [r3]
 412 006c 7B61     		str	r3, [r7, #20]
 751:Generated_Source\PSoC4/CSD_Sensing.c ****                 newRegisterValue |= (CSD_SNS_GROUND_CONNECT << pinModeShift);
 413              		.loc 1 751 0
 414 006e FB69     		ldr	r3, [r7, #28]
 415 0070 0722     		mov	r2, #7
 416 0072 9A40     		lsl	r2, r2, r3
 417 0074 131C     		mov	r3, r2
 418 0076 DA43     		mvn	r2, r3
 419 0078 7B69     		ldr	r3, [r7, #20]
 420 007a 1340     		and	r3, r2
 421 007c 7B61     		str	r3, [r7, #20]
 752:Generated_Source\PSoC4/CSD_Sensing.c ****                 CY_SET_REG32(curSnsIOPtr->pcPtr, newRegisterValue);
 422              		.loc 1 752 0
 423 007e FB69     		ldr	r3, [r7, #28]
 424 0080 0622     		mov	r2, #6
 425 0082 9A40     		lsl	r2, r2, r3
 426 0084 131C     		mov	r3, r2
 427 0086 7A69     		ldr	r2, [r7, #20]
 428 0088 1343     		orr	r3, r2
 429 008a 7B61     		str	r3, [r7, #20]
 753:Generated_Source\PSoC4/CSD_Sensing.c **** 
 430              		.loc 1 753 0
 431 008c 7B6A     		ldr	r3, [r7, #36]
 432 008e 5B68     		ldr	r3, [r3, #4]
 433 0090 7A69     		ldr	r2, [r7, #20]
ARM GAS  C:\Users\CHRIST~1\AppData\Local\Temp\ccIPpNky.s 			page 23


 434 0092 1A60     		str	r2, [r3]
 755:Generated_Source\PSoC4/CSD_Sensing.c **** 
 435              		.loc 1 755 0
 436 0094 1B23     		mov	r3, #27
 437 0096 FB18     		add	r3, r7, r3
 438 0098 1B78     		ldrb	r3, [r3]
 439 009a 181C     		mov	r0, r3
 440 009c FFF7FEFF 		bl	CyExitCriticalSection
 758:Generated_Source\PSoC4/CSD_Sensing.c ****                 break;
 441              		.loc 1 758 0
 442 00a0 7B6A     		ldr	r3, [r7, #36]
 443 00a2 9B68     		ldr	r3, [r3, #8]
 444 00a4 7A6A     		ldr	r2, [r7, #36]
 445 00a6 9268     		ldr	r2, [r2, #8]
 446 00a8 1268     		ldr	r2, [r2]
 447 00aa 796A     		ldr	r1, [r7, #36]
 448 00ac 497E     		ldrb	r1, [r1, #25]
 449 00ae 081C     		mov	r0, r1
 450 00b0 0121     		mov	r1, #1
 451 00b2 8140     		lsl	r1, r1, r0
 452 00b4 C943     		mvn	r1, r1
 453 00b6 0A40     		and	r2, r1
 454 00b8 1A60     		str	r2, [r3]
 759:Generated_Source\PSoC4/CSD_Sensing.c **** 
 455              		.loc 1 759 0
 456 00ba 2EE0     		b	.L30
 457              	.L32:
 762:Generated_Source\PSoC4/CSD_Sensing.c **** 
 458              		.loc 1 762 0
 459 00bc 1B23     		mov	r3, #27
 460 00be FC18     		add	r4, r7, r3
 461 00c0 FFF7FEFF 		bl	CyEnterCriticalSection
 462 00c4 031C     		mov	r3, r0
 463 00c6 2370     		strb	r3, [r4]
 765:Generated_Source\PSoC4/CSD_Sensing.c ****                 newRegisterValue &= ~(CSD_GPIO_PC_MASK << pinModeShift);
 464              		.loc 1 765 0
 465 00c8 7B6A     		ldr	r3, [r7, #36]
 466 00ca 5B68     		ldr	r3, [r3, #4]
 467 00cc 1B68     		ldr	r3, [r3]
 468 00ce 7B61     		str	r3, [r7, #20]
 766:Generated_Source\PSoC4/CSD_Sensing.c ****                 CY_SET_REG32(curSnsIOPtr->pcPtr, newRegisterValue);
 469              		.loc 1 766 0
 470 00d0 FB69     		ldr	r3, [r7, #28]
 471 00d2 0722     		mov	r2, #7
 472 00d4 9A40     		lsl	r2, r2, r3
 473 00d6 131C     		mov	r3, r2
 474 00d8 DA43     		mvn	r2, r3
 475 00da 7B69     		ldr	r3, [r7, #20]
 476 00dc 1340     		and	r3, r2
 477 00de 7B61     		str	r3, [r7, #20]
 767:Generated_Source\PSoC4/CSD_Sensing.c **** 
 478              		.loc 1 767 0
 479 00e0 7B6A     		ldr	r3, [r7, #36]
 480 00e2 5B68     		ldr	r3, [r3, #4]
 481 00e4 7A69     		ldr	r2, [r7, #20]
 482 00e6 1A60     		str	r2, [r3]
 769:Generated_Source\PSoC4/CSD_Sensing.c **** 
ARM GAS  C:\Users\CHRIST~1\AppData\Local\Temp\ccIPpNky.s 			page 24


 483              		.loc 1 769 0
 484 00e8 1B23     		mov	r3, #27
 485 00ea FB18     		add	r3, r7, r3
 486 00ec 1B78     		ldrb	r3, [r3]
 487 00ee 181C     		mov	r0, r3
 488 00f0 FFF7FEFF 		bl	CyExitCriticalSection
 772:Generated_Source\PSoC4/CSD_Sensing.c ****                 break;
 489              		.loc 1 772 0
 490 00f4 7B6A     		ldr	r3, [r7, #36]
 491 00f6 9B68     		ldr	r3, [r3, #8]
 492 00f8 7A6A     		ldr	r2, [r7, #36]
 493 00fa 9268     		ldr	r2, [r2, #8]
 494 00fc 1268     		ldr	r2, [r2]
 495 00fe 796A     		ldr	r1, [r7, #36]
 496 0100 497E     		ldrb	r1, [r1, #25]
 497 0102 081C     		mov	r0, r1
 498 0104 0121     		mov	r1, #1
 499 0106 8140     		lsl	r1, r1, r0
 500 0108 C943     		mvn	r1, r1
 501 010a 0A40     		and	r2, r1
 502 010c 1A60     		str	r2, [r3]
 773:Generated_Source\PSoC4/CSD_Sensing.c **** 
 503              		.loc 1 773 0
 504 010e 04E0     		b	.L30
 505              	.L34:
 791:Generated_Source\PSoC4/CSD_Sensing.c ****                     break;
 506              		.loc 1 791 0
 507 0110 7B6A     		ldr	r3, [r7, #36]
 508 0112 181C     		mov	r0, r3
 509 0114 FFF7FEFF 		bl	CSD_CSDConnectSns
 792:Generated_Source\PSoC4/CSD_Sensing.c ****             #endif  /* ((CSD_ENABLE == CSD_CSD_EN) || \
 510              		.loc 1 792 0
 511 0118 C046     		mov	r8, r8
 512              	.L30:
 813:Generated_Source\PSoC4/CSD_Sensing.c ****             }
 814:Generated_Source\PSoC4/CSD_Sensing.c **** 
 815:Generated_Source\PSoC4/CSD_Sensing.c ****     #if (CSD_ENABLE == CSD_CSD_GANGED_SNS_EN)
 816:Generated_Source\PSoC4/CSD_Sensing.c ****             curSnsIOPtr++;
 817:Generated_Source\PSoC4/CSD_Sensing.c ****             tempVal--;
 818:Generated_Source\PSoC4/CSD_Sensing.c ****         } while (0u != tempVal);
 819:Generated_Source\PSoC4/CSD_Sensing.c ****     #endif  /* (CSD_ENABLE == CSD_CSD_GANGED_SNS_EN) */
 820:Generated_Source\PSoC4/CSD_Sensing.c **** }
 513              		.loc 1 820 0
 514 011a BD46     		mov	sp, r7
 515 011c 0BB0     		add	sp, sp, #44
 516              		@ sp needed
 517 011e 90BD     		pop	{r4, r7, pc}
 518              	.L37:
 519              		.align	2
 520              	.L36:
 521 0120 00000000 		.word	CSD_dsFlash
 522              		.cfi_endproc
 523              	.LFE6:
 524              		.size	CSD_SetPinState, .-CSD_SetPinState
 525              		.section	.text.CSD_SsPostAllWidgetsScan,"ax",%progbits
 526              		.align	2
 527              		.global	CSD_SsPostAllWidgetsScan
ARM GAS  C:\Users\CHRIST~1\AppData\Local\Temp\ccIPpNky.s 			page 25


 528              		.code	16
 529              		.thumb_func
 530              		.type	CSD_SsPostAllWidgetsScan, %function
 531              	CSD_SsPostAllWidgetsScan:
 532              	.LFB7:
 821:Generated_Source\PSoC4/CSD_Sensing.c **** 
 822:Generated_Source\PSoC4/CSD_Sensing.c **** 
 823:Generated_Source\PSoC4/CSD_Sensing.c **** #if ((CSD_ENABLE == CSD_CSD_CSX_EN) || \
 824:Generated_Source\PSoC4/CSD_Sensing.c ****      (CSD_ENABLE == CSD_ADC_EN))
 825:Generated_Source\PSoC4/CSD_Sensing.c **** 
 826:Generated_Source\PSoC4/CSD_Sensing.c ****     #if (CSD_ENABLE == CSD_CSD_EN)
 827:Generated_Source\PSoC4/CSD_Sensing.c ****         /*******************************************************************************
 828:Generated_Source\PSoC4/CSD_Sensing.c ****         * Function Name: CSD_SsCSDDisableMode
 829:Generated_Source\PSoC4/CSD_Sensing.c ****         ****************************************************************************//**
 830:Generated_Source\PSoC4/CSD_Sensing.c ****         *
 831:Generated_Source\PSoC4/CSD_Sensing.c ****         * \brief
 832:Generated_Source\PSoC4/CSD_Sensing.c ****         *  This function disables CSD mode.
 833:Generated_Source\PSoC4/CSD_Sensing.c ****         *
 834:Generated_Source\PSoC4/CSD_Sensing.c ****         * \details
 835:Generated_Source\PSoC4/CSD_Sensing.c ****         *  To disable CSD mode the following tasks are performed:
 836:Generated_Source\PSoC4/CSD_Sensing.c ****         *  1. Disconnect Cmod from AMUXBUS-A;
 837:Generated_Source\PSoC4/CSD_Sensing.c ****         *  2. Disconnect previous CSX electrode if it has been connected;
 838:Generated_Source\PSoC4/CSD_Sensing.c ****         *  3. Disconnect Csh from AMUXBUS-B;
 839:Generated_Source\PSoC4/CSD_Sensing.c ****         *  4. Disable Shield Electrodes.
 840:Generated_Source\PSoC4/CSD_Sensing.c ****         *
 841:Generated_Source\PSoC4/CSD_Sensing.c ****         *******************************************************************************/
 842:Generated_Source\PSoC4/CSD_Sensing.c ****         static void CSD_SsCSDDisableMode(void)
 843:Generated_Source\PSoC4/CSD_Sensing.c ****         {
 844:Generated_Source\PSoC4/CSD_Sensing.c ****             uint32 newRegValue;
 845:Generated_Source\PSoC4/CSD_Sensing.c **** 
 846:Generated_Source\PSoC4/CSD_Sensing.c ****             /* Disconnect Cmod from AMUXBUS-A using HSIOM registers */
 847:Generated_Source\PSoC4/CSD_Sensing.c ****             newRegValue = CY_GET_REG32(CSD_CMOD_HSIOM_PTR);
 848:Generated_Source\PSoC4/CSD_Sensing.c ****             newRegValue &= (uint32)(~(uint32)CSD_CMOD_HSIOM_MASK);
 849:Generated_Source\PSoC4/CSD_Sensing.c ****             CY_SET_REG32(CSD_CMOD_HSIOM_PTR, newRegValue);
 850:Generated_Source\PSoC4/CSD_Sensing.c **** 
 851:Generated_Source\PSoC4/CSD_Sensing.c ****             #if ((CSD_ENABLE == CSD_CSDV2) && \
 852:Generated_Source\PSoC4/CSD_Sensing.c ****                  ((CSD_ENABLE == CSD_CSD_IDAC_COMP_EN) && \
 853:Generated_Source\PSoC4/CSD_Sensing.c ****                  (CSD_ENABLE == CSD_CSD_DEDICATED_IDAC_COMP_EN)))
 854:Generated_Source\PSoC4/CSD_Sensing.c ****                 /* Disconnect IDACA and IDACB */
 855:Generated_Source\PSoC4/CSD_Sensing.c ****                 newRegValue = CY_GET_REG32(CSD_SW_REFGEN_SEL_PTR);
 856:Generated_Source\PSoC4/CSD_Sensing.c ****                 newRegValue &= (uint32)(~CSD_SW_REFGEN_SEL_SW_IAIB_MASK);
 857:Generated_Source\PSoC4/CSD_Sensing.c ****                 CY_SET_REG32(CSD_SW_REFGEN_SEL_PTR, newRegValue);
 858:Generated_Source\PSoC4/CSD_Sensing.c ****             #endif /* ((CSD_ENABLE == CSD_CSDV2) && \
 859:Generated_Source\PSoC4/CSD_Sensing.c ****                        ((CSD_ENABLE == CSD_CSD_IDAC_COMP_EN) && \
 860:Generated_Source\PSoC4/CSD_Sensing.c ****                        (CSD_ENABLE == CSD_CSD_DEDICATED_IDAC_COMP_EN))) */
 861:Generated_Source\PSoC4/CSD_Sensing.c **** 
 862:Generated_Source\PSoC4/CSD_Sensing.c ****             /* Disconnect previous CSD electrode if it has been connected */
 863:Generated_Source\PSoC4/CSD_Sensing.c ****             CSD_SsCSDElectrodeCheck();
 864:Generated_Source\PSoC4/CSD_Sensing.c **** 
 865:Generated_Source\PSoC4/CSD_Sensing.c ****             /* Disconnect Csh from AMUXBUS-B */
 866:Generated_Source\PSoC4/CSD_Sensing.c ****             #if ((CSD_ENABLE == CSD_CSD_SHIELD_EN) && \
 867:Generated_Source\PSoC4/CSD_Sensing.c ****                  (CSD_ENABLE == CSD_CSD_SHIELD_TANK_EN))
 868:Generated_Source\PSoC4/CSD_Sensing.c ****                 newRegValue = CY_GET_REG32(CSD_CSH_HSIOM_PTR);
 869:Generated_Source\PSoC4/CSD_Sensing.c ****                 newRegValue &= (uint32)(~(uint32)(CSD_CSH_TO_AMUXBUS_B_MASK << CSD_CSH_HSIOM_SHIFT)
 870:Generated_Source\PSoC4/CSD_Sensing.c ****                 CY_SET_REG32(CSD_CSH_HSIOM_PTR, newRegValue);
 871:Generated_Source\PSoC4/CSD_Sensing.c ****             #endif /* ((CSD_ENABLE == CSD_CSD_SHIELD_EN) && \
 872:Generated_Source\PSoC4/CSD_Sensing.c ****                        (CSD_ENABLE == CSD_CSD_SHIELD_TANK_EN)) */
ARM GAS  C:\Users\CHRIST~1\AppData\Local\Temp\ccIPpNky.s 			page 26


 873:Generated_Source\PSoC4/CSD_Sensing.c **** 
 874:Generated_Source\PSoC4/CSD_Sensing.c ****             #if ((CSD_ENABLE == CSD_CSD_SHIELD_EN) && \
 875:Generated_Source\PSoC4/CSD_Sensing.c ****                  (0u != CSD_CSD_TOTAL_SHIELD_COUNT))
 876:Generated_Source\PSoC4/CSD_Sensing.c ****                 CSD_SsCSDDisableShieldElectrodes();
 877:Generated_Source\PSoC4/CSD_Sensing.c ****             #endif /* ((CSD_ENABLE == CSD_CSD_SHIELD_EN) && \
 878:Generated_Source\PSoC4/CSD_Sensing.c ****                        (0u != CSD_CSD_TOTAL_SHIELD_COUNT)) */
 879:Generated_Source\PSoC4/CSD_Sensing.c ****         }
 880:Generated_Source\PSoC4/CSD_Sensing.c ****     #endif /* (CSD_ENABLE == CSD_CSD_EN) */
 881:Generated_Source\PSoC4/CSD_Sensing.c **** 
 882:Generated_Source\PSoC4/CSD_Sensing.c **** 
 883:Generated_Source\PSoC4/CSD_Sensing.c ****     #if (CSD_ENABLE == CSD_CSX_EN)
 884:Generated_Source\PSoC4/CSD_Sensing.c ****         /*******************************************************************************
 885:Generated_Source\PSoC4/CSD_Sensing.c ****         * Function Name: CSD_SsDisableCSXMode
 886:Generated_Source\PSoC4/CSD_Sensing.c ****         ****************************************************************************//**
 887:Generated_Source\PSoC4/CSD_Sensing.c ****         *
 888:Generated_Source\PSoC4/CSD_Sensing.c ****         * \brief
 889:Generated_Source\PSoC4/CSD_Sensing.c ****         *  This function disables CSX mode.
 890:Generated_Source\PSoC4/CSD_Sensing.c ****         *
 891:Generated_Source\PSoC4/CSD_Sensing.c ****         * \details
 892:Generated_Source\PSoC4/CSD_Sensing.c ****         *  To disable CSX mode the following tasks are performed:
 893:Generated_Source\PSoC4/CSD_Sensing.c ****         *  1. Disconnect CintA and CintB from AMUXBUS-A
 894:Generated_Source\PSoC4/CSD_Sensing.c ****         *  2. Disconnect previous CSX electrode if it has been connected
 895:Generated_Source\PSoC4/CSD_Sensing.c ****         *
 896:Generated_Source\PSoC4/CSD_Sensing.c ****         *******************************************************************************/
 897:Generated_Source\PSoC4/CSD_Sensing.c ****         static void CSD_SsDisableCSXMode(void)
 898:Generated_Source\PSoC4/CSD_Sensing.c ****         {
 899:Generated_Source\PSoC4/CSD_Sensing.c ****             uint32 newRegValue;
 900:Generated_Source\PSoC4/CSD_Sensing.c **** 
 901:Generated_Source\PSoC4/CSD_Sensing.c ****             /*  Disconnect CintA from AMUXBUS-A using HSIOM registers.   */
 902:Generated_Source\PSoC4/CSD_Sensing.c ****             newRegValue = CY_GET_REG32(CSD_CintA_HSIOM_PTR);
 903:Generated_Source\PSoC4/CSD_Sensing.c ****             newRegValue &= (uint32)(~(uint32)CSD_CintA_HSIOM_MASK);
 904:Generated_Source\PSoC4/CSD_Sensing.c ****             CY_SET_REG32(CSD_CintA_HSIOM_PTR, newRegValue);
 905:Generated_Source\PSoC4/CSD_Sensing.c **** 
 906:Generated_Source\PSoC4/CSD_Sensing.c ****             /*  Disconnect CintB from AMUXBUS-A using HSIOM registers.   */
 907:Generated_Source\PSoC4/CSD_Sensing.c ****             newRegValue = CY_GET_REG32(CSD_CintB_HSIOM_PTR);
 908:Generated_Source\PSoC4/CSD_Sensing.c ****             newRegValue &= (uint32)(~(uint32)CSD_CintB_HSIOM_MASK);
 909:Generated_Source\PSoC4/CSD_Sensing.c ****             CY_SET_REG32(CSD_CintB_HSIOM_PTR, newRegValue);
 910:Generated_Source\PSoC4/CSD_Sensing.c **** 
 911:Generated_Source\PSoC4/CSD_Sensing.c ****             /* Disconnect previous CSX electrode if it has been connected */
 912:Generated_Source\PSoC4/CSD_Sensing.c ****             CSD_CSXElectrodeCheck();
 913:Generated_Source\PSoC4/CSD_Sensing.c ****         }
 914:Generated_Source\PSoC4/CSD_Sensing.c ****     #endif /* (CSD_ENABLE == CSD_CSX_EN) */
 915:Generated_Source\PSoC4/CSD_Sensing.c **** 
 916:Generated_Source\PSoC4/CSD_Sensing.c **** 
 917:Generated_Source\PSoC4/CSD_Sensing.c ****     /*******************************************************************************
 918:Generated_Source\PSoC4/CSD_Sensing.c ****     * Function Name: CSD_SsSwitchSensingMode
 919:Generated_Source\PSoC4/CSD_Sensing.c ****     ****************************************************************************//**
 920:Generated_Source\PSoC4/CSD_Sensing.c ****     *
 921:Generated_Source\PSoC4/CSD_Sensing.c ****     * \brief
 922:Generated_Source\PSoC4/CSD_Sensing.c ****     *  This function changes the mode for case when both CSD and CSX widgets are
 923:Generated_Source\PSoC4/CSD_Sensing.c ****     *  scanned.
 924:Generated_Source\PSoC4/CSD_Sensing.c ****     *
 925:Generated_Source\PSoC4/CSD_Sensing.c ****     * \details
 926:Generated_Source\PSoC4/CSD_Sensing.c ****     *  To switch to the CSD mode the following tasks are performed:
 927:Generated_Source\PSoC4/CSD_Sensing.c ****     *  1. Disconnect CintA and CintB from AMUXBUS-A;
 928:Generated_Source\PSoC4/CSD_Sensing.c ****     *  2. Disconnect previous CSD electrode if it has been connected;
 929:Generated_Source\PSoC4/CSD_Sensing.c ****     *  3. Initialize CSD mode.
ARM GAS  C:\Users\CHRIST~1\AppData\Local\Temp\ccIPpNky.s 			page 27


 930:Generated_Source\PSoC4/CSD_Sensing.c ****     *
 931:Generated_Source\PSoC4/CSD_Sensing.c ****     *  To switch to the CSX mode the following tasks are performed:
 932:Generated_Source\PSoC4/CSD_Sensing.c ****     *  1. Disconnect Cmod from AMUXBUS-A;
 933:Generated_Source\PSoC4/CSD_Sensing.c ****     *  2. Disconnect previous CSX electrode if it has been connected;
 934:Generated_Source\PSoC4/CSD_Sensing.c ****     *  3. Initialize CSX mode.
 935:Generated_Source\PSoC4/CSD_Sensing.c ****     *
 936:Generated_Source\PSoC4/CSD_Sensing.c ****     * \param mode Specifies the scan mode:
 937:Generated_Source\PSoC4/CSD_Sensing.c ****     *           -  (1) CSD_SENSE_METHOD_CSD_E
 938:Generated_Source\PSoC4/CSD_Sensing.c ****     *           -  (2) CSD_SENSE_METHOD_CSX_E
 939:Generated_Source\PSoC4/CSD_Sensing.c ****     *
 940:Generated_Source\PSoC4/CSD_Sensing.c ****     *******************************************************************************/
 941:Generated_Source\PSoC4/CSD_Sensing.c ****     void CSD_SsSwitchSensingMode(CSD_SENSE_METHOD_ENUM mode)
 942:Generated_Source\PSoC4/CSD_Sensing.c ****     {
 943:Generated_Source\PSoC4/CSD_Sensing.c ****         if (CSD_currentSenseMethod != mode)
 944:Generated_Source\PSoC4/CSD_Sensing.c ****         {
 945:Generated_Source\PSoC4/CSD_Sensing.c ****             if (CSD_SENSE_METHOD_CSD_E ==  CSD_currentSenseMethod)
 946:Generated_Source\PSoC4/CSD_Sensing.c ****             {
 947:Generated_Source\PSoC4/CSD_Sensing.c ****                 #if (CSD_ENABLE == CSD_CSD_EN)
 948:Generated_Source\PSoC4/CSD_Sensing.c ****                     CSD_SsCSDDisableMode();
 949:Generated_Source\PSoC4/CSD_Sensing.c ****                 #endif /* (CSD_ENABLE == CSD_CSD_EN) */
 950:Generated_Source\PSoC4/CSD_Sensing.c ****             }
 951:Generated_Source\PSoC4/CSD_Sensing.c ****             else if (CSD_SENSE_METHOD_CSX_E ==  CSD_currentSenseMethod)
 952:Generated_Source\PSoC4/CSD_Sensing.c ****             {
 953:Generated_Source\PSoC4/CSD_Sensing.c ****                 #if (CSD_ENABLE == CSD_CSX_EN)
 954:Generated_Source\PSoC4/CSD_Sensing.c ****                     CSD_SsDisableCSXMode();
 955:Generated_Source\PSoC4/CSD_Sensing.c ****                 #endif /* (CSD_ENABLE == CSD_CSX_EN) */
 956:Generated_Source\PSoC4/CSD_Sensing.c ****             }
 957:Generated_Source\PSoC4/CSD_Sensing.c ****             else
 958:Generated_Source\PSoC4/CSD_Sensing.c ****             {
 959:Generated_Source\PSoC4/CSD_Sensing.c ****                 #if (CSD_ENABLE == CSD_ADC_EN)
 960:Generated_Source\PSoC4/CSD_Sensing.c ****                     /* Release ADC resources */
 961:Generated_Source\PSoC4/CSD_Sensing.c ****                     (void)CSD_AdcReleaseResources();
 962:Generated_Source\PSoC4/CSD_Sensing.c ****                 #endif /* (CSD_ENABLE == CSD_ADC_EN) */
 963:Generated_Source\PSoC4/CSD_Sensing.c ****             }
 964:Generated_Source\PSoC4/CSD_Sensing.c **** 
 965:Generated_Source\PSoC4/CSD_Sensing.c ****             if (CSD_SENSE_METHOD_CSD_E == mode)
 966:Generated_Source\PSoC4/CSD_Sensing.c ****             {
 967:Generated_Source\PSoC4/CSD_Sensing.c ****                 #if (CSD_ENABLE == CSD_CSD_EN)
 968:Generated_Source\PSoC4/CSD_Sensing.c ****                     /* Initialize CSD mode to guarantee configured CSD mode */
 969:Generated_Source\PSoC4/CSD_Sensing.c ****                     CSD_SsCSDInitialize();
 970:Generated_Source\PSoC4/CSD_Sensing.c ****                     CSD_currentSenseMethod = CSD_SENSE_METHOD_CSD_E;
 971:Generated_Source\PSoC4/CSD_Sensing.c ****                 #endif /* (CSD_ENABLE == CSD_CSD_EN) */
 972:Generated_Source\PSoC4/CSD_Sensing.c ****             }
 973:Generated_Source\PSoC4/CSD_Sensing.c ****             else if (CSD_SENSE_METHOD_CSX_E == mode)
 974:Generated_Source\PSoC4/CSD_Sensing.c ****             {
 975:Generated_Source\PSoC4/CSD_Sensing.c ****                 #if (CSD_ENABLE == CSD_CSX_EN)
 976:Generated_Source\PSoC4/CSD_Sensing.c ****                     /* Initialize CSX mode to guarantee configured CSX mode */
 977:Generated_Source\PSoC4/CSD_Sensing.c ****                     CSD_CSXInitialize();
 978:Generated_Source\PSoC4/CSD_Sensing.c ****                     CSD_currentSenseMethod = CSD_SENSE_METHOD_CSX_E;
 979:Generated_Source\PSoC4/CSD_Sensing.c ****                 #endif /* (CSD_ENABLE == CSD_CSX_EN) */
 980:Generated_Source\PSoC4/CSD_Sensing.c ****             }
 981:Generated_Source\PSoC4/CSD_Sensing.c ****             else
 982:Generated_Source\PSoC4/CSD_Sensing.c ****             {
 983:Generated_Source\PSoC4/CSD_Sensing.c ****                 CSD_currentSenseMethod = CSD_UNDEFINED_E;
 984:Generated_Source\PSoC4/CSD_Sensing.c ****             }
 985:Generated_Source\PSoC4/CSD_Sensing.c ****         }
 986:Generated_Source\PSoC4/CSD_Sensing.c ****     }
ARM GAS  C:\Users\CHRIST~1\AppData\Local\Temp\ccIPpNky.s 			page 28


 987:Generated_Source\PSoC4/CSD_Sensing.c **** #endif  /* ((CSD_ENABLE == CSD_CSD_CSX_EN) || \
 988:Generated_Source\PSoC4/CSD_Sensing.c ****             (CSD_ENABLE == CSD_ADC_EN)) */
 989:Generated_Source\PSoC4/CSD_Sensing.c **** 
 990:Generated_Source\PSoC4/CSD_Sensing.c **** #if (CSD_ENABLE == CSD_CSX_EN)
 991:Generated_Source\PSoC4/CSD_Sensing.c ****     /*******************************************************************************
 992:Generated_Source\PSoC4/CSD_Sensing.c ****     * Function Name: CSD_SsSetIOsInDefaultState
 993:Generated_Source\PSoC4/CSD_Sensing.c ****     ****************************************************************************//**
 994:Generated_Source\PSoC4/CSD_Sensing.c ****     *
 995:Generated_Source\PSoC4/CSD_Sensing.c ****     * \brief
 996:Generated_Source\PSoC4/CSD_Sensing.c ****     *   Sets all electrodes into a default state.
 997:Generated_Source\PSoC4/CSD_Sensing.c ****     *
 998:Generated_Source\PSoC4/CSD_Sensing.c ****     * \details
 999:Generated_Source\PSoC4/CSD_Sensing.c ****     *   Sets all IOs into a default state:
1000:Generated_Source\PSoC4/CSD_Sensing.c ****     *   - HSIOM   - Disconnected, the GPIO mode.
1001:Generated_Source\PSoC4/CSD_Sensing.c ****     *   - DM      - Strong drive.
1002:Generated_Source\PSoC4/CSD_Sensing.c ****     *   - State   - Zero.
1003:Generated_Source\PSoC4/CSD_Sensing.c ****     *
1004:Generated_Source\PSoC4/CSD_Sensing.c ****     *   It is not recommended to call this function directly from the application
1005:Generated_Source\PSoC4/CSD_Sensing.c ****     *   layer.
1006:Generated_Source\PSoC4/CSD_Sensing.c ****     *
1007:Generated_Source\PSoC4/CSD_Sensing.c ****     *******************************************************************************/
1008:Generated_Source\PSoC4/CSD_Sensing.c ****     void CSD_SsSetIOsInDefaultState(void)
1009:Generated_Source\PSoC4/CSD_Sensing.c ****     {
1010:Generated_Source\PSoC4/CSD_Sensing.c ****         CSD_FLASH_IO_STRUCT const *ioPtr = &CSD_ioList[0u];
1011:Generated_Source\PSoC4/CSD_Sensing.c ****         uint32 loopIndex;
1012:Generated_Source\PSoC4/CSD_Sensing.c ****         uint32 regValue;
1013:Generated_Source\PSoC4/CSD_Sensing.c **** 
1014:Generated_Source\PSoC4/CSD_Sensing.c ****         /*  Loop through all electrodes */
1015:Generated_Source\PSoC4/CSD_Sensing.c ****         for (loopIndex = 0u; loopIndex < CSD_TOTAL_ELECTRODES; loopIndex++)
1016:Generated_Source\PSoC4/CSD_Sensing.c ****         {
1017:Generated_Source\PSoC4/CSD_Sensing.c ****             /*  1. Disconnect HSIOM
1018:Generated_Source\PSoC4/CSD_Sensing.c ****                 2. Set strong DM
1019:Generated_Source\PSoC4/CSD_Sensing.c ****                 3. Set pin state to logic 0     */
1020:Generated_Source\PSoC4/CSD_Sensing.c ****             regValue = CY_GET_REG32 (ioPtr->hsiomPtr);
1021:Generated_Source\PSoC4/CSD_Sensing.c ****             regValue &= ~(ioPtr->hsiomMask);
1022:Generated_Source\PSoC4/CSD_Sensing.c ****             CY_SET_REG32 (ioPtr->hsiomPtr, regValue);
1023:Generated_Source\PSoC4/CSD_Sensing.c **** 
1024:Generated_Source\PSoC4/CSD_Sensing.c ****             regValue = CY_GET_REG32 (ioPtr->pcPtr);
1025:Generated_Source\PSoC4/CSD_Sensing.c ****             regValue &= ~(CSD_GPIO_PC_MASK << ioPtr->shift);
1026:Generated_Source\PSoC4/CSD_Sensing.c ****             regValue |=  (CSD_GPIO_STRGDRV << ioPtr->shift);
1027:Generated_Source\PSoC4/CSD_Sensing.c ****             CY_SET_REG32 (ioPtr->pcPtr, regValue);
1028:Generated_Source\PSoC4/CSD_Sensing.c **** 
1029:Generated_Source\PSoC4/CSD_Sensing.c ****             regValue = CY_GET_REG32 (ioPtr->drPtr);
1030:Generated_Source\PSoC4/CSD_Sensing.c ****             regValue &= ~(ioPtr->mask);
1031:Generated_Source\PSoC4/CSD_Sensing.c ****             CY_SET_REG32 (ioPtr->drPtr, regValue);
1032:Generated_Source\PSoC4/CSD_Sensing.c **** 
1033:Generated_Source\PSoC4/CSD_Sensing.c ****             /*  Get next electrode  */
1034:Generated_Source\PSoC4/CSD_Sensing.c ****             ioPtr++;
1035:Generated_Source\PSoC4/CSD_Sensing.c ****         }
1036:Generated_Source\PSoC4/CSD_Sensing.c ****     }
1037:Generated_Source\PSoC4/CSD_Sensing.c **** #endif  /* (CSD_ENABLE == CSD_CSX_EN) */
1038:Generated_Source\PSoC4/CSD_Sensing.c **** 
1039:Generated_Source\PSoC4/CSD_Sensing.c **** 
1040:Generated_Source\PSoC4/CSD_Sensing.c **** #if (CSD_ENABLE == CSD_ADC_EN)
1041:Generated_Source\PSoC4/CSD_Sensing.c **** /*******************************************************************************
1042:Generated_Source\PSoC4/CSD_Sensing.c **** * Function Name: CSD_SsReleaseResources()
1043:Generated_Source\PSoC4/CSD_Sensing.c **** ****************************************************************************//**
ARM GAS  C:\Users\CHRIST~1\AppData\Local\Temp\ccIPpNky.s 			page 29


1044:Generated_Source\PSoC4/CSD_Sensing.c **** *
1045:Generated_Source\PSoC4/CSD_Sensing.c **** * \brief
1046:Generated_Source\PSoC4/CSD_Sensing.c **** *  This function sets the resources that do not belong to the CSDv2 HW block to
1047:Generated_Source\PSoC4/CSD_Sensing.c **** *  default state.
1048:Generated_Source\PSoC4/CSD_Sensing.c **** *
1049:Generated_Source\PSoC4/CSD_Sensing.c **** * \details
1050:Generated_Source\PSoC4/CSD_Sensing.c **** *  The function performs following tasks:
1051:Generated_Source\PSoC4/CSD_Sensing.c **** *  1. Checks if CSD block busy and returns error if it is busy
1052:Generated_Source\PSoC4/CSD_Sensing.c **** *  2. Disconnects integration capacitors (CintA, CintB for CSX mode and
1053:Generated_Source\PSoC4/CSD_Sensing.c **** *     Cmod for CSD mode)
1054:Generated_Source\PSoC4/CSD_Sensing.c **** *  3. Disconnect electroded if they have been connected.
1055:Generated_Source\PSoC4/CSD_Sensing.c **** *
1056:Generated_Source\PSoC4/CSD_Sensing.c **** * \return
1057:Generated_Source\PSoC4/CSD_Sensing.c **** *   Returns the status of operation:
1058:Generated_Source\PSoC4/CSD_Sensing.c **** *   - Zero        - Resources released successfully.
1059:Generated_Source\PSoC4/CSD_Sensing.c **** *   - Non-zero    - One or more errors occurred in releasing process.
1060:Generated_Source\PSoC4/CSD_Sensing.c **** *
1061:Generated_Source\PSoC4/CSD_Sensing.c **** *******************************************************************************/
1062:Generated_Source\PSoC4/CSD_Sensing.c **** cystatus CSD_SsReleaseResources(void)
1063:Generated_Source\PSoC4/CSD_Sensing.c **** {
1064:Generated_Source\PSoC4/CSD_Sensing.c ****     cystatus busyStatus = CYRET_SUCCESS;
1065:Generated_Source\PSoC4/CSD_Sensing.c **** 
1066:Generated_Source\PSoC4/CSD_Sensing.c ****     if (CSD_SW_STS_BUSY == (CSD_dsRam.status & CSD_SW_STS_BUSY))
1067:Generated_Source\PSoC4/CSD_Sensing.c ****     {
1068:Generated_Source\PSoC4/CSD_Sensing.c ****         /* Previous widget is being scanned. Return error. */
1069:Generated_Source\PSoC4/CSD_Sensing.c ****         busyStatus = CYRET_INVALID_STATE;
1070:Generated_Source\PSoC4/CSD_Sensing.c ****     }
1071:Generated_Source\PSoC4/CSD_Sensing.c ****     else
1072:Generated_Source\PSoC4/CSD_Sensing.c ****     {
1073:Generated_Source\PSoC4/CSD_Sensing.c ****         #if (CSD_ENABLE == CSD_CSX_EN)
1074:Generated_Source\PSoC4/CSD_Sensing.c ****             CSD_SsDisableCSXMode();
1075:Generated_Source\PSoC4/CSD_Sensing.c ****         #endif /* (CSD_ENABLE == CSD_CSX_EN) */
1076:Generated_Source\PSoC4/CSD_Sensing.c **** 
1077:Generated_Source\PSoC4/CSD_Sensing.c ****         #if (CSD_ENABLE == CSD_CSD_EN)
1078:Generated_Source\PSoC4/CSD_Sensing.c ****             CSD_SsCSDDisableMode();
1079:Generated_Source\PSoC4/CSD_Sensing.c ****         #endif /* (CSD_ENABLE == CSD_CSD_EN) */
1080:Generated_Source\PSoC4/CSD_Sensing.c **** 
1081:Generated_Source\PSoC4/CSD_Sensing.c ****         /*
1082:Generated_Source\PSoC4/CSD_Sensing.c ****          * Reset of the currentSenseMethod variable to make sure that the next
1083:Generated_Source\PSoC4/CSD_Sensing.c ****          * call of SetupWidget() API setups the correct widget mode
1084:Generated_Source\PSoC4/CSD_Sensing.c ****          */
1085:Generated_Source\PSoC4/CSD_Sensing.c ****         CSD_currentSenseMethod = CSD_UNDEFINED_E;
1086:Generated_Source\PSoC4/CSD_Sensing.c ****     }
1087:Generated_Source\PSoC4/CSD_Sensing.c **** 
1088:Generated_Source\PSoC4/CSD_Sensing.c ****     return busyStatus;
1089:Generated_Source\PSoC4/CSD_Sensing.c **** }
1090:Generated_Source\PSoC4/CSD_Sensing.c **** #endif /* (CSD_ENABLE == CSD_ADC_EN) */
1091:Generated_Source\PSoC4/CSD_Sensing.c **** 
1092:Generated_Source\PSoC4/CSD_Sensing.c **** 
1093:Generated_Source\PSoC4/CSD_Sensing.c **** /*******************************************************************************
1094:Generated_Source\PSoC4/CSD_Sensing.c **** * Function Name: CSD_SsPostAllWidgetsScan
1095:Generated_Source\PSoC4/CSD_Sensing.c **** ****************************************************************************//**
1096:Generated_Source\PSoC4/CSD_Sensing.c **** *
1097:Generated_Source\PSoC4/CSD_Sensing.c **** * \brief
1098:Generated_Source\PSoC4/CSD_Sensing.c **** *   The ISR function for multiple widget scanning implementation.
1099:Generated_Source\PSoC4/CSD_Sensing.c **** *
1100:Generated_Source\PSoC4/CSD_Sensing.c **** * \details
ARM GAS  C:\Users\CHRIST~1\AppData\Local\Temp\ccIPpNky.s 			page 30


1101:Generated_Source\PSoC4/CSD_Sensing.c **** *   This is the function used by the CSD ISR to implement multiple widget
1102:Generated_Source\PSoC4/CSD_Sensing.c **** *   scanning.
1103:Generated_Source\PSoC4/CSD_Sensing.c **** *   Should not be used by the application layer.
1104:Generated_Source\PSoC4/CSD_Sensing.c **** *
1105:Generated_Source\PSoC4/CSD_Sensing.c **** *******************************************************************************/
1106:Generated_Source\PSoC4/CSD_Sensing.c **** void CSD_SsPostAllWidgetsScan(void)
1107:Generated_Source\PSoC4/CSD_Sensing.c **** {
 533              		.loc 1 1107 0
 534              		.cfi_startproc
 535 0000 80B5     		push	{r7, lr}
 536              		.cfi_def_cfa_offset 8
 537              		.cfi_offset 7, -8
 538              		.cfi_offset 14, -4
 539 0002 00AF     		add	r7, sp, #0
 540              		.cfi_def_cfa_register 7
1108:Generated_Source\PSoC4/CSD_Sensing.c ****     #if (CSD_DISABLE == CSD_CSD2X_EN)
1109:Generated_Source\PSoC4/CSD_Sensing.c ****         /*
1110:Generated_Source\PSoC4/CSD_Sensing.c ****         *   1. Increment widget index
1111:Generated_Source\PSoC4/CSD_Sensing.c ****         *   2. Check if all widgets are scanned
1112:Generated_Source\PSoC4/CSD_Sensing.c ****         *   3. If all widgets are not scanned, set up and scan next widget
1113:Generated_Source\PSoC4/CSD_Sensing.c ****         */
1114:Generated_Source\PSoC4/CSD_Sensing.c ****         #if (1u != CSD_TOTAL_WIDGETS)
1115:Generated_Source\PSoC4/CSD_Sensing.c ****             cystatus postScanStatus;
1116:Generated_Source\PSoC4/CSD_Sensing.c **** 
1117:Generated_Source\PSoC4/CSD_Sensing.c ****             do
1118:Generated_Source\PSoC4/CSD_Sensing.c ****             {
1119:Generated_Source\PSoC4/CSD_Sensing.c ****                 CSD_widgetIndex++;
1120:Generated_Source\PSoC4/CSD_Sensing.c **** 
1121:Generated_Source\PSoC4/CSD_Sensing.c ****                 postScanStatus = CSD_SetupWidget((uint32)CSD_widgetIndex);
1122:Generated_Source\PSoC4/CSD_Sensing.c **** 
1123:Generated_Source\PSoC4/CSD_Sensing.c ****                 if (CYRET_SUCCESS == postScanStatus)
1124:Generated_Source\PSoC4/CSD_Sensing.c ****                 {
1125:Generated_Source\PSoC4/CSD_Sensing.c ****                     if((CSD_TOTAL_WIDGETS - 1u) == CSD_widgetIndex)
1126:Generated_Source\PSoC4/CSD_Sensing.c ****                     {
1127:Generated_Source\PSoC4/CSD_Sensing.c ****                         /* The last widget will be scanned. Reset flag to skip configuring the next
1128:Generated_Source\PSoC4/CSD_Sensing.c ****                         CSD_requestScanAllWidget = CSD_DISABLE;
1129:Generated_Source\PSoC4/CSD_Sensing.c ****                     }
1130:Generated_Source\PSoC4/CSD_Sensing.c ****                     (void)CSD_Scan();
1131:Generated_Source\PSoC4/CSD_Sensing.c ****                 }
1132:Generated_Source\PSoC4/CSD_Sensing.c ****                 else if((CSD_TOTAL_WIDGETS - 1u) == CSD_widgetIndex)
1133:Generated_Source\PSoC4/CSD_Sensing.c ****                 {
1134:Generated_Source\PSoC4/CSD_Sensing.c ****                     #if ((CSD_ENABLE == CSD_BLOCK_OFF_AFTER_SCAN_EN) && \
1135:Generated_Source\PSoC4/CSD_Sensing.c ****                          (CSD_ENABLE == CSD_CSD_EN))
1136:Generated_Source\PSoC4/CSD_Sensing.c ****                         if (CSD_SENSE_METHOD_CSD_E ==
1137:Generated_Source\PSoC4/CSD_Sensing.c ****                              (CSD_SENSE_METHOD_ENUM)CSD_GET_SENSE_METHOD(&CSD_dsFlash.wdgtArray[CSD
1138:Generated_Source\PSoC4/CSD_Sensing.c ****                         {
1139:Generated_Source\PSoC4/CSD_Sensing.c ****                             /*  Disable the CSD block */
1140:Generated_Source\PSoC4/CSD_Sensing.c ****                             CY_SET_REG32(CSD_CONFIG_PTR, CSD_configCsd);
1141:Generated_Source\PSoC4/CSD_Sensing.c ****                         }
1142:Generated_Source\PSoC4/CSD_Sensing.c ****                     #endif /* ((CSD_ENABLE == CSD_BLOCK_OFF_AFTER_SCAN_EN) && \
1143:Generated_Source\PSoC4/CSD_Sensing.c ****                                (CSD_ENABLE == CSD_CSD_EN)) */
1144:Generated_Source\PSoC4/CSD_Sensing.c **** 
1145:Generated_Source\PSoC4/CSD_Sensing.c ****                     /* All widgets are totally processed. Reset BUSY flag */
1146:Generated_Source\PSoC4/CSD_Sensing.c ****                     CSD_dsRam.status &= ~CSD_SW_STS_BUSY;
1147:Generated_Source\PSoC4/CSD_Sensing.c **** 
1148:Generated_Source\PSoC4/CSD_Sensing.c ****                     /* Update status with with the failure */
1149:Generated_Source\PSoC4/CSD_Sensing.c ****                     CSD_dsRam.status &= ~CSD_STATUS_ERR_MASK;
ARM GAS  C:\Users\CHRIST~1\AppData\Local\Temp\ccIPpNky.s 			page 31


1150:Generated_Source\PSoC4/CSD_Sensing.c ****                     CSD_dsRam.status |= ((postScanStatus & CSD_STATUS_ERR_SIZE) << CSD_STATUS_ERR_S
1151:Generated_Source\PSoC4/CSD_Sensing.c **** 
1152:Generated_Source\PSoC4/CSD_Sensing.c ****                     /* Set postScanStatus to exit the while loop */
1153:Generated_Source\PSoC4/CSD_Sensing.c ****                     postScanStatus = CYRET_SUCCESS;
1154:Generated_Source\PSoC4/CSD_Sensing.c ****                 }
1155:Generated_Source\PSoC4/CSD_Sensing.c ****                 else
1156:Generated_Source\PSoC4/CSD_Sensing.c ****                 {
1157:Generated_Source\PSoC4/CSD_Sensing.c ****                     /* Update status with with the failure. Configure the next widget in while() lo
1158:Generated_Source\PSoC4/CSD_Sensing.c ****                     CSD_dsRam.status &= ~CSD_STATUS_ERR_MASK;
1159:Generated_Source\PSoC4/CSD_Sensing.c ****                     CSD_dsRam.status |= ((postScanStatus & CSD_STATUS_ERR_SIZE) << CSD_STATUS_ERR_S
1160:Generated_Source\PSoC4/CSD_Sensing.c ****                 }
1161:Generated_Source\PSoC4/CSD_Sensing.c ****             } while (CYRET_SUCCESS != postScanStatus);
1162:Generated_Source\PSoC4/CSD_Sensing.c ****         #endif /* (1u != CSD_TOTAL_WIDGETS) */
1163:Generated_Source\PSoC4/CSD_Sensing.c ****     #else
1164:Generated_Source\PSoC4/CSD_Sensing.c ****         /******************************
1165:Generated_Source\PSoC4/CSD_Sensing.c ****         * This is the place where the CSD2X
1166:Generated_Source\PSoC4/CSD_Sensing.c ****         * postscan for 2 widgets should be implemented.
1167:Generated_Source\PSoC4/CSD_Sensing.c ****         * The CSD2X postscan will be implemented
1168:Generated_Source\PSoC4/CSD_Sensing.c ****         * in the next component version.
1169:Generated_Source\PSoC4/CSD_Sensing.c ****         *********************************/
1170:Generated_Source\PSoC4/CSD_Sensing.c ****     #endif /* (CSD_CSD2X_EN == CSD_DISABLE) */
1171:Generated_Source\PSoC4/CSD_Sensing.c **** }
 541              		.loc 1 1171 0
 542 0004 BD46     		mov	sp, r7
 543              		@ sp needed
 544 0006 80BD     		pop	{r7, pc}
 545              		.cfi_endproc
 546              	.LFE7:
 547              		.size	CSD_SsPostAllWidgetsScan, .-CSD_SsPostAllWidgetsScan
 548              		.section	.text.CSD_SsIsrInitialize,"ax",%progbits
 549              		.align	2
 550              		.global	CSD_SsIsrInitialize
 551              		.code	16
 552              		.thumb_func
 553              		.type	CSD_SsIsrInitialize, %function
 554              	CSD_SsIsrInitialize:
 555              	.LFB8:
1172:Generated_Source\PSoC4/CSD_Sensing.c **** 
1173:Generated_Source\PSoC4/CSD_Sensing.c **** 
1174:Generated_Source\PSoC4/CSD_Sensing.c **** /*******************************************************************************
1175:Generated_Source\PSoC4/CSD_Sensing.c **** * Function Name: CSD_SsIsrInitialize
1176:Generated_Source\PSoC4/CSD_Sensing.c **** ****************************************************************************//**
1177:Generated_Source\PSoC4/CSD_Sensing.c **** *
1178:Generated_Source\PSoC4/CSD_Sensing.c **** * \brief
1179:Generated_Source\PSoC4/CSD_Sensing.c **** *   Enables and initializes for the function pointer for a callback for the ISR.
1180:Generated_Source\PSoC4/CSD_Sensing.c **** *
1181:Generated_Source\PSoC4/CSD_Sensing.c **** * \details
1182:Generated_Source\PSoC4/CSD_Sensing.c **** *   The  "address" is a special type cyisraddress defined by Cylib. This function
1183:Generated_Source\PSoC4/CSD_Sensing.c **** *   is used by component APIs and should not be used by an application program for
1184:Generated_Source\PSoC4/CSD_Sensing.c **** *   proper working of the component.
1185:Generated_Source\PSoC4/CSD_Sensing.c **** *
1186:Generated_Source\PSoC4/CSD_Sensing.c **** * \param  address The address of the function to be called when interrupt is fired.
1187:Generated_Source\PSoC4/CSD_Sensing.c **** *
1188:Generated_Source\PSoC4/CSD_Sensing.c **** *******************************************************************************/
1189:Generated_Source\PSoC4/CSD_Sensing.c **** void CSD_SsIsrInitialize(cyisraddress address)
1190:Generated_Source\PSoC4/CSD_Sensing.c **** {
 556              		.loc 1 1190 0
ARM GAS  C:\Users\CHRIST~1\AppData\Local\Temp\ccIPpNky.s 			page 32


 557              		.cfi_startproc
 558 0000 80B5     		push	{r7, lr}
 559              		.cfi_def_cfa_offset 8
 560              		.cfi_offset 7, -8
 561              		.cfi_offset 14, -4
 562 0002 82B0     		sub	sp, sp, #8
 563              		.cfi_def_cfa_offset 16
 564 0004 00AF     		add	r7, sp, #0
 565              		.cfi_def_cfa_register 7
 566 0006 7860     		str	r0, [r7, #4]
1191:Generated_Source\PSoC4/CSD_Sensing.c **** #if (CSD_ENABLE == CSD_CSD2X_EN)
1192:Generated_Source\PSoC4/CSD_Sensing.c ****     /******************************
1193:Generated_Source\PSoC4/CSD_Sensing.c ****     * This is the place where the CSD2X ISR
1194:Generated_Source\PSoC4/CSD_Sensing.c ****     * Setup should be implemented.
1195:Generated_Source\PSoC4/CSD_Sensing.c ****     * The CSD2X ISR Setup will be implemented
1196:Generated_Source\PSoC4/CSD_Sensing.c ****     * in the next component version.
1197:Generated_Source\PSoC4/CSD_Sensing.c ****     *********************************/
1198:Generated_Source\PSoC4/CSD_Sensing.c **** #else
1199:Generated_Source\PSoC4/CSD_Sensing.c ****     CSD_ISR_StartEx(address);
 567              		.loc 1 1199 0
 568 0008 7B68     		ldr	r3, [r7, #4]
 569 000a 181C     		mov	r0, r3
 570 000c FFF7FEFF 		bl	CSD_ISR_StartEx
1200:Generated_Source\PSoC4/CSD_Sensing.c **** #endif /* (CSD_ENABLE == CSD_CSD2X_EN) */
1201:Generated_Source\PSoC4/CSD_Sensing.c **** }
 571              		.loc 1 1201 0
 572 0010 BD46     		mov	sp, r7
 573 0012 02B0     		add	sp, sp, #8
 574              		@ sp needed
 575 0014 80BD     		pop	{r7, pc}
 576              		.cfi_endproc
 577              	.LFE8:
 578              		.size	CSD_SsIsrInitialize, .-CSD_SsIsrInitialize
 579 0016 C046     		.section	.text.CSD_SsSetModClkClockDivider,"ax",%progbits
 580              		.align	2
 581              		.global	CSD_SsSetModClkClockDivider
 582              		.code	16
 583              		.thumb_func
 584              		.type	CSD_SsSetModClkClockDivider, %function
 585              	CSD_SsSetModClkClockDivider:
 586              	.LFB9:
1202:Generated_Source\PSoC4/CSD_Sensing.c **** 
1203:Generated_Source\PSoC4/CSD_Sensing.c **** 
1204:Generated_Source\PSoC4/CSD_Sensing.c **** /*******************************************************************************
1205:Generated_Source\PSoC4/CSD_Sensing.c **** * Function Name: CSD_SsSetModClkClockDivider
1206:Generated_Source\PSoC4/CSD_Sensing.c **** ****************************************************************************//**
1207:Generated_Source\PSoC4/CSD_Sensing.c **** *
1208:Generated_Source\PSoC4/CSD_Sensing.c **** * \brief
1209:Generated_Source\PSoC4/CSD_Sensing.c **** *   Sets the divider values for the modulator clock and then starts
1210:Generated_Source\PSoC4/CSD_Sensing.c **** *   the modulator clock.
1211:Generated_Source\PSoC4/CSD_Sensing.c **** *
1212:Generated_Source\PSoC4/CSD_Sensing.c **** * \details
1213:Generated_Source\PSoC4/CSD_Sensing.c **** *   It is not recommended to call this function directly by the application layer.
1214:Generated_Source\PSoC4/CSD_Sensing.c **** *   It is used by initialization, widget APIs or wakeup functions to
1215:Generated_Source\PSoC4/CSD_Sensing.c **** *   enable the clocks.
1216:Generated_Source\PSoC4/CSD_Sensing.c **** *
1217:Generated_Source\PSoC4/CSD_Sensing.c **** * \param
ARM GAS  C:\Users\CHRIST~1\AppData\Local\Temp\ccIPpNky.s 			page 33


1218:Generated_Source\PSoC4/CSD_Sensing.c **** *   modClk The divider value for the modulator clock.
1219:Generated_Source\PSoC4/CSD_Sensing.c **** *
1220:Generated_Source\PSoC4/CSD_Sensing.c **** *******************************************************************************/
1221:Generated_Source\PSoC4/CSD_Sensing.c **** void CSD_SsSetModClkClockDivider(uint32 modClk)
1222:Generated_Source\PSoC4/CSD_Sensing.c **** {
 587              		.loc 1 1222 0
 588              		.cfi_startproc
 589 0000 80B5     		push	{r7, lr}
 590              		.cfi_def_cfa_offset 8
 591              		.cfi_offset 7, -8
 592              		.cfi_offset 14, -4
 593 0002 82B0     		sub	sp, sp, #8
 594              		.cfi_def_cfa_offset 16
 595 0004 00AF     		add	r7, sp, #0
 596              		.cfi_def_cfa_register 7
 597 0006 7860     		str	r0, [r7, #4]
1223:Generated_Source\PSoC4/CSD_Sensing.c **** #if (CSD_ENABLE == CSD_IS_M0S8PERI_BLOCK)
1224:Generated_Source\PSoC4/CSD_Sensing.c ****     /*  Stop modulator clock   */
1225:Generated_Source\PSoC4/CSD_Sensing.c ****     CY_SET_REG32(CSD_MODCLK_CMD_PTR,
 598              		.loc 1 1225 0
 599 0008 8023     		mov	r3, #128
 600 000a DB05     		lsl	r3, r3, #23
 601 000c 094A     		ldr	r2, .L42
 602 000e 1A60     		str	r2, [r3]
1226:Generated_Source\PSoC4/CSD_Sensing.c ****                  ((uint32)CSD_ModClk__DIV_ID <<
1227:Generated_Source\PSoC4/CSD_Sensing.c ****                  CSD_MODCLK_CMD_DIV_SHIFT)|
1228:Generated_Source\PSoC4/CSD_Sensing.c ****                  ((uint32)CSD_MODCLK_CMD_DISABLE_MASK));
1229:Generated_Source\PSoC4/CSD_Sensing.c **** 
1230:Generated_Source\PSoC4/CSD_Sensing.c ****     /*
1231:Generated_Source\PSoC4/CSD_Sensing.c ****      * Set divider value for sense modClk.
1232:Generated_Source\PSoC4/CSD_Sensing.c ****      * 1u is subtracted from modClk because Divider register value 0 corresponds
1233:Generated_Source\PSoC4/CSD_Sensing.c ****      * to dividing by 1.
1234:Generated_Source\PSoC4/CSD_Sensing.c ****      */
1235:Generated_Source\PSoC4/CSD_Sensing.c ****     CY_SET_REG32(CSD_MODCLK_DIV_PTR, ((modClk - 1u) << 8u));
 603              		.loc 1 1235 0
 604 0010 094B     		ldr	r3, .L42+4
 605 0012 7A68     		ldr	r2, [r7, #4]
 606 0014 013A     		sub	r2, r2, #1
 607 0016 1202     		lsl	r2, r2, #8
 608 0018 1A60     		str	r2, [r3]
1236:Generated_Source\PSoC4/CSD_Sensing.c **** 
1237:Generated_Source\PSoC4/CSD_Sensing.c ****     /*  Check whether previous modulator clock start command has finished. */
1238:Generated_Source\PSoC4/CSD_Sensing.c ****     while(0u != (CY_GET_REG32(CSD_MODCLK_CMD_PTR) & CSD_MODCLK_CMD_ENABLE_MASK))
 609              		.loc 1 1238 0
 610 001a C046     		mov	r8, r8
 611              	.L41:
 612              		.loc 1 1238 0 is_stmt 0 discriminator 1
 613 001c 8023     		mov	r3, #128
 614 001e DB05     		lsl	r3, r3, #23
 615 0020 1B68     		ldr	r3, [r3]
 616 0022 002B     		cmp	r3, #0
 617 0024 FADB     		blt	.L41
1239:Generated_Source\PSoC4/CSD_Sensing.c ****     {
1240:Generated_Source\PSoC4/CSD_Sensing.c ****         /*  Wait until previous modulator clock start command has finished. */
1241:Generated_Source\PSoC4/CSD_Sensing.c ****     }
1242:Generated_Source\PSoC4/CSD_Sensing.c **** 
1243:Generated_Source\PSoC4/CSD_Sensing.c ****     /*  Start modulator clock, aligned to HFCLK */
ARM GAS  C:\Users\CHRIST~1\AppData\Local\Temp\ccIPpNky.s 			page 34


1244:Generated_Source\PSoC4/CSD_Sensing.c ****     CY_SET_REG32(CSD_MODCLK_CMD_PTR,
 618              		.loc 1 1244 0 is_stmt 1
 619 0026 8023     		mov	r3, #128
 620 0028 DB05     		lsl	r3, r3, #23
 621 002a 044A     		ldr	r2, .L42+8
 622 002c 1A60     		str	r2, [r3]
1245:Generated_Source\PSoC4/CSD_Sensing.c ****                  (uint32)(((uint32)CSD_ModClk__DIV_ID << CSD_MODCLK_CMD_DIV_SHIFT) |
1246:Generated_Source\PSoC4/CSD_Sensing.c ****                   ((uint32)CSD_ModClk__PA_DIV_ID << CSD_MODCLK_CMD_PA_DIV_SHIFT) |
1247:Generated_Source\PSoC4/CSD_Sensing.c ****                   CSD_MODCLK_CMD_ENABLE_MASK));
1248:Generated_Source\PSoC4/CSD_Sensing.c **** #else
1249:Generated_Source\PSoC4/CSD_Sensing.c ****     uint32 newRegValue;
1250:Generated_Source\PSoC4/CSD_Sensing.c **** 
1251:Generated_Source\PSoC4/CSD_Sensing.c ****     /* Clear bit to disable ModClk clock. */
1252:Generated_Source\PSoC4/CSD_Sensing.c ****     CY_SET_REG32(CSD_MODCLK_CMD_PTR,
1253:Generated_Source\PSoC4/CSD_Sensing.c ****                  CY_GET_REG32(CSD_MODCLK_CMD_PTR) &
1254:Generated_Source\PSoC4/CSD_Sensing.c ****                  (uint32)(~CSD_ModClk__ENABLE_MASK));
1255:Generated_Source\PSoC4/CSD_Sensing.c **** 
1256:Generated_Source\PSoC4/CSD_Sensing.c ****     /*
1257:Generated_Source\PSoC4/CSD_Sensing.c ****      * Update ModClk clock divider.
1258:Generated_Source\PSoC4/CSD_Sensing.c ****      * 1u is subtracted from modClk because Divider register value has range (0-65535).
1259:Generated_Source\PSoC4/CSD_Sensing.c ****      */
1260:Generated_Source\PSoC4/CSD_Sensing.c ****     newRegValue = CY_GET_REG32(CSD_MODCLK_DIV_PTR) & (uint32)(~(uint32)CSD_ModClk__DIVIDER_MASK);
1261:Generated_Source\PSoC4/CSD_Sensing.c ****     newRegValue |= (modClk - 1u);
1262:Generated_Source\PSoC4/CSD_Sensing.c ****     CY_SET_REG32(CSD_MODCLK_DIV_PTR, newRegValue);
1263:Generated_Source\PSoC4/CSD_Sensing.c **** 
1264:Generated_Source\PSoC4/CSD_Sensing.c ****     /* Set bit to enable ModClk clock. */
1265:Generated_Source\PSoC4/CSD_Sensing.c ****     CY_SET_REG32(CSD_MODCLK_CMD_PTR,
1266:Generated_Source\PSoC4/CSD_Sensing.c ****                  CY_GET_REG32(CSD_MODCLK_CMD_PTR) |
1267:Generated_Source\PSoC4/CSD_Sensing.c ****                 CSD_ModClk__ENABLE_MASK);
1268:Generated_Source\PSoC4/CSD_Sensing.c **** #endif /* (CSD_ENABLE == CSD_IS_M0S8PERI_BLOCK) */
1269:Generated_Source\PSoC4/CSD_Sensing.c **** }
 623              		.loc 1 1269 0
 624 002e BD46     		mov	sp, r7
 625 0030 02B0     		add	sp, sp, #8
 626              		@ sp needed
 627 0032 80BD     		pop	{r7, pc}
 628              	.L43:
 629              		.align	2
 630              	.L42:
 631 0034 40000040 		.word	1073741888
 632 0038 00030040 		.word	1073742592
 633 003c 40FF0080 		.word	-2147418304
 634              		.cfi_endproc
 635              	.LFE9:
 636              		.size	CSD_SsSetModClkClockDivider, .-CSD_SsSetModClkClockDivider
 637              		.section	.text.CSD_SsSetSnsClockDivider,"ax",%progbits
 638              		.align	2
 639              		.global	CSD_SsSetSnsClockDivider
 640              		.code	16
 641              		.thumb_func
 642              		.type	CSD_SsSetSnsClockDivider, %function
 643              	CSD_SsSetSnsClockDivider:
 644              	.LFB10:
1270:Generated_Source\PSoC4/CSD_Sensing.c **** 
1271:Generated_Source\PSoC4/CSD_Sensing.c **** 
1272:Generated_Source\PSoC4/CSD_Sensing.c **** /*******************************************************************************
1273:Generated_Source\PSoC4/CSD_Sensing.c **** * Function Name: CSD_SsSetSnsClockDivider
ARM GAS  C:\Users\CHRIST~1\AppData\Local\Temp\ccIPpNky.s 			page 35


1274:Generated_Source\PSoC4/CSD_Sensing.c **** ****************************************************************************//**
1275:Generated_Source\PSoC4/CSD_Sensing.c **** *
1276:Generated_Source\PSoC4/CSD_Sensing.c **** * \brief
1277:Generated_Source\PSoC4/CSD_Sensing.c **** *   Sets the divider values for the sense clock and then starts
1278:Generated_Source\PSoC4/CSD_Sensing.c **** *   the sense clock.
1279:Generated_Source\PSoC4/CSD_Sensing.c **** *
1280:Generated_Source\PSoC4/CSD_Sensing.c **** * \details
1281:Generated_Source\PSoC4/CSD_Sensing.c **** *   It is not recommended to call this function directly by the application layer.
1282:Generated_Source\PSoC4/CSD_Sensing.c **** *   It is used by initialization, widget APIs or wakeup functions to
1283:Generated_Source\PSoC4/CSD_Sensing.c **** *   enable the clocks.
1284:Generated_Source\PSoC4/CSD_Sensing.c **** *
1285:Generated_Source\PSoC4/CSD_Sensing.c **** * \param
1286:Generated_Source\PSoC4/CSD_Sensing.c **** *   snsClk The divider value for the sense clock.
1287:Generated_Source\PSoC4/CSD_Sensing.c **** *
1288:Generated_Source\PSoC4/CSD_Sensing.c **** *******************************************************************************/
1289:Generated_Source\PSoC4/CSD_Sensing.c **** void CSD_SsSetSnsClockDivider(uint32 snsClk)
1290:Generated_Source\PSoC4/CSD_Sensing.c **** {
 645              		.loc 1 1290 0
 646              		.cfi_startproc
 647 0000 80B5     		push	{r7, lr}
 648              		.cfi_def_cfa_offset 8
 649              		.cfi_offset 7, -8
 650              		.cfi_offset 14, -4
 651 0002 84B0     		sub	sp, sp, #16
 652              		.cfi_def_cfa_offset 24
 653 0004 00AF     		add	r7, sp, #0
 654              		.cfi_def_cfa_register 7
 655 0006 7860     		str	r0, [r7, #4]
1291:Generated_Source\PSoC4/CSD_Sensing.c **** #if (CSD_ENABLE == CSD_CSDV2)
1292:Generated_Source\PSoC4/CSD_Sensing.c ****     uint32 newRegValue;
1293:Generated_Source\PSoC4/CSD_Sensing.c **** 
1294:Generated_Source\PSoC4/CSD_Sensing.c ****     /*
1295:Generated_Source\PSoC4/CSD_Sensing.c ****      * Set divider value for sense clock.
1296:Generated_Source\PSoC4/CSD_Sensing.c ****      * 1u is subtracted from snsClk because SENSE_DIV value 0 corresponds
1297:Generated_Source\PSoC4/CSD_Sensing.c ****      * to dividing by 1.
1298:Generated_Source\PSoC4/CSD_Sensing.c ****      */
1299:Generated_Source\PSoC4/CSD_Sensing.c ****     newRegValue = CY_GET_REG32(CSD_SENSE_PERIOD_PTR);
 656              		.loc 1 1299 0
 657 0008 084B     		ldr	r3, .L45
 658 000a 1B68     		ldr	r3, [r3]
 659 000c FB60     		str	r3, [r7, #12]
1300:Generated_Source\PSoC4/CSD_Sensing.c ****     newRegValue &= (uint32)(~CSD_SENSE_PERIOD_SENSE_DIV_MASK);
 660              		.loc 1 1300 0
 661 000e FB68     		ldr	r3, [r7, #12]
 662 0010 1B0B     		lsr	r3, r3, #12
 663 0012 1B03     		lsl	r3, r3, #12
 664 0014 FB60     		str	r3, [r7, #12]
1301:Generated_Source\PSoC4/CSD_Sensing.c ****     newRegValue |= snsClk - 1u;
 665              		.loc 1 1301 0
 666 0016 7B68     		ldr	r3, [r7, #4]
 667 0018 013B     		sub	r3, r3, #1
 668 001a FA68     		ldr	r2, [r7, #12]
 669 001c 1343     		orr	r3, r2
 670 001e FB60     		str	r3, [r7, #12]
1302:Generated_Source\PSoC4/CSD_Sensing.c ****     CY_SET_REG32(CSD_SENSE_PERIOD_PTR, newRegValue);
 671              		.loc 1 1302 0
 672 0020 024B     		ldr	r3, .L45
ARM GAS  C:\Users\CHRIST~1\AppData\Local\Temp\ccIPpNky.s 			page 36


 673 0022 FA68     		ldr	r2, [r7, #12]
 674 0024 1A60     		str	r2, [r3]
1303:Generated_Source\PSoC4/CSD_Sensing.c **** #else
1304:Generated_Source\PSoC4/CSD_Sensing.c ****     #if (CSD_ENABLE == CSD_IS_M0S8PERI_BLOCK)
1305:Generated_Source\PSoC4/CSD_Sensing.c ****         /*  Stop sense clock clock   */
1306:Generated_Source\PSoC4/CSD_Sensing.c ****         CY_SET_REG32(CSD_SNSCLK_CMD_PTR,
1307:Generated_Source\PSoC4/CSD_Sensing.c ****                      ((uint32)CSD_SnsClk__DIV_ID <<
1308:Generated_Source\PSoC4/CSD_Sensing.c ****                      CSD_SNSCLK_CMD_DIV_SHIFT)|
1309:Generated_Source\PSoC4/CSD_Sensing.c ****                      ((uint32)CSD_SNSCLK_CMD_DISABLE_MASK));
1310:Generated_Source\PSoC4/CSD_Sensing.c **** 
1311:Generated_Source\PSoC4/CSD_Sensing.c ****         /*
1312:Generated_Source\PSoC4/CSD_Sensing.c ****          * Set divider value for sense clock.
1313:Generated_Source\PSoC4/CSD_Sensing.c ****          * 1u is subtracted from snsClk because Divider register value 0 corresponds
1314:Generated_Source\PSoC4/CSD_Sensing.c ****          * to dividing by 1.
1315:Generated_Source\PSoC4/CSD_Sensing.c ****          */
1316:Generated_Source\PSoC4/CSD_Sensing.c ****         CY_SET_REG32(CSD_SNSCLK_DIV_PTR, ((snsClk - 1u) << 8u));
1317:Generated_Source\PSoC4/CSD_Sensing.c **** 
1318:Generated_Source\PSoC4/CSD_Sensing.c ****         /*  Check whether previous sense clock start command has finished. */
1319:Generated_Source\PSoC4/CSD_Sensing.c ****         while(0u != (CY_GET_REG32(CSD_SNSCLK_CMD_PTR) & CSD_SNSCLK_CMD_ENABLE_MASK))
1320:Generated_Source\PSoC4/CSD_Sensing.c ****         {
1321:Generated_Source\PSoC4/CSD_Sensing.c ****             /*  Wait until previous sense clock start command has finished. */
1322:Generated_Source\PSoC4/CSD_Sensing.c ****         }
1323:Generated_Source\PSoC4/CSD_Sensing.c **** 
1324:Generated_Source\PSoC4/CSD_Sensing.c ****         /* Start sense clock aligned to previously started modulator clock. */
1325:Generated_Source\PSoC4/CSD_Sensing.c ****         CY_SET_REG32(CSD_SNSCLK_CMD_PTR,
1326:Generated_Source\PSoC4/CSD_Sensing.c ****                      (uint32)(((uint32)CSD_SnsClk__DIV_ID << CSD_SNSCLK_CMD_DIV_SHIFT) |
1327:Generated_Source\PSoC4/CSD_Sensing.c ****                       ((uint32)CSD_ModClk__PA_DIV_ID << CSD_SNSCLK_CMD_PA_DIV_SHIFT) |
1328:Generated_Source\PSoC4/CSD_Sensing.c ****                       CSD_SNSCLK_CMD_ENABLE_MASK));
1329:Generated_Source\PSoC4/CSD_Sensing.c ****     #else
1330:Generated_Source\PSoC4/CSD_Sensing.c ****         uint32 newRegValue;
1331:Generated_Source\PSoC4/CSD_Sensing.c **** 
1332:Generated_Source\PSoC4/CSD_Sensing.c ****         /* Clear bit to disable SnsClk clock. */
1333:Generated_Source\PSoC4/CSD_Sensing.c ****         CY_SET_REG32(CSD_SNSCLK_CMD_PTR,
1334:Generated_Source\PSoC4/CSD_Sensing.c ****                      CY_GET_REG32(CSD_SNSCLK_CMD_PTR) &
1335:Generated_Source\PSoC4/CSD_Sensing.c ****                      (uint32)(~(uint32)CSD_SnsClk__ENABLE_MASK));
1336:Generated_Source\PSoC4/CSD_Sensing.c **** 
1337:Generated_Source\PSoC4/CSD_Sensing.c ****         /*
1338:Generated_Source\PSoC4/CSD_Sensing.c ****          * Update snsClk clock divider.
1339:Generated_Source\PSoC4/CSD_Sensing.c ****          * 1u is subtracted from snsClk because Divider register value has range (0-65535).
1340:Generated_Source\PSoC4/CSD_Sensing.c ****          */
1341:Generated_Source\PSoC4/CSD_Sensing.c ****         newRegValue = CY_GET_REG32(CSD_SNSCLK_DIV_PTR) & (uint32)(~(uint32)CSD_SnsClk__DIVIDER_MASK
1342:Generated_Source\PSoC4/CSD_Sensing.c ****         newRegValue |= (snsClk - 1u);
1343:Generated_Source\PSoC4/CSD_Sensing.c ****         CY_SET_REG32(CSD_SNSCLK_DIV_PTR, newRegValue);
1344:Generated_Source\PSoC4/CSD_Sensing.c **** 
1345:Generated_Source\PSoC4/CSD_Sensing.c ****         /* Set bit to enable SnsClk clock. */
1346:Generated_Source\PSoC4/CSD_Sensing.c ****         CY_SET_REG32(CSD_SNSCLK_CMD_PTR,
1347:Generated_Source\PSoC4/CSD_Sensing.c ****                      CY_GET_REG32(CSD_SNSCLK_CMD_PTR) |
1348:Generated_Source\PSoC4/CSD_Sensing.c ****                     CSD_SnsClk__ENABLE_MASK);
1349:Generated_Source\PSoC4/CSD_Sensing.c ****     #endif /* (CSD_ENABLE == CSD_IS_M0S8PERI_BLOCK) */
1350:Generated_Source\PSoC4/CSD_Sensing.c **** #endif /* (CSD_ENABLE == CSD_CSDV2) */
1351:Generated_Source\PSoC4/CSD_Sensing.c **** }
 675              		.loc 1 1351 0
 676 0026 BD46     		mov	sp, r7
 677 0028 04B0     		add	sp, sp, #16
 678              		@ sp needed
 679 002a 80BD     		pop	{r7, pc}
 680              	.L46:
ARM GAS  C:\Users\CHRIST~1\AppData\Local\Temp\ccIPpNky.s 			page 37


 681              		.align	2
 682              	.L45:
 683 002c 00020C40 		.word	1074528768
 684              		.cfi_endproc
 685              	.LFE10:
 686              		.size	CSD_SsSetSnsClockDivider, .-CSD_SsSetSnsClockDivider
 687              		.section	.text.CSD_SsSetClockDividers,"ax",%progbits
 688              		.align	2
 689              		.global	CSD_SsSetClockDividers
 690              		.code	16
 691              		.thumb_func
 692              		.type	CSD_SsSetClockDividers, %function
 693              	CSD_SsSetClockDividers:
 694              	.LFB11:
1352:Generated_Source\PSoC4/CSD_Sensing.c **** 
1353:Generated_Source\PSoC4/CSD_Sensing.c **** 
1354:Generated_Source\PSoC4/CSD_Sensing.c **** /*******************************************************************************
1355:Generated_Source\PSoC4/CSD_Sensing.c **** * Function Name: CSD_SsSetClockDividers
1356:Generated_Source\PSoC4/CSD_Sensing.c **** ****************************************************************************//**
1357:Generated_Source\PSoC4/CSD_Sensing.c **** *
1358:Generated_Source\PSoC4/CSD_Sensing.c **** * \brief
1359:Generated_Source\PSoC4/CSD_Sensing.c **** *   Sets the divider values for sense and modulator clocks and then starts
1360:Generated_Source\PSoC4/CSD_Sensing.c **** *   a modulator clock-phase aligned to HFCLK and sense clock-phase aligned to
1361:Generated_Source\PSoC4/CSD_Sensing.c **** *   the modulator clock.
1362:Generated_Source\PSoC4/CSD_Sensing.c **** *
1363:Generated_Source\PSoC4/CSD_Sensing.c **** * \details
1364:Generated_Source\PSoC4/CSD_Sensing.c **** *   It is not recommended to call this function directly by the application layer.
1365:Generated_Source\PSoC4/CSD_Sensing.c **** *   It is used by initialization, widget APIs or wakeup functions to
1366:Generated_Source\PSoC4/CSD_Sensing.c **** *   enable the clocks.
1367:Generated_Source\PSoC4/CSD_Sensing.c **** *
1368:Generated_Source\PSoC4/CSD_Sensing.c **** * \param
1369:Generated_Source\PSoC4/CSD_Sensing.c **** *   snsClk The divider value for the sense clock.
1370:Generated_Source\PSoC4/CSD_Sensing.c **** *   modClk The divider value for the modulator clock.
1371:Generated_Source\PSoC4/CSD_Sensing.c **** *
1372:Generated_Source\PSoC4/CSD_Sensing.c **** *******************************************************************************/
1373:Generated_Source\PSoC4/CSD_Sensing.c **** void CSD_SsSetClockDividers(uint32 snsClk, uint32 modClk)
1374:Generated_Source\PSoC4/CSD_Sensing.c **** {
 695              		.loc 1 1374 0
 696              		.cfi_startproc
 697 0000 80B5     		push	{r7, lr}
 698              		.cfi_def_cfa_offset 8
 699              		.cfi_offset 7, -8
 700              		.cfi_offset 14, -4
 701 0002 82B0     		sub	sp, sp, #8
 702              		.cfi_def_cfa_offset 16
 703 0004 00AF     		add	r7, sp, #0
 704              		.cfi_def_cfa_register 7
 705 0006 7860     		str	r0, [r7, #4]
 706 0008 3960     		str	r1, [r7]
1375:Generated_Source\PSoC4/CSD_Sensing.c ****     /* Configure Mod clock */
1376:Generated_Source\PSoC4/CSD_Sensing.c ****     CSD_SsSetModClkClockDivider(modClk);
 707              		.loc 1 1376 0
 708 000a 3B68     		ldr	r3, [r7]
 709 000c 181C     		mov	r0, r3
 710 000e FFF7FEFF 		bl	CSD_SsSetModClkClockDivider
1377:Generated_Source\PSoC4/CSD_Sensing.c **** 
1378:Generated_Source\PSoC4/CSD_Sensing.c ****     /* Configure Sns clock */
ARM GAS  C:\Users\CHRIST~1\AppData\Local\Temp\ccIPpNky.s 			page 38


1379:Generated_Source\PSoC4/CSD_Sensing.c ****     CSD_SsSetSnsClockDivider(snsClk);
 711              		.loc 1 1379 0
 712 0012 7B68     		ldr	r3, [r7, #4]
 713 0014 181C     		mov	r0, r3
 714 0016 FFF7FEFF 		bl	CSD_SsSetSnsClockDivider
1380:Generated_Source\PSoC4/CSD_Sensing.c **** }
 715              		.loc 1 1380 0
 716 001a BD46     		mov	sp, r7
 717 001c 02B0     		add	sp, sp, #8
 718              		@ sp needed
 719 001e 80BD     		pop	{r7, pc}
 720              		.cfi_endproc
 721              	.LFE11:
 722              		.size	CSD_SsSetClockDividers, .-CSD_SsSetClockDividers
 723              		.section	.text.CSD_CalibrateWidget,"ax",%progbits
 724              		.align	2
 725              		.global	CSD_CalibrateWidget
 726              		.code	16
 727              		.thumb_func
 728              		.type	CSD_CalibrateWidget, %function
 729              	CSD_CalibrateWidget:
 730              	.LFB12:
1381:Generated_Source\PSoC4/CSD_Sensing.c **** 
1382:Generated_Source\PSoC4/CSD_Sensing.c **** 
1383:Generated_Source\PSoC4/CSD_Sensing.c **** #if ((CSD_ENABLE == CSD_CSD_IDAC_AUTOCAL_EN) || \
1384:Generated_Source\PSoC4/CSD_Sensing.c ****      (CSD_ENABLE == CSD_CSX_IDAC_AUTOCAL_EN))
1385:Generated_Source\PSoC4/CSD_Sensing.c ****     /*******************************************************************************
1386:Generated_Source\PSoC4/CSD_Sensing.c ****     * Function Name: CSD_CalibrateWidget
1387:Generated_Source\PSoC4/CSD_Sensing.c ****     ****************************************************************************//**
1388:Generated_Source\PSoC4/CSD_Sensing.c ****     *
1389:Generated_Source\PSoC4/CSD_Sensing.c ****     * \brief
1390:Generated_Source\PSoC4/CSD_Sensing.c ****     *  Calibrates the IDACs for all sensors in the specified widget to default
1391:Generated_Source\PSoC4/CSD_Sensing.c ****     *  target (85%) value, this function detects sensing method used by the
1392:Generated_Source\PSoC4/CSD_Sensing.c ****     *  widget prior to calibration.
1393:Generated_Source\PSoC4/CSD_Sensing.c ****     *
1394:Generated_Source\PSoC4/CSD_Sensing.c ****     * \details
1395:Generated_Source\PSoC4/CSD_Sensing.c ****     *  This function performs exactly the same tasks as
1396:Generated_Source\PSoC4/CSD_Sensing.c ****     *  CSD_CalibrateAllWidgets, but only for a specified widget.
1397:Generated_Source\PSoC4/CSD_Sensing.c ****     *  This function detects the sensing method used by the widgets and takes
1398:Generated_Source\PSoC4/CSD_Sensing.c ****     *  into account the Enable compensation IDAC parameter.
1399:Generated_Source\PSoC4/CSD_Sensing.c ****     *
1400:Generated_Source\PSoC4/CSD_Sensing.c ****     *  This function is available when the CSD and/or CSX Enable IDAC
1401:Generated_Source\PSoC4/CSD_Sensing.c ****     *  auto-calibration parameter is enabled.
1402:Generated_Source\PSoC4/CSD_Sensing.c **** 
1403:Generated_Source\PSoC4/CSD_Sensing.c ****     *
1404:Generated_Source\PSoC4/CSD_Sensing.c ****     * \param wdgtIndex
1405:Generated_Source\PSoC4/CSD_Sensing.c ****     *  Specify the ID number of the widget to calibrate its raw count.
1406:Generated_Source\PSoC4/CSD_Sensing.c ****     *  A macro for the widget ID can be found in the
1407:Generated_Source\PSoC4/CSD_Sensing.c ****     *  CSD_Configuration.h file defined as
1408:Generated_Source\PSoC4/CSD_Sensing.c ****     *  CSD_<WidgetName>_WDGT_ID.
1409:Generated_Source\PSoC4/CSD_Sensing.c ****     *
1410:Generated_Source\PSoC4/CSD_Sensing.c ****     * \return
1411:Generated_Source\PSoC4/CSD_Sensing.c ****     *  Returns the status of the specified widget calibration:
1412:Generated_Source\PSoC4/CSD_Sensing.c ****     *    - CYRET_SUCCESS if operation is successfully completed.
1413:Generated_Source\PSoC4/CSD_Sensing.c ****     *    - CYRET_BAD_PARAM if the input parameter is invalid.
1414:Generated_Source\PSoC4/CSD_Sensing.c ****     *    - CYRET_BAD_DATA if the calibration failed and the component may not
1415:Generated_Source\PSoC4/CSD_Sensing.c ****     *      operate as expected.
ARM GAS  C:\Users\CHRIST~1\AppData\Local\Temp\ccIPpNky.s 			page 39


1416:Generated_Source\PSoC4/CSD_Sensing.c ****     *
1417:Generated_Source\PSoC4/CSD_Sensing.c ****     *******************************************************************************/
1418:Generated_Source\PSoC4/CSD_Sensing.c ****     cystatus CSD_CalibrateWidget(uint32 wdgtIndex)
1419:Generated_Source\PSoC4/CSD_Sensing.c ****     {
 731              		.loc 1 1419 0
 732              		.cfi_startproc
 733 0000 80B5     		push	{r7, lr}
 734              		.cfi_def_cfa_offset 8
 735              		.cfi_offset 7, -8
 736              		.cfi_offset 14, -4
 737 0002 84B0     		sub	sp, sp, #16
 738              		.cfi_def_cfa_offset 24
 739 0004 00AF     		add	r7, sp, #0
 740              		.cfi_def_cfa_register 7
 741 0006 7860     		str	r0, [r7, #4]
1420:Generated_Source\PSoC4/CSD_Sensing.c ****         cystatus calibrateStatus = CYRET_SUCCESS;
 742              		.loc 1 1420 0
 743 0008 0023     		mov	r3, #0
 744 000a FB60     		str	r3, [r7, #12]
1421:Generated_Source\PSoC4/CSD_Sensing.c **** 
1422:Generated_Source\PSoC4/CSD_Sensing.c ****         do
1423:Generated_Source\PSoC4/CSD_Sensing.c ****         {
1424:Generated_Source\PSoC4/CSD_Sensing.c ****             if (CSD_TOTAL_WIDGETS <= wdgtIndex)
 745              		.loc 1 1424 0
 746 000c 7B68     		ldr	r3, [r7, #4]
 747 000e 002B     		cmp	r3, #0
 748 0010 02D0     		beq	.L49
1425:Generated_Source\PSoC4/CSD_Sensing.c ****             {
1426:Generated_Source\PSoC4/CSD_Sensing.c ****                 calibrateStatus = CYRET_BAD_PARAM;
 749              		.loc 1 1426 0
 750 0012 0123     		mov	r3, #1
 751 0014 FB60     		str	r3, [r7, #12]
1427:Generated_Source\PSoC4/CSD_Sensing.c ****                 break;
 752              		.loc 1 1427 0
 753 0016 06E0     		b	.L50
 754              	.L49:
1428:Generated_Source\PSoC4/CSD_Sensing.c ****             }
1429:Generated_Source\PSoC4/CSD_Sensing.c **** 
1430:Generated_Source\PSoC4/CSD_Sensing.c ****             /*
1431:Generated_Source\PSoC4/CSD_Sensing.c ****              *  Check if widget id is valid, specified widget did not
1432:Generated_Source\PSoC4/CSD_Sensing.c ****              *  detect any faults conditions if BIST is enabled.
1433:Generated_Source\PSoC4/CSD_Sensing.c ****              */
1434:Generated_Source\PSoC4/CSD_Sensing.c ****             #if (CSD_ENABLE == CSD_SELF_TEST_EN)
1435:Generated_Source\PSoC4/CSD_Sensing.c ****                 if (0u != CSD_GET_WIDGET_EN_STATUS(wdgtIndex))
1436:Generated_Source\PSoC4/CSD_Sensing.c ****                 {
1437:Generated_Source\PSoC4/CSD_Sensing.c ****                     calibrateStatus = CYRET_SUCCESS;
1438:Generated_Source\PSoC4/CSD_Sensing.c ****                 }
1439:Generated_Source\PSoC4/CSD_Sensing.c ****                 else
1440:Generated_Source\PSoC4/CSD_Sensing.c ****                 {
1441:Generated_Source\PSoC4/CSD_Sensing.c ****                     calibrateStatus = CYRET_INVALID_STATE;
1442:Generated_Source\PSoC4/CSD_Sensing.c ****                     /*  Exit because widget is not working  */
1443:Generated_Source\PSoC4/CSD_Sensing.c ****                     break;
1444:Generated_Source\PSoC4/CSD_Sensing.c ****                 }
1445:Generated_Source\PSoC4/CSD_Sensing.c ****             #endif  /* (CSD_ENABLE == CSD_SELF_TEST_EN) */
1446:Generated_Source\PSoC4/CSD_Sensing.c **** 
1447:Generated_Source\PSoC4/CSD_Sensing.c ****             /* If CSD2X is enabled, calibrate CSD sensor    */
1448:Generated_Source\PSoC4/CSD_Sensing.c ****             #if (CSD_ENABLE == CSD_CSD2X_EN)
ARM GAS  C:\Users\CHRIST~1\AppData\Local\Temp\ccIPpNky.s 			page 40


1449:Generated_Source\PSoC4/CSD_Sensing.c ****                 /******************************
1450:Generated_Source\PSoC4/CSD_Sensing.c ****                 * This is the place where the CSD2X mode
1451:Generated_Source\PSoC4/CSD_Sensing.c ****                 * API should be implemented.
1452:Generated_Source\PSoC4/CSD_Sensing.c ****                 * CSD2X will be implemented
1453:Generated_Source\PSoC4/CSD_Sensing.c ****                 * in the next component version.
1454:Generated_Source\PSoC4/CSD_Sensing.c ****                 *********************************/
1455:Generated_Source\PSoC4/CSD_Sensing.c **** 
1456:Generated_Source\PSoC4/CSD_Sensing.c ****             /* If both CSD and CSX are enabled, calibrate widget using sensing method */
1457:Generated_Source\PSoC4/CSD_Sensing.c ****             #elif (CSD_ENABLE == CSD_CSD_CSX_EN)
1458:Generated_Source\PSoC4/CSD_Sensing.c **** 
1459:Generated_Source\PSoC4/CSD_Sensing.c ****                 /* Check widget sensing method and call appropriate APIs */
1460:Generated_Source\PSoC4/CSD_Sensing.c ****                 #if (CSD_ENABLE == CSD_CSX_IDAC_AUTOCAL_EN)
1461:Generated_Source\PSoC4/CSD_Sensing.c ****                     if (CSD_SENSE_METHOD_CSX_E ==
1462:Generated_Source\PSoC4/CSD_Sensing.c ****                         (CSD_SENSE_METHOD_ENUM)CSD_GET_SENSE_METHOD(&CSD_dsFlash.wdgtArray[wdgtInde
1463:Generated_Source\PSoC4/CSD_Sensing.c ****                     {
1464:Generated_Source\PSoC4/CSD_Sensing.c ****                         /* Calibrate CSX widget  */
1465:Generated_Source\PSoC4/CSD_Sensing.c ****                        CSD_CSXCalibrateWidget(wdgtIndex, CSD_CSX_RAWCOUNT_CAL_LEVEL);
1466:Generated_Source\PSoC4/CSD_Sensing.c ****                     }
1467:Generated_Source\PSoC4/CSD_Sensing.c ****                 #endif  /* (CSD_ENABLE == CSD_CSX_IDAC_AUTOCAL_EN) */
1468:Generated_Source\PSoC4/CSD_Sensing.c **** 
1469:Generated_Source\PSoC4/CSD_Sensing.c ****                 #if (CSD_ENABLE == CSD_CSD_IDAC_AUTOCAL_EN)
1470:Generated_Source\PSoC4/CSD_Sensing.c ****                     if (CSD_SENSE_METHOD_CSD_E ==
1471:Generated_Source\PSoC4/CSD_Sensing.c ****                         (CSD_SENSE_METHOD_ENUM)CSD_GET_SENSE_METHOD(&CSD_dsFlash.wdgtArray[wdgtInde
1472:Generated_Source\PSoC4/CSD_Sensing.c ****                     {
1473:Generated_Source\PSoC4/CSD_Sensing.c ****                         /* Calibrate CSD widget */
1474:Generated_Source\PSoC4/CSD_Sensing.c ****                         calibrateStatus = CSD_CSDCalibrateWidget(wdgtIndex, CSD_CSD_RAWCOUNT_CAL_LE
1475:Generated_Source\PSoC4/CSD_Sensing.c ****                     }
1476:Generated_Source\PSoC4/CSD_Sensing.c ****                 #endif  /* (CSD_ENABLE == CSD_CSD_IDAC_AUTOCAL_EN) */
1477:Generated_Source\PSoC4/CSD_Sensing.c **** 
1478:Generated_Source\PSoC4/CSD_Sensing.c ****             /*  If only CSD is enabled, calibrate CSD sensor  */
1479:Generated_Source\PSoC4/CSD_Sensing.c ****             #elif (CSD_ENABLE == CSD_CSD_EN)
1480:Generated_Source\PSoC4/CSD_Sensing.c ****                 calibrateStatus = CSD_CSDCalibrateWidget(wdgtIndex, CSD_CSD_RAWCOUNT_CAL_LEVEL);
 755              		.loc 1 1480 0
 756 0018 7B68     		ldr	r3, [r7, #4]
 757 001a 181C     		mov	r0, r3
 758 001c 5521     		mov	r1, #85
 759 001e FFF7FEFF 		bl	CSD_CSDCalibrateWidget
 760 0022 031C     		mov	r3, r0
 761 0024 FB60     		str	r3, [r7, #12]
 762              	.L50:
1481:Generated_Source\PSoC4/CSD_Sensing.c **** 
1482:Generated_Source\PSoC4/CSD_Sensing.c ****             /*  If only CSX is enabled, call CSX scan   */
1483:Generated_Source\PSoC4/CSD_Sensing.c ****             #elif (CSD_ENABLE == CSD_CSX_EN)
1484:Generated_Source\PSoC4/CSD_Sensing.c ****                 CSD_CSXCalibrateWidget(wdgtIndex, CSD_CSX_RAWCOUNT_CAL_LEVEL);
1485:Generated_Source\PSoC4/CSD_Sensing.c **** 
1486:Generated_Source\PSoC4/CSD_Sensing.c ****             #else
1487:Generated_Source\PSoC4/CSD_Sensing.c ****                 calibrateStatus = CYRET_UNKNOWN;
1488:Generated_Source\PSoC4/CSD_Sensing.c ****             #endif  /* (CSD_ENABLE == CSD_CSD2X_EN) */
1489:Generated_Source\PSoC4/CSD_Sensing.c **** 
1490:Generated_Source\PSoC4/CSD_Sensing.c ****         } while (0u);
1491:Generated_Source\PSoC4/CSD_Sensing.c **** 
1492:Generated_Source\PSoC4/CSD_Sensing.c ****         return calibrateStatus;
 763              		.loc 1 1492 0
 764 0026 FB68     		ldr	r3, [r7, #12]
1493:Generated_Source\PSoC4/CSD_Sensing.c ****     }
 765              		.loc 1 1493 0
 766 0028 181C     		mov	r0, r3
ARM GAS  C:\Users\CHRIST~1\AppData\Local\Temp\ccIPpNky.s 			page 41


 767 002a BD46     		mov	sp, r7
 768 002c 04B0     		add	sp, sp, #16
 769              		@ sp needed
 770 002e 80BD     		pop	{r7, pc}
 771              		.cfi_endproc
 772              	.LFE12:
 773              		.size	CSD_CalibrateWidget, .-CSD_CalibrateWidget
 774              		.section	.text.CSD_CalibrateAllWidgets,"ax",%progbits
 775              		.align	2
 776              		.global	CSD_CalibrateAllWidgets
 777              		.code	16
 778              		.thumb_func
 779              		.type	CSD_CalibrateAllWidgets, %function
 780              	CSD_CalibrateAllWidgets:
 781              	.LFB13:
1494:Generated_Source\PSoC4/CSD_Sensing.c **** 
1495:Generated_Source\PSoC4/CSD_Sensing.c **** 
1496:Generated_Source\PSoC4/CSD_Sensing.c ****     /*******************************************************************************
1497:Generated_Source\PSoC4/CSD_Sensing.c ****     * Function Name: CSD_CalibrateAllWidgets
1498:Generated_Source\PSoC4/CSD_Sensing.c ****     ****************************************************************************//**
1499:Generated_Source\PSoC4/CSD_Sensing.c ****     *
1500:Generated_Source\PSoC4/CSD_Sensing.c ****     * \brief
1501:Generated_Source\PSoC4/CSD_Sensing.c ****     *  Calibrates the IDACs for all widgets in the component to default target
1502:Generated_Source\PSoC4/CSD_Sensing.c ****     *  (85%) value, this function detects sensing method used by the widgets
1503:Generated_Source\PSoC4/CSD_Sensing.c ****     *  prior to calibration.
1504:Generated_Source\PSoC4/CSD_Sensing.c ****     *
1505:Generated_Source\PSoC4/CSD_Sensing.c ****     * \details
1506:Generated_Source\PSoC4/CSD_Sensing.c ****     *  Calibrates the IDACs for all widgets in the component to the default
1507:Generated_Source\PSoC4/CSD_Sensing.c ****     *  target (85% of maximum possible raw count) value. This function detects
1508:Generated_Source\PSoC4/CSD_Sensing.c ****     *  the sensing method used by the widgets and takes into account the Enable
1509:Generated_Source\PSoC4/CSD_Sensing.c ****     *  compensation IDAC parameter.
1510:Generated_Source\PSoC4/CSD_Sensing.c ****     *
1511:Generated_Source\PSoC4/CSD_Sensing.c ****     *  This function is available when the CSD and/or CSX Enable IDAC
1512:Generated_Source\PSoC4/CSD_Sensing.c ****     *  auto-calibration parameter is enabled.
1513:Generated_Source\PSoC4/CSD_Sensing.c ****     *
1514:Generated_Source\PSoC4/CSD_Sensing.c ****     * \return
1515:Generated_Source\PSoC4/CSD_Sensing.c ****     *  Returns the status of the calibration process:
1516:Generated_Source\PSoC4/CSD_Sensing.c ****     *    - CYRET_SUCCESS if the operation is successfully completed.
1517:Generated_Source\PSoC4/CSD_Sensing.c ****     *    - CYRET_BAD_DATA if the calibration failed and the component may not
1518:Generated_Source\PSoC4/CSD_Sensing.c ****     *      operate as expected.
1519:Generated_Source\PSoC4/CSD_Sensing.c ****     *
1520:Generated_Source\PSoC4/CSD_Sensing.c ****     *******************************************************************************/
1521:Generated_Source\PSoC4/CSD_Sensing.c ****     cystatus CSD_CalibrateAllWidgets(void)
1522:Generated_Source\PSoC4/CSD_Sensing.c ****     {
 782              		.loc 1 1522 0
 783              		.cfi_startproc
 784 0000 80B5     		push	{r7, lr}
 785              		.cfi_def_cfa_offset 8
 786              		.cfi_offset 7, -8
 787              		.cfi_offset 14, -4
 788 0002 82B0     		sub	sp, sp, #8
 789              		.cfi_def_cfa_offset 16
 790 0004 00AF     		add	r7, sp, #0
 791              		.cfi_def_cfa_register 7
1523:Generated_Source\PSoC4/CSD_Sensing.c ****         cystatus calibrateStatus = CYRET_SUCCESS;
 792              		.loc 1 1523 0
 793 0006 0023     		mov	r3, #0
ARM GAS  C:\Users\CHRIST~1\AppData\Local\Temp\ccIPpNky.s 			page 42


 794 0008 7B60     		str	r3, [r7, #4]
1524:Generated_Source\PSoC4/CSD_Sensing.c ****         uint32 wdgtIndex;
1525:Generated_Source\PSoC4/CSD_Sensing.c **** 
1526:Generated_Source\PSoC4/CSD_Sensing.c ****         for (wdgtIndex = 0u; wdgtIndex < CSD_TOTAL_WIDGETS; wdgtIndex++)
 795              		.loc 1 1526 0
 796 000a 0023     		mov	r3, #0
 797 000c 3B60     		str	r3, [r7]
 798 000e 0AE0     		b	.L53
 799              	.L54:
1527:Generated_Source\PSoC4/CSD_Sensing.c ****         {
1528:Generated_Source\PSoC4/CSD_Sensing.c ****             calibrateStatus |= CSD_CalibrateWidget(wdgtIndex);
 800              		.loc 1 1528 0 discriminator 3
 801 0010 3B68     		ldr	r3, [r7]
 802 0012 181C     		mov	r0, r3
 803 0014 FFF7FEFF 		bl	CSD_CalibrateWidget
 804 0018 021C     		mov	r2, r0
 805 001a 7B68     		ldr	r3, [r7, #4]
 806 001c 1343     		orr	r3, r2
 807 001e 7B60     		str	r3, [r7, #4]
1526:Generated_Source\PSoC4/CSD_Sensing.c ****         {
 808              		.loc 1 1526 0 discriminator 3
 809 0020 3B68     		ldr	r3, [r7]
 810 0022 0133     		add	r3, r3, #1
 811 0024 3B60     		str	r3, [r7]
 812              	.L53:
1526:Generated_Source\PSoC4/CSD_Sensing.c ****         {
 813              		.loc 1 1526 0 is_stmt 0 discriminator 1
 814 0026 3B68     		ldr	r3, [r7]
 815 0028 002B     		cmp	r3, #0
 816 002a F1D0     		beq	.L54
1529:Generated_Source\PSoC4/CSD_Sensing.c ****         }
1530:Generated_Source\PSoC4/CSD_Sensing.c **** 
1531:Generated_Source\PSoC4/CSD_Sensing.c ****         return calibrateStatus;
 817              		.loc 1 1531 0 is_stmt 1
 818 002c 7B68     		ldr	r3, [r7, #4]
1532:Generated_Source\PSoC4/CSD_Sensing.c ****     }
 819              		.loc 1 1532 0
 820 002e 181C     		mov	r0, r3
 821 0030 BD46     		mov	sp, r7
 822 0032 02B0     		add	sp, sp, #8
 823              		@ sp needed
 824 0034 80BD     		pop	{r7, pc}
 825              		.cfi_endproc
 826              	.LFE13:
 827              		.size	CSD_CalibrateAllWidgets, .-CSD_CalibrateAllWidgets
 828 0036 C046     		.section	.text.CSD_SsInitializeSourceSenseClk,"ax",%progbits
 829              		.align	2
 830              		.global	CSD_SsInitializeSourceSenseClk
 831              		.code	16
 832              		.thumb_func
 833              		.type	CSD_SsInitializeSourceSenseClk, %function
 834              	CSD_SsInitializeSourceSenseClk:
 835              	.LFB14:
1533:Generated_Source\PSoC4/CSD_Sensing.c **** #endif /* ((CSD_ENABLE == CSD_CSD_IDAC_AUTOCAL_EN) ||
1534:Generated_Source\PSoC4/CSD_Sensing.c ****            (CSD_ENABLE == CSD_CSX_IDAC_AUTOCAL_EN)) */
1535:Generated_Source\PSoC4/CSD_Sensing.c **** 
1536:Generated_Source\PSoC4/CSD_Sensing.c **** 
ARM GAS  C:\Users\CHRIST~1\AppData\Local\Temp\ccIPpNky.s 			page 43


1537:Generated_Source\PSoC4/CSD_Sensing.c **** #if (CSD_CSD_SS_DIS != CSD_CSD_AUTOTUNE)
1538:Generated_Source\PSoC4/CSD_Sensing.c ****     /*******************************************************************************
1539:Generated_Source\PSoC4/CSD_Sensing.c ****     * Function Name: CSD_SsSetDirectClockMode
1540:Generated_Source\PSoC4/CSD_Sensing.c ****     ****************************************************************************//**
1541:Generated_Source\PSoC4/CSD_Sensing.c ****     *
1542:Generated_Source\PSoC4/CSD_Sensing.c ****     * \brief
1543:Generated_Source\PSoC4/CSD_Sensing.c ****     *  Sets Direct Clock Mode.
1544:Generated_Source\PSoC4/CSD_Sensing.c ****     *
1545:Generated_Source\PSoC4/CSD_Sensing.c ****     * \details
1546:Generated_Source\PSoC4/CSD_Sensing.c ****     *  For CSDv1: Resets PRS bit in CSD_configCsd variable;
1547:Generated_Source\PSoC4/CSD_Sensing.c ****     *  For CSDv2: Resets CSD_SENSE_PERIOD_SEL_LFSR_MSB_MASK and
1548:Generated_Source\PSoC4/CSD_Sensing.c ****     *  CSD_SENSE_PERIOD_SEL_LFSR_MSB_MASK bits in
1549:Generated_Source\PSoC4/CSD_Sensing.c ****     *  CSD_SENSE_PERIOD register.
1550:Generated_Source\PSoC4/CSD_Sensing.c ****     *
1551:Generated_Source\PSoC4/CSD_Sensing.c ****     *******************************************************************************/
1552:Generated_Source\PSoC4/CSD_Sensing.c ****     static void CSD_SsSetDirectClockMode(void)
1553:Generated_Source\PSoC4/CSD_Sensing.c ****     {
1554:Generated_Source\PSoC4/CSD_Sensing.c ****         #if (CSD_ENABLE == CSD_CSDV2)
1555:Generated_Source\PSoC4/CSD_Sensing.c ****             CY_SET_REG32(CSD_SENSE_PERIOD_PTR, CY_GET_REG32(CSD_SENSE_PERIOD_PTR) &
1556:Generated_Source\PSoC4/CSD_Sensing.c ****                                                                  (uint32)~(CSD_SENSE_PERIOD_SEL_LFS
1557:Generated_Source\PSoC4/CSD_Sensing.c ****                                                                  CSD_SENSE_PERIOD_LFSR_SIZE_MASK));
1558:Generated_Source\PSoC4/CSD_Sensing.c ****         #else
1559:Generated_Source\PSoC4/CSD_Sensing.c ****             CSD_configCsd = CSD_configCsd &(uint32)~(CSD_CONFIG_PRS_SELECT_MASK);
1560:Generated_Source\PSoC4/CSD_Sensing.c ****         #endif /* (CSD_ENABLE == CSD_CSDV2) */
1561:Generated_Source\PSoC4/CSD_Sensing.c ****     }
1562:Generated_Source\PSoC4/CSD_Sensing.c **** 
1563:Generated_Source\PSoC4/CSD_Sensing.c **** 
1564:Generated_Source\PSoC4/CSD_Sensing.c ****     /*******************************************************************************
1565:Generated_Source\PSoC4/CSD_Sensing.c ****     * Function Name: CSD_SsAutoTune
1566:Generated_Source\PSoC4/CSD_Sensing.c ****     ****************************************************************************//**
1567:Generated_Source\PSoC4/CSD_Sensing.c ****     *
1568:Generated_Source\PSoC4/CSD_Sensing.c ****     * \brief
1569:Generated_Source\PSoC4/CSD_Sensing.c ****     *  This API performs the parameters auto-tuning for the optimal CSD operation.
1570:Generated_Source\PSoC4/CSD_Sensing.c ****     *
1571:Generated_Source\PSoC4/CSD_Sensing.c ****     * \details
1572:Generated_Source\PSoC4/CSD_Sensing.c ****     *  This API performs the following:
1573:Generated_Source\PSoC4/CSD_Sensing.c ****     *  - Calibrates Modulator and Compensation IDACs.
1574:Generated_Source\PSoC4/CSD_Sensing.c ****     *  - Tunes the Sense Clock optimal value to get a Sense Clock period greater than
1575:Generated_Source\PSoC4/CSD_Sensing.c ****     *     2*5*R*Cp.
1576:Generated_Source\PSoC4/CSD_Sensing.c ****     *  - Calculates the resolution for the optimal finger capacitance.
1577:Generated_Source\PSoC4/CSD_Sensing.c ****     *
1578:Generated_Source\PSoC4/CSD_Sensing.c ****     * \return
1579:Generated_Source\PSoC4/CSD_Sensing.c ****     *   Returns the status of operation:
1580:Generated_Source\PSoC4/CSD_Sensing.c ****     *   - Zero     - All the widgets are auto-tuned successfully.
1581:Generated_Source\PSoC4/CSD_Sensing.c ****     *   - Non-zero - Auto-tuning failed for any widget.
1582:Generated_Source\PSoC4/CSD_Sensing.c ****     *
1583:Generated_Source\PSoC4/CSD_Sensing.c ****     *******************************************************************************/
1584:Generated_Source\PSoC4/CSD_Sensing.c ****     cystatus CSD_SsAutoTune(void)
1585:Generated_Source\PSoC4/CSD_Sensing.c ****     {
1586:Generated_Source\PSoC4/CSD_Sensing.c ****         cystatus autoTuneStatus = CYRET_SUCCESS;
1587:Generated_Source\PSoC4/CSD_Sensing.c ****         uint32 wdgtIndex;
1588:Generated_Source\PSoC4/CSD_Sensing.c ****         uint32 cp;
1589:Generated_Source\PSoC4/CSD_Sensing.c ****         #if (CSD_CSD_MATRIX_WIDGET_EN | CSD_CSD_TOUCHPAD_WIDGET_EN)
1590:Generated_Source\PSoC4/CSD_Sensing.c ****             uint32 cpRow = 0uL;
1591:Generated_Source\PSoC4/CSD_Sensing.c ****         #endif /* (CSD_CSD_MATRIX_WIDGET_EN | CSD_CSD_TOUCHPAD_WIDGET_EN) */
1592:Generated_Source\PSoC4/CSD_Sensing.c ****         CSD_RAM_WD_BASE_STRUCT *ptrWdgt;
1593:Generated_Source\PSoC4/CSD_Sensing.c ****         AUTO_TUNE_CONFIG_TYPE autoTuneConfig;
ARM GAS  C:\Users\CHRIST~1\AppData\Local\Temp\ccIPpNky.s 			page 44


1594:Generated_Source\PSoC4/CSD_Sensing.c **** 
1595:Generated_Source\PSoC4/CSD_Sensing.c ****         /* Configure common config variables */
1596:Generated_Source\PSoC4/CSD_Sensing.c ****         autoTuneConfig.snsClkConstantR = CSD_CSD_SNSCLK_R_CONST;
1597:Generated_Source\PSoC4/CSD_Sensing.c ****         autoTuneConfig.vRef = CSD_CSD_VREF_MV;
1598:Generated_Source\PSoC4/CSD_Sensing.c ****         autoTuneConfig.iDacGain = CSD_CSD_IDAC_GAIN_VALUE_NA * CSD_CSD_DUAL_IDAC_FACTOR;
1599:Generated_Source\PSoC4/CSD_Sensing.c ****         autoTuneConfig.calTarget = CSD_CSD_AUTOTUNE_CAL_LEVEL;
1600:Generated_Source\PSoC4/CSD_Sensing.c **** 
1601:Generated_Source\PSoC4/CSD_Sensing.c ****         /* Calculate snsClk Input Clock in KHz */
1602:Generated_Source\PSoC4/CSD_Sensing.c ****         #if (CSD_ENABLE == CSD_CSDV2)
1603:Generated_Source\PSoC4/CSD_Sensing.c ****             /*  Dividers are chained (CSDV2). Flip flop is not available */
1604:Generated_Source\PSoC4/CSD_Sensing.c ****             autoTuneConfig.snsClkInputClock = (CYDEV_BCLK__HFCLK__KHZ / CSD_dsRam.modCsdClk);
1605:Generated_Source\PSoC4/CSD_Sensing.c ****         #elif ((CSD_ENABLE == CSD_IS_M0S8PERI_BLOCK) && (CSD_DISABLE == CY_PSOC4_4000))
1606:Generated_Source\PSoC4/CSD_Sensing.c ****             /*  Dividers are not chained */
1607:Generated_Source\PSoC4/CSD_Sensing.c ****             autoTuneConfig.snsClkInputClock = CYDEV_BCLK__HFCLK__KHZ >> CSD_FLIP_FLOP_DIV;
1608:Generated_Source\PSoC4/CSD_Sensing.c ****         #elif (CSD_ENABLE == CSD_IS_M0S8PERI_BLOCK)
1609:Generated_Source\PSoC4/CSD_Sensing.c ****             /*  Dividers are not chained (PSoC 4000) */
1610:Generated_Source\PSoC4/CSD_Sensing.c ****             autoTuneConfig.snsClkInputClock = CYDEV_BCLK__HFCLK__KHZ >> CSD_FLIP_FLOP_DIV;
1611:Generated_Source\PSoC4/CSD_Sensing.c ****         #else
1612:Generated_Source\PSoC4/CSD_Sensing.c ****             /*  Dividers are chained (PSoC 4100, PSoC 4200) */
1613:Generated_Source\PSoC4/CSD_Sensing.c ****             autoTuneConfig.snsClkInputClock = (CYDEV_BCLK__HFCLK__KHZ / CSD_dsRam.modCsdClk) >> CSD
1614:Generated_Source\PSoC4/CSD_Sensing.c ****         #endif /* (CSD_ENABLE == CSD_CSDV2) */
1615:Generated_Source\PSoC4/CSD_Sensing.c **** 
1616:Generated_Source\PSoC4/CSD_Sensing.c ****         /* If both CSD and CSX are enabled, calibrate widget using sensing method */
1617:Generated_Source\PSoC4/CSD_Sensing.c ****         #if (CSD_ENABLE == CSD_CSD_CSX_EN)
1618:Generated_Source\PSoC4/CSD_Sensing.c ****             /* Initialize CSD mode */
1619:Generated_Source\PSoC4/CSD_Sensing.c ****             CSD_SsCSDInitialize();
1620:Generated_Source\PSoC4/CSD_Sensing.c ****         #endif /* (CSD_ENABLE == CSD_CSD_CSX_EN) */
1621:Generated_Source\PSoC4/CSD_Sensing.c **** 
1622:Generated_Source\PSoC4/CSD_Sensing.c ****         for (wdgtIndex = 0u; wdgtIndex < CSD_TOTAL_WIDGETS; wdgtIndex++)
1623:Generated_Source\PSoC4/CSD_Sensing.c ****         {
1624:Generated_Source\PSoC4/CSD_Sensing.c ****             if (CSD_SENSE_METHOD_CSD_E ==
1625:Generated_Source\PSoC4/CSD_Sensing.c ****                 (CSD_SENSE_METHOD_ENUM)CSD_GET_SENSE_METHOD(&CSD_dsFlash.wdgtArray[wdgtIndex]))
1626:Generated_Source\PSoC4/CSD_Sensing.c ****             {
1627:Generated_Source\PSoC4/CSD_Sensing.c ****                 ptrWdgt = (CSD_RAM_WD_BASE_STRUCT *)
1628:Generated_Source\PSoC4/CSD_Sensing.c ****                           CSD_dsFlash.wdgtArray[wdgtIndex].ptr2WdgtRam;
1629:Generated_Source\PSoC4/CSD_Sensing.c **** 
1630:Generated_Source\PSoC4/CSD_Sensing.c ****                 /* Switch charge clock source to direct clock mode */
1631:Generated_Source\PSoC4/CSD_Sensing.c ****                 CSD_SsSetDirectClockMode();
1632:Generated_Source\PSoC4/CSD_Sensing.c **** 
1633:Generated_Source\PSoC4/CSD_Sensing.c ****                 /* Get finger capacitance */
1634:Generated_Source\PSoC4/CSD_Sensing.c ****                 autoTuneConfig.fingerCap = ptrWdgt->fingerCap;
1635:Generated_Source\PSoC4/CSD_Sensing.c **** 
1636:Generated_Source\PSoC4/CSD_Sensing.c ****                 /* Init pointer to sigPFC */
1637:Generated_Source\PSoC4/CSD_Sensing.c ****                 autoTuneConfig.sigPFC = &ptrWdgt->sigPFC;
1638:Generated_Source\PSoC4/CSD_Sensing.c **** 
1639:Generated_Source\PSoC4/CSD_Sensing.c ****                 /* Set calibration resolution to 12 bits */
1640:Generated_Source\PSoC4/CSD_Sensing.c ****                 ptrWdgt->resolution = CSD_CALIBRATION_RESOLUTION;
1641:Generated_Source\PSoC4/CSD_Sensing.c **** 
1642:Generated_Source\PSoC4/CSD_Sensing.c ****                 /* Set Sense clock frequency to 1.5 MHz */
1643:Generated_Source\PSoC4/CSD_Sensing.c ****                 #if (CSD_ENABLE == CSD_CSD_COMMON_SNS_CLK_EN)
1644:Generated_Source\PSoC4/CSD_Sensing.c ****                     CSD_dsRam.snsCsdClk = (uint8)((uint32)autoTuneConfig.snsClkInputClock /
1645:Generated_Source\PSoC4/CSD_Sensing.c ****                                                        CSD_CALIBRATION_FREQ_KHZ);
1646:Generated_Source\PSoC4/CSD_Sensing.c ****                 #elif (CSD_CSD_MATRIX_WIDGET_EN | CSD_CSD_TOUCHPAD_WIDGET_EN)
1647:Generated_Source\PSoC4/CSD_Sensing.c ****                     ptrWdgt->rowSnsClk = (uint8)((uint32)autoTuneConfig.snsClkInputClock /
1648:Generated_Source\PSoC4/CSD_Sensing.c ****                                          CSD_CALIBRATION_FREQ_KHZ);
1649:Generated_Source\PSoC4/CSD_Sensing.c ****                     ptrWdgt->snsClk = (uint8)((uint32)autoTuneConfig.snsClkInputClock /
1650:Generated_Source\PSoC4/CSD_Sensing.c ****                                       CSD_CALIBRATION_FREQ_KHZ);
ARM GAS  C:\Users\CHRIST~1\AppData\Local\Temp\ccIPpNky.s 			page 45


1651:Generated_Source\PSoC4/CSD_Sensing.c ****                 #else
1652:Generated_Source\PSoC4/CSD_Sensing.c ****                     ptrWdgt->snsClk = (uint8)((uint32)autoTuneConfig.snsClkInputClock /
1653:Generated_Source\PSoC4/CSD_Sensing.c ****                                       CSD_CALIBRATION_FREQ_KHZ);
1654:Generated_Source\PSoC4/CSD_Sensing.c ****                 #endif /*  (CSD_ENABLE == CSD_CSD_COMMON_SNS_CLK_EN) */
1655:Generated_Source\PSoC4/CSD_Sensing.c **** 
1656:Generated_Source\PSoC4/CSD_Sensing.c ****                 /* Set flag to calibrate in PWM mode only */
1657:Generated_Source\PSoC4/CSD_Sensing.c ****                 CSD_prescalersTuningDone = CSD_DISABLE;
1658:Generated_Source\PSoC4/CSD_Sensing.c **** 
1659:Generated_Source\PSoC4/CSD_Sensing.c ****                 #if (CSD_DISABLE == CSD_CSD2X_EN)
1660:Generated_Source\PSoC4/CSD_Sensing.c ****                     /* Calibrate CSD widget to 85% */
1661:Generated_Source\PSoC4/CSD_Sensing.c ****                     (void)CSD_CSDCalibrateWidget(wdgtIndex, CSD_CSD_AUTOTUNE_CAL_LEVEL);
1662:Generated_Source\PSoC4/CSD_Sensing.c ****                 #endif /* (CSD_DISABLE == CSD_CSD2X_EN) */
1663:Generated_Source\PSoC4/CSD_Sensing.c **** 
1664:Generated_Source\PSoC4/CSD_Sensing.c ****                 #if (CSD_CSD_MATRIX_WIDGET_EN | CSD_CSD_TOUCHPAD_WIDGET_EN)
1665:Generated_Source\PSoC4/CSD_Sensing.c ****                     if ((CSD_WD_TOUCHPAD_E == (CSD_WD_TYPE_ENUM)CSD_dsFlash.wdgtArray[(wdgtIndex)].
1666:Generated_Source\PSoC4/CSD_Sensing.c ****                         (CSD_WD_MATRIX_BUTTON_E == (CSD_WD_TYPE_ENUM)CSD_dsFlash.wdgtArray[(wdgtInd
1667:Generated_Source\PSoC4/CSD_Sensing.c ****                     {
1668:Generated_Source\PSoC4/CSD_Sensing.c ****                         /* Get pointer to Modulator IDAC for columns */
1669:Generated_Source\PSoC4/CSD_Sensing.c ****                         autoTuneConfig.ptrModIDAC = &ptrWdgt->rowIdacMod[0u];
1670:Generated_Source\PSoC4/CSD_Sensing.c **** 
1671:Generated_Source\PSoC4/CSD_Sensing.c ****                         /* Get pointer to Sense Clock Divider for columns */
1672:Generated_Source\PSoC4/CSD_Sensing.c ****                         autoTuneConfig.ptrSenseClk = &ptrWdgt->rowSnsClk;
1673:Generated_Source\PSoC4/CSD_Sensing.c **** 
1674:Generated_Source\PSoC4/CSD_Sensing.c ****                         /* Find correct sense clock value */
1675:Generated_Source\PSoC4/CSD_Sensing.c ****                         cpRow = SmartSense_TunePrescalers(&autoTuneConfig);
1676:Generated_Source\PSoC4/CSD_Sensing.c **** 
1677:Generated_Source\PSoC4/CSD_Sensing.c ****                         if ((CSD_CP_MAX + CSD_CP_ERROR) <= cpRow)
1678:Generated_Source\PSoC4/CSD_Sensing.c ****                         {
1679:Generated_Source\PSoC4/CSD_Sensing.c ****                             autoTuneStatus = CYRET_BAD_DATA;
1680:Generated_Source\PSoC4/CSD_Sensing.c ****                         }
1681:Generated_Source\PSoC4/CSD_Sensing.c **** 
1682:Generated_Source\PSoC4/CSD_Sensing.c ****                         #if (CSD_ENABLE == CSD_CSDV2)
1683:Generated_Source\PSoC4/CSD_Sensing.c ****                             /* Make sure that ModClk >= 4 * rowSnsClk for ModClk <= 12 MHz and rowS
1684:Generated_Source\PSoC4/CSD_Sensing.c ****                             if (autoTuneConfig.snsClkInputClock <= CSD_MOD_CSD_CLK_24000KHZ)
1685:Generated_Source\PSoC4/CSD_Sensing.c ****                             {
1686:Generated_Source\PSoC4/CSD_Sensing.c ****                                 if (ptrWdgt->rowSnsClk < CSD_FACTOR_FILTER_DELAY_12MHZ)
1687:Generated_Source\PSoC4/CSD_Sensing.c ****                                 {
1688:Generated_Source\PSoC4/CSD_Sensing.c ****                                     ptrWdgt->rowSnsClk = CSD_FACTOR_FILTER_DELAY_12MHZ;
1689:Generated_Source\PSoC4/CSD_Sensing.c ****                                 }
1690:Generated_Source\PSoC4/CSD_Sensing.c ****                             }
1691:Generated_Source\PSoC4/CSD_Sensing.c ****                             else if (autoTuneConfig.snsClkInputClock <= CSD_MOD_CSD_CLK_48000KHZ)
1692:Generated_Source\PSoC4/CSD_Sensing.c ****                             {
1693:Generated_Source\PSoC4/CSD_Sensing.c ****                                 if (ptrWdgt->rowSnsClk < CSD_FACTOR_MOD_SNS)
1694:Generated_Source\PSoC4/CSD_Sensing.c ****                                 {
1695:Generated_Source\PSoC4/CSD_Sensing.c ****                                     ptrWdgt->rowSnsClk = CSD_FACTOR_MOD_SNS;
1696:Generated_Source\PSoC4/CSD_Sensing.c ****                                 }
1697:Generated_Source\PSoC4/CSD_Sensing.c ****                             }
1698:Generated_Source\PSoC4/CSD_Sensing.c ****                             else
1699:Generated_Source\PSoC4/CSD_Sensing.c ****                             {
1700:Generated_Source\PSoC4/CSD_Sensing.c ****                                 /* rowSnsClk is valid*/
1701:Generated_Source\PSoC4/CSD_Sensing.c ****                             }
1702:Generated_Source\PSoC4/CSD_Sensing.c ****                         #else
1703:Generated_Source\PSoC4/CSD_Sensing.c ****                             #if (CSD_ENABLE == CSD_IS_M0S8PERI_BLOCK)
1704:Generated_Source\PSoC4/CSD_Sensing.c ****                                 /* Make sure that ModClk >= 2 * rowSnsClk */
1705:Generated_Source\PSoC4/CSD_Sensing.c ****                                 if (CSD_dsRam.modCsdClk >= ((uint8)(ptrWdgt->rowSnsClk << CSD_FLIP_
1706:Generated_Source\PSoC4/CSD_Sensing.c ****                                 {
1707:Generated_Source\PSoC4/CSD_Sensing.c ****                                      ptrWdgt->rowSnsClk = CSD_dsRam.modCsdClk;
ARM GAS  C:\Users\CHRIST~1\AppData\Local\Temp\ccIPpNky.s 			page 46


1708:Generated_Source\PSoC4/CSD_Sensing.c ****                                 }
1709:Generated_Source\PSoC4/CSD_Sensing.c ****                             #else
1710:Generated_Source\PSoC4/CSD_Sensing.c ****                                 /* Sense clock never equals to Modulator clock for chained dividers
1711:Generated_Source\PSoC4/CSD_Sensing.c ****                             #endif /* (CSD_ENABLE == CSD_CSDV2) */
1712:Generated_Source\PSoC4/CSD_Sensing.c ****                         #endif /* (CSD_ENABLE == CSD_CSDV2) */
1713:Generated_Source\PSoC4/CSD_Sensing.c ****                     }
1714:Generated_Source\PSoC4/CSD_Sensing.c ****                 #endif /* (CSD_CSD_MATRIX_WIDGET_EN | CSD_CSD_TOUCHPAD_WIDGET_EN) */
1715:Generated_Source\PSoC4/CSD_Sensing.c **** 
1716:Generated_Source\PSoC4/CSD_Sensing.c ****                 /* Get pointer to Modulator IDAC  for rows */
1717:Generated_Source\PSoC4/CSD_Sensing.c ****                 autoTuneConfig.ptrModIDAC = &ptrWdgt->idacMod[0u];
1718:Generated_Source\PSoC4/CSD_Sensing.c **** 
1719:Generated_Source\PSoC4/CSD_Sensing.c ****                 /* Get pointer to Sense Clock Divider for columns */
1720:Generated_Source\PSoC4/CSD_Sensing.c ****                 autoTuneConfig.ptrSenseClk = &ptrWdgt->snsClk;
1721:Generated_Source\PSoC4/CSD_Sensing.c **** 
1722:Generated_Source\PSoC4/CSD_Sensing.c ****                 /* Find correct sense clock value */
1723:Generated_Source\PSoC4/CSD_Sensing.c ****                 cp = SmartSense_TunePrescalers(&autoTuneConfig);
1724:Generated_Source\PSoC4/CSD_Sensing.c **** 
1725:Generated_Source\PSoC4/CSD_Sensing.c ****                 if ((CSD_CP_MAX + CSD_CP_ERROR) <= cp)
1726:Generated_Source\PSoC4/CSD_Sensing.c ****                 {
1727:Generated_Source\PSoC4/CSD_Sensing.c ****                     autoTuneStatus = CYRET_BAD_DATA;
1728:Generated_Source\PSoC4/CSD_Sensing.c ****                 }
1729:Generated_Source\PSoC4/CSD_Sensing.c **** 
1730:Generated_Source\PSoC4/CSD_Sensing.c ****                 #if (CSD_ENABLE == CSD_CSDV2)
1731:Generated_Source\PSoC4/CSD_Sensing.c ****                     /* Make sure that ModClk >= 4 * SnsClk for ModClk <= 12 MHz and SnsClk <= 6MHz 
1732:Generated_Source\PSoC4/CSD_Sensing.c ****                     if (autoTuneConfig.snsClkInputClock <= CSD_MOD_CSD_CLK_24000KHZ)
1733:Generated_Source\PSoC4/CSD_Sensing.c ****                     {
1734:Generated_Source\PSoC4/CSD_Sensing.c ****                         if (ptrWdgt->snsClk < CSD_FACTOR_FILTER_DELAY_12MHZ)
1735:Generated_Source\PSoC4/CSD_Sensing.c ****                         {
1736:Generated_Source\PSoC4/CSD_Sensing.c ****                             ptrWdgt->snsClk = CSD_FACTOR_FILTER_DELAY_12MHZ;
1737:Generated_Source\PSoC4/CSD_Sensing.c ****                         }
1738:Generated_Source\PSoC4/CSD_Sensing.c ****                     }
1739:Generated_Source\PSoC4/CSD_Sensing.c ****                     else if (autoTuneConfig.snsClkInputClock <= CSD_MOD_CSD_CLK_48000KHZ)
1740:Generated_Source\PSoC4/CSD_Sensing.c ****                     {
1741:Generated_Source\PSoC4/CSD_Sensing.c ****                         if (ptrWdgt->snsClk < CSD_FACTOR_MOD_SNS)
1742:Generated_Source\PSoC4/CSD_Sensing.c ****                         {
1743:Generated_Source\PSoC4/CSD_Sensing.c ****                             ptrWdgt->snsClk = CSD_FACTOR_MOD_SNS;
1744:Generated_Source\PSoC4/CSD_Sensing.c ****                         }
1745:Generated_Source\PSoC4/CSD_Sensing.c ****                     }
1746:Generated_Source\PSoC4/CSD_Sensing.c ****                     else
1747:Generated_Source\PSoC4/CSD_Sensing.c ****                     {
1748:Generated_Source\PSoC4/CSD_Sensing.c ****                         /* SnsClk is valid*/
1749:Generated_Source\PSoC4/CSD_Sensing.c ****                     }
1750:Generated_Source\PSoC4/CSD_Sensing.c ****                 #else
1751:Generated_Source\PSoC4/CSD_Sensing.c ****                     #if (CSD_ENABLE == CSD_IS_M0S8PERI_BLOCK)
1752:Generated_Source\PSoC4/CSD_Sensing.c ****                         /* Make sure that ModClk >= 2 * snsClk */
1753:Generated_Source\PSoC4/CSD_Sensing.c ****                         if (CSD_dsRam.modCsdClk >= ((uint8)(ptrWdgt->snsClk << CSD_FLIP_FLOP_DIV)))
1754:Generated_Source\PSoC4/CSD_Sensing.c ****                         {
1755:Generated_Source\PSoC4/CSD_Sensing.c ****                              ptrWdgt->snsClk = CSD_dsRam.modCsdClk;
1756:Generated_Source\PSoC4/CSD_Sensing.c ****                         }
1757:Generated_Source\PSoC4/CSD_Sensing.c ****                     #else
1758:Generated_Source\PSoC4/CSD_Sensing.c ****                         /* Sense clock never equals to Modulator clock for chained dividers because
1759:Generated_Source\PSoC4/CSD_Sensing.c ****                     #endif /* (CSD_ENABLE == CSD_CSDV2) */
1760:Generated_Source\PSoC4/CSD_Sensing.c ****                 #endif /* (CSD_ENABLE == CSD_CSDV2) */
1761:Generated_Source\PSoC4/CSD_Sensing.c **** 
1762:Generated_Source\PSoC4/CSD_Sensing.c ****                 /* Set flag to indicate that calibration in PWM mode has been performed */
1763:Generated_Source\PSoC4/CSD_Sensing.c ****                 CSD_prescalersTuningDone = 1u;
1764:Generated_Source\PSoC4/CSD_Sensing.c **** 
ARM GAS  C:\Users\CHRIST~1\AppData\Local\Temp\ccIPpNky.s 			page 47


1765:Generated_Source\PSoC4/CSD_Sensing.c ****                 /* Multiply Clk divider to 2 for PRS mode to take into account average PRS frequenc
1766:Generated_Source\PSoC4/CSD_Sensing.c ****                 autoTuneConfig.prsFactor = CSD_PRS_FACTOR_DIV;
1767:Generated_Source\PSoC4/CSD_Sensing.c **** 
1768:Generated_Source\PSoC4/CSD_Sensing.c ****                 #if (CSD_CLK_SOURCE_PRSAUTO == CSD_CSD_SNS_CLK_SOURCE)
1769:Generated_Source\PSoC4/CSD_Sensing.c ****                     CSD_SsSetWidgetSenseClkSrc(wdgtIndex, ptrWdgt);
1770:Generated_Source\PSoC4/CSD_Sensing.c ****                 #endif /* (CSD_CLK_SOURCE_PRSAUTO == CSD_CSD_SNS_CLK_SOURCE) */
1771:Generated_Source\PSoC4/CSD_Sensing.c **** 
1772:Generated_Source\PSoC4/CSD_Sensing.c ****                 #if (CSD_DISABLE == CSD_CSD2X_EN)
1773:Generated_Source\PSoC4/CSD_Sensing.c ****                     /* Calibrate CSD widget to 85% */
1774:Generated_Source\PSoC4/CSD_Sensing.c ****                     autoTuneStatus |= CSD_CSDCalibrateWidget(wdgtIndex, CSD_CSD_AUTOTUNE_CAL_LEVEL)
1775:Generated_Source\PSoC4/CSD_Sensing.c ****                 #endif /* (CSD_DISABLE == CSD_CSD2X_EN) */
1776:Generated_Source\PSoC4/CSD_Sensing.c **** 
1777:Generated_Source\PSoC4/CSD_Sensing.c ****                 /* Set parasitic capacitance for columns */
1778:Generated_Source\PSoC4/CSD_Sensing.c ****                 autoTuneConfig.sensorCap = cp;
1779:Generated_Source\PSoC4/CSD_Sensing.c **** 
1780:Generated_Source\PSoC4/CSD_Sensing.c ****                 #if (CSD_CSD_MATRIX_WIDGET_EN | CSD_CSD_TOUCHPAD_WIDGET_EN)
1781:Generated_Source\PSoC4/CSD_Sensing.c ****                     if ((CSD_WD_TOUCHPAD_E == (CSD_WD_TYPE_ENUM)CSD_dsFlash.wdgtArray[(wdgtIndex)].
1782:Generated_Source\PSoC4/CSD_Sensing.c ****                         (CSD_WD_MATRIX_BUTTON_E == (CSD_WD_TYPE_ENUM)CSD_dsFlash.wdgtArray[(wdgtInd
1783:Generated_Source\PSoC4/CSD_Sensing.c ****                     {
1784:Generated_Source\PSoC4/CSD_Sensing.c ****                         /* Set the minimum sense clock frequency to calculate the resolution */
1785:Generated_Source\PSoC4/CSD_Sensing.c ****                         if (ptrWdgt->snsClk < ptrWdgt->rowSnsClk)
1786:Generated_Source\PSoC4/CSD_Sensing.c ****                         {
1787:Generated_Source\PSoC4/CSD_Sensing.c ****                             /* Rewrite pointer to Sense Clock Divider for rows */
1788:Generated_Source\PSoC4/CSD_Sensing.c ****                             autoTuneConfig.ptrSenseClk = &ptrWdgt->rowSnsClk;
1789:Generated_Source\PSoC4/CSD_Sensing.c **** 
1790:Generated_Source\PSoC4/CSD_Sensing.c ****                             /* Set parasitic capacitance for rows */
1791:Generated_Source\PSoC4/CSD_Sensing.c ****                             autoTuneConfig.sensorCap = cpRow;
1792:Generated_Source\PSoC4/CSD_Sensing.c ****                         }
1793:Generated_Source\PSoC4/CSD_Sensing.c ****                     }
1794:Generated_Source\PSoC4/CSD_Sensing.c ****                 #endif /* (CSD_CSD_MATRIX_WIDGET_EN | CSD_CSD_TOUCHPAD_WIDGET_EN) */
1795:Generated_Source\PSoC4/CSD_Sensing.c **** 
1796:Generated_Source\PSoC4/CSD_Sensing.c ****                 /* Find resolution */
1797:Generated_Source\PSoC4/CSD_Sensing.c ****                 ptrWdgt->resolution = SmartSense_TuneSensitivity(&autoTuneConfig);
1798:Generated_Source\PSoC4/CSD_Sensing.c **** 
1799:Generated_Source\PSoC4/CSD_Sensing.c ****                 #if (CSD_CLK_SOURCE_PRSAUTO == CSD_CSD_SNS_CLK_SOURCE)
1800:Generated_Source\PSoC4/CSD_Sensing.c ****                     CSD_SsSetWidgetSenseClkSrc(wdgtIndex, ptrWdgt);
1801:Generated_Source\PSoC4/CSD_Sensing.c **** 
1802:Generated_Source\PSoC4/CSD_Sensing.c ****                     #if (CSD_CSD_MATRIX_WIDGET_EN | CSD_CSD_TOUCHPAD_WIDGET_EN)
1803:Generated_Source\PSoC4/CSD_Sensing.c ****                         if (((uint8)CSD_CLK_SOURCE_DIRECT == ptrWdgt->snsClkSource) ||
1804:Generated_Source\PSoC4/CSD_Sensing.c ****                             ((uint8)CSD_CLK_SOURCE_DIRECT == ptrWdgt->rowSnsClkSource))
1805:Generated_Source\PSoC4/CSD_Sensing.c ****                         {
1806:Generated_Source\PSoC4/CSD_Sensing.c ****                             /* Recalibrate CSD widget to 85% becasue source is changed to direct */
1807:Generated_Source\PSoC4/CSD_Sensing.c ****                             autoTuneStatus |= CSD_CSDCalibrateWidget(wdgtIndex, CSD_CSD_AUTOTUNE_CA
1808:Generated_Source\PSoC4/CSD_Sensing.c ****                         }
1809:Generated_Source\PSoC4/CSD_Sensing.c ****                     #else
1810:Generated_Source\PSoC4/CSD_Sensing.c ****                         if ((uint8)CSD_CLK_SOURCE_DIRECT == ptrWdgt->snsClkSource)
1811:Generated_Source\PSoC4/CSD_Sensing.c ****                         {
1812:Generated_Source\PSoC4/CSD_Sensing.c ****                             /* Recalibrate CSD widget to 85% becasue source is changed to direct */
1813:Generated_Source\PSoC4/CSD_Sensing.c ****                             autoTuneStatus |= CSD_CSDCalibrateWidget(wdgtIndex, CSD_CSD_AUTOTUNE_CA
1814:Generated_Source\PSoC4/CSD_Sensing.c ****                         }
1815:Generated_Source\PSoC4/CSD_Sensing.c ****                     #endif /* (CSD_CSD_MATRIX_WIDGET_EN | CSD_CSD_TOUCHPAD_WIDGET_EN) */
1816:Generated_Source\PSoC4/CSD_Sensing.c ****                 #endif /* (CSD_CLK_SOURCE_PRSAUTO == CSD_CSD_SNS_CLK_SOURCE) */
1817:Generated_Source\PSoC4/CSD_Sensing.c ****             }
1818:Generated_Source\PSoC4/CSD_Sensing.c ****         }
1819:Generated_Source\PSoC4/CSD_Sensing.c ****         return autoTuneStatus;
1820:Generated_Source\PSoC4/CSD_Sensing.c ****     }
1821:Generated_Source\PSoC4/CSD_Sensing.c **** #endif /* (CSD_CSD_SS_DIS != CSD_CSD_AUTOTUNE)) */
ARM GAS  C:\Users\CHRIST~1\AppData\Local\Temp\ccIPpNky.s 			page 48


1822:Generated_Source\PSoC4/CSD_Sensing.c **** 
1823:Generated_Source\PSoC4/CSD_Sensing.c **** 
1824:Generated_Source\PSoC4/CSD_Sensing.c **** #if (CSD_DISABLE == CSD_CSDV2)
1825:Generated_Source\PSoC4/CSD_Sensing.c ****     #if ((CSD_ENABLE == CSD_CSX_EN) || \
1826:Generated_Source\PSoC4/CSD_Sensing.c ****          (CSD_IDAC_SINKING == CSD_CSD_IDAC_CONFIG))
1827:Generated_Source\PSoC4/CSD_Sensing.c ****         /*******************************************************************************
1828:Generated_Source\PSoC4/CSD_Sensing.c ****         * Function Name: CSD_SsTrimIdacsSinking
1829:Generated_Source\PSoC4/CSD_Sensing.c ****         ****************************************************************************//**
1830:Generated_Source\PSoC4/CSD_Sensing.c ****         *
1831:Generated_Source\PSoC4/CSD_Sensing.c ****         * \brief
1832:Generated_Source\PSoC4/CSD_Sensing.c ****         *  This function loads trim values from SFLASH rows to calibrate
1833:Generated_Source\PSoC4/CSD_Sensing.c ****         *  IDAC1 and IDAC2 for Sinking CSD Mode
1834:Generated_Source\PSoC4/CSD_Sensing.c ****         *
1835:Generated_Source\PSoC4/CSD_Sensing.c ****         * \details
1836:Generated_Source\PSoC4/CSD_Sensing.c ****         *  Function reads trim value from SFLASH and loads it into IDAC trim register.
1837:Generated_Source\PSoC4/CSD_Sensing.c ****         *  If Compensation IDAC is disabled the function loads trim values for IDAC1 only.
1838:Generated_Source\PSoC4/CSD_Sensing.c ****         *
1839:Generated_Source\PSoC4/CSD_Sensing.c ****         *******************************************************************************/
1840:Generated_Source\PSoC4/CSD_Sensing.c ****         static void CSD_SsTrimIdacsSinking(void)
1841:Generated_Source\PSoC4/CSD_Sensing.c ****         {
1842:Generated_Source\PSoC4/CSD_Sensing.c ****             uint32 trimValue;
1843:Generated_Source\PSoC4/CSD_Sensing.c **** 
1844:Generated_Source\PSoC4/CSD_Sensing.c ****             /* iDAC1 Sinking Mode */
1845:Generated_Source\PSoC4/CSD_Sensing.c ****             trimValue = CY_GET_REG32(CSD_TRIM2_PTR) & ~CSD_IDAC_TRIM2_MOD_SNK_MASK;
1846:Generated_Source\PSoC4/CSD_Sensing.c ****             trimValue |= ((uint32)CY_GET_REG8(CSD_SFLASH_TRIM2_PTR) &
1847:Generated_Source\PSoC4/CSD_Sensing.c ****                                                       CSD_SFLASH_TRIM_IDAC_MOD_MASK) ;
1848:Generated_Source\PSoC4/CSD_Sensing.c **** 
1849:Generated_Source\PSoC4/CSD_Sensing.c ****             #if (CSD_ENABLE == CSD_CSD_IDAC_COMP_EN)
1850:Generated_Source\PSoC4/CSD_Sensing.c ****                 /* iDAC2 Sinking Mode */
1851:Generated_Source\PSoC4/CSD_Sensing.c ****                 trimValue &= ~CSD_IDAC_TRIM2_COMP_SNK_MASK;
1852:Generated_Source\PSoC4/CSD_Sensing.c ****                 trimValue |= ((uint32)CY_GET_REG8(CSD_SFLASH_TRIM2_PTR) &
1853:Generated_Source\PSoC4/CSD_Sensing.c ****                                                           CSD_SFLASH_TRIM_IDAC_COMP_MASK);
1854:Generated_Source\PSoC4/CSD_Sensing.c ****             #endif /* (CSD_ENABLE == CSD_CSD_IDAC_COMP_EN) */
1855:Generated_Source\PSoC4/CSD_Sensing.c **** 
1856:Generated_Source\PSoC4/CSD_Sensing.c ****             /* Update IDAC trim bits for gain control in current sink mode */
1857:Generated_Source\PSoC4/CSD_Sensing.c ****             CY_SET_REG32(CSD_TRIM2_PTR, trimValue);
1858:Generated_Source\PSoC4/CSD_Sensing.c ****         }
1859:Generated_Source\PSoC4/CSD_Sensing.c ****     #endif /* ((CSD_ENABLE == CSD_CSX_EN) || \
1860:Generated_Source\PSoC4/CSD_Sensing.c ****                (CSD_IDAC_SINKING == CSD_CSD_IDAC_CONFIG)) */
1861:Generated_Source\PSoC4/CSD_Sensing.c **** 
1862:Generated_Source\PSoC4/CSD_Sensing.c **** 
1863:Generated_Source\PSoC4/CSD_Sensing.c ****     #if ((CSD_ENABLE == CSD_CSX_EN) || \
1864:Generated_Source\PSoC4/CSD_Sensing.c ****          (CSD_IDAC_SOURCING == CSD_CSD_IDAC_CONFIG))
1865:Generated_Source\PSoC4/CSD_Sensing.c ****         /*******************************************************************************
1866:Generated_Source\PSoC4/CSD_Sensing.c ****         * Function Name: CSD_SsTrimIdacsSourcing
1867:Generated_Source\PSoC4/CSD_Sensing.c ****         ****************************************************************************//**
1868:Generated_Source\PSoC4/CSD_Sensing.c ****         *
1869:Generated_Source\PSoC4/CSD_Sensing.c ****         * \brief
1870:Generated_Source\PSoC4/CSD_Sensing.c ****         *  This function loads trim values from SFLASH rows to calibrate
1871:Generated_Source\PSoC4/CSD_Sensing.c ****         *  IDAC1 and IDAC2 for Sourcing CSD Mode
1872:Generated_Source\PSoC4/CSD_Sensing.c ****         *
1873:Generated_Source\PSoC4/CSD_Sensing.c ****         * \details
1874:Generated_Source\PSoC4/CSD_Sensing.c ****         *  Function reads trim value from SFLASH and loads it into IDAC trim register.
1875:Generated_Source\PSoC4/CSD_Sensing.c ****         *  If Compensation IDAC is disabled the function loads trim values for IDAC1 only.
1876:Generated_Source\PSoC4/CSD_Sensing.c ****         *
1877:Generated_Source\PSoC4/CSD_Sensing.c ****         *******************************************************************************/
1878:Generated_Source\PSoC4/CSD_Sensing.c ****         static void CSD_SsTrimIdacsSourcing(void)
ARM GAS  C:\Users\CHRIST~1\AppData\Local\Temp\ccIPpNky.s 			page 49


1879:Generated_Source\PSoC4/CSD_Sensing.c ****         {
1880:Generated_Source\PSoC4/CSD_Sensing.c ****             uint32 trimValue;
1881:Generated_Source\PSoC4/CSD_Sensing.c **** 
1882:Generated_Source\PSoC4/CSD_Sensing.c ****             /* iDAC1 Sourcing Mode */
1883:Generated_Source\PSoC4/CSD_Sensing.c ****             trimValue = CY_GET_REG32(CSD_TRIM1_PTR) & ~CSD_IDAC_TRIM1_MOD_SRC_MASK;
1884:Generated_Source\PSoC4/CSD_Sensing.c ****             trimValue |= ((uint32)CY_GET_REG8(CSD_SFLASH_TRIM1_PTR) &
1885:Generated_Source\PSoC4/CSD_Sensing.c ****                                                       CSD_SFLASH_TRIM_IDAC_MOD_MASK);
1886:Generated_Source\PSoC4/CSD_Sensing.c **** 
1887:Generated_Source\PSoC4/CSD_Sensing.c ****             #if (CSD_ENABLE == CSD_CSD_IDAC_COMP_EN)
1888:Generated_Source\PSoC4/CSD_Sensing.c ****                  /* iDAC2 Sourcing Mode */
1889:Generated_Source\PSoC4/CSD_Sensing.c ****                 trimValue &= ~CSD_IDAC_TRIM1_COMP_SRC_MASK;
1890:Generated_Source\PSoC4/CSD_Sensing.c ****                 trimValue |= ((uint32)CY_GET_REG8(CSD_SFLASH_TRIM1_PTR) &
1891:Generated_Source\PSoC4/CSD_Sensing.c ****                                                           CSD_SFLASH_TRIM_IDAC_COMP_MASK);
1892:Generated_Source\PSoC4/CSD_Sensing.c ****             #endif /* (CSD_ENABLE == CSD_CSD_IDAC_COMP_EN) */
1893:Generated_Source\PSoC4/CSD_Sensing.c **** 
1894:Generated_Source\PSoC4/CSD_Sensing.c ****             /* Update IDAC trim bits for gain control in current source mode */
1895:Generated_Source\PSoC4/CSD_Sensing.c ****             CY_SET_REG32(CSD_TRIM1_PTR, trimValue);
1896:Generated_Source\PSoC4/CSD_Sensing.c ****         }
1897:Generated_Source\PSoC4/CSD_Sensing.c ****     #endif /* ((CSD_ENABLE == CSD_CSX_EN) || \
1898:Generated_Source\PSoC4/CSD_Sensing.c ****                (CSD_IDAC_SOURCING == CSD_CSD_IDAC_CONFIG))  */
1899:Generated_Source\PSoC4/CSD_Sensing.c **** 
1900:Generated_Source\PSoC4/CSD_Sensing.c ****     /*******************************************************************************
1901:Generated_Source\PSoC4/CSD_Sensing.c ****     * Function Name: CSD_SsTrimIdacs
1902:Generated_Source\PSoC4/CSD_Sensing.c ****     ****************************************************************************//**
1903:Generated_Source\PSoC4/CSD_Sensing.c ****     *
1904:Generated_Source\PSoC4/CSD_Sensing.c ****     * \brief
1905:Generated_Source\PSoC4/CSD_Sensing.c ****     *  This function loads trim values from SFLASH rows to calibrate
1906:Generated_Source\PSoC4/CSD_Sensing.c ****     *  IDAC1 and IDAC2 for CSD Mode
1907:Generated_Source\PSoC4/CSD_Sensing.c ****     *
1908:Generated_Source\PSoC4/CSD_Sensing.c ****     * \details
1909:Generated_Source\PSoC4/CSD_Sensing.c ****     *  If CSX mode is enabled the function loads trim values for both sink and source
1910:Generated_Source\PSoC4/CSD_Sensing.c ****     *  mode. If CSX mode is disabled the function loads trim values for sink or
1911:Generated_Source\PSoC4/CSD_Sensing.c ****     *  source mode based on sink/source mode configuration.
1912:Generated_Source\PSoC4/CSD_Sensing.c ****     *  If Compensation IDAC is disabled the function loads trim values for IDAC1 only.
1913:Generated_Source\PSoC4/CSD_Sensing.c ****     *
1914:Generated_Source\PSoC4/CSD_Sensing.c ****     *******************************************************************************/
1915:Generated_Source\PSoC4/CSD_Sensing.c ****     static void CSD_SsTrimIdacs(void)
1916:Generated_Source\PSoC4/CSD_Sensing.c ****     {
1917:Generated_Source\PSoC4/CSD_Sensing.c ****         #if (CSD_ENABLE == CSD_CSX_EN)
1918:Generated_Source\PSoC4/CSD_Sensing.c ****             CSD_SsTrimIdacsSinking();
1919:Generated_Source\PSoC4/CSD_Sensing.c ****             CSD_SsTrimIdacsSourcing();
1920:Generated_Source\PSoC4/CSD_Sensing.c ****         #elif (CSD_IDAC_SINKING == CSD_CSD_IDAC_CONFIG)
1921:Generated_Source\PSoC4/CSD_Sensing.c ****             CSD_SsTrimIdacsSinking();
1922:Generated_Source\PSoC4/CSD_Sensing.c ****         #elif (CSD_IDAC_SOURCING == CSD_CSD_IDAC_CONFIG)
1923:Generated_Source\PSoC4/CSD_Sensing.c ****             CSD_SsTrimIdacsSourcing();
1924:Generated_Source\PSoC4/CSD_Sensing.c ****         #else
1925:Generated_Source\PSoC4/CSD_Sensing.c ****             #error "Not supported Mode, component cannot work in this mode"
1926:Generated_Source\PSoC4/CSD_Sensing.c ****         #endif /* (CSD_ENABLE == CSD_CSX_EN) */
1927:Generated_Source\PSoC4/CSD_Sensing.c ****     }
1928:Generated_Source\PSoC4/CSD_Sensing.c **** #endif  /* (CSD_DISABLE == CSD_CSDV2) */
1929:Generated_Source\PSoC4/CSD_Sensing.c **** 
1930:Generated_Source\PSoC4/CSD_Sensing.c **** 
1931:Generated_Source\PSoC4/CSD_Sensing.c **** #if (CSD_ENABLE == CSD_MULTI_FREQ_SCAN_EN)
1932:Generated_Source\PSoC4/CSD_Sensing.c ****     /*******************************************************************************
1933:Generated_Source\PSoC4/CSD_Sensing.c ****     * Function Name: CSD_SsChangeImoFreq
1934:Generated_Source\PSoC4/CSD_Sensing.c ****     ****************************************************************************//**
1935:Generated_Source\PSoC4/CSD_Sensing.c ****     *
ARM GAS  C:\Users\CHRIST~1\AppData\Local\Temp\ccIPpNky.s 			page 50


1936:Generated_Source\PSoC4/CSD_Sensing.c ****     * \brief
1937:Generated_Source\PSoC4/CSD_Sensing.c ****     *  This function changes the IMO frequency.
1938:Generated_Source\PSoC4/CSD_Sensing.c ****     *
1939:Generated_Source\PSoC4/CSD_Sensing.c ****     * \details
1940:Generated_Source\PSoC4/CSD_Sensing.c ****     *   The IMO frequency can have three offsets: 0%, -5% and +5%. The frequency
1941:Generated_Source\PSoC4/CSD_Sensing.c ****     *   trims are contained in the CSD_immunity[value] array for each
1942:Generated_Source\PSoC4/CSD_Sensing.c ****     *   frequency channel.
1943:Generated_Source\PSoC4/CSD_Sensing.c ****     *
1944:Generated_Source\PSoC4/CSD_Sensing.c ****     * \param value The frequency channel ID.
1945:Generated_Source\PSoC4/CSD_Sensing.c ****     *
1946:Generated_Source\PSoC4/CSD_Sensing.c ****     *******************************************************************************/
1947:Generated_Source\PSoC4/CSD_Sensing.c ****     void CSD_SsChangeImoFreq(uint32 value)
1948:Generated_Source\PSoC4/CSD_Sensing.c ****     {
1949:Generated_Source\PSoC4/CSD_Sensing.c ****         CY_SET_REG32(CY_SYS_CLK_IMO_TRIM1_PTR, CSD_immunity[value]);
1950:Generated_Source\PSoC4/CSD_Sensing.c ****     }
1951:Generated_Source\PSoC4/CSD_Sensing.c **** #endif  /* (CSD_ENABLE == CSD_MULTI_FREQ_SCAN_EN) */
1952:Generated_Source\PSoC4/CSD_Sensing.c **** 
1953:Generated_Source\PSoC4/CSD_Sensing.c **** 
1954:Generated_Source\PSoC4/CSD_Sensing.c **** #if((CSD_ENABLE == CSD_CSD_EN) ||\
1955:Generated_Source\PSoC4/CSD_Sensing.c ****     ((CSD_ENABLE == CSD_CSX_EN) && (CSD_ENABLE == CSD_CSDV2)))
1956:Generated_Source\PSoC4/CSD_Sensing.c **** /*******************************************************************************
1957:Generated_Source\PSoC4/CSD_Sensing.c **** * Function Name: CSD_SsInitializeSourceSenseClk
1958:Generated_Source\PSoC4/CSD_Sensing.c **** ****************************************************************************//**
1959:Generated_Source\PSoC4/CSD_Sensing.c **** *
1960:Generated_Source\PSoC4/CSD_Sensing.c **** * \brief
1961:Generated_Source\PSoC4/CSD_Sensing.c **** *  Sets a source for Sense Clk for all CSD widgets.
1962:Generated_Source\PSoC4/CSD_Sensing.c **** *
1963:Generated_Source\PSoC4/CSD_Sensing.c **** * \details
1964:Generated_Source\PSoC4/CSD_Sensing.c **** *  Updates snsClkSource and rowSnsClkSource with a source for the sense Clk.
1965:Generated_Source\PSoC4/CSD_Sensing.c **** *  for all CSD widgets.
1966:Generated_Source\PSoC4/CSD_Sensing.c **** *
1967:Generated_Source\PSoC4/CSD_Sensing.c **** *******************************************************************************/
1968:Generated_Source\PSoC4/CSD_Sensing.c **** void CSD_SsInitializeSourceSenseClk(void)
1969:Generated_Source\PSoC4/CSD_Sensing.c **** {
 836              		.loc 1 1969 0
 837              		.cfi_startproc
 838 0000 80B5     		push	{r7, lr}
 839              		.cfi_def_cfa_offset 8
 840              		.cfi_offset 7, -8
 841              		.cfi_offset 14, -4
 842 0002 82B0     		sub	sp, sp, #8
 843              		.cfi_def_cfa_offset 16
 844 0004 00AF     		add	r7, sp, #0
 845              		.cfi_def_cfa_register 7
1970:Generated_Source\PSoC4/CSD_Sensing.c ****     uint32 wdgtIndex;
1971:Generated_Source\PSoC4/CSD_Sensing.c ****     CSD_RAM_WD_BASE_STRUCT *ptrWdgt;
1972:Generated_Source\PSoC4/CSD_Sensing.c **** 
1973:Generated_Source\PSoC4/CSD_Sensing.c ****     for (wdgtIndex = 0u; wdgtIndex < CSD_TOTAL_WIDGETS; wdgtIndex++)
 846              		.loc 1 1973 0
 847 0006 0023     		mov	r3, #0
 848 0008 7B60     		str	r3, [r7, #4]
 849 000a 11E0     		b	.L57
 850              	.L58:
1974:Generated_Source\PSoC4/CSD_Sensing.c ****     {
1975:Generated_Source\PSoC4/CSD_Sensing.c ****         ptrWdgt = (CSD_RAM_WD_BASE_STRUCT *)CSD_dsFlash.wdgtArray[wdgtIndex].ptr2WdgtRam;
 851              		.loc 1 1975 0
 852 000c 0B49     		ldr	r1, .L59
ARM GAS  C:\Users\CHRIST~1\AppData\Local\Temp\ccIPpNky.s 			page 51


 853 000e 7A68     		ldr	r2, [r7, #4]
 854 0010 131C     		mov	r3, r2
 855 0012 DB00     		lsl	r3, r3, #3
 856 0014 9B1A     		sub	r3, r3, r2
 857 0016 9B00     		lsl	r3, r3, #2
 858 0018 CB18     		add	r3, r1, r3
 859 001a 5B68     		ldr	r3, [r3, #4]
 860 001c 3B60     		str	r3, [r7]
1976:Generated_Source\PSoC4/CSD_Sensing.c ****         if (CSD_SENSE_METHOD_CSD_E ==
1977:Generated_Source\PSoC4/CSD_Sensing.c ****         (CSD_SENSE_METHOD_ENUM)CSD_GET_SENSE_METHOD(&CSD_dsFlash.wdgtArray[wdgtIndex]))
1978:Generated_Source\PSoC4/CSD_Sensing.c ****         {
1979:Generated_Source\PSoC4/CSD_Sensing.c ****             #if (CSD_ENABLE == CSD_CSD_EN)
1980:Generated_Source\PSoC4/CSD_Sensing.c ****                 CSD_SsSetWidgetSenseClkSrc(wdgtIndex, ptrWdgt);
 861              		.loc 1 1980 0
 862 001e 7A68     		ldr	r2, [r7, #4]
 863 0020 3B68     		ldr	r3, [r7]
 864 0022 101C     		mov	r0, r2
 865 0024 191C     		mov	r1, r3
 866 0026 FFF7FEFF 		bl	CSD_SsSetWidgetSenseClkSrc
1973:Generated_Source\PSoC4/CSD_Sensing.c ****     {
 867              		.loc 1 1973 0
 868 002a 7B68     		ldr	r3, [r7, #4]
 869 002c 0133     		add	r3, r3, #1
 870 002e 7B60     		str	r3, [r7, #4]
 871              	.L57:
1973:Generated_Source\PSoC4/CSD_Sensing.c ****     {
 872              		.loc 1 1973 0 is_stmt 0 discriminator 1
 873 0030 7B68     		ldr	r3, [r7, #4]
 874 0032 002B     		cmp	r3, #0
 875 0034 EAD0     		beq	.L58
1981:Generated_Source\PSoC4/CSD_Sensing.c ****             #endif /* (CSD_ENABLE == CSD_CSD_EN) */
1982:Generated_Source\PSoC4/CSD_Sensing.c ****         }
1983:Generated_Source\PSoC4/CSD_Sensing.c ****         else
1984:Generated_Source\PSoC4/CSD_Sensing.c ****         {
1985:Generated_Source\PSoC4/CSD_Sensing.c ****             #if ((CSD_ENABLE == CSD_CSX_EN) && (CSD_ENABLE == CSD_CSDV2))
1986:Generated_Source\PSoC4/CSD_Sensing.c ****                 CSD_SsSetWidgetTxClkSrc(wdgtIndex, ptrWdgt);
1987:Generated_Source\PSoC4/CSD_Sensing.c ****             #endif /* ((CSD_ENABLE == CSD_CSX_EN) && (CSD_ENABLE == CSD_CSDV2)) */
1988:Generated_Source\PSoC4/CSD_Sensing.c ****         }
1989:Generated_Source\PSoC4/CSD_Sensing.c ****     }
1990:Generated_Source\PSoC4/CSD_Sensing.c **** }
 876              		.loc 1 1990 0 is_stmt 1
 877 0036 BD46     		mov	sp, r7
 878 0038 02B0     		add	sp, sp, #8
 879              		@ sp needed
 880 003a 80BD     		pop	{r7, pc}
 881              	.L60:
 882              		.align	2
 883              	.L59:
 884 003c 00000000 		.word	CSD_dsFlash
 885              		.cfi_endproc
 886              	.LFE14:
 887              		.size	CSD_SsInitializeSourceSenseClk, .-CSD_SsInitializeSourceSenseClk
 888              		.section	.text.CSD_SsSetWidgetSenseClkSrc,"ax",%progbits
 889              		.align	2
 890              		.global	CSD_SsSetWidgetSenseClkSrc
 891              		.code	16
 892              		.thumb_func
ARM GAS  C:\Users\CHRIST~1\AppData\Local\Temp\ccIPpNky.s 			page 52


 893              		.type	CSD_SsSetWidgetSenseClkSrc, %function
 894              	CSD_SsSetWidgetSenseClkSrc:
 895              	.LFB15:
1991:Generated_Source\PSoC4/CSD_Sensing.c **** #endif /* ((CSD_ENABLE == CSD_CSD_EN) ||\
1992:Generated_Source\PSoC4/CSD_Sensing.c ****            ((CSD_ENABLE == CSD_CSX_EN) && (CSD_ENABLE == CSD_CSDV2))) */
1993:Generated_Source\PSoC4/CSD_Sensing.c **** 
1994:Generated_Source\PSoC4/CSD_Sensing.c **** 
1995:Generated_Source\PSoC4/CSD_Sensing.c **** #if (CSD_ENABLE == CSD_CSD_EN)
1996:Generated_Source\PSoC4/CSD_Sensing.c ****     /*******************************************************************************
1997:Generated_Source\PSoC4/CSD_Sensing.c ****     * Function Name: CSD_SsSetWidgetSenseClkSrc
1998:Generated_Source\PSoC4/CSD_Sensing.c ****     ****************************************************************************//**
1999:Generated_Source\PSoC4/CSD_Sensing.c ****     *
2000:Generated_Source\PSoC4/CSD_Sensing.c ****     * \brief
2001:Generated_Source\PSoC4/CSD_Sensing.c ****     *  Sets a source for the sense clock for a widget.
2002:Generated_Source\PSoC4/CSD_Sensing.c ****     *
2003:Generated_Source\PSoC4/CSD_Sensing.c ****     * \param wdgtIndex
2004:Generated_Source\PSoC4/CSD_Sensing.c ****     *   Specifies the ID of the widget.
2005:Generated_Source\PSoC4/CSD_Sensing.c ****     * \param ptrWdgt
2006:Generated_Source\PSoC4/CSD_Sensing.c ****     *   The pointer to the RAM_WD_BASE_STRUCT structure.
2007:Generated_Source\PSoC4/CSD_Sensing.c ****     *
2008:Generated_Source\PSoC4/CSD_Sensing.c ****     * \details
2009:Generated_Source\PSoC4/CSD_Sensing.c ****     *  Updates snsClkSource and rowSnsClkSource with a source for the sense Clk for a
2010:Generated_Source\PSoC4/CSD_Sensing.c ****     *  widget.
2011:Generated_Source\PSoC4/CSD_Sensing.c ****     *
2012:Generated_Source\PSoC4/CSD_Sensing.c ****     *******************************************************************************/
2013:Generated_Source\PSoC4/CSD_Sensing.c ****     void CSD_SsSetWidgetSenseClkSrc(uint32 wdgtIndex, CSD_RAM_WD_BASE_STRUCT * ptrWdgt)
2014:Generated_Source\PSoC4/CSD_Sensing.c ****     {
 896              		.loc 1 2014 0
 897              		.cfi_startproc
 898 0000 80B5     		push	{r7, lr}
 899              		.cfi_def_cfa_offset 8
 900              		.cfi_offset 7, -8
 901              		.cfi_offset 14, -4
 902 0002 84B0     		sub	sp, sp, #16
 903              		.cfi_def_cfa_offset 24
 904 0004 00AF     		add	r7, sp, #0
 905              		.cfi_def_cfa_register 7
 906 0006 7860     		str	r0, [r7, #4]
 907 0008 3960     		str	r1, [r7]
2015:Generated_Source\PSoC4/CSD_Sensing.c ****         uint8 lfsrSize;
2016:Generated_Source\PSoC4/CSD_Sensing.c ****         uint8 lfsrScale;
2017:Generated_Source\PSoC4/CSD_Sensing.c **** 
2018:Generated_Source\PSoC4/CSD_Sensing.c ****         #if(CSD_CLK_SOURCE_PRSAUTO == CSD_CSD_SNS_CLK_SOURCE)
2019:Generated_Source\PSoC4/CSD_Sensing.c ****             #if(CSD_ENABLE == CSD_CSDV2)
2020:Generated_Source\PSoC4/CSD_Sensing.c ****                 uint32 conversionsNum;
2021:Generated_Source\PSoC4/CSD_Sensing.c ****                 uint32 sampleClkDivider;
2022:Generated_Source\PSoC4/CSD_Sensing.c ****             #endif /* (CSD_ENABLE == CSD_CSDV2) */
2023:Generated_Source\PSoC4/CSD_Sensing.c ****             uint32 snsClkDivider;
2024:Generated_Source\PSoC4/CSD_Sensing.c ****         #endif /* (CSD_CLK_SOURCE_PRSAUTO == CSD_CSD_SNS_CLK_SOURCE) */
2025:Generated_Source\PSoC4/CSD_Sensing.c **** 
2026:Generated_Source\PSoC4/CSD_Sensing.c ****         #if(CSD_CLK_SOURCE_PRSAUTO == CSD_CSD_SNS_CLK_SOURCE)
2027:Generated_Source\PSoC4/CSD_Sensing.c ****             snsClkDivider = CSD_SsCSDGetColSnsClkDivider(wdgtIndex);
2028:Generated_Source\PSoC4/CSD_Sensing.c **** 
2029:Generated_Source\PSoC4/CSD_Sensing.c ****             #if(CSD_ENABLE == CSD_CSDV2)
2030:Generated_Source\PSoC4/CSD_Sensing.c ****                 sampleClkDivider = CSD_dsRam.modCsdClk;
2031:Generated_Source\PSoC4/CSD_Sensing.c ****                 conversionsNum = CSD_SsCSDGetNumberOfConversions(snsClkDivider, (uint32)ptrWdgt->re
2032:Generated_Source\PSoC4/CSD_Sensing.c ****                 lfsrSize = CSD_SsCalcLfsrSize(sampleClkDivider, snsClkDivider, conversionsNum);
ARM GAS  C:\Users\CHRIST~1\AppData\Local\Temp\ccIPpNky.s 			page 53


2033:Generated_Source\PSoC4/CSD_Sensing.c ****                 if (CSD_CLK_SOURCE_DIRECT == lfsrSize)
2034:Generated_Source\PSoC4/CSD_Sensing.c ****                 {
2035:Generated_Source\PSoC4/CSD_Sensing.c ****                     lfsrSize = CSD_SsCSDCalcPrsSize(snsClkDivider, (uint32)ptrWdgt->resolution);
2036:Generated_Source\PSoC4/CSD_Sensing.c ****                 }
2037:Generated_Source\PSoC4/CSD_Sensing.c ****                 lfsrScale = CSD_SsCalcLfsrScale(snsClkDivider, lfsrSize);
2038:Generated_Source\PSoC4/CSD_Sensing.c ****             #else
2039:Generated_Source\PSoC4/CSD_Sensing.c ****                 lfsrSize = CSD_SsCSDCalcPrsSize(snsClkDivider, (uint32)ptrWdgt->resolution);
2040:Generated_Source\PSoC4/CSD_Sensing.c ****                 lfsrScale = 0u;
2041:Generated_Source\PSoC4/CSD_Sensing.c ****             #endif /* (CSD_ENABLE == CSD_CSDV2) */
2042:Generated_Source\PSoC4/CSD_Sensing.c ****         #else
2043:Generated_Source\PSoC4/CSD_Sensing.c ****             lfsrSize = (uint8)CSD_DEFAULT_MODULATION_MODE;
 908              		.loc 1 2043 0
 909 000a 0F23     		mov	r3, #15
 910 000c FB18     		add	r3, r7, r3
 911 000e 0022     		mov	r2, #0
 912 0010 1A70     		strb	r2, [r3]
2044:Generated_Source\PSoC4/CSD_Sensing.c ****             lfsrScale = 0u;
 913              		.loc 1 2044 0
 914 0012 0E23     		mov	r3, #14
 915 0014 FB18     		add	r3, r7, r3
 916 0016 0022     		mov	r2, #0
 917 0018 1A70     		strb	r2, [r3]
2045:Generated_Source\PSoC4/CSD_Sensing.c ****         #endif /* (CSD_CLK_SOURCE_PRSAUTO == CSD_CSD_SNS_CLK_SOURCE) */
2046:Generated_Source\PSoC4/CSD_Sensing.c **** 
2047:Generated_Source\PSoC4/CSD_Sensing.c ****         ptrWdgt->snsClkSource = lfsrSize | (uint8)(lfsrScale << CSD_CLK_SOURCE_LFSR_SCALE_OFFSET);
 918              		.loc 1 2047 0
 919 001a 0E23     		mov	r3, #14
 920 001c FB18     		add	r3, r7, r3
 921 001e 1B78     		ldrb	r3, [r3]
 922 0020 1B01     		lsl	r3, r3, #4
 923 0022 DAB2     		uxtb	r2, r3
 924 0024 0F23     		mov	r3, #15
 925 0026 FB18     		add	r3, r7, r3
 926 0028 1B78     		ldrb	r3, [r3]
 927 002a 1343     		orr	r3, r2
 928 002c DAB2     		uxtb	r2, r3
 929 002e 3B68     		ldr	r3, [r7]
 930 0030 1A73     		strb	r2, [r3, #12]
2048:Generated_Source\PSoC4/CSD_Sensing.c **** 
2049:Generated_Source\PSoC4/CSD_Sensing.c ****         #if (CSD_ENABLE == (CSD_CSD_MATRIX_WIDGET_EN | CSD_CSD_TOUCHPAD_WIDGET_EN))
2050:Generated_Source\PSoC4/CSD_Sensing.c ****             if ((CSD_WD_TOUCHPAD_E == (CSD_WD_TYPE_ENUM)CSD_dsFlash.wdgtArray[wdgtIndex].wdgtType) 
2051:Generated_Source\PSoC4/CSD_Sensing.c ****                 (CSD_WD_MATRIX_BUTTON_E == (CSD_WD_TYPE_ENUM)CSD_dsFlash.wdgtArray[wdgtIndex].wdgtT
2052:Generated_Source\PSoC4/CSD_Sensing.c ****             {
2053:Generated_Source\PSoC4/CSD_Sensing.c ****                 #if(CSD_CLK_SOURCE_PRSAUTO == CSD_CSD_SNS_CLK_SOURCE)
2054:Generated_Source\PSoC4/CSD_Sensing.c ****                     snsClkDivider = CSD_SsCSDGetRowSnsClkDivider(wdgtIndex);
2055:Generated_Source\PSoC4/CSD_Sensing.c **** 
2056:Generated_Source\PSoC4/CSD_Sensing.c ****                     #if(CSD_ENABLE == CSD_CSDV2)
2057:Generated_Source\PSoC4/CSD_Sensing.c ****                         lfsrSize = CSD_SsCalcLfsrSize(sampleClkDivider, snsClkDivider, conversionsN
2058:Generated_Source\PSoC4/CSD_Sensing.c ****                         if (CSD_CLK_SOURCE_DIRECT == lfsrSize)
2059:Generated_Source\PSoC4/CSD_Sensing.c ****                         {
2060:Generated_Source\PSoC4/CSD_Sensing.c ****                             lfsrSize = CSD_SsCSDCalcPrsSize(snsClkDivider, (uint32)ptrWdgt->resolut
2061:Generated_Source\PSoC4/CSD_Sensing.c ****                         }
2062:Generated_Source\PSoC4/CSD_Sensing.c ****                         lfsrScale = CSD_SsCalcLfsrScale(snsClkDivider, lfsrSize);
2063:Generated_Source\PSoC4/CSD_Sensing.c ****                     #else
2064:Generated_Source\PSoC4/CSD_Sensing.c ****                         lfsrSize = CSD_SsCSDCalcPrsSize(snsClkDivider, (uint32)ptrWdgt->resolution)
2065:Generated_Source\PSoC4/CSD_Sensing.c ****                         lfsrScale = 0u;
2066:Generated_Source\PSoC4/CSD_Sensing.c ****                     #endif /* (CSD_ENABLE == CSD_CSDV2) */
ARM GAS  C:\Users\CHRIST~1\AppData\Local\Temp\ccIPpNky.s 			page 54


2067:Generated_Source\PSoC4/CSD_Sensing.c ****                 #else
2068:Generated_Source\PSoC4/CSD_Sensing.c ****                     lfsrSize = (uint8)CSD_DEFAULT_MODULATION_MODE;
2069:Generated_Source\PSoC4/CSD_Sensing.c ****                     lfsrScale = 0u;
2070:Generated_Source\PSoC4/CSD_Sensing.c ****                 #endif /* (CSD_CLK_SOURCE_PRSAUTO == CSD_CSD_SNS_CLK_SOURCE) */
2071:Generated_Source\PSoC4/CSD_Sensing.c ****                 ptrWdgt->rowSnsClkSource = lfsrSize | (uint8)(lfsrScale << CSD_CLK_SOURCE_LFSR_SCAL
2072:Generated_Source\PSoC4/CSD_Sensing.c ****             }
2073:Generated_Source\PSoC4/CSD_Sensing.c ****         #endif /* (CSD_ENABLE == (CSD_CSD_MATRIX_WIDGET_EN | CSD_CSD_TOUCHPAD_WIDGET_EN)) */
2074:Generated_Source\PSoC4/CSD_Sensing.c ****     }
 931              		.loc 1 2074 0
 932 0032 BD46     		mov	sp, r7
 933 0034 04B0     		add	sp, sp, #16
 934              		@ sp needed
 935 0036 80BD     		pop	{r7, pc}
 936              		.cfi_endproc
 937              	.LFE15:
 938              		.size	CSD_SsSetWidgetSenseClkSrc, .-CSD_SsSetWidgetSenseClkSrc
 939              		.text
 940              	.Letext0:
 941              		.file 2 "Generated_Source\\PSoC4/cytypes.h"
 942              		.file 3 "Generated_Source\\PSoC4\\CSD_Configuration.h"
 943              		.file 4 "Generated_Source\\PSoC4\\CSD_Structure.h"