ARM GAS  C:\Users\CHRIST~1\AppData\Local\Temp\ccrDLzO7.s 			page 1


   1              		.cpu cortex-m0plus
   2              		.fpu softvfp
   3              		.eabi_attribute 20, 1
   4              		.eabi_attribute 21, 1
   5              		.eabi_attribute 23, 3
   6              		.eabi_attribute 24, 1
   7              		.eabi_attribute 25, 1
   8              		.eabi_attribute 26, 1
   9              		.eabi_attribute 30, 6
  10              		.eabi_attribute 34, 0
  11              		.eabi_attribute 18, 4
  12              		.code	16
  13              		.file	"CSD_Processing.c"
  14              		.text
  15              	.Ltext0:
  16              		.cfi_sections	.debug_frame
  17              		.section	.text.CSD_DpInitialize,"ax",%progbits
  18              		.align	2
  19              		.global	CSD_DpInitialize
  20              		.code	16
  21              		.thumb_func
  22              		.type	CSD_DpInitialize, %function
  23              	CSD_DpInitialize:
  24              	.LFB1:
  25              		.file 1 "Generated_Source\\PSoC4\\CSD_Processing.c"
   1:Generated_Source\PSoC4/CSD_Processing.c **** /***************************************************************************//**
   2:Generated_Source\PSoC4/CSD_Processing.c **** * \file CSD_Processing.c
   3:Generated_Source\PSoC4/CSD_Processing.c **** * \version 3.0
   4:Generated_Source\PSoC4/CSD_Processing.c **** *
   5:Generated_Source\PSoC4/CSD_Processing.c **** * \brief
   6:Generated_Source\PSoC4/CSD_Processing.c **** * This file provides the source code for the Data Processing module APIs
   7:Generated_Source\PSoC4/CSD_Processing.c **** * of the component. The Data Processing module is responsible for the
   8:Generated_Source\PSoC4/CSD_Processing.c **** * low level raw counts processing provided by the sensing module, maintaining
   9:Generated_Source\PSoC4/CSD_Processing.c **** * baseline and difference values and performing high-level widget processing
  10:Generated_Source\PSoC4/CSD_Processing.c **** * like updating button status or calculating slider position.
  11:Generated_Source\PSoC4/CSD_Processing.c **** *
  12:Generated_Source\PSoC4/CSD_Processing.c **** * \see CapSense P4 v3.0 Datasheet
  13:Generated_Source\PSoC4/CSD_Processing.c **** *
  14:Generated_Source\PSoC4/CSD_Processing.c **** *//*****************************************************************************
  15:Generated_Source\PSoC4/CSD_Processing.c **** * Copyright (2016), Cypress Semiconductor Corporation.
  16:Generated_Source\PSoC4/CSD_Processing.c **** ********************************************************************************
  17:Generated_Source\PSoC4/CSD_Processing.c **** * This software is owned by Cypress Semiconductor Corporation (Cypress) and is
  18:Generated_Source\PSoC4/CSD_Processing.c **** * protected by and subject to worldwide patent protection (United States and
  19:Generated_Source\PSoC4/CSD_Processing.c **** * foreign), United States copyright laws and international treaty provisions.
  20:Generated_Source\PSoC4/CSD_Processing.c **** * Cypress hereby grants to licensee a personal, non-exclusive, non-transferable
  21:Generated_Source\PSoC4/CSD_Processing.c **** * license to copy, use, modify, create derivative works of, and compile the
  22:Generated_Source\PSoC4/CSD_Processing.c **** * Cypress Source Code and derivative works for the sole purpose of creating
  23:Generated_Source\PSoC4/CSD_Processing.c **** * custom software in support of licensee product to be used only in conjunction
  24:Generated_Source\PSoC4/CSD_Processing.c **** * with a Cypress integrated circuit as specified in the applicable agreement.
  25:Generated_Source\PSoC4/CSD_Processing.c **** * Any reproduction, modification, translation, compilation, or representation of
  26:Generated_Source\PSoC4/CSD_Processing.c **** * this software except as specified above is prohibited without the express
  27:Generated_Source\PSoC4/CSD_Processing.c **** * written permission of Cypress.
  28:Generated_Source\PSoC4/CSD_Processing.c **** *
  29:Generated_Source\PSoC4/CSD_Processing.c **** * Disclaimer: CYPRESS MAKES NO WARRANTY OF ANY KIND, EXPRESS OR IMPLIED, WITH
  30:Generated_Source\PSoC4/CSD_Processing.c **** * REGARD TO THIS MATERIAL, INCLUDING, BUT NOT LIMITED TO, THE IMPLIED
  31:Generated_Source\PSoC4/CSD_Processing.c **** * WARRANTIES OF MERCHANTABILITY AND FITNESS FOR A PARTICULAR PURPOSE.
  32:Generated_Source\PSoC4/CSD_Processing.c **** * Cypress reserves the right to make changes without further notice to the
ARM GAS  C:\Users\CHRIST~1\AppData\Local\Temp\ccrDLzO7.s 			page 2


  33:Generated_Source\PSoC4/CSD_Processing.c **** * materials described herein. Cypress does not assume any liability arising out
  34:Generated_Source\PSoC4/CSD_Processing.c **** * of the application or use of any product or circuit described herein. Cypress
  35:Generated_Source\PSoC4/CSD_Processing.c **** * does not authorize its products for use as critical components in life-support
  36:Generated_Source\PSoC4/CSD_Processing.c **** * systems where a malfunction or failure may reasonably be expected to result in
  37:Generated_Source\PSoC4/CSD_Processing.c **** * significant injury to the user. The inclusion of Cypress' product in a life-
  38:Generated_Source\PSoC4/CSD_Processing.c **** * support systems application implies that the manufacturer assumes all risk of
  39:Generated_Source\PSoC4/CSD_Processing.c **** * such use and in doing so indemnifies Cypress against all charges. Use may be
  40:Generated_Source\PSoC4/CSD_Processing.c **** * limited by and subject to the applicable Cypress software license agreement.
  41:Generated_Source\PSoC4/CSD_Processing.c **** *******************************************************************************/
  42:Generated_Source\PSoC4/CSD_Processing.c **** 
  43:Generated_Source\PSoC4/CSD_Processing.c **** #include "cytypes.h"
  44:Generated_Source\PSoC4/CSD_Processing.c **** #include "CSD_Configuration.h"
  45:Generated_Source\PSoC4/CSD_Processing.c **** #include "CSD_Processing.h"
  46:Generated_Source\PSoC4/CSD_Processing.c **** #include "CSD_Filter.h"
  47:Generated_Source\PSoC4/CSD_Processing.c **** 
  48:Generated_Source\PSoC4/CSD_Processing.c **** #if (0u != CSD_CENTROID_EN)
  49:Generated_Source\PSoC4/CSD_Processing.c ****     #include "CSD_Centroid_LL.h"
  50:Generated_Source\PSoC4/CSD_Processing.c **** #endif /* (0 != CSD_CENTROID_EN) */
  51:Generated_Source\PSoC4/CSD_Processing.c **** 
  52:Generated_Source\PSoC4/CSD_Processing.c **** #if (0 != (CSD_CSD_AUTOTUNE & CSD_CSD_SS_TH_EN))
  53:Generated_Source\PSoC4/CSD_Processing.c ****     #include "CSD_SmartSense_LL.h"
  54:Generated_Source\PSoC4/CSD_Processing.c **** #endif /* (0 != (CSD_CSD_AUTOTUNE & CSD_CSD_SS_TH_EN)) */
  55:Generated_Source\PSoC4/CSD_Processing.c **** 
  56:Generated_Source\PSoC4/CSD_Processing.c **** #include "CyLib.h"
  57:Generated_Source\PSoC4/CSD_Processing.c **** 
  58:Generated_Source\PSoC4/CSD_Processing.c **** /**************************************************************************************************
  59:Generated_Source\PSoC4/CSD_Processing.c **** * Local definition
  60:Generated_Source\PSoC4/CSD_Processing.c **** ***************************************************************************************************
  61:Generated_Source\PSoC4/CSD_Processing.c **** 
  62:Generated_Source\PSoC4/CSD_Processing.c **** /* This definition resolves to TRUE if any of the FW filters for raw counts are enabled */
  63:Generated_Source\PSoC4/CSD_Processing.c **** #define DP_FW_FILTER_EN                                 \
  64:Generated_Source\PSoC4/CSD_Processing.c ****             (CSD_REGULAR_RC_FILTER_EN |  \
  65:Generated_Source\PSoC4/CSD_Processing.c ****              CSD_PROX_RC_FILTER_EN)
  66:Generated_Source\PSoC4/CSD_Processing.c **** 
  67:Generated_Source\PSoC4/CSD_Processing.c **** /* This definition resolves to TRUE if any of the position filters are enabled */
  68:Generated_Source\PSoC4/CSD_Processing.c **** #define DP_POSITION_FILTER_EN                           \
  69:Generated_Source\PSoC4/CSD_Processing.c ****             (CSD_POS_IIR_FILTER_EN      || \
  70:Generated_Source\PSoC4/CSD_Processing.c ****              CSD_POS_MEDIAN_FILTER_EN   || \
  71:Generated_Source\PSoC4/CSD_Processing.c ****              CSD_POS_AVERAGE_FILTER_EN  || \
  72:Generated_Source\PSoC4/CSD_Processing.c ****              CSD_POS_JITTER_FILTER_EN)
  73:Generated_Source\PSoC4/CSD_Processing.c **** 
  74:Generated_Source\PSoC4/CSD_Processing.c **** /* This definition resolves to TRUE if any of position filters are enabled and component has slider
  75:Generated_Source\PSoC4/CSD_Processing.c ****  * The processing function of the CSD touchpad reuses the filtering function of the slider widget. 
  76:Generated_Source\PSoC4/CSD_Processing.c **** #define DP_LINEAR_SLIDER_FILTER_EN                                             \
  77:Generated_Source\PSoC4/CSD_Processing.c ****            (DP_POSITION_FILTER_EN && (CSD_TOTAL_LINEAR_SLIDERS || \
  78:Generated_Source\PSoC4/CSD_Processing.c ****                                       CSD_CSD_TOUCHPAD_WIDGET_EN))
  79:Generated_Source\PSoC4/CSD_Processing.c **** 
  80:Generated_Source\PSoC4/CSD_Processing.c **** /* UINT32 constant with all odd bits set. It is used by the processing function of the Proximity wi
  81:Generated_Source\PSoC4/CSD_Processing.c **** *  determine type of the status bit: odd bits report proximity status; even bits report touch statu
  82:Generated_Source\PSoC4/CSD_Processing.c ****  */
  83:Generated_Source\PSoC4/CSD_Processing.c **** #define UINT32_ODD_BITS_CONST       (0x55555555u)
  84:Generated_Source\PSoC4/CSD_Processing.c **** 
  85:Generated_Source\PSoC4/CSD_Processing.c **** /* Default value for the Off Debounce counter when the Off Debounce is disabled */
  86:Generated_Source\PSoC4/CSD_Processing.c **** #define DEFAULT_OFF_DEBOUNCE_VALUE  (1u)
  87:Generated_Source\PSoC4/CSD_Processing.c **** 
  88:Generated_Source\PSoC4/CSD_Processing.c **** 
  89:Generated_Source\PSoC4/CSD_Processing.c **** /**************************************************************************************************
ARM GAS  C:\Users\CHRIST~1\AppData\Local\Temp\ccrDLzO7.s 			page 3


  90:Generated_Source\PSoC4/CSD_Processing.c **** * Local variables
  91:Generated_Source\PSoC4/CSD_Processing.c **** ***************************************************************************************************
  92:Generated_Source\PSoC4/CSD_Processing.c **** #if (0u != CSD_CSX_MULTIPHASE_TX_EN)
  93:Generated_Source\PSoC4/CSD_Processing.c ****     static uint16 deconvRowData[CSD_CSX_MAX_TX_PHASE_LENGTH];
  94:Generated_Source\PSoC4/CSD_Processing.c **** #endif
  95:Generated_Source\PSoC4/CSD_Processing.c **** 
  96:Generated_Source\PSoC4/CSD_Processing.c **** 
  97:Generated_Source\PSoC4/CSD_Processing.c **** /**************************************************************************************************
  98:Generated_Source\PSoC4/CSD_Processing.c **** * Static Function Prototypes
  99:Generated_Source\PSoC4/CSD_Processing.c **** ***************************************************************************************************
 100:Generated_Source\PSoC4/CSD_Processing.c **** /**
 101:Generated_Source\PSoC4/CSD_Processing.c **** * \if SECTION_CAPSENSE_INTERNAL
 102:Generated_Source\PSoC4/CSD_Processing.c **** * \addtogroup group_capsense_internal
 103:Generated_Source\PSoC4/CSD_Processing.c **** * \{
 104:Generated_Source\PSoC4/CSD_Processing.c **** */
 105:Generated_Source\PSoC4/CSD_Processing.c **** #if (0u != CSD_TOTAL_LINEAR_SLIDERS)
 106:Generated_Source\PSoC4/CSD_Processing.c ****     static CY_INLINE void DpUpdateLinSlider(
 107:Generated_Source\PSoC4/CSD_Processing.c ****                         const uint16 newPos[], uint32 numTouches,
 108:Generated_Source\PSoC4/CSD_Processing.c ****                         CSD_FLASH_WD_STRUCT const *ptrFlashWdgt,
 109:Generated_Source\PSoC4/CSD_Processing.c ****                         CSD_RAM_WD_SLIDER_STRUCT *ptrRamWdgt);
 110:Generated_Source\PSoC4/CSD_Processing.c **** #endif /* #if (0u != CSD_TOTAL_LINEAR_SLIDERS) */
 111:Generated_Source\PSoC4/CSD_Processing.c **** 
 112:Generated_Source\PSoC4/CSD_Processing.c **** #if (0u != DP_LINEAR_SLIDER_FILTER_EN)
 113:Generated_Source\PSoC4/CSD_Processing.c ****     static CY_INLINE void DpFilterLinSlider(
 114:Generated_Source\PSoC4/CSD_Processing.c ****                         uint16 newPos, uint32 staticConfig, uint16 *ptrCurrPos,
 115:Generated_Source\PSoC4/CSD_Processing.c ****                         CSD_SLIDER_POS_HISTORY_STRUCT *ptrHistory);
 116:Generated_Source\PSoC4/CSD_Processing.c **** #endif /* #if (0u != DP_LINEAR_SLIDER_FILTER_EN) */
 117:Generated_Source\PSoC4/CSD_Processing.c **** 
 118:Generated_Source\PSoC4/CSD_Processing.c **** #if (0u != CSD_TOTAL_RADIAL_SLIDERS)
 119:Generated_Source\PSoC4/CSD_Processing.c ****     static CY_INLINE void DpUpdateRadSlider(
 120:Generated_Source\PSoC4/CSD_Processing.c ****                         const uint16 newPos[], uint32 numTouches,
 121:Generated_Source\PSoC4/CSD_Processing.c ****                         CSD_FLASH_WD_STRUCT const * ptrFlashWdgt,
 122:Generated_Source\PSoC4/CSD_Processing.c ****                         CSD_RAM_WD_SLIDER_STRUCT *ptrRamWdgt);
 123:Generated_Source\PSoC4/CSD_Processing.c **** #endif /* #if (0u != CSD_TOTAL_RADIAL_SLIDERS) */
 124:Generated_Source\PSoC4/CSD_Processing.c **** 
 125:Generated_Source\PSoC4/CSD_Processing.c **** #if (0u != CSD_CSD_TOUCHPAD_WIDGET_EN)
 126:Generated_Source\PSoC4/CSD_Processing.c ****     static CY_INLINE void CSD_DpInitCsdTouchpad(CSD_FLASH_WD_STRUCT const * ptrFlashWdgt);
 127:Generated_Source\PSoC4/CSD_Processing.c **** #endif /* #if (0u != CSD_CSD_TOUCHPAD_WIDGET_EN) */
 128:Generated_Source\PSoC4/CSD_Processing.c **** 
 129:Generated_Source\PSoC4/CSD_Processing.c **** #if (0u != CSD_CSX_TOUCHPAD_WIDGET_EN)
 130:Generated_Source\PSoC4/CSD_Processing.c ****     static CY_INLINE void CSD_DpInitCsxTouchpad(CSD_FLASH_WD_STRUCT const * ptrFlashWdgt);
 131:Generated_Source\PSoC4/CSD_Processing.c **** #endif /* #if (0u != CSD_CSX_TOUCHPAD_WIDGET_EN) */
 132:Generated_Source\PSoC4/CSD_Processing.c **** 
 133:Generated_Source\PSoC4/CSD_Processing.c **** #if (0u != CSD_SLIDER_WIDGET_EN)
 134:Generated_Source\PSoC4/CSD_Processing.c ****     static CY_INLINE void CSD_DpInitSlider(CSD_FLASH_WD_STRUCT const * ptrFlashWdgt);
 135:Generated_Source\PSoC4/CSD_Processing.c **** #endif /* #if (0u != CSD_SLIDER_WIDGET_EN) */
 136:Generated_Source\PSoC4/CSD_Processing.c **** 
 137:Generated_Source\PSoC4/CSD_Processing.c **** #if (0u != CSD_CSD_MATRIX_WIDGET_EN)
 138:Generated_Source\PSoC4/CSD_Processing.c ****     static CY_INLINE void CSD_DpInitCsdMatrix(CSD_FLASH_WD_STRUCT const * ptrFlashWdgt);
 139:Generated_Source\PSoC4/CSD_Processing.c **** #endif /* #if (0u != CSD_CSD_MATRIX_WIDGET_EN) */
 140:Generated_Source\PSoC4/CSD_Processing.c **** 
 141:Generated_Source\PSoC4/CSD_Processing.c **** /** \}
 142:Generated_Source\PSoC4/CSD_Processing.c **** * \endif */
 143:Generated_Source\PSoC4/CSD_Processing.c **** 
 144:Generated_Source\PSoC4/CSD_Processing.c **** #if (0u != CSD_CSD_TOUCHPAD_WIDGET_EN)
 145:Generated_Source\PSoC4/CSD_Processing.c **** /*******************************************************************************
 146:Generated_Source\PSoC4/CSD_Processing.c **** * Function Name: CSD_DpInitCsdTouchpad
ARM GAS  C:\Users\CHRIST~1\AppData\Local\Temp\ccrDLzO7.s 			page 4


 147:Generated_Source\PSoC4/CSD_Processing.c **** ****************************************************************************//**
 148:Generated_Source\PSoC4/CSD_Processing.c **** *
 149:Generated_Source\PSoC4/CSD_Processing.c **** * \brief
 150:Generated_Source\PSoC4/CSD_Processing.c **** *  Performs initialization of the CSD touchpad widget.
 151:Generated_Source\PSoC4/CSD_Processing.c **** *   - Resets the position data to NONE
 152:Generated_Source\PSoC4/CSD_Processing.c **** *   - Initializes the median filter history if the appropriate position filter is enabled.
 153:Generated_Source\PSoC4/CSD_Processing.c **** *
 154:Generated_Source\PSoC4/CSD_Processing.c **** * \details
 155:Generated_Source\PSoC4/CSD_Processing.c **** *  The position data is always reset to the CSD_TOUCHPAD_POS_NONE value.
 156:Generated_Source\PSoC4/CSD_Processing.c **** *  The same happens to the median filter history data if this type of filter is enabled.
 157:Generated_Source\PSoC4/CSD_Processing.c **** *
 158:Generated_Source\PSoC4/CSD_Processing.c **** *******************************************************************************/
 159:Generated_Source\PSoC4/CSD_Processing.c **** static CY_INLINE void CSD_DpInitCsdTouchpad(CSD_FLASH_WD_STRUCT const * ptrFlashWdgt)
 160:Generated_Source\PSoC4/CSD_Processing.c **** {
 161:Generated_Source\PSoC4/CSD_Processing.c ****     CSD_RAM_WD_CSD_TOUCHPAD_STRUCT *ptrWdTouchpad;
 162:Generated_Source\PSoC4/CSD_Processing.c **** 
 163:Generated_Source\PSoC4/CSD_Processing.c ****     #if (0u != CSD_POS_MEDIAN_FILTER_EN)
 164:Generated_Source\PSoC4/CSD_Processing.c ****         CSD_TOUCHPAD_POS_HISTORY_STRUCT *ptrHistory;
 165:Generated_Source\PSoC4/CSD_Processing.c ****     #endif  /* #if (0u != CSD_POS_MEDIAN_FILTER_EN) */
 166:Generated_Source\PSoC4/CSD_Processing.c **** 
 167:Generated_Source\PSoC4/CSD_Processing.c ****     ptrWdTouchpad = ptrFlashWdgt->ptr2WdgtRam;
 168:Generated_Source\PSoC4/CSD_Processing.c **** 
 169:Generated_Source\PSoC4/CSD_Processing.c ****     /* Reset position data */
 170:Generated_Source\PSoC4/CSD_Processing.c ****     ptrWdTouchpad->posX = CSD_TOUCHPAD_POS_NONE;
 171:Generated_Source\PSoC4/CSD_Processing.c ****     ptrWdTouchpad->posY = CSD_TOUCHPAD_POS_NONE;
 172:Generated_Source\PSoC4/CSD_Processing.c **** 
 173:Generated_Source\PSoC4/CSD_Processing.c ****     /* Reset median filter */
 174:Generated_Source\PSoC4/CSD_Processing.c ****     #if (0u != CSD_POS_MEDIAN_FILTER_EN)
 175:Generated_Source\PSoC4/CSD_Processing.c ****         ptrHistory = ptrFlashWdgt->ptr2PosHistory;
 176:Generated_Source\PSoC4/CSD_Processing.c **** 
 177:Generated_Source\PSoC4/CSD_Processing.c ****         if (NULL != ptrHistory)
 178:Generated_Source\PSoC4/CSD_Processing.c ****         {
 179:Generated_Source\PSoC4/CSD_Processing.c ****             ptrHistory->xPos.posMedianZ1 = CSD_TOUCHPAD_POS_NONE;
 180:Generated_Source\PSoC4/CSD_Processing.c ****             ptrHistory->xPos.posMedianZ2 = CSD_TOUCHPAD_POS_NONE;
 181:Generated_Source\PSoC4/CSD_Processing.c **** 
 182:Generated_Source\PSoC4/CSD_Processing.c ****             ptrHistory->yPos.posMedianZ1 = CSD_TOUCHPAD_POS_NONE;
 183:Generated_Source\PSoC4/CSD_Processing.c ****             ptrHistory->yPos.posMedianZ2 = CSD_TOUCHPAD_POS_NONE;
 184:Generated_Source\PSoC4/CSD_Processing.c ****         }
 185:Generated_Source\PSoC4/CSD_Processing.c ****     #endif /* #if (0u != CSD_POS_MEDIAN_FILTER_EN) */
 186:Generated_Source\PSoC4/CSD_Processing.c **** }
 187:Generated_Source\PSoC4/CSD_Processing.c **** #endif /* #if (0u != CSD_CSD_TOUCHPAD_WIDGET_EN) */
 188:Generated_Source\PSoC4/CSD_Processing.c **** 
 189:Generated_Source\PSoC4/CSD_Processing.c **** #if (0u != CSD_CSX_TOUCHPAD_WIDGET_EN)
 190:Generated_Source\PSoC4/CSD_Processing.c **** /*******************************************************************************
 191:Generated_Source\PSoC4/CSD_Processing.c **** * Function Name: CSD_DpInitCsxTouchpad
 192:Generated_Source\PSoC4/CSD_Processing.c **** ****************************************************************************//**
 193:Generated_Source\PSoC4/CSD_Processing.c **** *
 194:Generated_Source\PSoC4/CSD_Processing.c **** * \brief
 195:Generated_Source\PSoC4/CSD_Processing.c **** *  Performs initialization of the CSX touchpad widget i.e. Resets the position data to NONE.
 196:Generated_Source\PSoC4/CSD_Processing.c **** *
 197:Generated_Source\PSoC4/CSD_Processing.c **** * \details
 198:Generated_Source\PSoC4/CSD_Processing.c **** *  The position data is always reset to the CSD_TOUCHPAD_POS_NONE value.
 199:Generated_Source\PSoC4/CSD_Processing.c **** *
 200:Generated_Source\PSoC4/CSD_Processing.c **** *******************************************************************************/
 201:Generated_Source\PSoC4/CSD_Processing.c **** static CY_INLINE void CSD_DpInitCsxTouchpad(CSD_FLASH_WD_STRUCT const * ptrFlashWdgt)
 202:Generated_Source\PSoC4/CSD_Processing.c **** {
 203:Generated_Source\PSoC4/CSD_Processing.c ****     CSD_RAM_WD_CSX_TOUCHPAD_STRUCT *ptrWdTouchpad;
ARM GAS  C:\Users\CHRIST~1\AppData\Local\Temp\ccrDLzO7.s 			page 5


 204:Generated_Source\PSoC4/CSD_Processing.c **** 
 205:Generated_Source\PSoC4/CSD_Processing.c ****     ptrWdTouchpad = ptrFlashWdgt->ptr2WdgtRam;
 206:Generated_Source\PSoC4/CSD_Processing.c **** 
 207:Generated_Source\PSoC4/CSD_Processing.c ****     /* Reset position data for finger */
 208:Generated_Source\PSoC4/CSD_Processing.c ****     ptrWdTouchpad->touch[0u].x = CSD_TOUCHPAD_POS_NONE;
 209:Generated_Source\PSoC4/CSD_Processing.c ****     ptrWdTouchpad->touch[0u].y = CSD_TOUCHPAD_POS_NONE;
 210:Generated_Source\PSoC4/CSD_Processing.c ****     ptrWdTouchpad->touch[0u].z = LO8(CSD_TOUCHPAD_POS_NONE);
 211:Generated_Source\PSoC4/CSD_Processing.c **** 
 212:Generated_Source\PSoC4/CSD_Processing.c ****     #if (CSD_CSX_MAX_FINGERS > 1u)
 213:Generated_Source\PSoC4/CSD_Processing.c ****         ptrWdTouchpad->touch[1u].x = CSD_TOUCHPAD_POS_NONE;
 214:Generated_Source\PSoC4/CSD_Processing.c ****         ptrWdTouchpad->touch[1u].y = CSD_TOUCHPAD_POS_NONE;
 215:Generated_Source\PSoC4/CSD_Processing.c ****         ptrWdTouchpad->touch[1u].z = LO8(CSD_TOUCHPAD_POS_NONE);
 216:Generated_Source\PSoC4/CSD_Processing.c ****     #endif /* #if (CSD_CSX_MAX_FINGERS > 1u) */
 217:Generated_Source\PSoC4/CSD_Processing.c **** 
 218:Generated_Source\PSoC4/CSD_Processing.c ****     #if (CSD_CSX_MAX_FINGERS > 2u)
 219:Generated_Source\PSoC4/CSD_Processing.c ****         ptrWdTouchpad->touch[2u].x = CSD_TOUCHPAD_POS_NONE;
 220:Generated_Source\PSoC4/CSD_Processing.c ****         ptrWdTouchpad->touch[2u].y = CSD_TOUCHPAD_POS_NONE;
 221:Generated_Source\PSoC4/CSD_Processing.c ****         ptrWdTouchpad->touch[2u].z = LO8(CSD_TOUCHPAD_POS_NONE);
 222:Generated_Source\PSoC4/CSD_Processing.c ****     #endif /* #if (CSD_CSX_MAX_FINGERS > 2u) */
 223:Generated_Source\PSoC4/CSD_Processing.c **** }
 224:Generated_Source\PSoC4/CSD_Processing.c **** #endif /* #if (0u != CSD_CSX_TOUCHPAD_WIDGET_EN) */
 225:Generated_Source\PSoC4/CSD_Processing.c **** 
 226:Generated_Source\PSoC4/CSD_Processing.c **** #if (0u != CSD_SLIDER_WIDGET_EN)
 227:Generated_Source\PSoC4/CSD_Processing.c **** /*******************************************************************************
 228:Generated_Source\PSoC4/CSD_Processing.c **** * Function Name: CSD_DpInitSlider
 229:Generated_Source\PSoC4/CSD_Processing.c **** ****************************************************************************//**
 230:Generated_Source\PSoC4/CSD_Processing.c **** *
 231:Generated_Source\PSoC4/CSD_Processing.c **** * \brief
 232:Generated_Source\PSoC4/CSD_Processing.c **** *  Performs initialization of the Radial and Linear Slider widget.
 233:Generated_Source\PSoC4/CSD_Processing.c **** *   - Resets the position data to NONE
 234:Generated_Source\PSoC4/CSD_Processing.c **** *   - Initializes the median filter history to NONE if it is enabled.
 235:Generated_Source\PSoC4/CSD_Processing.c **** *
 236:Generated_Source\PSoC4/CSD_Processing.c **** * \details
 237:Generated_Source\PSoC4/CSD_Processing.c **** *  Position data is always reset to the CSD_SLIDER_POS_NONE value.
 238:Generated_Source\PSoC4/CSD_Processing.c **** *  The same happens to the median filter history data.
 239:Generated_Source\PSoC4/CSD_Processing.c **** *
 240:Generated_Source\PSoC4/CSD_Processing.c **** *******************************************************************************/
 241:Generated_Source\PSoC4/CSD_Processing.c **** static CY_INLINE void CSD_DpInitSlider(CSD_FLASH_WD_STRUCT const * ptrFlashWdgt)
 242:Generated_Source\PSoC4/CSD_Processing.c **** {
 243:Generated_Source\PSoC4/CSD_Processing.c ****     uint32 idx;
 244:Generated_Source\PSoC4/CSD_Processing.c ****     CSD_RAM_WD_SLIDER_STRUCT *ptrWdSlider;
 245:Generated_Source\PSoC4/CSD_Processing.c **** 
 246:Generated_Source\PSoC4/CSD_Processing.c ****     #if (0u != CSD_POS_MEDIAN_FILTER_EN)
 247:Generated_Source\PSoC4/CSD_Processing.c ****         CSD_SLIDER_POS_HISTORY_STRUCT *ptrHistory;
 248:Generated_Source\PSoC4/CSD_Processing.c ****     #endif /* #if (0u != CSD_POS_MEDIAN_FILTER_EN) */
 249:Generated_Source\PSoC4/CSD_Processing.c **** 
 250:Generated_Source\PSoC4/CSD_Processing.c ****     ptrWdSlider = ptrFlashWdgt->ptr2WdgtRam;
 251:Generated_Source\PSoC4/CSD_Processing.c **** 
 252:Generated_Source\PSoC4/CSD_Processing.c ****     /* Reset slider position data to NONE */
 253:Generated_Source\PSoC4/CSD_Processing.c ****     for (idx = 0u; idx < CSD_NUM_CENTROIDS; idx++)
 254:Generated_Source\PSoC4/CSD_Processing.c ****     {
 255:Generated_Source\PSoC4/CSD_Processing.c ****         ptrWdSlider->position[idx] = CSD_SLIDER_POS_NONE;
 256:Generated_Source\PSoC4/CSD_Processing.c **** 
 257:Generated_Source\PSoC4/CSD_Processing.c ****         #if (0u != CSD_POS_MEDIAN_FILTER_EN)
 258:Generated_Source\PSoC4/CSD_Processing.c ****             ptrHistory = ptrFlashWdgt->ptr2PosHistory;
 259:Generated_Source\PSoC4/CSD_Processing.c ****             
 260:Generated_Source\PSoC4/CSD_Processing.c ****             if (NULL != ptrHistory)
ARM GAS  C:\Users\CHRIST~1\AppData\Local\Temp\ccrDLzO7.s 			page 6


 261:Generated_Source\PSoC4/CSD_Processing.c ****             {
 262:Generated_Source\PSoC4/CSD_Processing.c ****                 ptrHistory[idx].posMedianZ1 = CSD_SLIDER_POS_NONE;
 263:Generated_Source\PSoC4/CSD_Processing.c ****                 ptrHistory[idx].posMedianZ2 = CSD_SLIDER_POS_NONE;
 264:Generated_Source\PSoC4/CSD_Processing.c ****             }
 265:Generated_Source\PSoC4/CSD_Processing.c ****         #endif /* #if (0u != CSD_POS_MEDIAN_FILTER_EN) */
 266:Generated_Source\PSoC4/CSD_Processing.c ****     }
 267:Generated_Source\PSoC4/CSD_Processing.c **** }
 268:Generated_Source\PSoC4/CSD_Processing.c **** #endif /* #if (0u != CSD_SLIDER_WIDGET_EN) */
 269:Generated_Source\PSoC4/CSD_Processing.c **** 
 270:Generated_Source\PSoC4/CSD_Processing.c **** #if (0u != CSD_CSD_MATRIX_WIDGET_EN)
 271:Generated_Source\PSoC4/CSD_Processing.c **** /*******************************************************************************
 272:Generated_Source\PSoC4/CSD_Processing.c **** * Function Name: CSD_DpInitCsdMatrix
 273:Generated_Source\PSoC4/CSD_Processing.c **** ****************************************************************************//**
 274:Generated_Source\PSoC4/CSD_Processing.c **** *
 275:Generated_Source\PSoC4/CSD_Processing.c **** * \brief
 276:Generated_Source\PSoC4/CSD_Processing.c **** *  Performs initialization of the CSD Matrix Buttons widget.
 277:Generated_Source\PSoC4/CSD_Processing.c **** *   - Resets the active button position data to NONE.
 278:Generated_Source\PSoC4/CSD_Processing.c **** *
 279:Generated_Source\PSoC4/CSD_Processing.c **** * \details
 280:Generated_Source\PSoC4/CSD_Processing.c **** *  Position data is always reset to the CSD_MATRIX_POS_NONE value.
 281:Generated_Source\PSoC4/CSD_Processing.c **** *
 282:Generated_Source\PSoC4/CSD_Processing.c **** *******************************************************************************/
 283:Generated_Source\PSoC4/CSD_Processing.c **** static CY_INLINE void CSD_DpInitCsdMatrix(CSD_FLASH_WD_STRUCT const * ptrFlashWdgt)
 284:Generated_Source\PSoC4/CSD_Processing.c **** {
 285:Generated_Source\PSoC4/CSD_Processing.c ****     CSD_RAM_WD_CSD_MATRIX_STRUCT *ptrRamWdgt;
 286:Generated_Source\PSoC4/CSD_Processing.c **** 
 287:Generated_Source\PSoC4/CSD_Processing.c ****     ptrRamWdgt = ptrFlashWdgt->ptr2WdgtRam;
 288:Generated_Source\PSoC4/CSD_Processing.c **** 
 289:Generated_Source\PSoC4/CSD_Processing.c ****     /* Reset sensor id, row and col registers in data structure */
 290:Generated_Source\PSoC4/CSD_Processing.c ****     ptrRamWdgt->posRow   = CSD_MATRIX_POS_NONE;
 291:Generated_Source\PSoC4/CSD_Processing.c ****     ptrRamWdgt->posCol   = CSD_MATRIX_POS_NONE;
 292:Generated_Source\PSoC4/CSD_Processing.c ****     ptrRamWdgt->posSnsId = CSD_MATRIX_POS_NONE;
 293:Generated_Source\PSoC4/CSD_Processing.c **** }
 294:Generated_Source\PSoC4/CSD_Processing.c **** #endif /* #if (0u != CSD_CSD_MATRIX_WIDGET_EN) */
 295:Generated_Source\PSoC4/CSD_Processing.c **** 
 296:Generated_Source\PSoC4/CSD_Processing.c **** /*******************************************************************************
 297:Generated_Source\PSoC4/CSD_Processing.c **** * Function Name: CSD_DpInitialize
 298:Generated_Source\PSoC4/CSD_Processing.c **** ****************************************************************************//**
 299:Generated_Source\PSoC4/CSD_Processing.c **** *
 300:Generated_Source\PSoC4/CSD_Processing.c **** * \brief
 301:Generated_Source\PSoC4/CSD_Processing.c **** *  Performs initialization of the data processing FW module:
 302:Generated_Source\PSoC4/CSD_Processing.c **** *   - Resets the de-bounce counters of all widgets
 303:Generated_Source\PSoC4/CSD_Processing.c **** *   - Resets the position filter history for slider and touchpad widgets
 304:Generated_Source\PSoC4/CSD_Processing.c **** *   - Clears widget and sensor statuses
 305:Generated_Source\PSoC4/CSD_Processing.c **** *   - Enables all widgets.
 306:Generated_Source\PSoC4/CSD_Processing.c **** *
 307:Generated_Source\PSoC4/CSD_Processing.c **** * \details
 308:Generated_Source\PSoC4/CSD_Processing.c **** *  The Button and Matrix Button widgets have individual de-bounce counter per
 309:Generated_Source\PSoC4/CSD_Processing.c **** *  sensor for the CSD widgets and per node for the CSX widgets.
 310:Generated_Source\PSoC4/CSD_Processing.c **** *
 311:Generated_Source\PSoC4/CSD_Processing.c **** *  The Slider and Touchpad widgets have a single de-bounce counter per widget.
 312:Generated_Source\PSoC4/CSD_Processing.c **** *
 313:Generated_Source\PSoC4/CSD_Processing.c **** *  The Proximity widget has two de-bounce counters per sensor. One for the
 314:Generated_Source\PSoC4/CSD_Processing.c **** *  proximity event and second for the touch event.
 315:Generated_Source\PSoC4/CSD_Processing.c **** *
 316:Generated_Source\PSoC4/CSD_Processing.c **** *  All debounce counters during initialization are set to the value of the
 317:Generated_Source\PSoC4/CSD_Processing.c **** *  onDebounce widget parameter.
ARM GAS  C:\Users\CHRIST~1\AppData\Local\Temp\ccrDLzO7.s 			page 7


 318:Generated_Source\PSoC4/CSD_Processing.c **** *
 319:Generated_Source\PSoC4/CSD_Processing.c **** *******************************************************************************/
 320:Generated_Source\PSoC4/CSD_Processing.c **** void CSD_DpInitialize(void)
 321:Generated_Source\PSoC4/CSD_Processing.c **** {
  26              		.loc 1 321 0
  27              		.cfi_startproc
  28 0000 80B5     		push	{r7, lr}
  29              		.cfi_def_cfa_offset 8
  30              		.cfi_offset 7, -8
  31              		.cfi_offset 14, -4
  32 0002 84B0     		sub	sp, sp, #16
  33              		.cfi_def_cfa_offset 24
  34 0004 00AF     		add	r7, sp, #0
  35              		.cfi_def_cfa_register 7
 322:Generated_Source\PSoC4/CSD_Processing.c ****     uint32 wdgtId;
 323:Generated_Source\PSoC4/CSD_Processing.c ****     CSD_WD_TYPE_ENUM widgetType;
 324:Generated_Source\PSoC4/CSD_Processing.c ****     CSD_RAM_WD_BASE_STRUCT * ptrRamWdgt;
 325:Generated_Source\PSoC4/CSD_Processing.c ****     CSD_FLASH_WD_STRUCT const * ptrFlashWdgt;
 326:Generated_Source\PSoC4/CSD_Processing.c **** 
 327:Generated_Source\PSoC4/CSD_Processing.c ****     for (wdgtId = 0u; wdgtId < CSD_WDGT_STATUS_WORDS; wdgtId++)
  36              		.loc 1 327 0
  37 0006 0023     		mov	r3, #0
  38 0008 FB60     		str	r3, [r7, #12]
  39 000a 10E0     		b	.L2
  40              	.L3:
 328:Generated_Source\PSoC4/CSD_Processing.c ****     {
 329:Generated_Source\PSoC4/CSD_Processing.c ****         /* Clear widget status */
 330:Generated_Source\PSoC4/CSD_Processing.c ****         CSD_dsRam.wdgtStatus[wdgtId] = 0u;
  41              		.loc 1 330 0 discriminator 3
  42 000c 234B     		ldr	r3, .L11
  43 000e FA68     		ldr	r2, [r7, #12]
  44 0010 0432     		add	r2, r2, #4
  45 0012 9200     		lsl	r2, r2, #2
  46 0014 0021     		mov	r1, #0
  47 0016 D150     		str	r1, [r2, r3]
 331:Generated_Source\PSoC4/CSD_Processing.c **** 
 332:Generated_Source\PSoC4/CSD_Processing.c ****         /* Enable all widgets */
 333:Generated_Source\PSoC4/CSD_Processing.c ****         CSD_dsRam.wdgtEnable[wdgtId] = 0xFFFFFFFFLu;
  48              		.loc 1 333 0 discriminator 3
  49 0018 204A     		ldr	r2, .L11
  50 001a FB68     		ldr	r3, [r7, #12]
  51 001c 0233     		add	r3, r3, #2
  52 001e 9B00     		lsl	r3, r3, #2
  53 0020 D318     		add	r3, r2, r3
  54 0022 0122     		mov	r2, #1
  55 0024 5242     		neg	r2, r2
  56 0026 5A60     		str	r2, [r3, #4]
 327:Generated_Source\PSoC4/CSD_Processing.c ****     {
  57              		.loc 1 327 0 discriminator 3
  58 0028 FB68     		ldr	r3, [r7, #12]
  59 002a 0133     		add	r3, r3, #1
  60 002c FB60     		str	r3, [r7, #12]
  61              	.L2:
 327:Generated_Source\PSoC4/CSD_Processing.c ****     {
  62              		.loc 1 327 0 is_stmt 0 discriminator 1
  63 002e FB68     		ldr	r3, [r7, #12]
  64 0030 002B     		cmp	r3, #0
ARM GAS  C:\Users\CHRIST~1\AppData\Local\Temp\ccrDLzO7.s 			page 8


  65 0032 EBD0     		beq	.L3
 334:Generated_Source\PSoC4/CSD_Processing.c **** 
 335:Generated_Source\PSoC4/CSD_Processing.c ****         /* Set all widgets to working state if the Self-Test is not enabled */
 336:Generated_Source\PSoC4/CSD_Processing.c ****         #if (0u != CSD_SELF_TEST_EN)
 337:Generated_Source\PSoC4/CSD_Processing.c ****             CSD_dsRam.wdgtWorking[wdgtId] = 0xFFFFFFFFLu;
 338:Generated_Source\PSoC4/CSD_Processing.c ****         #endif /* #if (0u == CSD_SELF_TEST_EN) */
 339:Generated_Source\PSoC4/CSD_Processing.c ****     }
 340:Generated_Source\PSoC4/CSD_Processing.c **** 
 341:Generated_Source\PSoC4/CSD_Processing.c ****     ptrFlashWdgt = CSD_dsFlash.wdgtArray;
  66              		.loc 1 341 0 is_stmt 1
  67 0034 1A4B     		ldr	r3, .L11+4
  68 0036 BB60     		str	r3, [r7, #8]
 342:Generated_Source\PSoC4/CSD_Processing.c **** 
 343:Generated_Source\PSoC4/CSD_Processing.c ****     for (wdgtId = CSD_TOTAL_WIDGETS; wdgtId-- > 0u; )
  69              		.loc 1 343 0
  70 0038 0123     		mov	r3, #1
  71 003a FB60     		str	r3, [r7, #12]
  72 003c 25E0     		b	.L4
  73              	.L9:
 344:Generated_Source\PSoC4/CSD_Processing.c ****     {
 345:Generated_Source\PSoC4/CSD_Processing.c ****         ptrRamWdgt = ptrFlashWdgt->ptr2WdgtRam;
  74              		.loc 1 345 0
  75 003e BB68     		ldr	r3, [r7, #8]
  76 0040 5B68     		ldr	r3, [r3, #4]
  77 0042 7B60     		str	r3, [r7, #4]
 346:Generated_Source\PSoC4/CSD_Processing.c ****         widgetType = (CSD_WD_TYPE_ENUM)ptrFlashWdgt->wdgtType;
  78              		.loc 1 346 0
  79 0044 FB1C     		add	r3, r7, #3
  80 0046 BA68     		ldr	r2, [r7, #8]
  81 0048 127E     		ldrb	r2, [r2, #24]
  82 004a 1A70     		strb	r2, [r3]
 347:Generated_Source\PSoC4/CSD_Processing.c **** 
 348:Generated_Source\PSoC4/CSD_Processing.c ****         /* Clear all sensor statuses */
 349:Generated_Source\PSoC4/CSD_Processing.c ****         CSD_dsRam.snsStatus[wdgtId] = 0u;
  83              		.loc 1 349 0
  84 004c 134A     		ldr	r2, .L11
  85 004e FB68     		ldr	r3, [r7, #12]
  86 0050 D318     		add	r3, r2, r3
  87 0052 1033     		add	r3, r3, #16
  88 0054 0022     		mov	r2, #0
  89 0056 1A71     		strb	r2, [r3, #4]
 350:Generated_Source\PSoC4/CSD_Processing.c **** 
 351:Generated_Source\PSoC4/CSD_Processing.c ****         /* Reset de-bounce counters */
 352:Generated_Source\PSoC4/CSD_Processing.c ****         switch (widgetType)
  90              		.loc 1 352 0
  91 0058 FB1C     		add	r3, r7, #3
  92 005a 1B78     		ldrb	r3, [r3]
  93 005c 012B     		cmp	r3, #1
  94 005e 00D0     		beq	.L6
 353:Generated_Source\PSoC4/CSD_Processing.c ****         {
 354:Generated_Source\PSoC4/CSD_Processing.c ****         #if (0u != CSD_MATRIX_WIDGET_EN)
 355:Generated_Source\PSoC4/CSD_Processing.c ****             case CSD_WD_MATRIX_BUTTON_E:
 356:Generated_Source\PSoC4/CSD_Processing.c ****                 #if (0u != CSD_CSD_MATRIX_WIDGET_EN)
 357:Generated_Source\PSoC4/CSD_Processing.c ****                     if (CSD_SENSE_METHOD_CSD_E == CSD_GET_SENSE_METHOD(ptrFlashWdgt))
 358:Generated_Source\PSoC4/CSD_Processing.c ****                     {
 359:Generated_Source\PSoC4/CSD_Processing.c ****                         CSD_DpInitCsdMatrix(ptrFlashWdgt);
 360:Generated_Source\PSoC4/CSD_Processing.c ****                     }
ARM GAS  C:\Users\CHRIST~1\AppData\Local\Temp\ccrDLzO7.s 			page 9


 361:Generated_Source\PSoC4/CSD_Processing.c ****                 #endif /* #if (0u != CSD_CSD_MATRIX_WIDGET_EN) */
 362:Generated_Source\PSoC4/CSD_Processing.c ****                 
 363:Generated_Source\PSoC4/CSD_Processing.c ****                 if (NULL != ptrFlashWdgt->ptr2DebounceArr)
 364:Generated_Source\PSoC4/CSD_Processing.c ****                 {
 365:Generated_Source\PSoC4/CSD_Processing.c ****                     /* Initialize array of debounce counters */
 366:Generated_Source\PSoC4/CSD_Processing.c ****                     (void)memset(ptrFlashWdgt->ptr2DebounceArr, 
 367:Generated_Source\PSoC4/CSD_Processing.c ****                                  (int32)ptrRamWdgt->onDebounce, 
 368:Generated_Source\PSoC4/CSD_Processing.c ****                                  (size_t)ptrFlashWdgt->totalNumSns);
 369:Generated_Source\PSoC4/CSD_Processing.c ****                 }
 370:Generated_Source\PSoC4/CSD_Processing.c ****                 break;
 371:Generated_Source\PSoC4/CSD_Processing.c ****         #endif /* #if (0u != CSD_MATRIX_WIDGET_EN) */
 372:Generated_Source\PSoC4/CSD_Processing.c ****         
 373:Generated_Source\PSoC4/CSD_Processing.c ****         #if (0u != CSD_BUTTON_WIDGET_EN)
 374:Generated_Source\PSoC4/CSD_Processing.c ****             case CSD_WD_BUTTON_E:
 375:Generated_Source\PSoC4/CSD_Processing.c ****                 if (NULL != ptrFlashWdgt->ptr2DebounceArr)
 376:Generated_Source\PSoC4/CSD_Processing.c ****                 {
 377:Generated_Source\PSoC4/CSD_Processing.c ****                     /* Initialize array of debounce counters */
 378:Generated_Source\PSoC4/CSD_Processing.c ****                     (void)memset(ptrFlashWdgt->ptr2DebounceArr, 
 379:Generated_Source\PSoC4/CSD_Processing.c ****                                  (int32)ptrRamWdgt->onDebounce, 
 380:Generated_Source\PSoC4/CSD_Processing.c ****                                  (size_t)ptrFlashWdgt->totalNumSns);
 381:Generated_Source\PSoC4/CSD_Processing.c ****                 }
 382:Generated_Source\PSoC4/CSD_Processing.c ****                 break;
 383:Generated_Source\PSoC4/CSD_Processing.c ****         #endif /* #if (0u != CSD_BUTTON_WIDGET_EN) */
 384:Generated_Source\PSoC4/CSD_Processing.c **** 
 385:Generated_Source\PSoC4/CSD_Processing.c ****         #if (0u != CSD_SLIDER_WIDGET_EN)
 386:Generated_Source\PSoC4/CSD_Processing.c ****             case CSD_WD_LINEAR_SLIDER_E:
 387:Generated_Source\PSoC4/CSD_Processing.c ****             case CSD_WD_RADIAL_SLIDER_E:
 388:Generated_Source\PSoC4/CSD_Processing.c ****                 if (NULL != ptrFlashWdgt->ptr2DebounceArr)
 389:Generated_Source\PSoC4/CSD_Processing.c ****                 {
 390:Generated_Source\PSoC4/CSD_Processing.c ****                     /* Initialize single debounce counter of slider */
 391:Generated_Source\PSoC4/CSD_Processing.c ****                     *(uint8 *)(ptrFlashWdgt->ptr2DebounceArr) = ptrRamWdgt->onDebounce;
 392:Generated_Source\PSoC4/CSD_Processing.c ****                 }
 393:Generated_Source\PSoC4/CSD_Processing.c **** 
 394:Generated_Source\PSoC4/CSD_Processing.c ****                 CSD_DpInitSlider(ptrFlashWdgt);
 395:Generated_Source\PSoC4/CSD_Processing.c **** 
 396:Generated_Source\PSoC4/CSD_Processing.c ****                 break;
 397:Generated_Source\PSoC4/CSD_Processing.c ****         #endif /* #if (0u != CSD_SLIDER_WIDGET_EN) */
 398:Generated_Source\PSoC4/CSD_Processing.c **** 
 399:Generated_Source\PSoC4/CSD_Processing.c ****         #if (0u != CSD_TOUCHPAD_WIDGET_EN)
 400:Generated_Source\PSoC4/CSD_Processing.c ****             case CSD_WD_TOUCHPAD_E:
 401:Generated_Source\PSoC4/CSD_Processing.c ****                 if (NULL != ptrFlashWdgt->ptr2DebounceArr)
 402:Generated_Source\PSoC4/CSD_Processing.c ****                 {
 403:Generated_Source\PSoC4/CSD_Processing.c ****                     /* Initialize single debounce counter of touchpad */
 404:Generated_Source\PSoC4/CSD_Processing.c ****                     *(uint8 *)(ptrFlashWdgt->ptr2DebounceArr) = ptrRamWdgt->onDebounce;
 405:Generated_Source\PSoC4/CSD_Processing.c ****                 }
 406:Generated_Source\PSoC4/CSD_Processing.c **** 
 407:Generated_Source\PSoC4/CSD_Processing.c ****                 #if (0u != CSD_CSD_TOUCHPAD_WIDGET_EN)
 408:Generated_Source\PSoC4/CSD_Processing.c ****                     if (CSD_SENSE_METHOD_CSD_E == CSD_GET_SENSE_METHOD(ptrFlashWdgt))
 409:Generated_Source\PSoC4/CSD_Processing.c ****                     {
 410:Generated_Source\PSoC4/CSD_Processing.c ****                         CSD_DpInitCsdTouchpad(ptrFlashWdgt);
 411:Generated_Source\PSoC4/CSD_Processing.c ****                     }
 412:Generated_Source\PSoC4/CSD_Processing.c ****                 #endif /* #if (0u != CSD_CSD_TOUCHPAD_WIDGET_EN) */
 413:Generated_Source\PSoC4/CSD_Processing.c **** 
 414:Generated_Source\PSoC4/CSD_Processing.c ****                 #if (0u != CSD_CSX_TOUCHPAD_WIDGET_EN)
 415:Generated_Source\PSoC4/CSD_Processing.c ****                     if (CSD_SENSE_METHOD_CSX_E == CSD_GET_SENSE_METHOD(ptrFlashWdgt))
 416:Generated_Source\PSoC4/CSD_Processing.c ****                     {
 417:Generated_Source\PSoC4/CSD_Processing.c ****                         CSD_DpInitCsxTouchpad(ptrFlashWdgt);
ARM GAS  C:\Users\CHRIST~1\AppData\Local\Temp\ccrDLzO7.s 			page 10


 418:Generated_Source\PSoC4/CSD_Processing.c ****                     }
 419:Generated_Source\PSoC4/CSD_Processing.c ****                 #endif /* #if (0u != CSD_CSX_TOUCHPAD_WIDGET_EN) */
 420:Generated_Source\PSoC4/CSD_Processing.c **** 
 421:Generated_Source\PSoC4/CSD_Processing.c ****                 break;
 422:Generated_Source\PSoC4/CSD_Processing.c ****         #endif /* #if (0u != CSD_TOUCHPAD_WIDGET_EN) */
 423:Generated_Source\PSoC4/CSD_Processing.c **** 
 424:Generated_Source\PSoC4/CSD_Processing.c ****         #if (0u != CSD_PROXIMITY_WIDGET_EN)
 425:Generated_Source\PSoC4/CSD_Processing.c ****             case CSD_WD_PROXIMITY_E:
 426:Generated_Source\PSoC4/CSD_Processing.c ****                 if (NULL != ptrFlashWdgt->ptr2DebounceArr)
 427:Generated_Source\PSoC4/CSD_Processing.c ****                 {
 428:Generated_Source\PSoC4/CSD_Processing.c ****                     /* Proximity widgets have 2 de-bounce counters per sensor. 
 429:Generated_Source\PSoC4/CSD_Processing.c ****                      * Therefore the number of sensors is multiplied by 2. 
 430:Generated_Source\PSoC4/CSD_Processing.c ****                      */
 431:Generated_Source\PSoC4/CSD_Processing.c ****                    (void)memset(ptrFlashWdgt->ptr2DebounceArr, 
 432:Generated_Source\PSoC4/CSD_Processing.c ****                                 (int32)ptrRamWdgt->onDebounce, 
 433:Generated_Source\PSoC4/CSD_Processing.c ****                                 (size_t)ptrFlashWdgt->totalNumSns * 2u);
 434:Generated_Source\PSoC4/CSD_Processing.c ****                 }
 435:Generated_Source\PSoC4/CSD_Processing.c ****                 break;
 436:Generated_Source\PSoC4/CSD_Processing.c ****         #endif /* #if (0u != CSD_PROXIMITY_WIDGET_EN) */
 437:Generated_Source\PSoC4/CSD_Processing.c ****                 
 438:Generated_Source\PSoC4/CSD_Processing.c ****             default:
 439:Generated_Source\PSoC4/CSD_Processing.c ****                 break;
  95              		.loc 1 439 0
  96 0060 10E0     		b	.L8
  97              	.L6:
 375:Generated_Source\PSoC4/CSD_Processing.c ****                 {
  98              		.loc 1 375 0
  99 0062 BB68     		ldr	r3, [r7, #8]
 100 0064 1B69     		ldr	r3, [r3, #16]
 101 0066 002B     		cmp	r3, #0
 102 0068 0BD0     		beq	.L7
 378:Generated_Source\PSoC4/CSD_Processing.c ****                                  (int32)ptrRamWdgt->onDebounce, 
 103              		.loc 1 378 0
 104 006a BB68     		ldr	r3, [r7, #8]
 105 006c 1A69     		ldr	r2, [r3, #16]
 379:Generated_Source\PSoC4/CSD_Processing.c ****                                  (size_t)ptrFlashWdgt->totalNumSns);
 106              		.loc 1 379 0
 107 006e 7B68     		ldr	r3, [r7, #4]
 108 0070 DB79     		ldrb	r3, [r3, #7]
 378:Generated_Source\PSoC4/CSD_Processing.c ****                                  (int32)ptrRamWdgt->onDebounce, 
 109              		.loc 1 378 0
 110 0072 191C     		mov	r1, r3
 380:Generated_Source\PSoC4/CSD_Processing.c ****                 }
 111              		.loc 1 380 0
 112 0074 BB68     		ldr	r3, [r7, #8]
 113 0076 DB8A     		ldrh	r3, [r3, #22]
 378:Generated_Source\PSoC4/CSD_Processing.c ****                                  (int32)ptrRamWdgt->onDebounce, 
 114              		.loc 1 378 0
 115 0078 101C     		mov	r0, r2
 116 007a 1A1C     		mov	r2, r3
 117 007c FFF7FEFF 		bl	memset
 382:Generated_Source\PSoC4/CSD_Processing.c ****         #endif /* #if (0u != CSD_BUTTON_WIDGET_EN) */
 118              		.loc 1 382 0
 119 0080 FFE7     		b	.L10
 120              	.L7:
 121              	.L10:
 122 0082 C046     		mov	r8, r8
ARM GAS  C:\Users\CHRIST~1\AppData\Local\Temp\ccrDLzO7.s 			page 11


 123              	.L8:
 440:Generated_Source\PSoC4/CSD_Processing.c ****         }
 441:Generated_Source\PSoC4/CSD_Processing.c **** 
 442:Generated_Source\PSoC4/CSD_Processing.c ****         /* Move to next widget */
 443:Generated_Source\PSoC4/CSD_Processing.c ****         ptrFlashWdgt++;
 124              		.loc 1 443 0
 125 0084 BB68     		ldr	r3, [r7, #8]
 126 0086 1C33     		add	r3, r3, #28
 127 0088 BB60     		str	r3, [r7, #8]
 128              	.L4:
 343:Generated_Source\PSoC4/CSD_Processing.c ****     {
 129              		.loc 1 343 0 discriminator 1
 130 008a FB68     		ldr	r3, [r7, #12]
 131 008c 5A1E     		sub	r2, r3, #1
 132 008e FA60     		str	r2, [r7, #12]
 133 0090 002B     		cmp	r3, #0
 134 0092 D4D1     		bne	.L9
 444:Generated_Source\PSoC4/CSD_Processing.c ****     }
 445:Generated_Source\PSoC4/CSD_Processing.c **** }
 135              		.loc 1 445 0
 136 0094 BD46     		mov	sp, r7
 137 0096 04B0     		add	sp, sp, #16
 138              		@ sp needed
 139 0098 80BD     		pop	{r7, pc}
 140              	.L12:
 141 009a C046     		.align	2
 142              	.L11:
 143 009c 00000000 		.word	CSD_dsRam
 144 00a0 00000000 		.word	CSD_dsFlash
 145              		.cfi_endproc
 146              	.LFE1:
 147              		.size	CSD_DpInitialize, .-CSD_DpInitialize
 148              		.section	.text.CSD_DpProcessCsdWidgetRawCounts,"ax",%progbits
 149              		.align	2
 150              		.global	CSD_DpProcessCsdWidgetRawCounts
 151              		.code	16
 152              		.thumb_func
 153              		.type	CSD_DpProcessCsdWidgetRawCounts, %function
 154              	CSD_DpProcessCsdWidgetRawCounts:
 155              	.LFB2:
 446:Generated_Source\PSoC4/CSD_Processing.c **** 
 447:Generated_Source\PSoC4/CSD_Processing.c **** #if (0u != CSD_TOTAL_CSX_WIDGETS)
 448:Generated_Source\PSoC4/CSD_Processing.c **** /*******************************************************************************
 449:Generated_Source\PSoC4/CSD_Processing.c **** * Function Name: CSD_DpProcessCsxWidgetRawCounts
 450:Generated_Source\PSoC4/CSD_Processing.c **** ****************************************************************************//**
 451:Generated_Source\PSoC4/CSD_Processing.c **** *
 452:Generated_Source\PSoC4/CSD_Processing.c **** * \brief
 453:Generated_Source\PSoC4/CSD_Processing.c **** *  Performs default processing of the CSX raw counts.
 454:Generated_Source\PSoC4/CSD_Processing.c **** *
 455:Generated_Source\PSoC4/CSD_Processing.c **** * \details
 456:Generated_Source\PSoC4/CSD_Processing.c **** *  Performs default processing of the CSX raw counts:
 457:Generated_Source\PSoC4/CSD_Processing.c **** *   - Run Filters
 458:Generated_Source\PSoC4/CSD_Processing.c **** *   - Update Baselines
 459:Generated_Source\PSoC4/CSD_Processing.c **** *   - Update Differences
 460:Generated_Source\PSoC4/CSD_Processing.c **** *   - Update Status.
 461:Generated_Source\PSoC4/CSD_Processing.c **** *  The same process is applied to all sensors of the specified widget.
 462:Generated_Source\PSoC4/CSD_Processing.c **** *
ARM GAS  C:\Users\CHRIST~1\AppData\Local\Temp\ccrDLzO7.s 			page 12


 463:Generated_Source\PSoC4/CSD_Processing.c **** * \param ptrFlashWdgt The pointer to the Flash widget structure.
 464:Generated_Source\PSoC4/CSD_Processing.c **** *
 465:Generated_Source\PSoC4/CSD_Processing.c **** *******************************************************************************/
 466:Generated_Source\PSoC4/CSD_Processing.c **** void CSD_DpProcessCsxWidgetRawCounts(CSD_FLASH_WD_STRUCT const *ptrFlashWdgt)
 467:Generated_Source\PSoC4/CSD_Processing.c **** {
 468:Generated_Source\PSoC4/CSD_Processing.c ****     uint32  widgetType;
 469:Generated_Source\PSoC4/CSD_Processing.c ****     uint32  snsCount;
 470:Generated_Source\PSoC4/CSD_Processing.c ****     CSD_RAM_SNS_STRUCT *ptrSns;
 471:Generated_Source\PSoC4/CSD_Processing.c ****     CSD_RAM_WD_BASE_STRUCT *ptrRamWdgt;
 472:Generated_Source\PSoC4/CSD_Processing.c **** 
 473:Generated_Source\PSoC4/CSD_Processing.c ****     #if (0u != DP_FW_FILTER_EN)
 474:Generated_Source\PSoC4/CSD_Processing.c ****         CSD_PTR_FILTER_VARIANT fltrHistV;
 475:Generated_Source\PSoC4/CSD_Processing.c ****         
 476:Generated_Source\PSoC4/CSD_Processing.c ****         fltrHistV.ptr = ptrFlashWdgt->ptr2FltrHistory;
 477:Generated_Source\PSoC4/CSD_Processing.c ****     #endif /* #if (0u != DP_FW_FILTER_EN) */
 478:Generated_Source\PSoC4/CSD_Processing.c **** 
 479:Generated_Source\PSoC4/CSD_Processing.c ****     ptrSns = ptrFlashWdgt->ptr2SnsRam;
 480:Generated_Source\PSoC4/CSD_Processing.c ****     snsCount = ptrFlashWdgt->totalNumSns;
 481:Generated_Source\PSoC4/CSD_Processing.c ****     ptrRamWdgt = ptrFlashWdgt->ptr2WdgtRam;
 482:Generated_Source\PSoC4/CSD_Processing.c ****     widgetType = ptrFlashWdgt->wdgtType;
 483:Generated_Source\PSoC4/CSD_Processing.c **** 
 484:Generated_Source\PSoC4/CSD_Processing.c ****     /* Run deconvolution algorithm for the widgets with multiphase TX support */
 485:Generated_Source\PSoC4/CSD_Processing.c ****     #if (0u != CSD_CSX_MULTIPHASE_TX_EN)
 486:Generated_Source\PSoC4/CSD_Processing.c ****         if (0u != (ptrFlashWdgt->staticConfig & CSD_MULTIPHASE_TX_MASK))
 487:Generated_Source\PSoC4/CSD_Processing.c ****         {
 488:Generated_Source\PSoC4/CSD_Processing.c ****             CSD_DpDeconvolution(ptrFlashWdgt);
 489:Generated_Source\PSoC4/CSD_Processing.c ****         }
 490:Generated_Source\PSoC4/CSD_Processing.c ****     #endif  /* #if (0u != CSD_CSX_MULTIPHASE_TX_EN) */   
 491:Generated_Source\PSoC4/CSD_Processing.c ****     
 492:Generated_Source\PSoC4/CSD_Processing.c ****     for (;snsCount-- > 0u;)
 493:Generated_Source\PSoC4/CSD_Processing.c ****     {
 494:Generated_Source\PSoC4/CSD_Processing.c ****         #if (0u != CSD_CSX_SKIP_OVSMPL_SPECIFIC_NODES)
 495:Generated_Source\PSoC4/CSD_Processing.c ****             if (0u != ptrSns->resolution)
 496:Generated_Source\PSoC4/CSD_Processing.c ****         #endif
 497:Generated_Source\PSoC4/CSD_Processing.c ****             {
 498:Generated_Source\PSoC4/CSD_Processing.c ****                 #if (0u != DP_FW_FILTER_EN)
 499:Generated_Source\PSoC4/CSD_Processing.c ****                     CSD_FtRunEnabledFiltersInternal(fltrHistV, ptrSns, widgetType);
 500:Generated_Source\PSoC4/CSD_Processing.c ****                 #endif /* #if (0u != DP_FW_FILTER_EN) */
 501:Generated_Source\PSoC4/CSD_Processing.c **** 
 502:Generated_Source\PSoC4/CSD_Processing.c ****                 (void)CSD_FtUpdateBaseline(ptrRamWdgt, ptrSns, widgetType);
 503:Generated_Source\PSoC4/CSD_Processing.c ****                 CSD_DpUpdateDifferences(ptrRamWdgt, ptrSns);
 504:Generated_Source\PSoC4/CSD_Processing.c ****             }
 505:Generated_Source\PSoC4/CSD_Processing.c **** 
 506:Generated_Source\PSoC4/CSD_Processing.c ****         /* Move pointers to the next sensor and filter history objects */
 507:Generated_Source\PSoC4/CSD_Processing.c ****         ptrSns++;
 508:Generated_Source\PSoC4/CSD_Processing.c ****             
 509:Generated_Source\PSoC4/CSD_Processing.c ****         #if (0u != DP_FW_FILTER_EN)
 510:Generated_Source\PSoC4/CSD_Processing.c ****             CSD_INC_FLTR_OBJ_VARIANT(0u, fltrHistV);
 511:Generated_Source\PSoC4/CSD_Processing.c ****         #endif /* #if (0u != DP_FW_FILTER_EN) */
 512:Generated_Source\PSoC4/CSD_Processing.c ****     }
 513:Generated_Source\PSoC4/CSD_Processing.c **** }
 514:Generated_Source\PSoC4/CSD_Processing.c **** 
 515:Generated_Source\PSoC4/CSD_Processing.c **** /*******************************************************************************
 516:Generated_Source\PSoC4/CSD_Processing.c **** * Function Name: CSD_DpProcessCsxSensorRawCountsExt
 517:Generated_Source\PSoC4/CSD_Processing.c **** ****************************************************************************//**
 518:Generated_Source\PSoC4/CSD_Processing.c **** *
 519:Generated_Source\PSoC4/CSD_Processing.c **** * \brief
ARM GAS  C:\Users\CHRIST~1\AppData\Local\Temp\ccrDLzO7.s 			page 13


 520:Generated_Source\PSoC4/CSD_Processing.c **** *   Performs customized processing of the CSX sensor raw counts.
 521:Generated_Source\PSoC4/CSD_Processing.c **** *
 522:Generated_Source\PSoC4/CSD_Processing.c **** * \details
 523:Generated_Source\PSoC4/CSD_Processing.c **** *   Performs customized processing of the CSX sensor raw counts.
 524:Generated_Source\PSoC4/CSD_Processing.c **** *
 525:Generated_Source\PSoC4/CSD_Processing.c **** *   If all bits are set at once the default processing order will take place.
 526:Generated_Source\PSoC4/CSD_Processing.c **** *   For the custom order this API can be called multiple times and execute one task at a time.
 527:Generated_Source\PSoC4/CSD_Processing.c **** *
 528:Generated_Source\PSoC4/CSD_Processing.c **** * \param ptrFlashWdgt The pointer to the Flash Widget Object.
 529:Generated_Source\PSoC4/CSD_Processing.c **** * \param ptrSns       The pointer to the specific RAM Sensor Object.
 530:Generated_Source\PSoC4/CSD_Processing.c **** * \param fltrHistV    The pointer to the Filter History Object in RAM associated with specific sens
 531:Generated_Source\PSoC4/CSD_Processing.c **** * \param mode         The bit-mask with the data processing tasks to be executed.
 532:Generated_Source\PSoC4/CSD_Processing.c **** *   The mode parameters can take the following values:
 533:Generated_Source\PSoC4/CSD_Processing.c **** *    - CSD_PROCESS_FILTER     (0x01) Run Firmware Filter
 534:Generated_Source\PSoC4/CSD_Processing.c **** *    - CSD_PROCESS_BASELINE   (0x02) Update Baselines
 535:Generated_Source\PSoC4/CSD_Processing.c **** *    - CSD_PROCESS_DIFFCOUNTS (0x04) Update Difference Counts
 536:Generated_Source\PSoC4/CSD_Processing.c **** *    - CSD_PROCESS_ALL               Execute all tasks
 537:Generated_Source\PSoC4/CSD_Processing.c **** *
 538:Generated_Source\PSoC4/CSD_Processing.c **** *******************************************************************************/
 539:Generated_Source\PSoC4/CSD_Processing.c **** void CSD_DpProcessCsxSensorRawCountsExt(
 540:Generated_Source\PSoC4/CSD_Processing.c ****                 CSD_FLASH_WD_STRUCT const *ptrFlashWdgt,
 541:Generated_Source\PSoC4/CSD_Processing.c ****                 CSD_RAM_SNS_STRUCT *ptrSns,
 542:Generated_Source\PSoC4/CSD_Processing.c ****                 CSD_PTR_FILTER_VARIANT fltrHistV,
 543:Generated_Source\PSoC4/CSD_Processing.c ****                 uint32 mode)
 544:Generated_Source\PSoC4/CSD_Processing.c **** {
 545:Generated_Source\PSoC4/CSD_Processing.c ****     uint32  widgetType;
 546:Generated_Source\PSoC4/CSD_Processing.c ****     CSD_RAM_WD_BASE_STRUCT *ptrRamWdgt;
 547:Generated_Source\PSoC4/CSD_Processing.c **** 
 548:Generated_Source\PSoC4/CSD_Processing.c ****     widgetType = ptrFlashWdgt->wdgtType;
 549:Generated_Source\PSoC4/CSD_Processing.c ****     ptrRamWdgt = ptrFlashWdgt->ptr2WdgtRam;
 550:Generated_Source\PSoC4/CSD_Processing.c ****     
 551:Generated_Source\PSoC4/CSD_Processing.c ****     #if (0u != DP_FW_FILTER_EN)
 552:Generated_Source\PSoC4/CSD_Processing.c ****         if (0u != (mode & CSD_PROCESS_FILTER))
 553:Generated_Source\PSoC4/CSD_Processing.c ****         {
 554:Generated_Source\PSoC4/CSD_Processing.c ****             CSD_FtRunEnabledFiltersInternal(fltrHistV, ptrSns, widgetType);
 555:Generated_Source\PSoC4/CSD_Processing.c ****         }
 556:Generated_Source\PSoC4/CSD_Processing.c ****     #else
 557:Generated_Source\PSoC4/CSD_Processing.c ****         (void)fltrHistV; /* This parameter is unused in such configurations */
 558:Generated_Source\PSoC4/CSD_Processing.c ****     #endif /* #if (0u != DP_FW_FILTER_EN) */
 559:Generated_Source\PSoC4/CSD_Processing.c **** 
 560:Generated_Source\PSoC4/CSD_Processing.c ****     if (0u != (mode & CSD_PROCESS_BASELINE))
 561:Generated_Source\PSoC4/CSD_Processing.c ****     {
 562:Generated_Source\PSoC4/CSD_Processing.c ****         (void)CSD_FtUpdateBaseline(ptrRamWdgt, ptrSns, widgetType);
 563:Generated_Source\PSoC4/CSD_Processing.c ****     }
 564:Generated_Source\PSoC4/CSD_Processing.c **** 
 565:Generated_Source\PSoC4/CSD_Processing.c ****     if (0u != (mode & CSD_PROCESS_DIFFCOUNTS))
 566:Generated_Source\PSoC4/CSD_Processing.c ****     {
 567:Generated_Source\PSoC4/CSD_Processing.c ****         CSD_DpUpdateDifferences(ptrRamWdgt, ptrSns);
 568:Generated_Source\PSoC4/CSD_Processing.c ****     }
 569:Generated_Source\PSoC4/CSD_Processing.c **** }
 570:Generated_Source\PSoC4/CSD_Processing.c **** 
 571:Generated_Source\PSoC4/CSD_Processing.c **** 
 572:Generated_Source\PSoC4/CSD_Processing.c **** /*******************************************************************************
 573:Generated_Source\PSoC4/CSD_Processing.c **** * Function Name: CSD_DpProcessCsxWidgetStatus
 574:Generated_Source\PSoC4/CSD_Processing.c **** ****************************************************************************//**
 575:Generated_Source\PSoC4/CSD_Processing.c **** *
 576:Generated_Source\PSoC4/CSD_Processing.c **** * \brief
ARM GAS  C:\Users\CHRIST~1\AppData\Local\Temp\ccrDLzO7.s 			page 14


 577:Generated_Source\PSoC4/CSD_Processing.c **** *   Updates the status of the CSX widget in the Data Structure.
 578:Generated_Source\PSoC4/CSD_Processing.c **** *
 579:Generated_Source\PSoC4/CSD_Processing.c **** * \details
 580:Generated_Source\PSoC4/CSD_Processing.c **** *  This API determines the type of widget and runs the appropriate function
 581:Generated_Source\PSoC4/CSD_Processing.c **** *  that implements the status update algorithm for this type of widget.
 582:Generated_Source\PSoC4/CSD_Processing.c **** *
 583:Generated_Source\PSoC4/CSD_Processing.c **** *  When the widget-specific processing completes this API updates the snsStatus
 584:Generated_Source\PSoC4/CSD_Processing.c **** *  and wdgtStatus registers in the data structure. The wdgtStatus register
 585:Generated_Source\PSoC4/CSD_Processing.c **** *  is a bitmask were each bit corresponds to the specific widget identified by
 586:Generated_Source\PSoC4/CSD_Processing.c **** *  the widget index. When the bit is set the widget is active (touched);
 587:Generated_Source\PSoC4/CSD_Processing.c **** *
 588:Generated_Source\PSoC4/CSD_Processing.c **** *  Depending on the type of widget the snsStatus register may contain either
 589:Generated_Source\PSoC4/CSD_Processing.c **** *  status of each widget node (active/non-active) or in case of the CSX Touchpad
 590:Generated_Source\PSoC4/CSD_Processing.c **** *  is contains the number of touches. In both cases 0 means that widget is not
 591:Generated_Source\PSoC4/CSD_Processing.c **** *  active.
 592:Generated_Source\PSoC4/CSD_Processing.c **** *
 593:Generated_Source\PSoC4/CSD_Processing.c **** * \param wdgtId       The widget index number.
 594:Generated_Source\PSoC4/CSD_Processing.c **** * \param ptrFlashWdgt The pointer to the Flash Widget Object.
 595:Generated_Source\PSoC4/CSD_Processing.c **** *
 596:Generated_Source\PSoC4/CSD_Processing.c **** *******************************************************************************/
 597:Generated_Source\PSoC4/CSD_Processing.c **** void CSD_DpProcessCsxWidgetStatus(uint32 wdgtId, CSD_FLASH_WD_STRUCT const *ptrFlashWdgt)
 598:Generated_Source\PSoC4/CSD_Processing.c **** {
 599:Generated_Source\PSoC4/CSD_Processing.c ****     uint32 sensorStatus;
 600:Generated_Source\PSoC4/CSD_Processing.c ****     uint32 wdStatusIndex;
 601:Generated_Source\PSoC4/CSD_Processing.c ****     uint32 wdStatusMask;
 602:Generated_Source\PSoC4/CSD_Processing.c ****     CSD_WD_TYPE_ENUM widgetType;
 603:Generated_Source\PSoC4/CSD_Processing.c **** 
 604:Generated_Source\PSoC4/CSD_Processing.c ****     widgetType = (CSD_WD_TYPE_ENUM)ptrFlashWdgt->wdgtType;
 605:Generated_Source\PSoC4/CSD_Processing.c ****     sensorStatus = CSD_dsRam.snsStatus[wdgtId];
 606:Generated_Source\PSoC4/CSD_Processing.c **** 
 607:Generated_Source\PSoC4/CSD_Processing.c ****     switch (widgetType)
 608:Generated_Source\PSoC4/CSD_Processing.c ****     {
 609:Generated_Source\PSoC4/CSD_Processing.c ****     #if (0u != CSD_BUTTON_WIDGET_EN)
 610:Generated_Source\PSoC4/CSD_Processing.c ****         case CSD_WD_BUTTON_E:
 611:Generated_Source\PSoC4/CSD_Processing.c ****             sensorStatus = CSD_DpProcessButton(sensorStatus, ptrFlashWdgt);
 612:Generated_Source\PSoC4/CSD_Processing.c ****             break;
 613:Generated_Source\PSoC4/CSD_Processing.c ****     #endif /* #if (0u != CSD_BUTTON_WIDGET_EN) */
 614:Generated_Source\PSoC4/CSD_Processing.c **** 
 615:Generated_Source\PSoC4/CSD_Processing.c ****     #if (0u != CSD_CSX_MATRIX_WIDGET_EN)
 616:Generated_Source\PSoC4/CSD_Processing.c ****         case CSD_WD_MATRIX_BUTTON_E:
 617:Generated_Source\PSoC4/CSD_Processing.c ****             sensorStatus = CSD_DpProcessButton(sensorStatus, ptrFlashWdgt);
 618:Generated_Source\PSoC4/CSD_Processing.c ****             break;
 619:Generated_Source\PSoC4/CSD_Processing.c ****     #endif /* #if (0u != CSD_CSX_MATRIX_WIDGET_EN) */
 620:Generated_Source\PSoC4/CSD_Processing.c **** 
 621:Generated_Source\PSoC4/CSD_Processing.c ****     #if (0u != CSD_CSX_TOUCHPAD_WIDGET_EN)
 622:Generated_Source\PSoC4/CSD_Processing.c ****         case CSD_WD_TOUCHPAD_E:
 623:Generated_Source\PSoC4/CSD_Processing.c ****             sensorStatus = CSD_DpProcessCsxTouchpad(sensorStatus, ptrFlashWdgt);
 624:Generated_Source\PSoC4/CSD_Processing.c ****             break;
 625:Generated_Source\PSoC4/CSD_Processing.c ****     #endif /* #if (0u != CSD_CSX_TOUCHPAD_WIDGET_EN) */
 626:Generated_Source\PSoC4/CSD_Processing.c **** 
 627:Generated_Source\PSoC4/CSD_Processing.c ****     default:
 628:Generated_Source\PSoC4/CSD_Processing.c ****         CYASSERT(0u);
 629:Generated_Source\PSoC4/CSD_Processing.c ****         break;
 630:Generated_Source\PSoC4/CSD_Processing.c ****     }
 631:Generated_Source\PSoC4/CSD_Processing.c **** 
 632:Generated_Source\PSoC4/CSD_Processing.c ****     /* Update sensor status in the data structure */
 633:Generated_Source\PSoC4/CSD_Processing.c ****     CSD_dsRam.snsStatus[wdgtId] = (CSD_SNS_STS_TYPE)sensorStatus;
ARM GAS  C:\Users\CHRIST~1\AppData\Local\Temp\ccrDLzO7.s 			page 15


 634:Generated_Source\PSoC4/CSD_Processing.c **** 
 635:Generated_Source\PSoC4/CSD_Processing.c ****     /* The next two lines calculate index and bitmask of the widget status bit in the wdgtStatus ar
 636:Generated_Source\PSoC4/CSD_Processing.c ****     wdStatusIndex = CSD_GET_WDGT_STATUS_INDEX(wdgtId);
 637:Generated_Source\PSoC4/CSD_Processing.c ****     wdStatusMask = CSD_GET_WDGT_STATUS_MASK(wdgtId);
 638:Generated_Source\PSoC4/CSD_Processing.c **** 
 639:Generated_Source\PSoC4/CSD_Processing.c ****     /* Check if there are active sensors and update widget status accordingly */
 640:Generated_Source\PSoC4/CSD_Processing.c ****     if (0u == sensorStatus)
 641:Generated_Source\PSoC4/CSD_Processing.c ****     {
 642:Generated_Source\PSoC4/CSD_Processing.c ****         CSD_dsRam.wdgtStatus[wdStatusIndex] &= ~wdStatusMask;
 643:Generated_Source\PSoC4/CSD_Processing.c ****     }
 644:Generated_Source\PSoC4/CSD_Processing.c ****     else
 645:Generated_Source\PSoC4/CSD_Processing.c ****     {
 646:Generated_Source\PSoC4/CSD_Processing.c ****         CSD_dsRam.wdgtStatus[wdStatusIndex] |= wdStatusMask;
 647:Generated_Source\PSoC4/CSD_Processing.c ****     }
 648:Generated_Source\PSoC4/CSD_Processing.c **** }
 649:Generated_Source\PSoC4/CSD_Processing.c **** #endif /* #if CSD_TOTAL_CSX_WIDGETS */
 650:Generated_Source\PSoC4/CSD_Processing.c **** 
 651:Generated_Source\PSoC4/CSD_Processing.c **** #if (0u != CSD_TOTAL_CSD_WIDGETS)
 652:Generated_Source\PSoC4/CSD_Processing.c **** /*******************************************************************************
 653:Generated_Source\PSoC4/CSD_Processing.c **** * Function Name: CSD_DpProcessCsdWidgetRawCounts
 654:Generated_Source\PSoC4/CSD_Processing.c **** ****************************************************************************//**
 655:Generated_Source\PSoC4/CSD_Processing.c **** *
 656:Generated_Source\PSoC4/CSD_Processing.c **** * \brief
 657:Generated_Source\PSoC4/CSD_Processing.c **** *   Performs default processing for the CSD widget raw counts.
 658:Generated_Source\PSoC4/CSD_Processing.c **** *
 659:Generated_Source\PSoC4/CSD_Processing.c **** * \details
 660:Generated_Source\PSoC4/CSD_Processing.c **** *   Performs default processing for the CSD widget raw counts:
 661:Generated_Source\PSoC4/CSD_Processing.c **** *    - Run Filters
 662:Generated_Source\PSoC4/CSD_Processing.c **** *    - Update Thresholds (FW Auto-tuning)
 663:Generated_Source\PSoC4/CSD_Processing.c **** *    - Update Baselines
 664:Generated_Source\PSoC4/CSD_Processing.c **** *    - Update Differences.
 665:Generated_Source\PSoC4/CSD_Processing.c **** *   The process is applied to all widget's sensors.
 666:Generated_Source\PSoC4/CSD_Processing.c **** *
 667:Generated_Source\PSoC4/CSD_Processing.c **** * \param ptrFlashWdgt The pointer to the Flash Widget Object.
 668:Generated_Source\PSoC4/CSD_Processing.c **** *
 669:Generated_Source\PSoC4/CSD_Processing.c **** *******************************************************************************/
 670:Generated_Source\PSoC4/CSD_Processing.c **** void CSD_DpProcessCsdWidgetRawCounts(CSD_FLASH_WD_STRUCT const *ptrFlashWdgt)
 671:Generated_Source\PSoC4/CSD_Processing.c **** {
 156              		.loc 1 671 0
 157              		.cfi_startproc
 158 0000 80B5     		push	{r7, lr}
 159              		.cfi_def_cfa_offset 8
 160              		.cfi_offset 7, -8
 161              		.cfi_offset 14, -4
 162 0002 88B0     		sub	sp, sp, #32
 163              		.cfi_def_cfa_offset 40
 164 0004 00AF     		add	r7, sp, #0
 165              		.cfi_def_cfa_register 7
 166 0006 7860     		str	r0, [r7, #4]
 672:Generated_Source\PSoC4/CSD_Processing.c ****     uint32  widgetType;
 673:Generated_Source\PSoC4/CSD_Processing.c ****     uint32  snsId;
 674:Generated_Source\PSoC4/CSD_Processing.c ****     CSD_RAM_SNS_STRUCT *ptrSns;
 675:Generated_Source\PSoC4/CSD_Processing.c ****     CSD_RAM_WD_BASE_STRUCT *ptrRamWdgt;
 676:Generated_Source\PSoC4/CSD_Processing.c **** 
 677:Generated_Source\PSoC4/CSD_Processing.c ****     #if (0u != (CSD_CSD_AUTOTUNE & CSD_CSD_SS_TH_EN))
 678:Generated_Source\PSoC4/CSD_Processing.c ****         /* The noise envelope data is available only when Full CSD Auto-Tuning is enabled */
 679:Generated_Source\PSoC4/CSD_Processing.c ****         SMARTSENSE_CSD_NOISE_ENVELOPE_STRUCT *ptrNoiseEnvelope;
ARM GAS  C:\Users\CHRIST~1\AppData\Local\Temp\ccrDLzO7.s 			page 16


 680:Generated_Source\PSoC4/CSD_Processing.c ****         #if (CSD_ENABLE == CSD_PROXIMITY_WIDGET_EN)
 681:Generated_Source\PSoC4/CSD_Processing.c ****             uint32  proximityThreshold;
 682:Generated_Source\PSoC4/CSD_Processing.c ****         #endif /* (0 != CSD_PROXIMITY_WIDGET_EN) */
 683:Generated_Source\PSoC4/CSD_Processing.c ****     #endif /* #if (0u != (CSD_CSD_AUTOTUNE & CSD_CSD_SS_TH_EN)) */
 684:Generated_Source\PSoC4/CSD_Processing.c **** 
 685:Generated_Source\PSoC4/CSD_Processing.c ****     #if (0u != DP_FW_FILTER_EN)
 686:Generated_Source\PSoC4/CSD_Processing.c ****         CSD_PTR_FILTER_VARIANT fltrHistV;
 687:Generated_Source\PSoC4/CSD_Processing.c ****     
 688:Generated_Source\PSoC4/CSD_Processing.c ****         /* Determine if widget type is proximity */
 689:Generated_Source\PSoC4/CSD_Processing.c ****         uint32 isProxWdgt = 
 690:Generated_Source\PSoC4/CSD_Processing.c ****                     (CSD_GET_WIDGET_TYPE(ptrFlashWdgt) == CSD_WD_PROXIMITY_E) ? 1u : 0u;
 167              		.loc 1 690 0
 168 0008 7B68     		ldr	r3, [r7, #4]
 169 000a 1B7E     		ldrb	r3, [r3, #24]
 689:Generated_Source\PSoC4/CSD_Processing.c ****                     (CSD_GET_WIDGET_TYPE(ptrFlashWdgt) == CSD_WD_PROXIMITY_E) ? 1u : 0u;
 170              		.loc 1 689 0
 171 000c 062B     		cmp	r3, #6
 172 000e 01D1     		bne	.L14
 689:Generated_Source\PSoC4/CSD_Processing.c ****                     (CSD_GET_WIDGET_TYPE(ptrFlashWdgt) == CSD_WD_PROXIMITY_E) ? 1u : 0u;
 173              		.loc 1 689 0 is_stmt 0 discriminator 1
 174 0010 0123     		mov	r3, #1
 175 0012 00E0     		b	.L15
 176              	.L14:
 689:Generated_Source\PSoC4/CSD_Processing.c ****                     (CSD_GET_WIDGET_TYPE(ptrFlashWdgt) == CSD_WD_PROXIMITY_E) ? 1u : 0u;
 177              		.loc 1 689 0 discriminator 2
 178 0014 0023     		mov	r3, #0
 179              	.L15:
 689:Generated_Source\PSoC4/CSD_Processing.c ****                     (CSD_GET_WIDGET_TYPE(ptrFlashWdgt) == CSD_WD_PROXIMITY_E) ? 1u : 0u;
 180              		.loc 1 689 0 discriminator 4
 181 0016 7B61     		str	r3, [r7, #20]
 691:Generated_Source\PSoC4/CSD_Processing.c ****                     
 692:Generated_Source\PSoC4/CSD_Processing.c ****         /* Get pointer to the filter history object */
 693:Generated_Source\PSoC4/CSD_Processing.c ****         fltrHistV.ptr = ptrFlashWdgt->ptr2FltrHistory;
 182              		.loc 1 693 0 is_stmt 1 discriminator 4
 183 0018 7B68     		ldr	r3, [r7, #4]
 184 001a DB68     		ldr	r3, [r3, #12]
 185 001c BB60     		str	r3, [r7, #8]
 694:Generated_Source\PSoC4/CSD_Processing.c ****     #endif /* #if (0u != DP_FW_FILTER_EN) */
 695:Generated_Source\PSoC4/CSD_Processing.c ****     
 696:Generated_Source\PSoC4/CSD_Processing.c ****     ptrSns = ptrFlashWdgt->ptr2SnsRam;
 186              		.loc 1 696 0 discriminator 4
 187 001e 7B68     		ldr	r3, [r7, #4]
 188 0020 9B68     		ldr	r3, [r3, #8]
 189 0022 BB61     		str	r3, [r7, #24]
 697:Generated_Source\PSoC4/CSD_Processing.c ****     ptrRamWdgt = ptrFlashWdgt->ptr2WdgtRam;
 190              		.loc 1 697 0 discriminator 4
 191 0024 7B68     		ldr	r3, [r7, #4]
 192 0026 5B68     		ldr	r3, [r3, #4]
 193 0028 3B61     		str	r3, [r7, #16]
 698:Generated_Source\PSoC4/CSD_Processing.c ****     widgetType = ptrFlashWdgt->wdgtType;
 194              		.loc 1 698 0 discriminator 4
 195 002a 7B68     		ldr	r3, [r7, #4]
 196 002c 1B7E     		ldrb	r3, [r3, #24]
 197 002e FB60     		str	r3, [r7, #12]
 699:Generated_Source\PSoC4/CSD_Processing.c **** 
 700:Generated_Source\PSoC4/CSD_Processing.c ****     #if (0u != (CSD_CSD_AUTOTUNE & CSD_CSD_SS_TH_EN))
 701:Generated_Source\PSoC4/CSD_Processing.c ****         ptrNoiseEnvelope = ptrFlashWdgt->ptr2NoiseEnvlp;
ARM GAS  C:\Users\CHRIST~1\AppData\Local\Temp\ccrDLzO7.s 			page 17


 702:Generated_Source\PSoC4/CSD_Processing.c ****     #endif /* #if (0u != (CSD_CSD_AUTOTUNE & CSD_CSD_SS_TH_EN)) */
 703:Generated_Source\PSoC4/CSD_Processing.c **** 
 704:Generated_Source\PSoC4/CSD_Processing.c ****     /* Iterate through all widget's sensors */
 705:Generated_Source\PSoC4/CSD_Processing.c ****     for(snsId = 0u; snsId < ptrFlashWdgt->totalNumSns; snsId++)
 198              		.loc 1 705 0 discriminator 4
 199 0030 0023     		mov	r3, #0
 200 0032 FB61     		str	r3, [r7, #28]
 201 0034 21E0     		b	.L16
 202              	.L18:
 706:Generated_Source\PSoC4/CSD_Processing.c ****     {
 707:Generated_Source\PSoC4/CSD_Processing.c ****         /* Run all enabled filter on specified widget's sensor */
 708:Generated_Source\PSoC4/CSD_Processing.c ****         #if (0u != DP_FW_FILTER_EN)
 709:Generated_Source\PSoC4/CSD_Processing.c ****             CSD_FtRunEnabledFiltersInternal(fltrHistV, ptrSns, widgetType);
 203              		.loc 1 709 0
 204 0036 B968     		ldr	r1, [r7, #8]
 205 0038 BA69     		ldr	r2, [r7, #24]
 206 003a FB68     		ldr	r3, [r7, #12]
 207 003c 081C     		mov	r0, r1
 208 003e 111C     		mov	r1, r2
 209 0040 1A1C     		mov	r2, r3
 210 0042 FFF7FEFF 		bl	CSD_FtRunEnabledFiltersInternal
 710:Generated_Source\PSoC4/CSD_Processing.c ****         #endif /* #if (0u != DP_FW_FILTER_EN) */
 711:Generated_Source\PSoC4/CSD_Processing.c **** 
 712:Generated_Source\PSoC4/CSD_Processing.c ****         /* Run auto-tuning activities */
 713:Generated_Source\PSoC4/CSD_Processing.c ****         #if (0u != (CSD_CSD_AUTOTUNE & CSD_CSD_SS_TH_EN))
 714:Generated_Source\PSoC4/CSD_Processing.c ****             SmartSense_RunNoiseEnvelope(ptrSns->raw[0u], ptrRamWdgt->sigPFC, ptrNoiseEnvelope);
 715:Generated_Source\PSoC4/CSD_Processing.c ****             CSD_DpUpdateThresholds(ptrRamWdgt, ptrNoiseEnvelope, snsId);
 716:Generated_Source\PSoC4/CSD_Processing.c **** 
 717:Generated_Source\PSoC4/CSD_Processing.c ****             /* Calculate Proximity Touch Threshold in SmartSense mode based on Finger Threshold and
 718:Generated_Source\PSoC4/CSD_Processing.c ****             #if (CSD_ENABLE == CSD_PROXIMITY_WIDGET_EN)
 719:Generated_Source\PSoC4/CSD_Processing.c ****                 if (CSD_WD_PROXIMITY_E == CSD_GET_WIDGET_TYPE(ptrFlashWdgt))
 720:Generated_Source\PSoC4/CSD_Processing.c ****                 {
 721:Generated_Source\PSoC4/CSD_Processing.c ****                     proximityThreshold = (uint32)ptrRamWdgt->fingerTh * CSD_PROX_TOUCH_COEFF / (100
 722:Generated_Source\PSoC4/CSD_Processing.c ****                     if ((((1Lu) << CSD_THRESHOLD_SIZE) - 1u) < proximityThreshold)
 723:Generated_Source\PSoC4/CSD_Processing.c ****                     {
 724:Generated_Source\PSoC4/CSD_Processing.c ****                         proximityThreshold = ((1Lu) << CSD_THRESHOLD_SIZE) - 1u;
 725:Generated_Source\PSoC4/CSD_Processing.c ****                     }
 726:Generated_Source\PSoC4/CSD_Processing.c ****                     ((CSD_RAM_WD_PROXIMITY_STRUCT *)ptrFlashWdgt->ptr2WdgtRam)->proxTouchTh = 
 727:Generated_Source\PSoC4/CSD_Processing.c ****                         (CSD_THRESHOLD_TYPE)proximityThreshold;
 728:Generated_Source\PSoC4/CSD_Processing.c ****                 }
 729:Generated_Source\PSoC4/CSD_Processing.c ****             #endif /* (0 != CSD_PROXIMITY_WIDGET_EN) */
 730:Generated_Source\PSoC4/CSD_Processing.c ****             
 731:Generated_Source\PSoC4/CSD_Processing.c ****             /* Move to next noise-envelope object */
 732:Generated_Source\PSoC4/CSD_Processing.c ****             ptrNoiseEnvelope++;
 733:Generated_Source\PSoC4/CSD_Processing.c ****         #endif /* (0u != (CSD_CSD_AUTOTUNE & CSD_CSD_SS_TH_EN)) */
 734:Generated_Source\PSoC4/CSD_Processing.c **** 
 735:Generated_Source\PSoC4/CSD_Processing.c ****         (void)CSD_FtUpdateBaseline(ptrRamWdgt, ptrSns, widgetType);
 211              		.loc 1 735 0
 212 0046 3969     		ldr	r1, [r7, #16]
 213 0048 BA69     		ldr	r2, [r7, #24]
 214 004a FB68     		ldr	r3, [r7, #12]
 215 004c 081C     		mov	r0, r1
 216 004e 111C     		mov	r1, r2
 217 0050 1A1C     		mov	r2, r3
 218 0052 FFF7FEFF 		bl	CSD_FtUpdateBaseline
 736:Generated_Source\PSoC4/CSD_Processing.c ****         CSD_DpUpdateDifferences(ptrRamWdgt, ptrSns);
 219              		.loc 1 736 0
ARM GAS  C:\Users\CHRIST~1\AppData\Local\Temp\ccrDLzO7.s 			page 18


 220 0056 3A69     		ldr	r2, [r7, #16]
 221 0058 BB69     		ldr	r3, [r7, #24]
 222 005a 101C     		mov	r0, r2
 223 005c 191C     		mov	r1, r3
 224 005e FFF7FEFF 		bl	CSD_DpUpdateDifferences
 737:Generated_Source\PSoC4/CSD_Processing.c **** 
 738:Generated_Source\PSoC4/CSD_Processing.c ****         /* Move to next sensor object */
 739:Generated_Source\PSoC4/CSD_Processing.c ****         ptrSns++;
 225              		.loc 1 739 0
 226 0062 BB69     		ldr	r3, [r7, #24]
 227 0064 0A33     		add	r3, r3, #10
 228 0066 BB61     		str	r3, [r7, #24]
 740:Generated_Source\PSoC4/CSD_Processing.c **** 
 741:Generated_Source\PSoC4/CSD_Processing.c ****         #if (0u != DP_FW_FILTER_EN)
 742:Generated_Source\PSoC4/CSD_Processing.c ****             /* Move to the next filter history object */
 743:Generated_Source\PSoC4/CSD_Processing.c ****             CSD_INC_FLTR_OBJ_VARIANT(isProxWdgt, fltrHistV);
 229              		.loc 1 743 0
 230 0068 7B69     		ldr	r3, [r7, #20]
 231 006a 002B     		cmp	r3, #0
 232 006c 02D1     		bne	.L17
 233              		.loc 1 743 0 is_stmt 0 discriminator 1
 234 006e BB68     		ldr	r3, [r7, #8]
 235 0070 0233     		add	r3, r3, #2
 236 0072 BB60     		str	r3, [r7, #8]
 237              	.L17:
 705:Generated_Source\PSoC4/CSD_Processing.c ****     {
 238              		.loc 1 705 0 is_stmt 1 discriminator 2
 239 0074 FB69     		ldr	r3, [r7, #28]
 240 0076 0133     		add	r3, r3, #1
 241 0078 FB61     		str	r3, [r7, #28]
 242              	.L16:
 705:Generated_Source\PSoC4/CSD_Processing.c ****     {
 243              		.loc 1 705 0 is_stmt 0 discriminator 1
 244 007a 7B68     		ldr	r3, [r7, #4]
 245 007c DB8A     		ldrh	r3, [r3, #22]
 246 007e 1A1E     		sub	r2, r3, #0
 247 0080 FB69     		ldr	r3, [r7, #28]
 248 0082 9A42     		cmp	r2, r3
 249 0084 D7D8     		bhi	.L18
 744:Generated_Source\PSoC4/CSD_Processing.c ****         #endif /* #if (0u != DP_FW_FILTER_EN) */
 745:Generated_Source\PSoC4/CSD_Processing.c ****     }
 746:Generated_Source\PSoC4/CSD_Processing.c **** }
 250              		.loc 1 746 0 is_stmt 1
 251 0086 BD46     		mov	sp, r7
 252 0088 08B0     		add	sp, sp, #32
 253              		@ sp needed
 254 008a 80BD     		pop	{r7, pc}
 255              		.cfi_endproc
 256              	.LFE2:
 257              		.size	CSD_DpProcessCsdWidgetRawCounts, .-CSD_DpProcessCsdWidgetRawCounts
 258              		.section	.text.CSD_DpProcessCsdSensorRawCountsExt,"ax",%progbits
 259              		.align	2
 260              		.global	CSD_DpProcessCsdSensorRawCountsExt
 261              		.code	16
 262              		.thumb_func
 263              		.type	CSD_DpProcessCsdSensorRawCountsExt, %function
 264              	CSD_DpProcessCsdSensorRawCountsExt:
ARM GAS  C:\Users\CHRIST~1\AppData\Local\Temp\ccrDLzO7.s 			page 19


 265              	.LFB3:
 747:Generated_Source\PSoC4/CSD_Processing.c **** 
 748:Generated_Source\PSoC4/CSD_Processing.c **** 
 749:Generated_Source\PSoC4/CSD_Processing.c **** /*******************************************************************************
 750:Generated_Source\PSoC4/CSD_Processing.c **** * Function Name: CSD_DpProcessCsdSensorRawCountsExt
 751:Generated_Source\PSoC4/CSD_Processing.c **** ****************************************************************************//**
 752:Generated_Source\PSoC4/CSD_Processing.c **** *
 753:Generated_Source\PSoC4/CSD_Processing.c **** * \brief
 754:Generated_Source\PSoC4/CSD_Processing.c **** *   Performs customized processing of the CSD sensor raw counts.
 755:Generated_Source\PSoC4/CSD_Processing.c **** *
 756:Generated_Source\PSoC4/CSD_Processing.c **** * \details
 757:Generated_Source\PSoC4/CSD_Processing.c **** *   Performs customized processing of the CSD sensor raw counts.
 758:Generated_Source\PSoC4/CSD_Processing.c **** *
 759:Generated_Source\PSoC4/CSD_Processing.c **** *   Note that this API updates data associated only with the sensor. It cannot be used to update
 760:Generated_Source\PSoC4/CSD_Processing.c **** *   widget status.
 761:Generated_Source\PSoC4/CSD_Processing.c **** *
 762:Generated_Source\PSoC4/CSD_Processing.c **** * \param ptrFlashWdgt The pointer to the Flash widget structure.
 763:Generated_Source\PSoC4/CSD_Processing.c **** * \param ptrSns       The pointer to the sensor object in RAM.
 764:Generated_Source\PSoC4/CSD_Processing.c **** * \param fltrHistV    The pointer to the Filter History Object in RAM.
 765:Generated_Source\PSoC4/CSD_Processing.c **** * \param mode         The bit-mask with the data processing tasks to be executed.
 766:Generated_Source\PSoC4/CSD_Processing.c **** *   The mode parameters can take the following values:
 767:Generated_Source\PSoC4/CSD_Processing.c **** *    - CSD_PROCESS_FILTER     (0x01) Run Firmware Filter
 768:Generated_Source\PSoC4/CSD_Processing.c **** *    - CSD_PROCESS_BASELINE   (0x02) Update Baselines
 769:Generated_Source\PSoC4/CSD_Processing.c **** *    - CSD_PROCESS_DIFFCOUNTS (0x04) Update Difference Counts
 770:Generated_Source\PSoC4/CSD_Processing.c **** *    - CSD_PROCESS_CALC_NOISE (0x08) Calculate Noise (only if FW Tuning is enabled)
 771:Generated_Source\PSoC4/CSD_Processing.c **** *    - CSD_PROCESS_THRESHOLDS (0x10) Update Thresholds (only if FW Tuning is enabled)
 772:Generated_Source\PSoC4/CSD_Processing.c **** *    - CSD_PROCESS_ALL               Execute all tasks
 773:Generated_Source\PSoC4/CSD_Processing.c **** *
 774:Generated_Source\PSoC4/CSD_Processing.c **** *******************************************************************************/
 775:Generated_Source\PSoC4/CSD_Processing.c **** void CSD_DpProcessCsdSensorRawCountsExt(
 776:Generated_Source\PSoC4/CSD_Processing.c ****                 CSD_FLASH_WD_STRUCT const *ptrFlashWdgt,
 777:Generated_Source\PSoC4/CSD_Processing.c ****                 CSD_RAM_SNS_STRUCT *ptrSns,
 778:Generated_Source\PSoC4/CSD_Processing.c ****                 CSD_PTR_FILTER_VARIANT fltrHistV,
 779:Generated_Source\PSoC4/CSD_Processing.c ****                  uint32 mode)
 780:Generated_Source\PSoC4/CSD_Processing.c **** {
 266              		.loc 1 780 0
 267              		.cfi_startproc
 268 0000 80B5     		push	{r7, lr}
 269              		.cfi_def_cfa_offset 8
 270              		.cfi_offset 7, -8
 271              		.cfi_offset 14, -4
 272 0002 86B0     		sub	sp, sp, #24
 273              		.cfi_def_cfa_offset 32
 274 0004 00AF     		add	r7, sp, #0
 275              		.cfi_def_cfa_register 7
 276 0006 F860     		str	r0, [r7, #12]
 277 0008 B960     		str	r1, [r7, #8]
 278 000a 7A60     		str	r2, [r7, #4]
 279 000c 3B60     		str	r3, [r7]
 781:Generated_Source\PSoC4/CSD_Processing.c ****     uint32  widgetType;
 782:Generated_Source\PSoC4/CSD_Processing.c ****     CSD_RAM_WD_BASE_STRUCT *ptrRamWdgt;
 783:Generated_Source\PSoC4/CSD_Processing.c **** 
 784:Generated_Source\PSoC4/CSD_Processing.c ****     #if (0u != (CSD_CSD_AUTOTUNE & CSD_CSD_SS_TH_EN))
 785:Generated_Source\PSoC4/CSD_Processing.c ****         SMARTSENSE_CSD_NOISE_ENVELOPE_STRUCT *ptrNoiseEnvelope;
 786:Generated_Source\PSoC4/CSD_Processing.c **** 
 787:Generated_Source\PSoC4/CSD_Processing.c ****         /* Need to specify pointer to corresponding sensor's noise-envelope object.*/
 788:Generated_Source\PSoC4/CSD_Processing.c ****         ptrNoiseEnvelope = ptrFlashWdgt->ptr2NoiseEnvlp;
ARM GAS  C:\Users\CHRIST~1\AppData\Local\Temp\ccrDLzO7.s 			page 20


 789:Generated_Source\PSoC4/CSD_Processing.c ****         #if (CSD_ENABLE == CSD_PROXIMITY_WIDGET_EN)
 790:Generated_Source\PSoC4/CSD_Processing.c ****             uint32  proximityThreshold;
 791:Generated_Source\PSoC4/CSD_Processing.c ****         #endif /* (0 != CSD_PROXIMITY_WIDGET_EN) */
 792:Generated_Source\PSoC4/CSD_Processing.c ****     #endif /* (0u != (CSD_CSD_AUTOTUNE & CSD_CSD_SS_TH_EN)) */
 793:Generated_Source\PSoC4/CSD_Processing.c **** 
 794:Generated_Source\PSoC4/CSD_Processing.c ****     widgetType = ptrFlashWdgt->wdgtType;
 280              		.loc 1 794 0
 281 000e FB68     		ldr	r3, [r7, #12]
 282 0010 1B7E     		ldrb	r3, [r3, #24]
 283 0012 7B61     		str	r3, [r7, #20]
 795:Generated_Source\PSoC4/CSD_Processing.c ****     ptrRamWdgt = ptrFlashWdgt->ptr2WdgtRam;
 284              		.loc 1 795 0
 285 0014 FB68     		ldr	r3, [r7, #12]
 286 0016 5B68     		ldr	r3, [r3, #4]
 287 0018 3B61     		str	r3, [r7, #16]
 796:Generated_Source\PSoC4/CSD_Processing.c **** 
 797:Generated_Source\PSoC4/CSD_Processing.c ****     #if (0u != DP_FW_FILTER_EN)
 798:Generated_Source\PSoC4/CSD_Processing.c ****         if (0u != (mode & CSD_PROCESS_FILTER))
 288              		.loc 1 798 0
 289 001a 3B68     		ldr	r3, [r7]
 290 001c 0122     		mov	r2, #1
 291 001e 1340     		and	r3, r2
 292 0020 07D0     		beq	.L20
 799:Generated_Source\PSoC4/CSD_Processing.c ****         {
 800:Generated_Source\PSoC4/CSD_Processing.c ****             CSD_FtRunEnabledFiltersInternal(fltrHistV, ptrSns, widgetType);
 293              		.loc 1 800 0
 294 0022 7968     		ldr	r1, [r7, #4]
 295 0024 BA68     		ldr	r2, [r7, #8]
 296 0026 7B69     		ldr	r3, [r7, #20]
 297 0028 081C     		mov	r0, r1
 298 002a 111C     		mov	r1, r2
 299 002c 1A1C     		mov	r2, r3
 300 002e FFF7FEFF 		bl	CSD_FtRunEnabledFiltersInternal
 301              	.L20:
 801:Generated_Source\PSoC4/CSD_Processing.c ****         }
 802:Generated_Source\PSoC4/CSD_Processing.c ****     #else
 803:Generated_Source\PSoC4/CSD_Processing.c ****         (void)fltrHistV; /* This parameter is unused in such configurations */
 804:Generated_Source\PSoC4/CSD_Processing.c ****     #endif /* #if (0u != DP_FW_FILTER_EN) */
 805:Generated_Source\PSoC4/CSD_Processing.c **** 
 806:Generated_Source\PSoC4/CSD_Processing.c ****     #if (0u != (CSD_CSD_AUTOTUNE & CSD_CSD_SS_TH_EN))
 807:Generated_Source\PSoC4/CSD_Processing.c ****         if (0u != (mode & CSD_PROCESS_CALC_NOISE))
 808:Generated_Source\PSoC4/CSD_Processing.c ****         {
 809:Generated_Source\PSoC4/CSD_Processing.c ****             SmartSense_RunNoiseEnvelope(ptrSns->raw[0u], ptrRamWdgt->sigPFC, ptrNoiseEnvelope);
 810:Generated_Source\PSoC4/CSD_Processing.c ****         }
 811:Generated_Source\PSoC4/CSD_Processing.c **** 
 812:Generated_Source\PSoC4/CSD_Processing.c ****         if (0u != (mode & CSD_PROCESS_THRESHOLDS))
 813:Generated_Source\PSoC4/CSD_Processing.c ****         {            
 814:Generated_Source\PSoC4/CSD_Processing.c ****             CSD_DpUpdateThresholds(ptrRamWdgt, ptrNoiseEnvelope, 0u);
 815:Generated_Source\PSoC4/CSD_Processing.c ****             
 816:Generated_Source\PSoC4/CSD_Processing.c ****             /* Calculate Proximity Touch Threshold in SmartSense mode based on Finger Threshold and
 817:Generated_Source\PSoC4/CSD_Processing.c ****             #if (CSD_ENABLE == CSD_PROXIMITY_WIDGET_EN)
 818:Generated_Source\PSoC4/CSD_Processing.c ****                 if (CSD_WD_PROXIMITY_E == CSD_GET_WIDGET_TYPE(ptrFlashWdgt))
 819:Generated_Source\PSoC4/CSD_Processing.c ****                 {
 820:Generated_Source\PSoC4/CSD_Processing.c ****                     proximityThreshold = (uint32)ptrRamWdgt->fingerTh * CSD_PROX_TOUCH_COEFF / (100
 821:Generated_Source\PSoC4/CSD_Processing.c ****                     if ((((1Lu) << CSD_THRESHOLD_SIZE) - 1u) < proximityThreshold)
 822:Generated_Source\PSoC4/CSD_Processing.c ****                     {
 823:Generated_Source\PSoC4/CSD_Processing.c ****                         proximityThreshold = ((1Lu) << CSD_THRESHOLD_SIZE) - 1u;
ARM GAS  C:\Users\CHRIST~1\AppData\Local\Temp\ccrDLzO7.s 			page 21


 824:Generated_Source\PSoC4/CSD_Processing.c ****                     }
 825:Generated_Source\PSoC4/CSD_Processing.c ****                     ((CSD_RAM_WD_PROXIMITY_STRUCT *)ptrFlashWdgt->ptr2WdgtRam)->proxTouchTh = 
 826:Generated_Source\PSoC4/CSD_Processing.c ****                         (CSD_THRESHOLD_TYPE)proximityThreshold;
 827:Generated_Source\PSoC4/CSD_Processing.c ****                 }
 828:Generated_Source\PSoC4/CSD_Processing.c ****             #endif /* (0 != CSD_PROXIMITY_WIDGET_EN) */
 829:Generated_Source\PSoC4/CSD_Processing.c ****         }
 830:Generated_Source\PSoC4/CSD_Processing.c ****     #endif /* #if (0u != (CSD_CSD_AUTOTUNE & CSD_CSD_SS_TH_EN)) */
 831:Generated_Source\PSoC4/CSD_Processing.c **** 
 832:Generated_Source\PSoC4/CSD_Processing.c ****     if (0u != (mode & CSD_PROCESS_BASELINE))
 302              		.loc 1 832 0
 303 0032 3B68     		ldr	r3, [r7]
 304 0034 0222     		mov	r2, #2
 305 0036 1340     		and	r3, r2
 306 0038 07D0     		beq	.L21
 833:Generated_Source\PSoC4/CSD_Processing.c ****     {
 834:Generated_Source\PSoC4/CSD_Processing.c ****         (void)CSD_FtUpdateBaseline(ptrRamWdgt, ptrSns, widgetType);
 307              		.loc 1 834 0
 308 003a 3969     		ldr	r1, [r7, #16]
 309 003c BA68     		ldr	r2, [r7, #8]
 310 003e 7B69     		ldr	r3, [r7, #20]
 311 0040 081C     		mov	r0, r1
 312 0042 111C     		mov	r1, r2
 313 0044 1A1C     		mov	r2, r3
 314 0046 FFF7FEFF 		bl	CSD_FtUpdateBaseline
 315              	.L21:
 835:Generated_Source\PSoC4/CSD_Processing.c ****     }
 836:Generated_Source\PSoC4/CSD_Processing.c **** 
 837:Generated_Source\PSoC4/CSD_Processing.c ****     if (0u != (mode & CSD_PROCESS_DIFFCOUNTS))
 316              		.loc 1 837 0
 317 004a 3B68     		ldr	r3, [r7]
 318 004c 0422     		mov	r2, #4
 319 004e 1340     		and	r3, r2
 320 0050 05D0     		beq	.L19
 838:Generated_Source\PSoC4/CSD_Processing.c ****     {
 839:Generated_Source\PSoC4/CSD_Processing.c ****         CSD_DpUpdateDifferences(ptrRamWdgt, ptrSns);
 321              		.loc 1 839 0
 322 0052 3A69     		ldr	r2, [r7, #16]
 323 0054 BB68     		ldr	r3, [r7, #8]
 324 0056 101C     		mov	r0, r2
 325 0058 191C     		mov	r1, r3
 326 005a FFF7FEFF 		bl	CSD_DpUpdateDifferences
 327              	.L19:
 840:Generated_Source\PSoC4/CSD_Processing.c ****     }
 841:Generated_Source\PSoC4/CSD_Processing.c **** }
 328              		.loc 1 841 0
 329 005e BD46     		mov	sp, r7
 330 0060 06B0     		add	sp, sp, #24
 331              		@ sp needed
 332 0062 80BD     		pop	{r7, pc}
 333              		.cfi_endproc
 334              	.LFE3:
 335              		.size	CSD_DpProcessCsdSensorRawCountsExt, .-CSD_DpProcessCsdSensorRawCountsExt
 336              		.section	.text.CSD_DpProcessCsdWidgetStatus,"ax",%progbits
 337              		.align	2
 338              		.global	CSD_DpProcessCsdWidgetStatus
 339              		.code	16
 340              		.thumb_func
ARM GAS  C:\Users\CHRIST~1\AppData\Local\Temp\ccrDLzO7.s 			page 22


 341              		.type	CSD_DpProcessCsdWidgetStatus, %function
 342              	CSD_DpProcessCsdWidgetStatus:
 343              	.LFB4:
 842:Generated_Source\PSoC4/CSD_Processing.c **** 
 843:Generated_Source\PSoC4/CSD_Processing.c **** /*******************************************************************************
 844:Generated_Source\PSoC4/CSD_Processing.c **** * Function Name: CSD_DpProcessCsdWidgetStatus
 845:Generated_Source\PSoC4/CSD_Processing.c **** ****************************************************************************//**
 846:Generated_Source\PSoC4/CSD_Processing.c **** *
 847:Generated_Source\PSoC4/CSD_Processing.c **** * \brief
 848:Generated_Source\PSoC4/CSD_Processing.c **** *  Runs the status processing of the CSD widget and updates it in the Data Structure.
 849:Generated_Source\PSoC4/CSD_Processing.c **** *
 850:Generated_Source\PSoC4/CSD_Processing.c **** * \details
 851:Generated_Source\PSoC4/CSD_Processing.c **** *  This API determines the widget type and calls the appropriate low-level processing
 852:Generated_Source\PSoC4/CSD_Processing.c **** *  function. Based on the returned results it updates the widget and sensor
 853:Generated_Source\PSoC4/CSD_Processing.c **** *  status in the data structure. Any widget specific registers like the centroid
 854:Generated_Source\PSoC4/CSD_Processing.c **** *  position are updated directly in the low-level processing function.
 855:Generated_Source\PSoC4/CSD_Processing.c **** *
 856:Generated_Source\PSoC4/CSD_Processing.c **** *  When the widget-specific processing completes this API updates the snsStatus
 857:Generated_Source\PSoC4/CSD_Processing.c **** *  and wdgtStatus registers in the data structure. The wdgtStatus register
 858:Generated_Source\PSoC4/CSD_Processing.c **** *  is a bitmask were each bit corresponds to the specific widget identified by
 859:Generated_Source\PSoC4/CSD_Processing.c **** *  the widget index. When the bit is set the widget is active (touched);
 860:Generated_Source\PSoC4/CSD_Processing.c **** *
 861:Generated_Source\PSoC4/CSD_Processing.c **** *  The snsStatus register for CSD widgets contains status of each widget sensor
 862:Generated_Source\PSoC4/CSD_Processing.c **** *  (active/non-active). Each bit corresponds to one sensor. In case of the
 863:Generated_Source\PSoC4/CSD_Processing.c **** *  Proximity widget two bits are used per sensor: one for proximity status and
 864:Generated_Source\PSoC4/CSD_Processing.c **** *  second for the touch status.
 865:Generated_Source\PSoC4/CSD_Processing.c **** *
 866:Generated_Source\PSoC4/CSD_Processing.c **** * \param wdgtId        The widget index number.
 867:Generated_Source\PSoC4/CSD_Processing.c **** * \param ptrFlashWdgt  The pointer to the Flash widget structure.
 868:Generated_Source\PSoC4/CSD_Processing.c **** *
 869:Generated_Source\PSoC4/CSD_Processing.c **** *******************************************************************************/
 870:Generated_Source\PSoC4/CSD_Processing.c **** void CSD_DpProcessCsdWidgetStatus(uint32 wdgtId, CSD_FLASH_WD_STRUCT const *ptrFlashWdgt)
 871:Generated_Source\PSoC4/CSD_Processing.c **** {
 344              		.loc 1 871 0
 345              		.cfi_startproc
 346 0000 80B5     		push	{r7, lr}
 347              		.cfi_def_cfa_offset 8
 348              		.cfi_offset 7, -8
 349              		.cfi_offset 14, -4
 350 0002 86B0     		sub	sp, sp, #24
 351              		.cfi_def_cfa_offset 32
 352 0004 00AF     		add	r7, sp, #0
 353              		.cfi_def_cfa_register 7
 354 0006 7860     		str	r0, [r7, #4]
 355 0008 3960     		str	r1, [r7]
 872:Generated_Source\PSoC4/CSD_Processing.c ****     uint32 sensorStatus;
 873:Generated_Source\PSoC4/CSD_Processing.c ****     uint32 wdStatusIndex;
 874:Generated_Source\PSoC4/CSD_Processing.c ****     uint32 wdStatusMask;
 875:Generated_Source\PSoC4/CSD_Processing.c ****     CSD_WD_TYPE_ENUM widgetType;
 876:Generated_Source\PSoC4/CSD_Processing.c **** 
 877:Generated_Source\PSoC4/CSD_Processing.c ****     widgetType = (CSD_WD_TYPE_ENUM)ptrFlashWdgt->wdgtType;
 356              		.loc 1 877 0
 357 000a 1323     		mov	r3, #19
 358 000c FB18     		add	r3, r7, r3
 359 000e 3A68     		ldr	r2, [r7]
 360 0010 127E     		ldrb	r2, [r2, #24]
 361 0012 1A70     		strb	r2, [r3]
ARM GAS  C:\Users\CHRIST~1\AppData\Local\Temp\ccrDLzO7.s 			page 23


 878:Generated_Source\PSoC4/CSD_Processing.c ****     sensorStatus = CSD_dsRam.snsStatus[wdgtId];
 362              		.loc 1 878 0
 363 0014 254A     		ldr	r2, .L30
 364 0016 7B68     		ldr	r3, [r7, #4]
 365 0018 D318     		add	r3, r2, r3
 366 001a 1033     		add	r3, r3, #16
 367 001c 1B79     		ldrb	r3, [r3, #4]
 368 001e 7B61     		str	r3, [r7, #20]
 879:Generated_Source\PSoC4/CSD_Processing.c **** 
 880:Generated_Source\PSoC4/CSD_Processing.c ****     switch (widgetType)
 369              		.loc 1 880 0
 370 0020 1323     		mov	r3, #19
 371 0022 FB18     		add	r3, r7, r3
 372 0024 1B78     		ldrb	r3, [r3]
 373 0026 012B     		cmp	r3, #1
 374 0028 08D1     		bne	.L29
 881:Generated_Source\PSoC4/CSD_Processing.c ****     {
 882:Generated_Source\PSoC4/CSD_Processing.c ****     #if (0u != CSD_BUTTON_WIDGET_EN)
 883:Generated_Source\PSoC4/CSD_Processing.c ****         case CSD_WD_BUTTON_E:
 884:Generated_Source\PSoC4/CSD_Processing.c ****             sensorStatus = CSD_DpProcessButton(sensorStatus, ptrFlashWdgt);
 375              		.loc 1 884 0
 376 002a 7A69     		ldr	r2, [r7, #20]
 377 002c 3B68     		ldr	r3, [r7]
 378 002e 101C     		mov	r0, r2
 379 0030 191C     		mov	r1, r3
 380 0032 FFF7FEFF 		bl	CSD_DpProcessButton
 381 0036 031C     		mov	r3, r0
 382 0038 7B61     		str	r3, [r7, #20]
 885:Generated_Source\PSoC4/CSD_Processing.c ****             break;
 383              		.loc 1 885 0
 384 003a 03E0     		b	.L26
 385              	.L29:
 886:Generated_Source\PSoC4/CSD_Processing.c ****     #endif /* #if (0u != CSD_BUTTON_WIDGET_EN) */
 887:Generated_Source\PSoC4/CSD_Processing.c **** 
 888:Generated_Source\PSoC4/CSD_Processing.c ****     #if (0u != CSD_SLIDER_WIDGET_EN)
 889:Generated_Source\PSoC4/CSD_Processing.c ****         case CSD_WD_LINEAR_SLIDER_E:
 890:Generated_Source\PSoC4/CSD_Processing.c ****         case CSD_WD_RADIAL_SLIDER_E:
 891:Generated_Source\PSoC4/CSD_Processing.c ****             sensorStatus = CSD_DpProcessSlider(sensorStatus, ptrFlashWdgt);
 892:Generated_Source\PSoC4/CSD_Processing.c ****             break;
 893:Generated_Source\PSoC4/CSD_Processing.c ****     #endif /* #if (0u != CSD_SLIDER_WIDGET_EN) */
 894:Generated_Source\PSoC4/CSD_Processing.c **** 
 895:Generated_Source\PSoC4/CSD_Processing.c ****     #if (0u != CSD_CSD_MATRIX_WIDGET_EN)
 896:Generated_Source\PSoC4/CSD_Processing.c ****         case CSD_WD_MATRIX_BUTTON_E:
 897:Generated_Source\PSoC4/CSD_Processing.c ****             sensorStatus = CSD_DpProcessCsdMatrix(sensorStatus, ptrFlashWdgt);
 898:Generated_Source\PSoC4/CSD_Processing.c ****             break;
 899:Generated_Source\PSoC4/CSD_Processing.c ****     #endif /* #if (0u != CSD_CSD_MATRIX_WIDGET_EN) */
 900:Generated_Source\PSoC4/CSD_Processing.c **** 
 901:Generated_Source\PSoC4/CSD_Processing.c ****     #if (0u != CSD_CSD_TOUCHPAD_WIDGET_EN)
 902:Generated_Source\PSoC4/CSD_Processing.c ****         case CSD_WD_TOUCHPAD_E:
 903:Generated_Source\PSoC4/CSD_Processing.c ****             sensorStatus = CSD_DpProcessCsdTouchpad(sensorStatus, ptrFlashWdgt);
 904:Generated_Source\PSoC4/CSD_Processing.c ****             break;
 905:Generated_Source\PSoC4/CSD_Processing.c ****     #endif /* #if (0u != CSD_CSD_TOUCHPAD_WIDGET_EN) */
 906:Generated_Source\PSoC4/CSD_Processing.c **** 
 907:Generated_Source\PSoC4/CSD_Processing.c ****     #if (0u != CSD_PROXIMITY_WIDGET_EN)
 908:Generated_Source\PSoC4/CSD_Processing.c ****         case CSD_WD_PROXIMITY_E:
 909:Generated_Source\PSoC4/CSD_Processing.c ****             sensorStatus = CSD_DpProcessProximity(sensorStatus, ptrFlashWdgt);
 910:Generated_Source\PSoC4/CSD_Processing.c ****             break;
ARM GAS  C:\Users\CHRIST~1\AppData\Local\Temp\ccrDLzO7.s 			page 24


 911:Generated_Source\PSoC4/CSD_Processing.c ****     #endif /* #if (0u != CSD_PROXIMITY_WIDGET_EN) */
 912:Generated_Source\PSoC4/CSD_Processing.c **** 
 913:Generated_Source\PSoC4/CSD_Processing.c ****     default:
 914:Generated_Source\PSoC4/CSD_Processing.c ****         CYASSERT(0u);
 386              		.loc 1 914 0
 387 003c 0020     		mov	r0, #0
 388 003e FFF7FEFF 		bl	CyHalt
 915:Generated_Source\PSoC4/CSD_Processing.c ****         break;
 389              		.loc 1 915 0
 390 0042 C046     		mov	r8, r8
 391              	.L26:
 916:Generated_Source\PSoC4/CSD_Processing.c ****     }
 917:Generated_Source\PSoC4/CSD_Processing.c **** 
 918:Generated_Source\PSoC4/CSD_Processing.c ****     CSD_dsRam.snsStatus[wdgtId] = (CSD_SNS_STS_TYPE)sensorStatus;
 392              		.loc 1 918 0
 393 0044 7B69     		ldr	r3, [r7, #20]
 394 0046 D9B2     		uxtb	r1, r3
 395 0048 184A     		ldr	r2, .L30
 396 004a 7B68     		ldr	r3, [r7, #4]
 397 004c D318     		add	r3, r2, r3
 398 004e 1033     		add	r3, r3, #16
 399 0050 0A1C     		add	r2, r1, #0
 400 0052 1A71     		strb	r2, [r3, #4]
 919:Generated_Source\PSoC4/CSD_Processing.c **** 
 920:Generated_Source\PSoC4/CSD_Processing.c ****     /* The next two lines calculate index and bitmask of the widget status bit in the wdgtStatus ar
 921:Generated_Source\PSoC4/CSD_Processing.c ****     wdStatusIndex = CSD_GET_WDGT_STATUS_INDEX(wdgtId);
 401              		.loc 1 921 0
 402 0054 7B68     		ldr	r3, [r7, #4]
 403 0056 5B09     		lsr	r3, r3, #5
 404 0058 FB60     		str	r3, [r7, #12]
 922:Generated_Source\PSoC4/CSD_Processing.c ****     wdStatusMask = CSD_GET_WDGT_STATUS_MASK(wdgtId);
 405              		.loc 1 922 0
 406 005a 7B68     		ldr	r3, [r7, #4]
 407 005c 1F22     		mov	r2, #31
 408 005e 1340     		and	r3, r2
 409 0060 0122     		mov	r2, #1
 410 0062 9A40     		lsl	r2, r2, r3
 411 0064 131C     		mov	r3, r2
 412 0066 BB60     		str	r3, [r7, #8]
 923:Generated_Source\PSoC4/CSD_Processing.c **** 
 924:Generated_Source\PSoC4/CSD_Processing.c ****     /* Check if there are active sensors and update widget status accordingly */
 925:Generated_Source\PSoC4/CSD_Processing.c ****     if (0u == sensorStatus)
 413              		.loc 1 925 0
 414 0068 7B69     		ldr	r3, [r7, #20]
 415 006a 002B     		cmp	r3, #0
 416 006c 0ED1     		bne	.L27
 926:Generated_Source\PSoC4/CSD_Processing.c ****     {
 927:Generated_Source\PSoC4/CSD_Processing.c ****         CSD_dsRam.wdgtStatus[wdStatusIndex] &= ~wdStatusMask;
 417              		.loc 1 927 0
 418 006e 0F4B     		ldr	r3, .L30
 419 0070 FA68     		ldr	r2, [r7, #12]
 420 0072 0432     		add	r2, r2, #4
 421 0074 9200     		lsl	r2, r2, #2
 422 0076 D358     		ldr	r3, [r2, r3]
 423 0078 BA68     		ldr	r2, [r7, #8]
 424 007a D243     		mvn	r2, r2
 425 007c 1A40     		and	r2, r3
ARM GAS  C:\Users\CHRIST~1\AppData\Local\Temp\ccrDLzO7.s 			page 25


 426 007e 111C     		mov	r1, r2
 427 0080 0A4B     		ldr	r3, .L30
 428 0082 FA68     		ldr	r2, [r7, #12]
 429 0084 0432     		add	r2, r2, #4
 430 0086 9200     		lsl	r2, r2, #2
 431 0088 D150     		str	r1, [r2, r3]
 432 008a 0CE0     		b	.L23
 433              	.L27:
 928:Generated_Source\PSoC4/CSD_Processing.c ****     }
 929:Generated_Source\PSoC4/CSD_Processing.c ****     else
 930:Generated_Source\PSoC4/CSD_Processing.c ****     {
 931:Generated_Source\PSoC4/CSD_Processing.c ****         CSD_dsRam.wdgtStatus[wdStatusIndex] |= wdStatusMask;
 434              		.loc 1 931 0
 435 008c 074B     		ldr	r3, .L30
 436 008e FA68     		ldr	r2, [r7, #12]
 437 0090 0432     		add	r2, r2, #4
 438 0092 9200     		lsl	r2, r2, #2
 439 0094 D258     		ldr	r2, [r2, r3]
 440 0096 BB68     		ldr	r3, [r7, #8]
 441 0098 1A43     		orr	r2, r3
 442 009a 111C     		mov	r1, r2
 443 009c 034B     		ldr	r3, .L30
 444 009e FA68     		ldr	r2, [r7, #12]
 445 00a0 0432     		add	r2, r2, #4
 446 00a2 9200     		lsl	r2, r2, #2
 447 00a4 D150     		str	r1, [r2, r3]
 448              	.L23:
 932:Generated_Source\PSoC4/CSD_Processing.c ****     }
 933:Generated_Source\PSoC4/CSD_Processing.c **** }
 449              		.loc 1 933 0
 450 00a6 BD46     		mov	sp, r7
 451 00a8 06B0     		add	sp, sp, #24
 452              		@ sp needed
 453 00aa 80BD     		pop	{r7, pc}
 454              	.L31:
 455              		.align	2
 456              	.L30:
 457 00ac 00000000 		.word	CSD_dsRam
 458              		.cfi_endproc
 459              	.LFE4:
 460              		.size	CSD_DpProcessCsdWidgetStatus, .-CSD_DpProcessCsdWidgetStatus
 461              		.section	.text.CSD_DpUpdateDifferences,"ax",%progbits
 462              		.align	2
 463              		.global	CSD_DpUpdateDifferences
 464              		.code	16
 465              		.thumb_func
 466              		.type	CSD_DpUpdateDifferences, %function
 467              	CSD_DpUpdateDifferences:
 468              	.LFB5:
 934:Generated_Source\PSoC4/CSD_Processing.c **** #endif /* #if (0u != CSD_TOTAL_CSD_WIDGETS) */
 935:Generated_Source\PSoC4/CSD_Processing.c **** 
 936:Generated_Source\PSoC4/CSD_Processing.c **** 
 937:Generated_Source\PSoC4/CSD_Processing.c **** #if (0 != (CSD_CSD_AUTOTUNE & CSD_CSD_SS_TH_EN))
 938:Generated_Source\PSoC4/CSD_Processing.c **** /*******************************************************************************
 939:Generated_Source\PSoC4/CSD_Processing.c **** * Function Name: CSD_DpUpdateThresholds
 940:Generated_Source\PSoC4/CSD_Processing.c **** ****************************************************************************//**
 941:Generated_Source\PSoC4/CSD_Processing.c **** *
ARM GAS  C:\Users\CHRIST~1\AppData\Local\Temp\ccrDLzO7.s 			page 26


 942:Generated_Source\PSoC4/CSD_Processing.c **** * \brief
 943:Generated_Source\PSoC4/CSD_Processing.c **** *   Updates noise and finger thresholds for a specified widget.
 944:Generated_Source\PSoC4/CSD_Processing.c **** *
 945:Generated_Source\PSoC4/CSD_Processing.c **** * \details
 946:Generated_Source\PSoC4/CSD_Processing.c **** *   Updates noise and finger thresholds for a specified widget.
 947:Generated_Source\PSoC4/CSD_Processing.c **** *   This algorithm is a part of Auto-tuning feature.
 948:Generated_Source\PSoC4/CSD_Processing.c **** *
 949:Generated_Source\PSoC4/CSD_Processing.c **** * \param ptrRamWdgt       The pointer to the RAM widget object.
 950:Generated_Source\PSoC4/CSD_Processing.c **** * \param ptrNoiseEnvelope The pointer to the noise-envelope object in RAM.
 951:Generated_Source\PSoC4/CSD_Processing.c **** * \param startFlag        The flag indicates when new widget is processed.
 952:Generated_Source\PSoC4/CSD_Processing.c **** *
 953:Generated_Source\PSoC4/CSD_Processing.c **** *******************************************************************************/
 954:Generated_Source\PSoC4/CSD_Processing.c **** void CSD_DpUpdateThresholds(CSD_RAM_WD_BASE_STRUCT *ptrRamWdgt,
 955:Generated_Source\PSoC4/CSD_Processing.c ****                                          SMARTSENSE_CSD_NOISE_ENVELOPE_STRUCT *ptrNoiseEnvelope,
 956:Generated_Source\PSoC4/CSD_Processing.c ****                                          uint32 startFlag)
 957:Generated_Source\PSoC4/CSD_Processing.c **** {
 958:Generated_Source\PSoC4/CSD_Processing.c ****     SMARTSENSE_UPDATE_THRESHOLDS_STRUCT thresholds;    
 959:Generated_Source\PSoC4/CSD_Processing.c ****     SMARTSENSE_UPDATE_THRESHOLDS_STRUCT *ptrThresholds = &thresholds;
 960:Generated_Source\PSoC4/CSD_Processing.c ****     ptrThresholds->fingerTh = ptrRamWdgt->fingerTh;
 961:Generated_Source\PSoC4/CSD_Processing.c **** 
 962:Generated_Source\PSoC4/CSD_Processing.c ****     SmartSense_UpdateThresholds(ptrNoiseEnvelope, ptrThresholds, ptrRamWdgt->sigPFC, startFlag);
 963:Generated_Source\PSoC4/CSD_Processing.c **** 
 964:Generated_Source\PSoC4/CSD_Processing.c ****     ptrRamWdgt->fingerTh = ptrThresholds->fingerTh;
 965:Generated_Source\PSoC4/CSD_Processing.c ****     ptrRamWdgt->noiseTh = ptrThresholds->noiseTh;
 966:Generated_Source\PSoC4/CSD_Processing.c ****     ptrRamWdgt->nNoiseTh = ptrThresholds->nNoiseTh;
 967:Generated_Source\PSoC4/CSD_Processing.c ****     ptrRamWdgt->hysteresis = ptrThresholds->hysteresis;    
 968:Generated_Source\PSoC4/CSD_Processing.c **** }
 969:Generated_Source\PSoC4/CSD_Processing.c **** #endif /* #if (0u != (CSD_CSD_AUTOTUNE & CSD_CSD_SS_TH_EN)) */
 970:Generated_Source\PSoC4/CSD_Processing.c **** 
 971:Generated_Source\PSoC4/CSD_Processing.c **** 
 972:Generated_Source\PSoC4/CSD_Processing.c **** /*******************************************************************************
 973:Generated_Source\PSoC4/CSD_Processing.c **** * Function Name: CSD_DpUpdateDifferences
 974:Generated_Source\PSoC4/CSD_Processing.c **** ****************************************************************************//**
 975:Generated_Source\PSoC4/CSD_Processing.c **** *
 976:Generated_Source\PSoC4/CSD_Processing.c **** * \brief
 977:Generated_Source\PSoC4/CSD_Processing.c **** *   Calculates new difference values.
 978:Generated_Source\PSoC4/CSD_Processing.c **** *   Also, executes the frequency hopping algorithm if it is enabled.
 979:Generated_Source\PSoC4/CSD_Processing.c **** *
 980:Generated_Source\PSoC4/CSD_Processing.c **** * \details
 981:Generated_Source\PSoC4/CSD_Processing.c **** *   This API calculates the difference between the baseline and raw counts.
 982:Generated_Source\PSoC4/CSD_Processing.c **** *   If the difference is positive (raw > baseline), and higher than the widget
 983:Generated_Source\PSoC4/CSD_Processing.c **** *   noise threshold, it is saved into the data structure for further processing.
 984:Generated_Source\PSoC4/CSD_Processing.c **** *   Otherwise the difference is set to zero. The final difference value is saved
 985:Generated_Source\PSoC4/CSD_Processing.c **** *   with the subtracted noise threshold value.
 986:Generated_Source\PSoC4/CSD_Processing.c **** *
 987:Generated_Source\PSoC4/CSD_Processing.c **** *   If the frequency hopping algorithm is enabled, the difference is calculated
 988:Generated_Source\PSoC4/CSD_Processing.c **** *   for the three sets of data available for each sensor. Then
 989:Generated_Source\PSoC4/CSD_Processing.c **** *   the median filter selects the final difference value.
 990:Generated_Source\PSoC4/CSD_Processing.c **** *
 991:Generated_Source\PSoC4/CSD_Processing.c **** * \param ptrRamWdgt The pointer to the RAR Widget Object.
 992:Generated_Source\PSoC4/CSD_Processing.c **** * \param ptrSns     The pointer to the sensor object in RAM.
 993:Generated_Source\PSoC4/CSD_Processing.c **** *
 994:Generated_Source\PSoC4/CSD_Processing.c **** *******************************************************************************/
 995:Generated_Source\PSoC4/CSD_Processing.c **** void CSD_DpUpdateDifferences(
 996:Generated_Source\PSoC4/CSD_Processing.c ****                         CSD_RAM_WD_BASE_STRUCT *ptrRamWdgt,
 997:Generated_Source\PSoC4/CSD_Processing.c ****                         CSD_RAM_SNS_STRUCT *ptrSns)
 998:Generated_Source\PSoC4/CSD_Processing.c **** {
ARM GAS  C:\Users\CHRIST~1\AppData\Local\Temp\ccrDLzO7.s 			page 27


 469              		.loc 1 998 0
 470              		.cfi_startproc
 471 0000 90B5     		push	{r4, r7, lr}
 472              		.cfi_def_cfa_offset 12
 473              		.cfi_offset 4, -12
 474              		.cfi_offset 7, -8
 475              		.cfi_offset 14, -4
 476 0002 83B0     		sub	sp, sp, #12
 477              		.cfi_def_cfa_offset 24
 478 0004 00AF     		add	r7, sp, #0
 479              		.cfi_def_cfa_register 7
 480 0006 7860     		str	r0, [r7, #4]
 481 0008 3960     		str	r1, [r7]
 999:Generated_Source\PSoC4/CSD_Processing.c ****     register int32 diffValue = 0;
 482              		.loc 1 999 0
 483 000a 0024     		mov	r4, #0
1000:Generated_Source\PSoC4/CSD_Processing.c **** 
1001:Generated_Source\PSoC4/CSD_Processing.c ****     #if (0u != CSD_MULTI_FREQ_SCAN_EN)
1002:Generated_Source\PSoC4/CSD_Processing.c ****         register int32 diffValue_0 = 0;
1003:Generated_Source\PSoC4/CSD_Processing.c ****         register int32 diffValue_2 = 0;
1004:Generated_Source\PSoC4/CSD_Processing.c ****     #endif /* #if (0u != CSD_MULTI_FREQ_SCAN_EN) */
1005:Generated_Source\PSoC4/CSD_Processing.c **** 
1006:Generated_Source\PSoC4/CSD_Processing.c ****     /* Calculate difference */
1007:Generated_Source\PSoC4/CSD_Processing.c ****     diffValue = (int32)ptrSns->raw[0u] - (int32)ptrSns->bsln[0u];
 484              		.loc 1 1007 0
 485 000c 3B68     		ldr	r3, [r7]
 486 000e 1B88     		ldrh	r3, [r3]
 487 0010 1A1C     		mov	r2, r3
 488 0012 3B68     		ldr	r3, [r7]
 489 0014 5B88     		ldrh	r3, [r3, #2]
 490 0016 D41A     		sub	r4, r2, r3
1008:Generated_Source\PSoC4/CSD_Processing.c **** 
1009:Generated_Source\PSoC4/CSD_Processing.c ****     #if (0u != CSD_MULTI_FREQ_SCAN_EN)
1010:Generated_Source\PSoC4/CSD_Processing.c ****         diffValue_0 = (int32)ptrSns->raw[1u] - (int32)ptrSns->bsln[1u];
1011:Generated_Source\PSoC4/CSD_Processing.c ****         diffValue_2 = (int32)ptrSns->raw[2u] - (int32)ptrSns->bsln[2u];
1012:Generated_Source\PSoC4/CSD_Processing.c **** 
1013:Generated_Source\PSoC4/CSD_Processing.c ****         /* Find median and put it into [0u] element */
1014:Generated_Source\PSoC4/CSD_Processing.c ****         if (diffValue_0 > diffValue)
1015:Generated_Source\PSoC4/CSD_Processing.c ****         {
1016:Generated_Source\PSoC4/CSD_Processing.c ****             register int32 swapv = diffValue_0;
1017:Generated_Source\PSoC4/CSD_Processing.c ****             diffValue_0 = diffValue;
1018:Generated_Source\PSoC4/CSD_Processing.c ****             diffValue = swapv;
1019:Generated_Source\PSoC4/CSD_Processing.c ****         }
1020:Generated_Source\PSoC4/CSD_Processing.c **** 
1021:Generated_Source\PSoC4/CSD_Processing.c ****         if (diffValue > diffValue_2)
1022:Generated_Source\PSoC4/CSD_Processing.c ****         {
1023:Generated_Source\PSoC4/CSD_Processing.c ****             register int32 swapv = diffValue;
1024:Generated_Source\PSoC4/CSD_Processing.c ****             diffValue = diffValue_2;
1025:Generated_Source\PSoC4/CSD_Processing.c ****             diffValue_2 = swapv;
1026:Generated_Source\PSoC4/CSD_Processing.c ****         }
1027:Generated_Source\PSoC4/CSD_Processing.c **** 
1028:Generated_Source\PSoC4/CSD_Processing.c ****         if (diffValue_0 > diffValue)
1029:Generated_Source\PSoC4/CSD_Processing.c ****         {
1030:Generated_Source\PSoC4/CSD_Processing.c ****             register int32 swapv = diffValue_0;
1031:Generated_Source\PSoC4/CSD_Processing.c ****             diffValue_0 = diffValue;
1032:Generated_Source\PSoC4/CSD_Processing.c ****             diffValue = swapv;
1033:Generated_Source\PSoC4/CSD_Processing.c ****         }
ARM GAS  C:\Users\CHRIST~1\AppData\Local\Temp\ccrDLzO7.s 			page 28


1034:Generated_Source\PSoC4/CSD_Processing.c ****     #endif /* #if (0u != CSD_MULTI_FREQ_SCAN_EN) */
1035:Generated_Source\PSoC4/CSD_Processing.c **** 
1036:Generated_Source\PSoC4/CSD_Processing.c ****     ptrSns->diff = 0u;
 491              		.loc 1 1036 0
 492 0018 3B68     		ldr	r3, [r7]
 493 001a 0022     		mov	r2, #0
 494 001c DA80     		strh	r2, [r3, #6]
1037:Generated_Source\PSoC4/CSD_Processing.c **** 
1038:Generated_Source\PSoC4/CSD_Processing.c ****     if (diffValue > (int32)ptrRamWdgt->noiseTh)
 495              		.loc 1 1038 0
 496 001e 7B68     		ldr	r3, [r7, #4]
 497 0020 1B79     		ldrb	r3, [r3, #4]
 498 0022 A342     		cmp	r3, r4
 499 0024 02DA     		bge	.L32
1039:Generated_Source\PSoC4/CSD_Processing.c ****     {
1040:Generated_Source\PSoC4/CSD_Processing.c ****         ptrSns->diff = (CSD_THRESHOLD_TYPE) diffValue;
 500              		.loc 1 1040 0
 501 0026 A2B2     		uxth	r2, r4
 502 0028 3B68     		ldr	r3, [r7]
 503 002a DA80     		strh	r2, [r3, #6]
 504              	.L32:
1041:Generated_Source\PSoC4/CSD_Processing.c ****     }
1042:Generated_Source\PSoC4/CSD_Processing.c **** }
 505              		.loc 1 1042 0
 506 002c BD46     		mov	sp, r7
 507 002e 03B0     		add	sp, sp, #12
 508              		@ sp needed
 509 0030 90BD     		pop	{r4, r7, pc}
 510              		.cfi_endproc
 511              	.LFE5:
 512              		.size	CSD_DpUpdateDifferences, .-CSD_DpUpdateDifferences
 513 0032 C046     		.section	.text.CSD_DpProcessButton,"ax",%progbits
 514              		.align	2
 515              		.global	CSD_DpProcessButton
 516              		.code	16
 517              		.thumb_func
 518              		.type	CSD_DpProcessButton, %function
 519              	CSD_DpProcessButton:
 520              	.LFB6:
1043:Generated_Source\PSoC4/CSD_Processing.c **** 
1044:Generated_Source\PSoC4/CSD_Processing.c **** 
1045:Generated_Source\PSoC4/CSD_Processing.c **** #if ((0u != CSD_BUTTON_WIDGET_EN) || (0u != CSD_CSX_MATRIX_WIDGET_EN))
1046:Generated_Source\PSoC4/CSD_Processing.c **** /*******************************************************************************
1047:Generated_Source\PSoC4/CSD_Processing.c **** * Function Name: CSD_DpProcessButton
1048:Generated_Source\PSoC4/CSD_Processing.c **** ****************************************************************************//**
1049:Generated_Source\PSoC4/CSD_Processing.c **** *
1050:Generated_Source\PSoC4/CSD_Processing.c **** * \brief
1051:Generated_Source\PSoC4/CSD_Processing.c **** *   Processes the status of the Button widget.
1052:Generated_Source\PSoC4/CSD_Processing.c **** *
1053:Generated_Source\PSoC4/CSD_Processing.c **** * \details
1054:Generated_Source\PSoC4/CSD_Processing.c **** *   This API processes the status of the CSD/CSX Button widget and
1055:Generated_Source\PSoC4/CSD_Processing.c **** *   CSX Matrix Button widget. It applies the hysteresis and de-bounce algorithm
1056:Generated_Source\PSoC4/CSD_Processing.c **** *   to each sensor difference value. This API is expected to be called
1057:Generated_Source\PSoC4/CSD_Processing.c **** *   after each new widget scan. If it is called multiple times for the same
1058:Generated_Source\PSoC4/CSD_Processing.c **** *   scan data, the de-bounce algorithm will not work properly.
1059:Generated_Source\PSoC4/CSD_Processing.c **** *
1060:Generated_Source\PSoC4/CSD_Processing.c **** *   This API does not update any Data Structure registers
ARM GAS  C:\Users\CHRIST~1\AppData\Local\Temp\ccrDLzO7.s 			page 29


1061:Generated_Source\PSoC4/CSD_Processing.c **** *   except the de-bounce counters.
1062:Generated_Source\PSoC4/CSD_Processing.c **** *
1063:Generated_Source\PSoC4/CSD_Processing.c **** * \param currStatus   The current status of the widget sensors.
1064:Generated_Source\PSoC4/CSD_Processing.c **** * \param ptrFlashWdgt The pointer to the Flash Widget Object.
1065:Generated_Source\PSoC4/CSD_Processing.c **** *
1066:Generated_Source\PSoC4/CSD_Processing.c **** * \return Returns the status of the widget's sensors. Bit #0 - corresponds to Sensor #0.
1067:Generated_Source\PSoC4/CSD_Processing.c **** *
1068:Generated_Source\PSoC4/CSD_Processing.c **** *******************************************************************************/
1069:Generated_Source\PSoC4/CSD_Processing.c **** uint32 CSD_DpProcessButton(uint32 currStatus, CSD_FLASH_WD_STRUCT const *ptrFlashWdgt)
1070:Generated_Source\PSoC4/CSD_Processing.c **** {
 521              		.loc 1 1070 0
 522              		.cfi_startproc
 523 0000 80B5     		push	{r7, lr}
 524              		.cfi_def_cfa_offset 8
 525              		.cfi_offset 7, -8
 526              		.cfi_offset 14, -4
 527 0002 8AB0     		sub	sp, sp, #40
 528              		.cfi_def_cfa_offset 48
 529 0004 00AF     		add	r7, sp, #0
 530              		.cfi_def_cfa_register 7
 531 0006 7860     		str	r0, [r7, #4]
 532 0008 3960     		str	r1, [r7]
1071:Generated_Source\PSoC4/CSD_Processing.c ****     uint32 snsCnt;
1072:Generated_Source\PSoC4/CSD_Processing.c ****     uint32 snsMask;
1073:Generated_Source\PSoC4/CSD_Processing.c ****     uint32 newStatus;
1074:Generated_Source\PSoC4/CSD_Processing.c ****     uint32 touchTh;
1075:Generated_Source\PSoC4/CSD_Processing.c ****     CSD_RAM_SNS_STRUCT *ptrSns;
1076:Generated_Source\PSoC4/CSD_Processing.c ****     CSD_RAM_WD_BASE_STRUCT *ptrRamWdgt;
1077:Generated_Source\PSoC4/CSD_Processing.c ****     uint8 * ptrDebounceCnt;
1078:Generated_Source\PSoC4/CSD_Processing.c **** 
1079:Generated_Source\PSoC4/CSD_Processing.c ****     snsCnt = ptrFlashWdgt->totalNumSns;
 533              		.loc 1 1079 0
 534 000a 3B68     		ldr	r3, [r7]
 535 000c DB8A     		ldrh	r3, [r3, #22]
 536 000e 7B62     		str	r3, [r7, #36]
1080:Generated_Source\PSoC4/CSD_Processing.c ****     ptrSns = ptrFlashWdgt->ptr2SnsRam;
 537              		.loc 1 1080 0
 538 0010 3B68     		ldr	r3, [r7]
 539 0012 9B68     		ldr	r3, [r3, #8]
 540 0014 FB61     		str	r3, [r7, #28]
1081:Generated_Source\PSoC4/CSD_Processing.c ****     ptrRamWdgt = ptrFlashWdgt->ptr2WdgtRam;
 541              		.loc 1 1081 0
 542 0016 3B68     		ldr	r3, [r7]
 543 0018 5B68     		ldr	r3, [r3, #4]
 544 001a 7B61     		str	r3, [r7, #20]
1082:Generated_Source\PSoC4/CSD_Processing.c ****     ptrDebounceCnt = ptrFlashWdgt->ptr2DebounceArr;
 545              		.loc 1 1082 0
 546 001c 3B68     		ldr	r3, [r7]
 547 001e 1B69     		ldr	r3, [r3, #16]
 548 0020 BB61     		str	r3, [r7, #24]
1083:Generated_Source\PSoC4/CSD_Processing.c **** 
1084:Generated_Source\PSoC4/CSD_Processing.c ****     /* Go through all widget's sensors */
1085:Generated_Source\PSoC4/CSD_Processing.c ****     snsMask = 1Lu;
 549              		.loc 1 1085 0
 550 0022 0123     		mov	r3, #1
 551 0024 3B62     		str	r3, [r7, #32]
1086:Generated_Source\PSoC4/CSD_Processing.c ****     for (; snsCnt-- > 0u; )
ARM GAS  C:\Users\CHRIST~1\AppData\Local\Temp\ccrDLzO7.s 			page 30


 552              		.loc 1 1086 0
 553 0026 4CE0     		b	.L35
 554              	.L45:
1087:Generated_Source\PSoC4/CSD_Processing.c ****     {
1088:Generated_Source\PSoC4/CSD_Processing.c ****         /* Calculate touch threshold taking into account hysteresis
1089:Generated_Source\PSoC4/CSD_Processing.c ****            and current sensor state. */
1090:Generated_Source\PSoC4/CSD_Processing.c ****         touchTh = (0u == (currStatus & snsMask)) ?
 555              		.loc 1 1090 0
 556 0028 7B68     		ldr	r3, [r7, #4]
 557 002a 3A6A     		ldr	r2, [r7, #32]
 558 002c 1340     		and	r3, r2
1091:Generated_Source\PSoC4/CSD_Processing.c ****                   ((uint32)ptrRamWdgt->fingerTh + ptrRamWdgt->hysteresis) :
 559              		.loc 1 1091 0
 560 002e 06D1     		bne	.L36
 561              		.loc 1 1091 0 is_stmt 0 discriminator 1
 562 0030 7B69     		ldr	r3, [r7, #20]
 563 0032 5B88     		ldrh	r3, [r3, #2]
 564 0034 1A1C     		mov	r2, r3
 565 0036 7B69     		ldr	r3, [r7, #20]
 566 0038 9B79     		ldrb	r3, [r3, #6]
 567 003a D318     		add	r3, r2, r3
 568 003c 05E0     		b	.L37
 569              	.L36:
1092:Generated_Source\PSoC4/CSD_Processing.c ****                   ((uint32)ptrRamWdgt->fingerTh - ptrRamWdgt->hysteresis);
 570              		.loc 1 1092 0 is_stmt 1 discriminator 2
 571 003e 7B69     		ldr	r3, [r7, #20]
 572 0040 5B88     		ldrh	r3, [r3, #2]
 573 0042 1A1C     		mov	r2, r3
 574 0044 7B69     		ldr	r3, [r7, #20]
 575 0046 9B79     		ldrb	r3, [r3, #6]
1091:Generated_Source\PSoC4/CSD_Processing.c ****                   ((uint32)ptrRamWdgt->fingerTh + ptrRamWdgt->hysteresis) :
 576              		.loc 1 1091 0 discriminator 2
 577 0048 D31A     		sub	r3, r2, r3
 578              	.L37:
1090:Generated_Source\PSoC4/CSD_Processing.c ****                   ((uint32)ptrRamWdgt->fingerTh + ptrRamWdgt->hysteresis) :
 579              		.loc 1 1090 0
 580 004a 3B61     		str	r3, [r7, #16]
1093:Generated_Source\PSoC4/CSD_Processing.c **** 
1094:Generated_Source\PSoC4/CSD_Processing.c ****         /* Determine new potential sensor state */
1095:Generated_Source\PSoC4/CSD_Processing.c ****         newStatus = (ptrSns->diff > touchTh) ? snsMask : 0u;
 581              		.loc 1 1095 0
 582 004c FB69     		ldr	r3, [r7, #28]
 583 004e DB88     		ldrh	r3, [r3, #6]
 584 0050 1A1E     		sub	r2, r3, #0
 585 0052 3B69     		ldr	r3, [r7, #16]
 586 0054 9A42     		cmp	r2, r3
 587 0056 01D9     		bls	.L38
 588              		.loc 1 1095 0 is_stmt 0 discriminator 1
 589 0058 3B6A     		ldr	r3, [r7, #32]
 590 005a 00E0     		b	.L39
 591              	.L38:
 592              		.loc 1 1095 0 discriminator 2
 593 005c 0023     		mov	r3, #0
 594              	.L39:
 595              		.loc 1 1095 0 discriminator 4
 596 005e FB60     		str	r3, [r7, #12]
1096:Generated_Source\PSoC4/CSD_Processing.c **** 
ARM GAS  C:\Users\CHRIST~1\AppData\Local\Temp\ccrDLzO7.s 			page 31


1097:Generated_Source\PSoC4/CSD_Processing.c ****         /* Sensor state changed ? */
1098:Generated_Source\PSoC4/CSD_Processing.c ****         if (newStatus != (currStatus & snsMask))
 597              		.loc 1 1098 0 is_stmt 1 discriminator 4
 598 0060 7B68     		ldr	r3, [r7, #4]
 599 0062 3A6A     		ldr	r2, [r7, #32]
 600 0064 1A40     		and	r2, r3
 601 0066 FB68     		ldr	r3, [r7, #12]
 602 0068 9A42     		cmp	r2, r3
 603 006a 05D0     		beq	.L40
1099:Generated_Source\PSoC4/CSD_Processing.c ****         {
1100:Generated_Source\PSoC4/CSD_Processing.c ****             /* Decrement de-bounce counter */
1101:Generated_Source\PSoC4/CSD_Processing.c ****             (*ptrDebounceCnt)--;
 604              		.loc 1 1101 0
 605 006c BB69     		ldr	r3, [r7, #24]
 606 006e 1B78     		ldrb	r3, [r3]
 607 0070 013B     		sub	r3, r3, #1
 608 0072 DAB2     		uxtb	r2, r3
 609 0074 BB69     		ldr	r3, [r7, #24]
 610 0076 1A70     		strb	r2, [r3]
 611              	.L40:
1102:Generated_Source\PSoC4/CSD_Processing.c ****         }
1103:Generated_Source\PSoC4/CSD_Processing.c **** 
1104:Generated_Source\PSoC4/CSD_Processing.c ****         /* This piece of code has two objectives:
1105:Generated_Source\PSoC4/CSD_Processing.c ****            1. Reset de-bounce counter if the sensor state did not change.
1106:Generated_Source\PSoC4/CSD_Processing.c ****               (It is possible that during previous processing cycles sensor
1107:Generated_Source\PSoC4/CSD_Processing.c ****                was active and de-bounce counter was decremented.)
1108:Generated_Source\PSoC4/CSD_Processing.c ****            2. Set new sensor state after successful de-bounce.
1109:Generated_Source\PSoC4/CSD_Processing.c ****          */
1110:Generated_Source\PSoC4/CSD_Processing.c ****         if ((newStatus == (currStatus & snsMask)) || (0u == (*ptrDebounceCnt)))
 612              		.loc 1 1110 0
 613 0078 7B68     		ldr	r3, [r7, #4]
 614 007a 3A6A     		ldr	r2, [r7, #32]
 615 007c 1A40     		and	r2, r3
 616 007e FB68     		ldr	r3, [r7, #12]
 617 0080 9A42     		cmp	r2, r3
 618 0082 03D0     		beq	.L41
 619              		.loc 1 1110 0 is_stmt 0 discriminator 1
 620 0084 BB69     		ldr	r3, [r7, #24]
 621 0086 1B78     		ldrb	r3, [r3]
 622 0088 002B     		cmp	r3, #0
 623 008a 11D1     		bne	.L42
 624              	.L41:
1111:Generated_Source\PSoC4/CSD_Processing.c ****         {
1112:Generated_Source\PSoC4/CSD_Processing.c ****             /* Set new sensor status */
1113:Generated_Source\PSoC4/CSD_Processing.c ****             currStatus &= ~snsMask;
 625              		.loc 1 1113 0 is_stmt 1
 626 008c 3B6A     		ldr	r3, [r7, #32]
 627 008e DA43     		mvn	r2, r3
 628 0090 7B68     		ldr	r3, [r7, #4]
 629 0092 1340     		and	r3, r2
 630 0094 7B60     		str	r3, [r7, #4]
1114:Generated_Source\PSoC4/CSD_Processing.c ****             currStatus |= newStatus;
 631              		.loc 1 1114 0
 632 0096 7A68     		ldr	r2, [r7, #4]
 633 0098 FB68     		ldr	r3, [r7, #12]
 634 009a 1343     		orr	r3, r2
 635 009c 7B60     		str	r3, [r7, #4]
ARM GAS  C:\Users\CHRIST~1\AppData\Local\Temp\ccrDLzO7.s 			page 32


1115:Generated_Source\PSoC4/CSD_Processing.c **** 
1116:Generated_Source\PSoC4/CSD_Processing.c ****             /* Reset de-bounce counter */
1117:Generated_Source\PSoC4/CSD_Processing.c ****             #if (0u != CSD_OFF_DEBOUNCE_EN)
1118:Generated_Source\PSoC4/CSD_Processing.c ****                 *ptrDebounceCnt = (0Lu == newStatus) ? ptrRamWdgt->onDebounce : ptrRamWdgt->offDebo
1119:Generated_Source\PSoC4/CSD_Processing.c ****             #else
1120:Generated_Source\PSoC4/CSD_Processing.c ****                 *ptrDebounceCnt = (0Lu == newStatus) ? ptrRamWdgt->onDebounce : DEFAULT_OFF_DEBOUNC
 636              		.loc 1 1120 0
 637 009e FB68     		ldr	r3, [r7, #12]
 638 00a0 002B     		cmp	r3, #0
 639 00a2 02D1     		bne	.L43
 640              		.loc 1 1120 0 is_stmt 0 discriminator 1
 641 00a4 7B69     		ldr	r3, [r7, #20]
 642 00a6 DA79     		ldrb	r2, [r3, #7]
 643 00a8 00E0     		b	.L44
 644              	.L43:
 645              		.loc 1 1120 0 discriminator 2
 646 00aa 0122     		mov	r2, #1
 647              	.L44:
 648              		.loc 1 1120 0 discriminator 4
 649 00ac BB69     		ldr	r3, [r7, #24]
 650 00ae 1A70     		strb	r2, [r3]
 651              	.L42:
1121:Generated_Source\PSoC4/CSD_Processing.c ****             #endif /* #if (0u != CSD_OFF_DEBOUNCE_EN) */
1122:Generated_Source\PSoC4/CSD_Processing.c ****         }
1123:Generated_Source\PSoC4/CSD_Processing.c ****         
1124:Generated_Source\PSoC4/CSD_Processing.c ****         /* Move mask to the next sensor */
1125:Generated_Source\PSoC4/CSD_Processing.c ****         snsMask <<= 1u;
 652              		.loc 1 1125 0 is_stmt 1
 653 00b0 3B6A     		ldr	r3, [r7, #32]
 654 00b2 5B00     		lsl	r3, r3, #1
 655 00b4 3B62     		str	r3, [r7, #32]
1126:Generated_Source\PSoC4/CSD_Processing.c ****         
1127:Generated_Source\PSoC4/CSD_Processing.c ****         ptrSns++;
 656              		.loc 1 1127 0
 657 00b6 FB69     		ldr	r3, [r7, #28]
 658 00b8 0A33     		add	r3, r3, #10
 659 00ba FB61     		str	r3, [r7, #28]
1128:Generated_Source\PSoC4/CSD_Processing.c ****         ptrDebounceCnt++;
 660              		.loc 1 1128 0
 661 00bc BB69     		ldr	r3, [r7, #24]
 662 00be 0133     		add	r3, r3, #1
 663 00c0 BB61     		str	r3, [r7, #24]
 664              	.L35:
1086:Generated_Source\PSoC4/CSD_Processing.c ****     {
 665              		.loc 1 1086 0
 666 00c2 7B6A     		ldr	r3, [r7, #36]
 667 00c4 5A1E     		sub	r2, r3, #1
 668 00c6 7A62     		str	r2, [r7, #36]
 669 00c8 002B     		cmp	r3, #0
 670 00ca ADD1     		bne	.L45
1129:Generated_Source\PSoC4/CSD_Processing.c ****     }
1130:Generated_Source\PSoC4/CSD_Processing.c **** 
1131:Generated_Source\PSoC4/CSD_Processing.c ****     return currStatus;
 671              		.loc 1 1131 0
 672 00cc 7B68     		ldr	r3, [r7, #4]
1132:Generated_Source\PSoC4/CSD_Processing.c **** }
 673              		.loc 1 1132 0
ARM GAS  C:\Users\CHRIST~1\AppData\Local\Temp\ccrDLzO7.s 			page 33


 674 00ce 181C     		mov	r0, r3
 675 00d0 BD46     		mov	sp, r7
 676 00d2 0AB0     		add	sp, sp, #40
 677              		@ sp needed
 678 00d4 80BD     		pop	{r7, pc}
 679              		.cfi_endproc
 680              	.LFE6:
 681              		.size	CSD_DpProcessButton, .-CSD_DpProcessButton
 682              		.text
 683              	.Letext0:
 684              		.file 2 "Generated_Source\\PSoC4\\cytypes.h"
 685              		.file 3 "Generated_Source\\PSoC4\\CSD_Configuration.h"
 686              		.file 4 "Generated_Source\\PSoC4\\CSD_Structure.h"
 687              		.file 5 "c:\\program files (x86)\\cypress\\psoc creator\\4.0\\psoc creator\\import\\gnu\\arm\\4.9.