ARM GAS  C:\Users\CHRIST~1\AppData\Local\Temp\ccADi2zK.s 			page 1


   1              		.cpu cortex-m0plus
   2              		.fpu softvfp
   3              		.eabi_attribute 20, 1
   4              		.eabi_attribute 21, 1
   5              		.eabi_attribute 23, 3
   6              		.eabi_attribute 24, 1
   7              		.eabi_attribute 25, 1
   8              		.eabi_attribute 26, 1
   9              		.eabi_attribute 30, 6
  10              		.eabi_attribute 34, 0
  11              		.eabi_attribute 18, 4
  12              		.code	16
  13              		.file	"CSD_INT.c"
  14              		.text
  15              	.Ltext0:
  16              		.cfi_sections	.debug_frame
  17              		.section	.text.CSD_CSDPostSingleScan,"ax",%progbits
  18              		.align	2
  19              		.global	CSD_CSDPostSingleScan
  20              		.code	16
  21              		.thumb_func
  22              		.type	CSD_CSDPostSingleScan, %function
  23              	CSD_CSDPostSingleScan:
  24              	.LFB1:
  25              		.file 1 "Generated_Source\\PSoC4\\CSD_INT.c"
   1:Generated_Source\PSoC4/CSD_INT.c **** /***************************************************************************//**
   2:Generated_Source\PSoC4/CSD_INT.c **** * \file CSD_INT.c
   3:Generated_Source\PSoC4/CSD_INT.c **** * \version 3.0
   4:Generated_Source\PSoC4/CSD_INT.c **** *
   5:Generated_Source\PSoC4/CSD_INT.c **** * \brief
   6:Generated_Source\PSoC4/CSD_INT.c **** *   This file contains the source code for implementation of the CapSense component
   7:Generated_Source\PSoC4/CSD_INT.c **** *   Interrupt Service Routine (ISR).
   8:Generated_Source\PSoC4/CSD_INT.c **** *
   9:Generated_Source\PSoC4/CSD_INT.c **** * \see CapSense P4 v3.0 Datasheet
  10:Generated_Source\PSoC4/CSD_INT.c **** *
  11:Generated_Source\PSoC4/CSD_INT.c **** *//*****************************************************************************
  12:Generated_Source\PSoC4/CSD_INT.c **** * Copyright (2016), Cypress Semiconductor Corporation.
  13:Generated_Source\PSoC4/CSD_INT.c **** ********************************************************************************
  14:Generated_Source\PSoC4/CSD_INT.c **** * This software is owned by Cypress Semiconductor Corporation (Cypress) and is
  15:Generated_Source\PSoC4/CSD_INT.c **** * protected by and subject to worldwide patent protection (United States and
  16:Generated_Source\PSoC4/CSD_INT.c **** * foreign), United States copyright laws and international treaty provisions.
  17:Generated_Source\PSoC4/CSD_INT.c **** * Cypress hereby grants to licensee a personal, non-exclusive, non-transferable
  18:Generated_Source\PSoC4/CSD_INT.c **** * license to copy, use, modify, create derivative works of, and compile the
  19:Generated_Source\PSoC4/CSD_INT.c **** * Cypress Source Code and derivative works for the sole purpose of creating
  20:Generated_Source\PSoC4/CSD_INT.c **** * custom software in support of licensee product to be used only in conjunction
  21:Generated_Source\PSoC4/CSD_INT.c **** * with a Cypress integrated circuit as specified in the applicable agreement.
  22:Generated_Source\PSoC4/CSD_INT.c **** * Any reproduction, modification, translation, compilation, or representation of
  23:Generated_Source\PSoC4/CSD_INT.c **** * this software except as specified above is prohibited without the express
  24:Generated_Source\PSoC4/CSD_INT.c **** * written permission of Cypress.
  25:Generated_Source\PSoC4/CSD_INT.c **** *
  26:Generated_Source\PSoC4/CSD_INT.c **** * Disclaimer: CYPRESS MAKES NO WARRANTY OF ANY KIND, EXPRESS OR IMPLIED, WITH
  27:Generated_Source\PSoC4/CSD_INT.c **** * REGARD TO THIS MATERIAL, INCLUDING, BUT NOT LIMITED TO, THE IMPLIED
  28:Generated_Source\PSoC4/CSD_INT.c **** * WARRANTIES OF MERCHANTABILITY AND FITNESS FOR A PARTICULAR PURPOSE.
  29:Generated_Source\PSoC4/CSD_INT.c **** * Cypress reserves the right to make changes without further notice to the
  30:Generated_Source\PSoC4/CSD_INT.c **** * materials described herein. Cypress does not assume any liability arising out
  31:Generated_Source\PSoC4/CSD_INT.c **** * of the application or use of any product or circuit described herein. Cypress
  32:Generated_Source\PSoC4/CSD_INT.c **** * does not authorize its products for use as critical components in life-support
ARM GAS  C:\Users\CHRIST~1\AppData\Local\Temp\ccADi2zK.s 			page 2


  33:Generated_Source\PSoC4/CSD_INT.c **** * systems where a malfunction or failure may reasonably be expected to result in
  34:Generated_Source\PSoC4/CSD_INT.c **** * significant injury to the user. The inclusion of Cypress' product in a life-
  35:Generated_Source\PSoC4/CSD_INT.c **** * support systems application implies that the manufacturer assumes all risk of
  36:Generated_Source\PSoC4/CSD_INT.c **** * such use and in doing so indemnifies Cypress against all charges. Use may be
  37:Generated_Source\PSoC4/CSD_INT.c **** * limited by and subject to the applicable Cypress software license agreement.
  38:Generated_Source\PSoC4/CSD_INT.c **** *******************************************************************************/
  39:Generated_Source\PSoC4/CSD_INT.c **** #include "cytypes.h"
  40:Generated_Source\PSoC4/CSD_INT.c **** #include "cyfitter.h"
  41:Generated_Source\PSoC4/CSD_INT.c **** #include "CSD_Sensing.h"
  42:Generated_Source\PSoC4/CSD_INT.c **** 
  43:Generated_Source\PSoC4/CSD_INT.c **** 
  44:Generated_Source\PSoC4/CSD_INT.c **** /*******************************************************************************
  45:Generated_Source\PSoC4/CSD_INT.c **** * Static Function Prototypes
  46:Generated_Source\PSoC4/CSD_INT.c **** *******************************************************************************/
  47:Generated_Source\PSoC4/CSD_INT.c **** /**
  48:Generated_Source\PSoC4/CSD_INT.c **** * \if SECTION_CAPSENSE_INTERNAL
  49:Generated_Source\PSoC4/CSD_INT.c **** * \addtogroup group_capsense_internal
  50:Generated_Source\PSoC4/CSD_INT.c **** * \{
  51:Generated_Source\PSoC4/CSD_INT.c **** */
  52:Generated_Source\PSoC4/CSD_INT.c **** 
  53:Generated_Source\PSoC4/CSD_INT.c **** #define CSD_CSD_EXTRA_CYCLES_NUMBER    (1Lu)
  54:Generated_Source\PSoC4/CSD_INT.c **** 
  55:Generated_Source\PSoC4/CSD_INT.c **** #if (((CSD_ENABLE == CSD_CSD_EN) || (CSD_ENABLE == CSD_CSD_CSX_EN)) && \
  56:Generated_Source\PSoC4/CSD_INT.c ****      (CSD_ENABLE == CSD_MULTI_FREQ_SCAN_EN))
  57:Generated_Source\PSoC4/CSD_INT.c ****     static void CSD_SsNextFrequencyScan(void);
  58:Generated_Source\PSoC4/CSD_INT.c **** #endif /* (((CSD_ENABLE == CSD_CSD_EN) || (CSD_ENABLE == CSD_CSD_CSX_EN)) && \
  59:Generated_Source\PSoC4/CSD_INT.c ****             (CSD_ENABLE == CSD_MULTI_FREQ_SCAN_EN)) */
  60:Generated_Source\PSoC4/CSD_INT.c **** 
  61:Generated_Source\PSoC4/CSD_INT.c **** #if ((CSD_ENABLE == CSD_CSD_EN) || (CSD_ENABLE == CSD_CSD_CSX_EN))
  62:Generated_Source\PSoC4/CSD_INT.c ****     CY_INLINE static void CSD_SsCSDPostScan(void);
  63:Generated_Source\PSoC4/CSD_INT.c ****     CY_INLINE static void CSD_SsInitNextScan(void);
  64:Generated_Source\PSoC4/CSD_INT.c **** #endif /* ((CSD_ENABLE == CSD_CSD_EN) || (CSD_ENABLE == CSD_CSD_CSX_EN)) */
  65:Generated_Source\PSoC4/CSD_INT.c **** 
  66:Generated_Source\PSoC4/CSD_INT.c **** /** \}
  67:Generated_Source\PSoC4/CSD_INT.c **** * \endif */
  68:Generated_Source\PSoC4/CSD_INT.c **** 
  69:Generated_Source\PSoC4/CSD_INT.c **** 
  70:Generated_Source\PSoC4/CSD_INT.c **** /**
  71:Generated_Source\PSoC4/CSD_INT.c **** * \if SECTION_CAPSENSE_INTERRUPT
  72:Generated_Source\PSoC4/CSD_INT.c **** * \addtogroup group_capsense_interrupt
  73:Generated_Source\PSoC4/CSD_INT.c **** * \{
  74:Generated_Source\PSoC4/CSD_INT.c **** */
  75:Generated_Source\PSoC4/CSD_INT.c **** 
  76:Generated_Source\PSoC4/CSD_INT.c **** 
  77:Generated_Source\PSoC4/CSD_INT.c **** #if ((CSD_ENABLE == CSD_CSD_EN) || (CSD_ENABLE == CSD_CSD_CSX_EN))
  78:Generated_Source\PSoC4/CSD_INT.c **** 
  79:Generated_Source\PSoC4/CSD_INT.c **** #if (CSD_ENABLE == CSD_CSDV2)
  80:Generated_Source\PSoC4/CSD_INT.c ****     /*  CSDv2 HW IP block part */
  81:Generated_Source\PSoC4/CSD_INT.c **** 
  82:Generated_Source\PSoC4/CSD_INT.c ****     /*******************************************************************************
  83:Generated_Source\PSoC4/CSD_INT.c ****     * Function Name: CSD_CSDPostSingleScan
  84:Generated_Source\PSoC4/CSD_INT.c ****     ****************************************************************************//**
  85:Generated_Source\PSoC4/CSD_INT.c ****     *
  86:Generated_Source\PSoC4/CSD_INT.c ****     * \brief
  87:Generated_Source\PSoC4/CSD_INT.c ****     *  This is an internal ISR function for single-sensor scanning implementation.
  88:Generated_Source\PSoC4/CSD_INT.c ****     *
  89:Generated_Source\PSoC4/CSD_INT.c ****     * \details
ARM GAS  C:\Users\CHRIST~1\AppData\Local\Temp\ccADi2zK.s 			page 3


  90:Generated_Source\PSoC4/CSD_INT.c ****     *  This ISR handler is triggered when the user calls the
  91:Generated_Source\PSoC4/CSD_INT.c ****     *  CSD_CSDScanExt() function.
  92:Generated_Source\PSoC4/CSD_INT.c ****     *
  93:Generated_Source\PSoC4/CSD_INT.c ****     *  The following tasks are performed for CSDv1 HW IP block:
  94:Generated_Source\PSoC4/CSD_INT.c ****     *    1. Disable the CSD interrupt
  95:Generated_Source\PSoC4/CSD_INT.c ****     *    2. Read the Counter register and update the data structure with raw data
  96:Generated_Source\PSoC4/CSD_INT.c ****     *    3. Connect the Vref buffer to the AMUX bus
  97:Generated_Source\PSoC4/CSD_INT.c ****     *    4. Update the Scan Counter
  98:Generated_Source\PSoC4/CSD_INT.c ****     *    5. Reset the BUSY flag
  99:Generated_Source\PSoC4/CSD_INT.c ****     *    6. Enable the CSD interrupt.
 100:Generated_Source\PSoC4/CSD_INT.c ****     *
 101:Generated_Source\PSoC4/CSD_INT.c ****     *  The following tasks are performed for CSDv2 HW IP block:
 102:Generated_Source\PSoC4/CSD_INT.c ****     *    1. Check if the raw data is not noisy
 103:Generated_Source\PSoC4/CSD_INT.c ****     *    2. Read the Counter register and update the data structure with raw data
 104:Generated_Source\PSoC4/CSD_INT.c ****     *    3. Configure and start the scan for the next frequency if the
 105:Generated_Source\PSoC4/CSD_INT.c ****     *      multi-frequency is enabled
 106:Generated_Source\PSoC4/CSD_INT.c ****     *    4. Update the Scan Counter
 107:Generated_Source\PSoC4/CSD_INT.c ****     *    5. Reset the BUSY flag
 108:Generated_Source\PSoC4/CSD_INT.c ****     *    6. Enable the CSD interrupt.
 109:Generated_Source\PSoC4/CSD_INT.c ****     *
 110:Generated_Source\PSoC4/CSD_INT.c ****     *  The ISR handler changes IMO and initializes scanning for the next frequency
 111:Generated_Source\PSoC4/CSD_INT.c ****     *  channels when multi-frequency scanning is enabled.
 112:Generated_Source\PSoC4/CSD_INT.c ****     *
 113:Generated_Source\PSoC4/CSD_INT.c **** 	*  This function has two Macro Callbacks that allow calling the user code
 114:Generated_Source\PSoC4/CSD_INT.c ****     *  from macros specified in a component's generated code. Refer to the 
 115:Generated_Source\PSoC4/CSD_INT.c ****     *  \ref group_capsense_macrocallbacks section of PSoC Creator User Guide 
 116:Generated_Source\PSoC4/CSD_INT.c ****     *  for details. 
 117:Generated_Source\PSoC4/CSD_INT.c ****     *
 118:Generated_Source\PSoC4/CSD_INT.c ****     *******************************************************************************/
 119:Generated_Source\PSoC4/CSD_INT.c ****     CY_ISR(CSD_CSDPostSingleScan)
 120:Generated_Source\PSoC4/CSD_INT.c ****     {
  26              		.loc 1 120 0
  27              		.cfi_startproc
  28 0000 80B5     		push	{r7, lr}
  29              		.cfi_def_cfa_offset 8
  30              		.cfi_offset 7, -8
  31              		.cfi_offset 14, -4
  32 0002 00AF     		add	r7, sp, #0
  33              		.cfi_def_cfa_register 7
 121:Generated_Source\PSoC4/CSD_INT.c ****         #ifdef CSD_ENTRY_CALLBACK
 122:Generated_Source\PSoC4/CSD_INT.c ****             CSD_EntryCallback();
 123:Generated_Source\PSoC4/CSD_INT.c ****         #endif /* CSD_ENTRY_CALLBACK */
 124:Generated_Source\PSoC4/CSD_INT.c **** 
 125:Generated_Source\PSoC4/CSD_INT.c ****         /* Clear pending interrupt */
 126:Generated_Source\PSoC4/CSD_INT.c ****         CY_SET_REG32(CSD_INTR_PTR, CSD_INTR_SET_MASK);
  34              		.loc 1 126 0
  35 0004 094B     		ldr	r3, .L2
  36 0006 8322     		mov	r2, #131
  37 0008 5200     		lsl	r2, r2, #1
  38 000a 1A60     		str	r2, [r3]
 127:Generated_Source\PSoC4/CSD_INT.c **** 
 128:Generated_Source\PSoC4/CSD_INT.c ****     #if (CSD_ENABLE == CSD_CSD_NOISE_METRIC_EN)
 129:Generated_Source\PSoC4/CSD_INT.c ****         if ((CSD_CSD_NOISE_METRIC_TH < ((CY_GET_REG32(CSD_RESULT_VAL1_PTR) &
 130:Generated_Source\PSoC4/CSD_INT.c ****                                                     CSD_RESULT_VAL1_BAD_CONVS_MASK) >>
 131:Generated_Source\PSoC4/CSD_INT.c ****                                                     CSD_RESULT_VAL1_BAD_CONVS_SHIFT)) &&
 132:Generated_Source\PSoC4/CSD_INT.c ****                                                     (0u < CSD_badConversionsNum))
 133:Generated_Source\PSoC4/CSD_INT.c ****         {
ARM GAS  C:\Users\CHRIST~1\AppData\Local\Temp\ccADi2zK.s 			page 4


 134:Generated_Source\PSoC4/CSD_INT.c ****             /* Decrement bad conversions number */
 135:Generated_Source\PSoC4/CSD_INT.c ****             CSD_badConversionsNum--;
 136:Generated_Source\PSoC4/CSD_INT.c **** 
 137:Generated_Source\PSoC4/CSD_INT.c ****             /* Start the re-scan */
 138:Generated_Source\PSoC4/CSD_INT.c ****             CY_SET_REG32(CSD_SEQ_START_PTR, CSD_SEQ_START_AZ0_SKIP_MASK |
 139:Generated_Source\PSoC4/CSD_INT.c ****                                                          CSD_SEQ_START_AZ1_SKIP_MASK |
 140:Generated_Source\PSoC4/CSD_INT.c ****                                                          CSD_SEQ_START_START_MASK);
 141:Generated_Source\PSoC4/CSD_INT.c ****         }
 142:Generated_Source\PSoC4/CSD_INT.c ****         else
 143:Generated_Source\PSoC4/CSD_INT.c ****         {
 144:Generated_Source\PSoC4/CSD_INT.c ****     #endif /* (CSD_ENABLE == CSD_CSD_NOISE_METRIC_EN) */
 145:Generated_Source\PSoC4/CSD_INT.c **** 
 146:Generated_Source\PSoC4/CSD_INT.c ****             CSD_SsCSDPostScan();
  39              		.loc 1 146 0
  40 000c FFF7FEFF 		bl	CSD_SsCSDPostScan
 147:Generated_Source\PSoC4/CSD_INT.c **** 
 148:Generated_Source\PSoC4/CSD_INT.c ****             #if (CSD_ENABLE == CSD_MULTI_FREQ_SCAN_EN)
 149:Generated_Source\PSoC4/CSD_INT.c ****                 if (CSD_FREQ_CHANNEL_2 > CSD_scanFreqIndex)
 150:Generated_Source\PSoC4/CSD_INT.c ****                 {
 151:Generated_Source\PSoC4/CSD_INT.c ****                     /* Scan the next channel */
 152:Generated_Source\PSoC4/CSD_INT.c ****                     CSD_SsNextFrequencyScan();
 153:Generated_Source\PSoC4/CSD_INT.c ****                 }
 154:Generated_Source\PSoC4/CSD_INT.c ****                 else
 155:Generated_Source\PSoC4/CSD_INT.c ****                 {
 156:Generated_Source\PSoC4/CSD_INT.c ****                     /* All channels are scanned. Set IMO to zero channel */
 157:Generated_Source\PSoC4/CSD_INT.c ****                     CSD_scanFreqIndex = CSD_FREQ_CHANNEL_0;
 158:Generated_Source\PSoC4/CSD_INT.c ****                     CSD_SsChangeImoFreq(CSD_FREQ_CHANNEL_0);
 159:Generated_Source\PSoC4/CSD_INT.c **** 
 160:Generated_Source\PSoC4/CSD_INT.c ****                     #if (CSD_ENABLE == CSD_BLOCK_OFF_AFTER_SCAN_EN)
 161:Generated_Source\PSoC4/CSD_INT.c ****                         /*  Disable CSDv2 block */
 162:Generated_Source\PSoC4/CSD_INT.c ****                         CY_SET_REG32(CSD_CONFIG_PTR, CSD_configCsd);
 163:Generated_Source\PSoC4/CSD_INT.c ****                     #endif /* (CSD_ENABLE == CSD_BLOCK_OFF_AFTER_SCAN_EN) */
 164:Generated_Source\PSoC4/CSD_INT.c **** 
 165:Generated_Source\PSoC4/CSD_INT.c ****                     /* Update Scan Counter */
 166:Generated_Source\PSoC4/CSD_INT.c ****                     CSD_dsRam.scanCounter++;
 167:Generated_Source\PSoC4/CSD_INT.c **** 
 168:Generated_Source\PSoC4/CSD_INT.c ****                     /* Sensor is totally scanned. Reset BUSY flag */
 169:Generated_Source\PSoC4/CSD_INT.c ****                     CSD_dsRam.status &= ~(CSD_SW_STS_BUSY | CSD_WDGT_SW_STS_BUSY);
 170:Generated_Source\PSoC4/CSD_INT.c ****                 }
 171:Generated_Source\PSoC4/CSD_INT.c ****             #else
 172:Generated_Source\PSoC4/CSD_INT.c ****                 {
 173:Generated_Source\PSoC4/CSD_INT.c ****                     #if (CSD_ENABLE == CSD_BLOCK_OFF_AFTER_SCAN_EN)
 174:Generated_Source\PSoC4/CSD_INT.c ****                         /*  Disable CSDv2 block */
 175:Generated_Source\PSoC4/CSD_INT.c ****                         CY_SET_REG32(CSD_CONFIG_PTR, CSD_configCsd);
 176:Generated_Source\PSoC4/CSD_INT.c ****                     #endif /* (CSD_ENABLE == CSD_BLOCK_OFF_AFTER_SCAN_EN) */
 177:Generated_Source\PSoC4/CSD_INT.c **** 
 178:Generated_Source\PSoC4/CSD_INT.c ****                     /* Update Scan Counter */
 179:Generated_Source\PSoC4/CSD_INT.c ****                     CSD_dsRam.scanCounter++;
  41              		.loc 1 179 0
  42 0010 074B     		ldr	r3, .L2+4
  43 0012 DB88     		ldrh	r3, [r3, #6]
  44 0014 0133     		add	r3, r3, #1
  45 0016 9AB2     		uxth	r2, r3
  46 0018 054B     		ldr	r3, .L2+4
  47 001a DA80     		strh	r2, [r3, #6]
 180:Generated_Source\PSoC4/CSD_INT.c **** 
 181:Generated_Source\PSoC4/CSD_INT.c ****                     /* Sensor is totally scanned. Reset BUSY flag */
ARM GAS  C:\Users\CHRIST~1\AppData\Local\Temp\ccADi2zK.s 			page 5


 182:Generated_Source\PSoC4/CSD_INT.c ****                     CSD_dsRam.status &= ~(CSD_SW_STS_BUSY | CSD_WDGT_SW_STS_BUSY);
  48              		.loc 1 182 0
  49 001c 044B     		ldr	r3, .L2+4
  50 001e 9B68     		ldr	r3, [r3, #8]
  51 0020 044A     		ldr	r2, .L2+8
  52 0022 1A40     		and	r2, r3
  53 0024 024B     		ldr	r3, .L2+4
  54 0026 9A60     		str	r2, [r3, #8]
 183:Generated_Source\PSoC4/CSD_INT.c ****                 }
 184:Generated_Source\PSoC4/CSD_INT.c ****             #endif /* (CSD_ENABLE == CSD_MULTI_FREQ_SCAN_EN) */
 185:Generated_Source\PSoC4/CSD_INT.c ****     #if (CSD_ENABLE == CSD_CSD_NOISE_METRIC_EN)
 186:Generated_Source\PSoC4/CSD_INT.c ****         }
 187:Generated_Source\PSoC4/CSD_INT.c ****     #endif /* (CSD_ENABLE == CSD_CSD_NOISE_METRIC_EN) */
 188:Generated_Source\PSoC4/CSD_INT.c **** 
 189:Generated_Source\PSoC4/CSD_INT.c ****         #ifdef CSD_EXIT_CALLBACK
 190:Generated_Source\PSoC4/CSD_INT.c ****             CSD_ExitCallback();
 191:Generated_Source\PSoC4/CSD_INT.c ****         #endif /* CSD_EXIT_CALLBACK */
 192:Generated_Source\PSoC4/CSD_INT.c ****     }
  55              		.loc 1 192 0
  56 0028 BD46     		mov	sp, r7
  57              		@ sp needed
  58 002a 80BD     		pop	{r7, pc}
  59              	.L3:
  60              		.align	2
  61              	.L2:
  62 002c F0000C40 		.word	1074528496
  63 0030 00000000 		.word	CSD_dsRam
  64 0034 7FFFFEFF 		.word	-65665
  65              		.cfi_endproc
  66              	.LFE1:
  67              		.size	CSD_CSDPostSingleScan, .-CSD_CSDPostSingleScan
  68              		.section	.text.CSD_CSDPostMultiScan,"ax",%progbits
  69              		.align	2
  70              		.global	CSD_CSDPostMultiScan
  71              		.code	16
  72              		.thumb_func
  73              		.type	CSD_CSDPostMultiScan, %function
  74              	CSD_CSDPostMultiScan:
  75              	.LFB2:
 193:Generated_Source\PSoC4/CSD_INT.c **** 
 194:Generated_Source\PSoC4/CSD_INT.c **** 
 195:Generated_Source\PSoC4/CSD_INT.c ****     /*******************************************************************************
 196:Generated_Source\PSoC4/CSD_INT.c ****     * Function Name: CSD_CSDPostMultiScan
 197:Generated_Source\PSoC4/CSD_INT.c ****     ****************************************************************************//**
 198:Generated_Source\PSoC4/CSD_INT.c ****     *
 199:Generated_Source\PSoC4/CSD_INT.c ****     * \brief
 200:Generated_Source\PSoC4/CSD_INT.c ****     *  This is an internal ISR function for multiple sensor-scanning 
 201:Generated_Source\PSoC4/CSD_INT.c ****     *  implementation.
 202:Generated_Source\PSoC4/CSD_INT.c ****     *
 203:Generated_Source\PSoC4/CSD_INT.c ****     * \details
 204:Generated_Source\PSoC4/CSD_INT.c ****     *  This ISR handler is triggered when the user calls the
 205:Generated_Source\PSoC4/CSD_INT.c ****     *  CSD_Scan() or CSD_ScanAllWidgets() APIs.
 206:Generated_Source\PSoC4/CSD_INT.c ****     *  
 207:Generated_Source\PSoC4/CSD_INT.c ****     *  The following tasks are performed:
 208:Generated_Source\PSoC4/CSD_INT.c ****     *    1. Disable the CSD interrupt
 209:Generated_Source\PSoC4/CSD_INT.c ****     *    2. Read the Counter register and update the data structure with raw data
 210:Generated_Source\PSoC4/CSD_INT.c ****     *    3. Connect the Vref buffer to the AMUX bus
ARM GAS  C:\Users\CHRIST~1\AppData\Local\Temp\ccADi2zK.s 			page 6


 211:Generated_Source\PSoC4/CSD_INT.c ****     *    4. Disable the CSD block (after the widget has been scanned)
 212:Generated_Source\PSoC4/CSD_INT.c ****     *    5. Update Scan Counter
 213:Generated_Source\PSoC4/CSD_INT.c ****     *    6. Reset the BUSY flag
 214:Generated_Source\PSoC4/CSD_INT.c ****     *    7. Enable the CSD interrupt.
 215:Generated_Source\PSoC4/CSD_INT.c ****     *
 216:Generated_Source\PSoC4/CSD_INT.c ****     *  The ISR handler initializes scanning for the previous sensor when the 
 217:Generated_Source\PSoC4/CSD_INT.c ****     *  widget has more than one sensor.
 218:Generated_Source\PSoC4/CSD_INT.c ****     *  The ISR handler initializes scanning for the next widget when the
 219:Generated_Source\PSoC4/CSD_INT.c ****     *  CSD_ScanAllWidgets() APIs are called and the project has
 220:Generated_Source\PSoC4/CSD_INT.c ****     *  more than one widget.
 221:Generated_Source\PSoC4/CSD_INT.c ****     *  The ISR handler changes the IMO and initializes scanning for the next
 222:Generated_Source\PSoC4/CSD_INT.c ****     *  frequency channels when multi-frequency scanning is enabled.
 223:Generated_Source\PSoC4/CSD_INT.c ****     *
 224:Generated_Source\PSoC4/CSD_INT.c ****     *  This function has two Macro Callbacks that allow calling the user 
 225:Generated_Source\PSoC4/CSD_INT.c ****     *  code from macros specified in a component's generated code. Refer to the 
 226:Generated_Source\PSoC4/CSD_INT.c ****     *  \ref group_capsense_macrocallbacks section of PSoC Creator User Guide 
 227:Generated_Source\PSoC4/CSD_INT.c ****     *  for details.
 228:Generated_Source\PSoC4/CSD_INT.c ****     *
 229:Generated_Source\PSoC4/CSD_INT.c ****     *******************************************************************************/
 230:Generated_Source\PSoC4/CSD_INT.c ****     CY_ISR(CSD_CSDPostMultiScan)
 231:Generated_Source\PSoC4/CSD_INT.c ****     {
  76              		.loc 1 231 0
  77              		.cfi_startproc
  78 0000 80B5     		push	{r7, lr}
  79              		.cfi_def_cfa_offset 8
  80              		.cfi_offset 7, -8
  81              		.cfi_offset 14, -4
  82 0002 82B0     		sub	sp, sp, #8
  83              		.cfi_def_cfa_offset 16
  84 0004 00AF     		add	r7, sp, #0
  85              		.cfi_def_cfa_register 7
 232:Generated_Source\PSoC4/CSD_INT.c ****         /*  Declare and initialise ptr to sensor IO structure to appropriate address        */
 233:Generated_Source\PSoC4/CSD_INT.c ****         CSD_FLASH_IO_STRUCT const *curSnsIOPtr = (CSD_FLASH_IO_STRUCT const *)
  86              		.loc 1 233 0
  87 0006 114B     		ldr	r3, .L5
  88 0008 1B78     		ldrb	r3, [r3]
  89 000a DBB2     		uxtb	r3, r3
  90 000c 191C     		mov	r1, r3
 234:Generated_Source\PSoC4/CSD_INT.c ****                                                           CSD_dsFlash.wdgtArray[CSD_widgetIndex].pt
  91              		.loc 1 234 0
  92 000e 104A     		ldr	r2, .L5+4
  93 0010 0B1C     		mov	r3, r1
  94 0012 DB00     		lsl	r3, r3, #3
  95 0014 5B1A     		sub	r3, r3, r1
  96 0016 9B00     		lsl	r3, r3, #2
  97 0018 9A58     		ldr	r2, [r3, r2]
 235:Generated_Source\PSoC4/CSD_INT.c ****                                                           + CSD_sensorIndex;
  98              		.loc 1 235 0
  99 001a 0E4B     		ldr	r3, .L5+8
 100 001c 1B78     		ldrb	r3, [r3]
 101 001e DBB2     		uxtb	r3, r3
 102 0020 191C     		mov	r1, r3
 103 0022 0B1C     		mov	r3, r1
 104 0024 DB00     		lsl	r3, r3, #3
 105 0026 5B1A     		sub	r3, r3, r1
 106 0028 9B00     		lsl	r3, r3, #2
 233:Generated_Source\PSoC4/CSD_INT.c ****                                                           CSD_dsFlash.wdgtArray[CSD_widgetIndex].pt
ARM GAS  C:\Users\CHRIST~1\AppData\Local\Temp\ccADi2zK.s 			page 7


 107              		.loc 1 233 0
 108 002a D318     		add	r3, r2, r3
 109 002c 7B60     		str	r3, [r7, #4]
 236:Generated_Source\PSoC4/CSD_INT.c **** 
 237:Generated_Source\PSoC4/CSD_INT.c ****         #ifdef CSD_ENTRY_CALLBACK
 238:Generated_Source\PSoC4/CSD_INT.c ****             CSD_EntryCallback();
 239:Generated_Source\PSoC4/CSD_INT.c ****         #endif /* CSD_ENTRY_CALLBACK */
 240:Generated_Source\PSoC4/CSD_INT.c **** 
 241:Generated_Source\PSoC4/CSD_INT.c ****         /* Clear pending interrupt */
 242:Generated_Source\PSoC4/CSD_INT.c ****         CY_SET_REG32(CSD_INTR_PTR, CSD_INTR_SET_MASK);
 110              		.loc 1 242 0
 111 002e 0A4B     		ldr	r3, .L5+12
 112 0030 8322     		mov	r2, #131
 113 0032 5200     		lsl	r2, r2, #1
 114 0034 1A60     		str	r2, [r3]
 243:Generated_Source\PSoC4/CSD_INT.c **** 
 244:Generated_Source\PSoC4/CSD_INT.c ****         #if (CSD_ENABLE == CSD_CSD_NOISE_METRIC_EN)
 245:Generated_Source\PSoC4/CSD_INT.c ****             if ((CSD_CSD_NOISE_METRIC_TH < ((CY_GET_REG32(CSD_RESULT_VAL1_PTR) &
 246:Generated_Source\PSoC4/CSD_INT.c ****                                                       CSD_RESULT_VAL1_BAD_CONVS_MASK) >>
 247:Generated_Source\PSoC4/CSD_INT.c ****                                                       CSD_RESULT_VAL1_BAD_CONVS_SHIFT)) &&
 248:Generated_Source\PSoC4/CSD_INT.c ****                                                       (0u < CSD_badConversionsNum))
 249:Generated_Source\PSoC4/CSD_INT.c ****             {
 250:Generated_Source\PSoC4/CSD_INT.c ****                 /* Decrement bad conversions number */
 251:Generated_Source\PSoC4/CSD_INT.c ****                 CSD_badConversionsNum--;
 252:Generated_Source\PSoC4/CSD_INT.c **** 
 253:Generated_Source\PSoC4/CSD_INT.c ****                 /* Start the re-scan */
 254:Generated_Source\PSoC4/CSD_INT.c ****                 CY_SET_REG32(CSD_SEQ_START_PTR, CSD_SEQ_START_AZ0_SKIP_MASK |
 255:Generated_Source\PSoC4/CSD_INT.c ****                                                              CSD_SEQ_START_AZ1_SKIP_MASK |
 256:Generated_Source\PSoC4/CSD_INT.c ****                                                              CSD_SEQ_START_START_MASK);
 257:Generated_Source\PSoC4/CSD_INT.c ****             }
 258:Generated_Source\PSoC4/CSD_INT.c ****             else
 259:Generated_Source\PSoC4/CSD_INT.c ****             {
 260:Generated_Source\PSoC4/CSD_INT.c ****         #endif /* (CSD_ENABLE == CSD_CSD_NOISE_METRIC_EN) */
 261:Generated_Source\PSoC4/CSD_INT.c **** 
 262:Generated_Source\PSoC4/CSD_INT.c ****             CSD_SsCSDPostScan();
 115              		.loc 1 262 0
 116 0036 FFF7FEFF 		bl	CSD_SsCSDPostScan
 263:Generated_Source\PSoC4/CSD_INT.c **** 
 264:Generated_Source\PSoC4/CSD_INT.c ****             #if (CSD_ENABLE == CSD_MULTI_FREQ_SCAN_EN)
 265:Generated_Source\PSoC4/CSD_INT.c ****                 /* Disable sensor when all frequency channels are scanned */
 266:Generated_Source\PSoC4/CSD_INT.c ****                 if (CSD_FREQ_CHANNEL_2 == CSD_scanFreqIndex)
 267:Generated_Source\PSoC4/CSD_INT.c ****                 {
 268:Generated_Source\PSoC4/CSD_INT.c ****                     /* Disable sensor */
 269:Generated_Source\PSoC4/CSD_INT.c ****                     CSD_CSDDisconnectSns(curSnsIOPtr);
 270:Generated_Source\PSoC4/CSD_INT.c ****                 }
 271:Generated_Source\PSoC4/CSD_INT.c ****             #else
 272:Generated_Source\PSoC4/CSD_INT.c ****                 /* Disable sensor */
 273:Generated_Source\PSoC4/CSD_INT.c ****                 CSD_CSDDisconnectSns(curSnsIOPtr);
 117              		.loc 1 273 0
 118 003a 7B68     		ldr	r3, [r7, #4]
 119 003c 181C     		mov	r0, r3
 120 003e FFF7FEFF 		bl	CSD_CSDDisconnectSns
 274:Generated_Source\PSoC4/CSD_INT.c ****             #endif /* (CSD_ENABLE == CSD_MULTI_FREQ_SCAN_EN) */
 275:Generated_Source\PSoC4/CSD_INT.c **** 
 276:Generated_Source\PSoC4/CSD_INT.c ****             #if (CSD_ENABLE == CSD_MULTI_FREQ_SCAN_EN)
 277:Generated_Source\PSoC4/CSD_INT.c ****                 if (CSD_FREQ_CHANNEL_2 > CSD_scanFreqIndex)
 278:Generated_Source\PSoC4/CSD_INT.c ****                 {
ARM GAS  C:\Users\CHRIST~1\AppData\Local\Temp\ccADi2zK.s 			page 8


 279:Generated_Source\PSoC4/CSD_INT.c ****                      /* Scan the next channel */
 280:Generated_Source\PSoC4/CSD_INT.c ****                     CSD_SsNextFrequencyScan();
 281:Generated_Source\PSoC4/CSD_INT.c ****                 }
 282:Generated_Source\PSoC4/CSD_INT.c ****                 else
 283:Generated_Source\PSoC4/CSD_INT.c ****                 {
 284:Generated_Source\PSoC4/CSD_INT.c ****                      /* All channels are scanned. Set IMO to zero channel */
 285:Generated_Source\PSoC4/CSD_INT.c ****                     CSD_scanFreqIndex = CSD_FREQ_CHANNEL_0;
 286:Generated_Source\PSoC4/CSD_INT.c ****                     CSD_SsChangeImoFreq(CSD_FREQ_CHANNEL_0);
 287:Generated_Source\PSoC4/CSD_INT.c **** 
 288:Generated_Source\PSoC4/CSD_INT.c ****                      /* Scan the next sensor */
 289:Generated_Source\PSoC4/CSD_INT.c ****                     CSD_SsInitNextScan();
 290:Generated_Source\PSoC4/CSD_INT.c ****                 }
 291:Generated_Source\PSoC4/CSD_INT.c ****             #else
 292:Generated_Source\PSoC4/CSD_INT.c ****                 /* Scan the next sensor */
 293:Generated_Source\PSoC4/CSD_INT.c ****                 CSD_SsInitNextScan();
 121              		.loc 1 293 0
 122 0042 FFF7FEFF 		bl	CSD_SsInitNextScan
 294:Generated_Source\PSoC4/CSD_INT.c ****             #endif /* (CSD_ENABLE == CSD_MULTI_FREQ_SCAN_EN) */
 295:Generated_Source\PSoC4/CSD_INT.c ****         #if (CSD_ENABLE == CSD_CSD_NOISE_METRIC_EN)
 296:Generated_Source\PSoC4/CSD_INT.c ****             }
 297:Generated_Source\PSoC4/CSD_INT.c ****         #endif /* (CSD_ENABLE == CSD_CSD_NOISE_METRIC_EN) */
 298:Generated_Source\PSoC4/CSD_INT.c **** 
 299:Generated_Source\PSoC4/CSD_INT.c ****         #ifdef CSD_EXIT_CALLBACK
 300:Generated_Source\PSoC4/CSD_INT.c ****             CSD_ExitCallback();
 301:Generated_Source\PSoC4/CSD_INT.c ****         #endif /* CSD_EXIT_CALLBACK */
 302:Generated_Source\PSoC4/CSD_INT.c ****     }
 123              		.loc 1 302 0
 124 0046 BD46     		mov	sp, r7
 125 0048 02B0     		add	sp, sp, #8
 126              		@ sp needed
 127 004a 80BD     		pop	{r7, pc}
 128              	.L6:
 129              		.align	2
 130              	.L5:
 131 004c 00000000 		.word	CSD_widgetIndex
 132 0050 00000000 		.word	CSD_dsFlash
 133 0054 00000000 		.word	CSD_sensorIndex
 134 0058 F0000C40 		.word	1074528496
 135              		.cfi_endproc
 136              	.LFE2:
 137              		.size	CSD_CSDPostMultiScan, .-CSD_CSDPostMultiScan
 138              		.section	.text.CSD_SsCSDPostScan,"ax",%progbits
 139              		.align	2
 140              		.code	16
 141              		.thumb_func
 142              		.type	CSD_SsCSDPostScan, %function
 143              	CSD_SsCSDPostScan:
 144              	.LFB3:
 303:Generated_Source\PSoC4/CSD_INT.c **** 
 304:Generated_Source\PSoC4/CSD_INT.c **** 
 305:Generated_Source\PSoC4/CSD_INT.c ****     #if (CSD_ENABLE == CSD_CSD_GANGED_SNS_EN)
 306:Generated_Source\PSoC4/CSD_INT.c ****     /*******************************************************************************
 307:Generated_Source\PSoC4/CSD_INT.c ****     * Function Name: CSD_CSDPostMultiScanGanged
 308:Generated_Source\PSoC4/CSD_INT.c ****     ****************************************************************************//**
 309:Generated_Source\PSoC4/CSD_INT.c ****     *
 310:Generated_Source\PSoC4/CSD_INT.c ****     * \brief
 311:Generated_Source\PSoC4/CSD_INT.c ****     *  This is an internal ISR function for multiple sensor scanning 
ARM GAS  C:\Users\CHRIST~1\AppData\Local\Temp\ccADi2zK.s 			page 9


 312:Generated_Source\PSoC4/CSD_INT.c ****     *  implementation for ganged sensors.
 313:Generated_Source\PSoC4/CSD_INT.c ****     *
 314:Generated_Source\PSoC4/CSD_INT.c ****     * \details
 315:Generated_Source\PSoC4/CSD_INT.c ****     *  This ISR handler is triggered when the user calls the
 316:Generated_Source\PSoC4/CSD_INT.c ****     *  CSD_Scan() API for a ganged sensor or the
 317:Generated_Source\PSoC4/CSD_INT.c ****     *  CSD_ScanAllWidgets() API in the project with ganged sensors.
 318:Generated_Source\PSoC4/CSD_INT.c ****     *
 319:Generated_Source\PSoC4/CSD_INT.c ****     *  The following tasks are performed:
 320:Generated_Source\PSoC4/CSD_INT.c ****     *    1. Disable the CSD interrupt
 321:Generated_Source\PSoC4/CSD_INT.c ****     *    2. Read the Counter register and update the data structure with raw data
 322:Generated_Source\PSoC4/CSD_INT.c ****     *    3. Connect the Vref buffer to the AMUX bus
 323:Generated_Source\PSoC4/CSD_INT.c ****     *    4. Disable the CSD block (after the widget has been scanned)
 324:Generated_Source\PSoC4/CSD_INT.c ****     *    5. Update Scan Counter
 325:Generated_Source\PSoC4/CSD_INT.c ****     *    6. Reset the BUSY flag
 326:Generated_Source\PSoC4/CSD_INT.c ****     *    7. Enable the CSD interrupt.
 327:Generated_Source\PSoC4/CSD_INT.c ****     *
 328:Generated_Source\PSoC4/CSD_INT.c ****     *  The ISR handler initializes scanning for the previous sensor when the
 329:Generated_Source\PSoC4/CSD_INT.c ****     *  widget has more than one sensor.
 330:Generated_Source\PSoC4/CSD_INT.c ****     *  The ISR handler initializes scanning for the next widget when the
 331:Generated_Source\PSoC4/CSD_INT.c ****     *  CSD_ScanAllWidgets() APIs are called and the project has 
 332:Generated_Source\PSoC4/CSD_INT.c ****     *  more than one widget.
 333:Generated_Source\PSoC4/CSD_INT.c ****     *  The ISR handler changes the IMO and initializes scanning for the next 
 334:Generated_Source\PSoC4/CSD_INT.c ****     *  frequency channels when multi-frequency scanning is enabled.
 335:Generated_Source\PSoC4/CSD_INT.c ****     *
 336:Generated_Source\PSoC4/CSD_INT.c ****     *  This function has two Macro Callbacks that allow calling the user 
 337:Generated_Source\PSoC4/CSD_INT.c ****     *  code from macros specified in a component's generated code. Refer to the 
 338:Generated_Source\PSoC4/CSD_INT.c ****     *  \ref group_capsense_macrocallbacks section of PSoC Creator User Guide 
 339:Generated_Source\PSoC4/CSD_INT.c ****     *  for details.
 340:Generated_Source\PSoC4/CSD_INT.c ****     *
 341:Generated_Source\PSoC4/CSD_INT.c ****     *******************************************************************************/
 342:Generated_Source\PSoC4/CSD_INT.c ****     CY_ISR(CSD_CSDPostMultiScanGanged)
 343:Generated_Source\PSoC4/CSD_INT.c ****     {
 344:Generated_Source\PSoC4/CSD_INT.c ****         #ifdef CSD_ENTRY_CALLBACK
 345:Generated_Source\PSoC4/CSD_INT.c ****             CSD_EntryCallback();
 346:Generated_Source\PSoC4/CSD_INT.c ****         #endif /* CSD_ENTRY_CALLBACK */
 347:Generated_Source\PSoC4/CSD_INT.c **** 
 348:Generated_Source\PSoC4/CSD_INT.c ****         /* Clear pending interrupt */
 349:Generated_Source\PSoC4/CSD_INT.c ****         CY_SET_REG32(CSD_INTR_PTR, CSD_INTR_SET_MASK);
 350:Generated_Source\PSoC4/CSD_INT.c **** 
 351:Generated_Source\PSoC4/CSD_INT.c ****         #if (CSD_ENABLE == CSD_CSD_NOISE_METRIC_EN)
 352:Generated_Source\PSoC4/CSD_INT.c ****             if ((CSD_CSD_NOISE_METRIC_TH < ((CY_GET_REG32(CSD_RESULT_VAL1_PTR) &
 353:Generated_Source\PSoC4/CSD_INT.c ****                                                       CSD_RESULT_VAL1_BAD_CONVS_MASK) >>
 354:Generated_Source\PSoC4/CSD_INT.c ****                                                       CSD_RESULT_VAL1_BAD_CONVS_SHIFT)) &&
 355:Generated_Source\PSoC4/CSD_INT.c ****                                                       (0u < CSD_badConversionsNum))
 356:Generated_Source\PSoC4/CSD_INT.c ****             {
 357:Generated_Source\PSoC4/CSD_INT.c ****                 /* Decrement bad conversions number */
 358:Generated_Source\PSoC4/CSD_INT.c ****                 CSD_badConversionsNum--;
 359:Generated_Source\PSoC4/CSD_INT.c **** 
 360:Generated_Source\PSoC4/CSD_INT.c ****                 /* Start the re-scan */
 361:Generated_Source\PSoC4/CSD_INT.c ****                 CY_SET_REG32(CSD_SEQ_START_PTR, CSD_SEQ_START_AZ0_SKIP_MASK |
 362:Generated_Source\PSoC4/CSD_INT.c ****                                                              CSD_SEQ_START_AZ1_SKIP_MASK |
 363:Generated_Source\PSoC4/CSD_INT.c ****                                                              CSD_SEQ_START_START_MASK);
 364:Generated_Source\PSoC4/CSD_INT.c ****             }
 365:Generated_Source\PSoC4/CSD_INT.c ****             else
 366:Generated_Source\PSoC4/CSD_INT.c ****             {
 367:Generated_Source\PSoC4/CSD_INT.c ****         #endif /* (CSD_ENABLE == CSD_CSD_NOISE_METRIC_EN) */
 368:Generated_Source\PSoC4/CSD_INT.c **** 
ARM GAS  C:\Users\CHRIST~1\AppData\Local\Temp\ccADi2zK.s 			page 10


 369:Generated_Source\PSoC4/CSD_INT.c ****             CSD_SsCSDPostScan();
 370:Generated_Source\PSoC4/CSD_INT.c **** 
 371:Generated_Source\PSoC4/CSD_INT.c ****             #if (CSD_ENABLE == CSD_MULTI_FREQ_SCAN_EN)
 372:Generated_Source\PSoC4/CSD_INT.c ****                 if (CSD_FREQ_CHANNEL_2 == CSD_scanFreqIndex)
 373:Generated_Source\PSoC4/CSD_INT.c ****                 {
 374:Generated_Source\PSoC4/CSD_INT.c ****                     CSD_SsCSDDisconnectSnsExt((uint32)CSD_widgetIndex, (uint32)CSD_sensorIndex);
 375:Generated_Source\PSoC4/CSD_INT.c ****                 }
 376:Generated_Source\PSoC4/CSD_INT.c ****             #else
 377:Generated_Source\PSoC4/CSD_INT.c ****                 CSD_SsCSDDisconnectSnsExt((uint32)CSD_widgetIndex, (uint32)CSD_sensorIndex);
 378:Generated_Source\PSoC4/CSD_INT.c ****             #endif /* (CSD_ENABLE == CSD_MULTI_FREQ_SCAN_EN) */
 379:Generated_Source\PSoC4/CSD_INT.c **** 
 380:Generated_Source\PSoC4/CSD_INT.c ****             #if (CSD_ENABLE == CSD_MULTI_FREQ_SCAN_EN)
 381:Generated_Source\PSoC4/CSD_INT.c ****                 if (CSD_FREQ_CHANNEL_2 > CSD_scanFreqIndex)
 382:Generated_Source\PSoC4/CSD_INT.c ****                 {
 383:Generated_Source\PSoC4/CSD_INT.c ****                      /* Scan the next channel */
 384:Generated_Source\PSoC4/CSD_INT.c ****                     CSD_SsNextFrequencyScan();
 385:Generated_Source\PSoC4/CSD_INT.c ****                 }
 386:Generated_Source\PSoC4/CSD_INT.c ****                 else
 387:Generated_Source\PSoC4/CSD_INT.c ****                 {
 388:Generated_Source\PSoC4/CSD_INT.c ****                     /* All channels are scanned. Set IMO to zero channel */
 389:Generated_Source\PSoC4/CSD_INT.c ****                     CSD_scanFreqIndex = CSD_FREQ_CHANNEL_0;
 390:Generated_Source\PSoC4/CSD_INT.c ****                     CSD_SsChangeImoFreq(CSD_FREQ_CHANNEL_0);
 391:Generated_Source\PSoC4/CSD_INT.c **** 
 392:Generated_Source\PSoC4/CSD_INT.c ****                      /* Scan the next sensor */
 393:Generated_Source\PSoC4/CSD_INT.c ****                     CSD_SsInitNextScan();
 394:Generated_Source\PSoC4/CSD_INT.c ****                 }
 395:Generated_Source\PSoC4/CSD_INT.c ****             #else
 396:Generated_Source\PSoC4/CSD_INT.c ****                  /* Scan the next sensor */
 397:Generated_Source\PSoC4/CSD_INT.c ****                 CSD_SsInitNextScan();
 398:Generated_Source\PSoC4/CSD_INT.c ****             #endif /* (CSD_ENABLE == CSD_MULTI_FREQ_SCAN_EN) */
 399:Generated_Source\PSoC4/CSD_INT.c ****         #if (CSD_ENABLE == CSD_CSD_NOISE_METRIC_EN)
 400:Generated_Source\PSoC4/CSD_INT.c ****             }
 401:Generated_Source\PSoC4/CSD_INT.c ****         #endif /* (CSD_ENABLE == CSD_CSD_NOISE_METRIC_EN) */
 402:Generated_Source\PSoC4/CSD_INT.c **** 
 403:Generated_Source\PSoC4/CSD_INT.c ****         #ifdef CSD_EXIT_CALLBACK
 404:Generated_Source\PSoC4/CSD_INT.c ****             CSD_ExitCallback();
 405:Generated_Source\PSoC4/CSD_INT.c ****         #endif /* CSD_EXIT_CALLBACK */
 406:Generated_Source\PSoC4/CSD_INT.c ****     }
 407:Generated_Source\PSoC4/CSD_INT.c ****     #endif /* (CSD_ENABLE == CSD_CSD_GANGED_SNS_EN) */
 408:Generated_Source\PSoC4/CSD_INT.c **** 
 409:Generated_Source\PSoC4/CSD_INT.c **** #else
 410:Generated_Source\PSoC4/CSD_INT.c ****     /* CSDv1 part */
 411:Generated_Source\PSoC4/CSD_INT.c **** 
 412:Generated_Source\PSoC4/CSD_INT.c ****     /*******************************************************************************
 413:Generated_Source\PSoC4/CSD_INT.c ****     * Function Name: CSD_CSDPostSingleScan
 414:Generated_Source\PSoC4/CSD_INT.c ****     ****************************************************************************//**
 415:Generated_Source\PSoC4/CSD_INT.c ****     *
 416:Generated_Source\PSoC4/CSD_INT.c ****     * \brief
 417:Generated_Source\PSoC4/CSD_INT.c ****     *  This is an internal ISR function for single-sensor scanning implementation.
 418:Generated_Source\PSoC4/CSD_INT.c ****     *
 419:Generated_Source\PSoC4/CSD_INT.c ****     * \details
 420:Generated_Source\PSoC4/CSD_INT.c ****     *  This ISR handler is triggered when the user calls the
 421:Generated_Source\PSoC4/CSD_INT.c ****     *  CSD_CSDScanExt() function.
 422:Generated_Source\PSoC4/CSD_INT.c ****     *
 423:Generated_Source\PSoC4/CSD_INT.c ****     *  The following tasks are performed for CSDv1 HW IP block:
 424:Generated_Source\PSoC4/CSD_INT.c ****     *    1. Disable the CSD interrupt
 425:Generated_Source\PSoC4/CSD_INT.c ****     *    2. Read the Counter register and update the data structure with raw data
ARM GAS  C:\Users\CHRIST~1\AppData\Local\Temp\ccADi2zK.s 			page 11


 426:Generated_Source\PSoC4/CSD_INT.c ****     *    3. Connect the Vref buffer to the AMUX bus
 427:Generated_Source\PSoC4/CSD_INT.c ****     *    4. Update the Scan Counter
 428:Generated_Source\PSoC4/CSD_INT.c ****     *    5. Reset the BUSY flag
 429:Generated_Source\PSoC4/CSD_INT.c ****     *    6. Enable the CSD interrupt.
 430:Generated_Source\PSoC4/CSD_INT.c ****     *
 431:Generated_Source\PSoC4/CSD_INT.c ****     *  The following tasks are performed for CSDv2 HW IP block:
 432:Generated_Source\PSoC4/CSD_INT.c ****     *    1. Check if the raw data is not noisy
 433:Generated_Source\PSoC4/CSD_INT.c ****     *    2. Read the Counter register and update the data structure with raw data
 434:Generated_Source\PSoC4/CSD_INT.c ****     *    3. Configure and start the scan for the next frequency if the
 435:Generated_Source\PSoC4/CSD_INT.c ****     *      multi-frequency is enabled
 436:Generated_Source\PSoC4/CSD_INT.c ****     *    4. Update the Scan Counter
 437:Generated_Source\PSoC4/CSD_INT.c ****     *    5. Reset the BUSY flag
 438:Generated_Source\PSoC4/CSD_INT.c ****     *    6. Enable the CSD interrupt.
 439:Generated_Source\PSoC4/CSD_INT.c ****     *
 440:Generated_Source\PSoC4/CSD_INT.c ****     *  The ISR handler changes IMO and initializes scanning for the next frequency
 441:Generated_Source\PSoC4/CSD_INT.c ****     *  channels when multi-frequency scanning is enabled.
 442:Generated_Source\PSoC4/CSD_INT.c ****     *
 443:Generated_Source\PSoC4/CSD_INT.c **** 	*  This function has two Macro Callbacks that allow calling the user code
 444:Generated_Source\PSoC4/CSD_INT.c ****     *  from macros specified in a component's generated code. Refer to the 
 445:Generated_Source\PSoC4/CSD_INT.c ****     *  \ref group_capsense_macrocallbacks section of PSoC Creator User Guide 
 446:Generated_Source\PSoC4/CSD_INT.c ****     *  for details. 
 447:Generated_Source\PSoC4/CSD_INT.c ****     *
 448:Generated_Source\PSoC4/CSD_INT.c ****     *******************************************************************************/
 449:Generated_Source\PSoC4/CSD_INT.c ****     CY_ISR(CSD_CSDPostSingleScan)
 450:Generated_Source\PSoC4/CSD_INT.c ****     {
 451:Generated_Source\PSoC4/CSD_INT.c ****         #ifdef CSD_ENTRY_CALLBACK
 452:Generated_Source\PSoC4/CSD_INT.c ****             CSD_EntryCallback();
 453:Generated_Source\PSoC4/CSD_INT.c ****         #endif /* CSD_ENTRY_CALLBACK */
 454:Generated_Source\PSoC4/CSD_INT.c **** 
 455:Generated_Source\PSoC4/CSD_INT.c ****         /* Clear pending interrupt */
 456:Generated_Source\PSoC4/CSD_INT.c ****         CY_SET_REG32(CSD_INTR_PTR, CSD_INTR_SET_MASK);
 457:Generated_Source\PSoC4/CSD_INT.c **** 
 458:Generated_Source\PSoC4/CSD_INT.c ****         /* Read Rawdata */
 459:Generated_Source\PSoC4/CSD_INT.c ****         CSD_SsCSDPostScan();
 460:Generated_Source\PSoC4/CSD_INT.c **** 
 461:Generated_Source\PSoC4/CSD_INT.c ****         #if (CSD_ENABLE == CSD_MULTI_FREQ_SCAN_EN)
 462:Generated_Source\PSoC4/CSD_INT.c ****             if (CSD_FREQ_CHANNEL_2 > CSD_scanFreqIndex)
 463:Generated_Source\PSoC4/CSD_INT.c ****             {
 464:Generated_Source\PSoC4/CSD_INT.c ****                 /*  Connect Vref Buffer to AMUX bus. CSDv1 block is enabled */
 465:Generated_Source\PSoC4/CSD_INT.c ****                 CY_SET_REG32(CSD_CONFIG_PTR, CSD_configCsd | CSD_CTANK_PRECHARGE_CONFIG_CSD_EN);
 466:Generated_Source\PSoC4/CSD_INT.c **** 
 467:Generated_Source\PSoC4/CSD_INT.c ****                 CSD_SsNextFrequencyScan();
 468:Generated_Source\PSoC4/CSD_INT.c ****             }
 469:Generated_Source\PSoC4/CSD_INT.c ****             else
 470:Generated_Source\PSoC4/CSD_INT.c ****             {
 471:Generated_Source\PSoC4/CSD_INT.c ****                 CSD_scanFreqIndex = CSD_FREQ_CHANNEL_0;
 472:Generated_Source\PSoC4/CSD_INT.c ****                 CSD_SsChangeImoFreq(CSD_FREQ_CHANNEL_0);
 473:Generated_Source\PSoC4/CSD_INT.c **** 
 474:Generated_Source\PSoC4/CSD_INT.c ****                 #if (CSD_ENABLE == CSD_BLOCK_OFF_AFTER_SCAN_EN)
 475:Generated_Source\PSoC4/CSD_INT.c ****                     /*  Disable CSDv1 block. Connect Vref Buffer to AMUX bus */
 476:Generated_Source\PSoC4/CSD_INT.c ****                     #if ((CSD_CSH_PRECHARGE_IO_BUF == CSD_CSD_CSH_PRECHARGE_SRC) &&\
 477:Generated_Source\PSoC4/CSD_INT.c ****                          (CSD_ENABLE == CSD_CSD_SHIELD_TANK_EN))
 478:Generated_Source\PSoC4/CSD_INT.c ****                         CY_SET_REG32(CSD_CONFIG_PTR, CSD_configCsd | CSD_CMOD_PRECHARGE_CONFIG);
 479:Generated_Source\PSoC4/CSD_INT.c ****                     #else
 480:Generated_Source\PSoC4/CSD_INT.c ****                         CY_SET_REG32(CSD_CONFIG_PTR, CSD_configCsd | CSD_CTANK_PRECHARGE_CONFIG);
 481:Generated_Source\PSoC4/CSD_INT.c ****                     #endif /* ((CSD_CSH_PRECHARGE_IO_BUF == CSD_CSD_CSH_PRECHARGE_SRC) &&\
 482:Generated_Source\PSoC4/CSD_INT.c ****                                (CSD_ENABLE == CSD_CSD_SHIELD_TANK_EN)) */
ARM GAS  C:\Users\CHRIST~1\AppData\Local\Temp\ccADi2zK.s 			page 12


 483:Generated_Source\PSoC4/CSD_INT.c ****                 #else
 484:Generated_Source\PSoC4/CSD_INT.c ****                     /*  Connect Vref Buffer to AMUX bus. CSDv1 block is enabled */
 485:Generated_Source\PSoC4/CSD_INT.c ****                     CY_SET_REG32(CSD_CONFIG_PTR, CSD_configCsd | CSD_CTANK_PRECHARGE_CONFIG_CSD_EN)
 486:Generated_Source\PSoC4/CSD_INT.c ****                 #endif /* (CSD_ENABLE == CSD_BLOCK_OFF_AFTER_SCAN_EN) */
 487:Generated_Source\PSoC4/CSD_INT.c **** 
 488:Generated_Source\PSoC4/CSD_INT.c ****                 /* Update Scan Counter */
 489:Generated_Source\PSoC4/CSD_INT.c ****                 CSD_dsRam.scanCounter++;
 490:Generated_Source\PSoC4/CSD_INT.c **** 
 491:Generated_Source\PSoC4/CSD_INT.c ****                 /* Sensor is totally scanned. Reset BUSY flag */
 492:Generated_Source\PSoC4/CSD_INT.c ****                 CSD_dsRam.status &= ~(CSD_SW_STS_BUSY | CSD_WDGT_SW_STS_BUSY);
 493:Generated_Source\PSoC4/CSD_INT.c ****             }
 494:Generated_Source\PSoC4/CSD_INT.c ****         #else
 495:Generated_Source\PSoC4/CSD_INT.c ****             {
 496:Generated_Source\PSoC4/CSD_INT.c ****                 #if (CSD_ENABLE == CSD_BLOCK_OFF_AFTER_SCAN_EN)
 497:Generated_Source\PSoC4/CSD_INT.c ****                     /*  Disable CSDv1 block. Connect Vref Buffer to AMUX bus */
 498:Generated_Source\PSoC4/CSD_INT.c ****                     #if ((CSD_CSH_PRECHARGE_IO_BUF == CSD_CSD_CSH_PRECHARGE_SRC) &&\
 499:Generated_Source\PSoC4/CSD_INT.c ****                          (CSD_ENABLE == CSD_CSD_SHIELD_TANK_EN))
 500:Generated_Source\PSoC4/CSD_INT.c ****                         CY_SET_REG32(CSD_CONFIG_PTR, CSD_configCsd | CSD_CMOD_PRECHARGE_CONFIG);
 501:Generated_Source\PSoC4/CSD_INT.c ****                     #else
 502:Generated_Source\PSoC4/CSD_INT.c ****                         CY_SET_REG32(CSD_CONFIG_PTR, CSD_configCsd | CSD_CTANK_PRECHARGE_CONFIG);
 503:Generated_Source\PSoC4/CSD_INT.c ****                     #endif /* ((CSD_CSH_PRECHARGE_IO_BUF == CSD_CSD_CSH_PRECHARGE_SRC) &&\
 504:Generated_Source\PSoC4/CSD_INT.c ****                                (CSD_ENABLE == CSD_CSD_SHIELD_TANK_EN)) */
 505:Generated_Source\PSoC4/CSD_INT.c ****                 #else
 506:Generated_Source\PSoC4/CSD_INT.c ****                     /*  Connect Vref Buffer to AMUX bus. CSDv1 block is enabled */
 507:Generated_Source\PSoC4/CSD_INT.c ****                     CY_SET_REG32(CSD_CONFIG_PTR, CSD_configCsd | CSD_CTANK_PRECHARGE_CONFIG_CSD_EN)
 508:Generated_Source\PSoC4/CSD_INT.c ****                 #endif /* (CSD_ENABLE == CSD_BLOCK_OFF_AFTER_SCAN_EN) */
 509:Generated_Source\PSoC4/CSD_INT.c **** 
 510:Generated_Source\PSoC4/CSD_INT.c ****                 /* Update Scan Counter */
 511:Generated_Source\PSoC4/CSD_INT.c ****                 CSD_dsRam.scanCounter++;
 512:Generated_Source\PSoC4/CSD_INT.c **** 
 513:Generated_Source\PSoC4/CSD_INT.c ****                 /* Sensor is totally scanned. Reset BUSY flag */
 514:Generated_Source\PSoC4/CSD_INT.c ****                 CSD_dsRam.status &= ~(CSD_SW_STS_BUSY | CSD_WDGT_SW_STS_BUSY);
 515:Generated_Source\PSoC4/CSD_INT.c ****             }
 516:Generated_Source\PSoC4/CSD_INT.c ****         #endif /* (CSD_ENABLE == CSD_MULTI_FREQ_SCAN_EN) */
 517:Generated_Source\PSoC4/CSD_INT.c **** 
 518:Generated_Source\PSoC4/CSD_INT.c ****         #ifdef CSD_EXIT_CALLBACK
 519:Generated_Source\PSoC4/CSD_INT.c ****             CSD_ExitCallback();
 520:Generated_Source\PSoC4/CSD_INT.c ****         #endif /* CSD_EXIT_CALLBACK */
 521:Generated_Source\PSoC4/CSD_INT.c ****     }
 522:Generated_Source\PSoC4/CSD_INT.c **** 
 523:Generated_Source\PSoC4/CSD_INT.c **** 
 524:Generated_Source\PSoC4/CSD_INT.c ****     /*******************************************************************************
 525:Generated_Source\PSoC4/CSD_INT.c ****     * Function Name: CSD_CSDPostMultiScan
 526:Generated_Source\PSoC4/CSD_INT.c ****     ****************************************************************************//**
 527:Generated_Source\PSoC4/CSD_INT.c ****     *
 528:Generated_Source\PSoC4/CSD_INT.c ****     * \brief
 529:Generated_Source\PSoC4/CSD_INT.c ****     *  This is an internal ISR function for multiple sensor-scanning 
 530:Generated_Source\PSoC4/CSD_INT.c ****     *  implementation.
 531:Generated_Source\PSoC4/CSD_INT.c ****     *
 532:Generated_Source\PSoC4/CSD_INT.c ****     * \details
 533:Generated_Source\PSoC4/CSD_INT.c ****     *  This ISR handler is triggered when the user calls the
 534:Generated_Source\PSoC4/CSD_INT.c ****     *  CSD_Scan() or CSD_ScanAllWidgets() APIs.
 535:Generated_Source\PSoC4/CSD_INT.c ****     *  
 536:Generated_Source\PSoC4/CSD_INT.c ****     *  The following tasks are performed:
 537:Generated_Source\PSoC4/CSD_INT.c ****     *    1. Disable the CSD interrupt
 538:Generated_Source\PSoC4/CSD_INT.c ****     *    2. Read the Counter register and update the data structure with raw data
 539:Generated_Source\PSoC4/CSD_INT.c ****     *    3. Connect the Vref buffer to the AMUX bus
ARM GAS  C:\Users\CHRIST~1\AppData\Local\Temp\ccADi2zK.s 			page 13


 540:Generated_Source\PSoC4/CSD_INT.c ****     *    4. Disable the CSD block (after the widget has been scanned)
 541:Generated_Source\PSoC4/CSD_INT.c ****     *    5. Update Scan Counter
 542:Generated_Source\PSoC4/CSD_INT.c ****     *    6. Reset the BUSY flag
 543:Generated_Source\PSoC4/CSD_INT.c ****     *    7. Enable the CSD interrupt.
 544:Generated_Source\PSoC4/CSD_INT.c ****     *
 545:Generated_Source\PSoC4/CSD_INT.c ****     *  The ISR handler initializes scanning for the previous sensor when the 
 546:Generated_Source\PSoC4/CSD_INT.c ****     *  widget has more than one sensor.
 547:Generated_Source\PSoC4/CSD_INT.c ****     *  The ISR handler initializes scanning for the next widget when the
 548:Generated_Source\PSoC4/CSD_INT.c ****     *  CSD_ScanAllWidgets() APIs are called and the project has
 549:Generated_Source\PSoC4/CSD_INT.c ****     *  more than one widget.
 550:Generated_Source\PSoC4/CSD_INT.c ****     *  The ISR handler changes the IMO and initializes scanning for the next
 551:Generated_Source\PSoC4/CSD_INT.c ****     *  frequency channels when multi-frequency scanning is enabled.
 552:Generated_Source\PSoC4/CSD_INT.c ****     *
 553:Generated_Source\PSoC4/CSD_INT.c ****     *  This function has two Macro Callbacks that allow calling the user 
 554:Generated_Source\PSoC4/CSD_INT.c ****     *  code from macros specified in a component's generated code. Refer to the 
 555:Generated_Source\PSoC4/CSD_INT.c ****     *  \ref group_capsense_macrocallbacks section of PSoC Creator User Guide 
 556:Generated_Source\PSoC4/CSD_INT.c ****     *  for details.
 557:Generated_Source\PSoC4/CSD_INT.c ****     *
 558:Generated_Source\PSoC4/CSD_INT.c ****     *******************************************************************************/
 559:Generated_Source\PSoC4/CSD_INT.c ****     CY_ISR(CSD_CSDPostMultiScan)
 560:Generated_Source\PSoC4/CSD_INT.c ****     {
 561:Generated_Source\PSoC4/CSD_INT.c ****         /*  Declare and initialise ptr to sensor IO structure to appropriate address        */
 562:Generated_Source\PSoC4/CSD_INT.c ****         CSD_FLASH_IO_STRUCT const *curSnsIOPtr = (CSD_FLASH_IO_STRUCT const *)
 563:Generated_Source\PSoC4/CSD_INT.c ****                                                           CSD_dsFlash.wdgtArray[CSD_widgetIndex].pt
 564:Generated_Source\PSoC4/CSD_INT.c ****                                                           + CSD_sensorIndex;
 565:Generated_Source\PSoC4/CSD_INT.c **** 
 566:Generated_Source\PSoC4/CSD_INT.c ****         #ifdef CSD_ENTRY_CALLBACK
 567:Generated_Source\PSoC4/CSD_INT.c ****             CSD_EntryCallback();
 568:Generated_Source\PSoC4/CSD_INT.c ****         #endif /* CSD_ENTRY_CALLBACK */
 569:Generated_Source\PSoC4/CSD_INT.c **** 
 570:Generated_Source\PSoC4/CSD_INT.c ****         /* Clear pending interrupt */
 571:Generated_Source\PSoC4/CSD_INT.c ****         CY_SET_REG32(CSD_INTR_PTR, CSD_INTR_SET_MASK);
 572:Generated_Source\PSoC4/CSD_INT.c **** 
 573:Generated_Source\PSoC4/CSD_INT.c ****          /* Read Rawdata */
 574:Generated_Source\PSoC4/CSD_INT.c ****         CSD_SsCSDPostScan();
 575:Generated_Source\PSoC4/CSD_INT.c **** 
 576:Generated_Source\PSoC4/CSD_INT.c ****         /*  Connect Vref Buffer to AMUX bus */
 577:Generated_Source\PSoC4/CSD_INT.c ****         CY_SET_REG32(CSD_CONFIG_PTR, CSD_configCsd | CSD_CTANK_PRECHARGE_CONFIG_CSD_EN);
 578:Generated_Source\PSoC4/CSD_INT.c **** 
 579:Generated_Source\PSoC4/CSD_INT.c ****         #if (CSD_ENABLE == CSD_MULTI_FREQ_SCAN_EN)
 580:Generated_Source\PSoC4/CSD_INT.c ****             /* Disable sensor when all frequency channels are scanned */
 581:Generated_Source\PSoC4/CSD_INT.c ****             if (CSD_FREQ_CHANNEL_2 == CSD_scanFreqIndex)
 582:Generated_Source\PSoC4/CSD_INT.c ****             {
 583:Generated_Source\PSoC4/CSD_INT.c ****                 /* Disable sensor */
 584:Generated_Source\PSoC4/CSD_INT.c ****                 CSD_CSDDisconnectSns(curSnsIOPtr);
 585:Generated_Source\PSoC4/CSD_INT.c ****             }
 586:Generated_Source\PSoC4/CSD_INT.c ****         #else
 587:Generated_Source\PSoC4/CSD_INT.c ****             /* Disable sensor */
 588:Generated_Source\PSoC4/CSD_INT.c ****             CSD_CSDDisconnectSns(curSnsIOPtr);
 589:Generated_Source\PSoC4/CSD_INT.c ****         #endif /* (CSD_ENABLE == CSD_MULTI_FREQ_SCAN_EN) */
 590:Generated_Source\PSoC4/CSD_INT.c **** 
 591:Generated_Source\PSoC4/CSD_INT.c ****         #if (CSD_ENABLE == CSD_MULTI_FREQ_SCAN_EN)
 592:Generated_Source\PSoC4/CSD_INT.c ****             if (CSD_FREQ_CHANNEL_2 > CSD_scanFreqIndex)
 593:Generated_Source\PSoC4/CSD_INT.c ****             {
 594:Generated_Source\PSoC4/CSD_INT.c ****                  /* Scan the next channel */
 595:Generated_Source\PSoC4/CSD_INT.c ****                 CSD_SsNextFrequencyScan();
 596:Generated_Source\PSoC4/CSD_INT.c ****             }
ARM GAS  C:\Users\CHRIST~1\AppData\Local\Temp\ccADi2zK.s 			page 14


 597:Generated_Source\PSoC4/CSD_INT.c ****             else
 598:Generated_Source\PSoC4/CSD_INT.c ****             {
 599:Generated_Source\PSoC4/CSD_INT.c ****                  /* All channels are scanned. Set IMO to zero channel */
 600:Generated_Source\PSoC4/CSD_INT.c ****                 CSD_scanFreqIndex = CSD_FREQ_CHANNEL_0;
 601:Generated_Source\PSoC4/CSD_INT.c ****                 CSD_SsChangeImoFreq(CSD_FREQ_CHANNEL_0);
 602:Generated_Source\PSoC4/CSD_INT.c **** 
 603:Generated_Source\PSoC4/CSD_INT.c ****                  /* Scan the next sensor */
 604:Generated_Source\PSoC4/CSD_INT.c ****                 CSD_SsInitNextScan();
 605:Generated_Source\PSoC4/CSD_INT.c ****             }
 606:Generated_Source\PSoC4/CSD_INT.c ****         #else
 607:Generated_Source\PSoC4/CSD_INT.c ****             /* Scan the next sensor */
 608:Generated_Source\PSoC4/CSD_INT.c ****             CSD_SsInitNextScan();
 609:Generated_Source\PSoC4/CSD_INT.c ****         #endif /* (CSD_ENABLE == CSD_MULTI_FREQ_SCAN_EN) */
 610:Generated_Source\PSoC4/CSD_INT.c **** 
 611:Generated_Source\PSoC4/CSD_INT.c ****         #ifdef CSD_EXIT_CALLBACK
 612:Generated_Source\PSoC4/CSD_INT.c ****             CSD_ExitCallback();
 613:Generated_Source\PSoC4/CSD_INT.c ****         #endif /* CSD_EXIT_CALLBACK */
 614:Generated_Source\PSoC4/CSD_INT.c ****     }
 615:Generated_Source\PSoC4/CSD_INT.c **** 
 616:Generated_Source\PSoC4/CSD_INT.c **** 
 617:Generated_Source\PSoC4/CSD_INT.c ****     #if (CSD_ENABLE == CSD_CSD_GANGED_SNS_EN)
 618:Generated_Source\PSoC4/CSD_INT.c ****     /*******************************************************************************
 619:Generated_Source\PSoC4/CSD_INT.c ****     * Function Name: CSD_CSDPostMultiScanGanged
 620:Generated_Source\PSoC4/CSD_INT.c ****     ****************************************************************************//**
 621:Generated_Source\PSoC4/CSD_INT.c ****     *
 622:Generated_Source\PSoC4/CSD_INT.c ****     * \brief
 623:Generated_Source\PSoC4/CSD_INT.c ****     *  This is an internal ISR function for multiple sensor scanning 
 624:Generated_Source\PSoC4/CSD_INT.c ****     *  implementation for ganged sensors.
 625:Generated_Source\PSoC4/CSD_INT.c ****     *
 626:Generated_Source\PSoC4/CSD_INT.c ****     * \details
 627:Generated_Source\PSoC4/CSD_INT.c ****     *  This ISR handler is triggered when the user calls the
 628:Generated_Source\PSoC4/CSD_INT.c ****     *  CSD_Scan() API for a ganged sensor or the
 629:Generated_Source\PSoC4/CSD_INT.c ****     *  CSD_ScanAllWidgets() API in the project with ganged sensors.
 630:Generated_Source\PSoC4/CSD_INT.c ****     *
 631:Generated_Source\PSoC4/CSD_INT.c ****     *  The following tasks are performed:
 632:Generated_Source\PSoC4/CSD_INT.c ****     *    1. Disable the CSD interrupt
 633:Generated_Source\PSoC4/CSD_INT.c ****     *    2. Read the Counter register and update the data structure with raw data
 634:Generated_Source\PSoC4/CSD_INT.c ****     *    3. Connect the Vref buffer to the AMUX bus
 635:Generated_Source\PSoC4/CSD_INT.c ****     *    4. Disable the CSD block (after the widget has been scanned)
 636:Generated_Source\PSoC4/CSD_INT.c ****     *    5. Update Scan Counter
 637:Generated_Source\PSoC4/CSD_INT.c ****     *    6. Reset the BUSY flag
 638:Generated_Source\PSoC4/CSD_INT.c ****     *    7. Enable the CSD interrupt.
 639:Generated_Source\PSoC4/CSD_INT.c ****     *
 640:Generated_Source\PSoC4/CSD_INT.c ****     *  The ISR handler initializes scanning for the previous sensor when the
 641:Generated_Source\PSoC4/CSD_INT.c ****     *  widget has more than one sensor.
 642:Generated_Source\PSoC4/CSD_INT.c ****     *  The ISR handler initializes scanning for the next widget when the
 643:Generated_Source\PSoC4/CSD_INT.c ****     *  CSD_ScanAllWidgets() APIs are called and the project has 
 644:Generated_Source\PSoC4/CSD_INT.c ****     *  more than one widget.
 645:Generated_Source\PSoC4/CSD_INT.c ****     *  The ISR handler changes the IMO and initializes scanning for the next 
 646:Generated_Source\PSoC4/CSD_INT.c ****     *  frequency channels when multi-frequency scanning is enabled.
 647:Generated_Source\PSoC4/CSD_INT.c ****     *
 648:Generated_Source\PSoC4/CSD_INT.c ****     *  This function has two Macro Callbacks that allow calling the user 
 649:Generated_Source\PSoC4/CSD_INT.c ****     *  code from macros specified in a component's generated code. Refer to the 
 650:Generated_Source\PSoC4/CSD_INT.c ****     *  \ref group_capsense_macrocallbacks section of PSoC Creator User Guide 
 651:Generated_Source\PSoC4/CSD_INT.c ****     *  for details.
 652:Generated_Source\PSoC4/CSD_INT.c ****     *
 653:Generated_Source\PSoC4/CSD_INT.c ****     *******************************************************************************/
ARM GAS  C:\Users\CHRIST~1\AppData\Local\Temp\ccADi2zK.s 			page 15


 654:Generated_Source\PSoC4/CSD_INT.c ****     CY_ISR(CSD_CSDPostMultiScanGanged)
 655:Generated_Source\PSoC4/CSD_INT.c ****     {
 656:Generated_Source\PSoC4/CSD_INT.c ****         #ifdef CSD_ENTRY_CALLBACK
 657:Generated_Source\PSoC4/CSD_INT.c ****             CSD_EntryCallback();
 658:Generated_Source\PSoC4/CSD_INT.c ****         #endif /* CSD_ENTRY_CALLBACK */
 659:Generated_Source\PSoC4/CSD_INT.c **** 
 660:Generated_Source\PSoC4/CSD_INT.c ****         /* Clear pending interrupt */
 661:Generated_Source\PSoC4/CSD_INT.c ****         CY_SET_REG32(CSD_INTR_PTR, CSD_INTR_SET_MASK);
 662:Generated_Source\PSoC4/CSD_INT.c **** 
 663:Generated_Source\PSoC4/CSD_INT.c ****          /* Read Rawdata */
 664:Generated_Source\PSoC4/CSD_INT.c ****         CSD_SsCSDPostScan();
 665:Generated_Source\PSoC4/CSD_INT.c **** 
 666:Generated_Source\PSoC4/CSD_INT.c ****         /*  Connect Vref Buffer to AMUX bus */
 667:Generated_Source\PSoC4/CSD_INT.c ****         CY_SET_REG32(CSD_CONFIG_PTR, CSD_configCsd | CSD_CTANK_PRECHARGE_CONFIG_CSD_EN);
 668:Generated_Source\PSoC4/CSD_INT.c **** 
 669:Generated_Source\PSoC4/CSD_INT.c ****         #if (CSD_ENABLE == CSD_MULTI_FREQ_SCAN_EN)
 670:Generated_Source\PSoC4/CSD_INT.c ****             if (CSD_FREQ_CHANNEL_2 == CSD_scanFreqIndex)
 671:Generated_Source\PSoC4/CSD_INT.c ****             {
 672:Generated_Source\PSoC4/CSD_INT.c ****                 CSD_SsCSDDisconnectSnsExt((uint32)CSD_widgetIndex, (uint32)CSD_sensorIndex);
 673:Generated_Source\PSoC4/CSD_INT.c ****             }
 674:Generated_Source\PSoC4/CSD_INT.c ****         #else
 675:Generated_Source\PSoC4/CSD_INT.c ****             CSD_SsCSDDisconnectSnsExt((uint32)CSD_widgetIndex, (uint32)CSD_sensorIndex);
 676:Generated_Source\PSoC4/CSD_INT.c ****         #endif /* (CSD_ENABLE == CSD_MULTI_FREQ_SCAN_EN) */
 677:Generated_Source\PSoC4/CSD_INT.c **** 
 678:Generated_Source\PSoC4/CSD_INT.c ****         #if (CSD_ENABLE == CSD_MULTI_FREQ_SCAN_EN)
 679:Generated_Source\PSoC4/CSD_INT.c ****             if (CSD_FREQ_CHANNEL_2 > CSD_scanFreqIndex)
 680:Generated_Source\PSoC4/CSD_INT.c ****             {
 681:Generated_Source\PSoC4/CSD_INT.c ****                  /* Scan the next channel */
 682:Generated_Source\PSoC4/CSD_INT.c ****                 CSD_SsNextFrequencyScan();
 683:Generated_Source\PSoC4/CSD_INT.c ****             }
 684:Generated_Source\PSoC4/CSD_INT.c ****             else
 685:Generated_Source\PSoC4/CSD_INT.c ****             {
 686:Generated_Source\PSoC4/CSD_INT.c ****                 /* All channels are scanned. Set IMO to zero channel */
 687:Generated_Source\PSoC4/CSD_INT.c ****                 CSD_scanFreqIndex = CSD_FREQ_CHANNEL_0;
 688:Generated_Source\PSoC4/CSD_INT.c ****                 CSD_SsChangeImoFreq(CSD_FREQ_CHANNEL_0);
 689:Generated_Source\PSoC4/CSD_INT.c **** 
 690:Generated_Source\PSoC4/CSD_INT.c ****                  /* Scan the next sensor */
 691:Generated_Source\PSoC4/CSD_INT.c ****                 CSD_SsInitNextScan();
 692:Generated_Source\PSoC4/CSD_INT.c ****             }
 693:Generated_Source\PSoC4/CSD_INT.c ****         #else
 694:Generated_Source\PSoC4/CSD_INT.c ****              /* Scan the next sensor */
 695:Generated_Source\PSoC4/CSD_INT.c ****             CSD_SsInitNextScan();
 696:Generated_Source\PSoC4/CSD_INT.c ****         #endif /* (CSD_ENABLE == CSD_MULTI_FREQ_SCAN_EN) */
 697:Generated_Source\PSoC4/CSD_INT.c **** 
 698:Generated_Source\PSoC4/CSD_INT.c ****         #ifdef CSD_EXIT_CALLBACK
 699:Generated_Source\PSoC4/CSD_INT.c ****             CSD_ExitCallback();
 700:Generated_Source\PSoC4/CSD_INT.c ****         #endif /* CSD_EXIT_CALLBACK */
 701:Generated_Source\PSoC4/CSD_INT.c ****     }
 702:Generated_Source\PSoC4/CSD_INT.c ****     #endif /* (CSD_ENABLE == CSD_CSD_GANGED_SNS_EN) */
 703:Generated_Source\PSoC4/CSD_INT.c **** 
 704:Generated_Source\PSoC4/CSD_INT.c **** #endif /* (CSD_ENABLE == CSD_CSDV2) */
 705:Generated_Source\PSoC4/CSD_INT.c **** #endif /* ((CSD_ENABLE == CSD_CSD_EN) || (CSD_ENABLE == CSD_CSD_CSX_EN)) */
 706:Generated_Source\PSoC4/CSD_INT.c **** 
 707:Generated_Source\PSoC4/CSD_INT.c **** /** \}
 708:Generated_Source\PSoC4/CSD_INT.c ****  * \endif */
 709:Generated_Source\PSoC4/CSD_INT.c **** 
 710:Generated_Source\PSoC4/CSD_INT.c **** 
ARM GAS  C:\Users\CHRIST~1\AppData\Local\Temp\ccADi2zK.s 			page 16


 711:Generated_Source\PSoC4/CSD_INT.c **** #if ((CSD_ENABLE == CSD_CSD_EN) || (CSD_ENABLE == CSD_CSD_CSX_EN))
 712:Generated_Source\PSoC4/CSD_INT.c **** 
 713:Generated_Source\PSoC4/CSD_INT.c **** /*******************************************************************************
 714:Generated_Source\PSoC4/CSD_INT.c **** * Function Name: CSD_SsCSDPostScan
 715:Generated_Source\PSoC4/CSD_INT.c **** ****************************************************************************//**
 716:Generated_Source\PSoC4/CSD_INT.c **** *
 717:Generated_Source\PSoC4/CSD_INT.c **** * \brief
 718:Generated_Source\PSoC4/CSD_INT.c **** *   This function reads rawdata and releases required HW resources after scan.
 719:Generated_Source\PSoC4/CSD_INT.c **** *
 720:Generated_Source\PSoC4/CSD_INT.c **** * \details
 721:Generated_Source\PSoC4/CSD_INT.c **** *   This function performs following tasks after scan:
 722:Generated_Source\PSoC4/CSD_INT.c **** *   - Reads SlotResult from Raw Counter;
 723:Generated_Source\PSoC4/CSD_INT.c **** *   - Inits bad Conversions number;
 724:Generated_Source\PSoC4/CSD_INT.c **** *   - Disconnects Vrefhi from AMUBUF positive input;
 725:Generated_Source\PSoC4/CSD_INT.c **** *   - Disconnects AMUBUF output from CSDBUSB with sych PHI2+HSCMP;
 726:Generated_Source\PSoC4/CSD_INT.c **** *   - Opens HCBV and HCBG switches.
 727:Generated_Source\PSoC4/CSD_INT.c **** *
 728:Generated_Source\PSoC4/CSD_INT.c **** *******************************************************************************/
 729:Generated_Source\PSoC4/CSD_INT.c **** CY_INLINE static void CSD_SsCSDPostScan(void)
 730:Generated_Source\PSoC4/CSD_INT.c **** {
 145              		.loc 1 730 0
 146              		.cfi_startproc
 147 0000 80B5     		push	{r7, lr}
 148              		.cfi_def_cfa_offset 8
 149              		.cfi_offset 7, -8
 150              		.cfi_offset 14, -4
 151 0002 84B0     		sub	sp, sp, #16
 152              		.cfi_def_cfa_offset 24
 153 0004 00AF     		add	r7, sp, #0
 154              		.cfi_def_cfa_register 7
 731:Generated_Source\PSoC4/CSD_INT.c ****     #if (CSD_ENABLE == CSD_CSDV2)
 732:Generated_Source\PSoC4/CSD_INT.c **** 
 733:Generated_Source\PSoC4/CSD_INT.c ****         uint32 tmpRawData;
 734:Generated_Source\PSoC4/CSD_INT.c ****         uint32 tmpMaxCount;
 735:Generated_Source\PSoC4/CSD_INT.c ****         CSD_RAM_WD_BASE_STRUCT const *ptrWdgt = (CSD_RAM_WD_BASE_STRUCT *)
 736:Generated_Source\PSoC4/CSD_INT.c ****                                             CSD_dsFlash.wdgtArray[CSD_widgetIndex].ptr2WdgtRam;
 155              		.loc 1 736 0
 156 0006 184B     		ldr	r3, .L10
 157 0008 1B78     		ldrb	r3, [r3]
 158 000a DBB2     		uxtb	r3, r3
 159 000c 191C     		mov	r1, r3
 735:Generated_Source\PSoC4/CSD_INT.c ****                                             CSD_dsFlash.wdgtArray[CSD_widgetIndex].ptr2WdgtRam;
 160              		.loc 1 735 0
 161 000e 174A     		ldr	r2, .L10+4
 162 0010 0B1C     		mov	r3, r1
 163 0012 DB00     		lsl	r3, r3, #3
 164 0014 5B1A     		sub	r3, r3, r1
 165 0016 9B00     		lsl	r3, r3, #2
 166 0018 D318     		add	r3, r2, r3
 167 001a 5B68     		ldr	r3, [r3, #4]
 168 001c FB60     		str	r3, [r7, #12]
 737:Generated_Source\PSoC4/CSD_INT.c **** 
 738:Generated_Source\PSoC4/CSD_INT.c ****         /* Read SlotResult from Raw Counter */
 739:Generated_Source\PSoC4/CSD_INT.c ****         tmpRawData = CSD_RESULT_VAL1_VALUE_MASK & CY_GET_REG32(CSD_COUNTER_PTR);
 169              		.loc 1 739 0
 170 001e 144B     		ldr	r3, .L10+8
 171 0020 1B68     		ldr	r3, [r3]
ARM GAS  C:\Users\CHRIST~1\AppData\Local\Temp\ccADi2zK.s 			page 17


 172 0022 1B04     		lsl	r3, r3, #16
 173 0024 1B0C     		lsr	r3, r3, #16
 174 0026 BB60     		str	r3, [r7, #8]
 740:Generated_Source\PSoC4/CSD_INT.c **** 
 741:Generated_Source\PSoC4/CSD_INT.c ****         tmpMaxCount = ((1uL << ptrWdgt->resolution) - 1uL);
 175              		.loc 1 741 0
 176 0028 FB68     		ldr	r3, [r7, #12]
 177 002a 1B88     		ldrh	r3, [r3]
 178 002c 1A1C     		mov	r2, r3
 179 002e 0123     		mov	r3, #1
 180 0030 9340     		lsl	r3, r3, r2
 181 0032 013B     		sub	r3, r3, #1
 182 0034 7B60     		str	r3, [r7, #4]
 742:Generated_Source\PSoC4/CSD_INT.c ****         if(tmpRawData < tmpMaxCount)
 183              		.loc 1 742 0
 184 0036 BA68     		ldr	r2, [r7, #8]
 185 0038 7B68     		ldr	r3, [r7, #4]
 186 003a 9A42     		cmp	r2, r3
 187 003c 08D2     		bcs	.L8
 743:Generated_Source\PSoC4/CSD_INT.c ****         {
 744:Generated_Source\PSoC4/CSD_INT.c ****             CSD_curRamSnsPtr->raw[CSD_scanFreqIndex] = LO16(tmpRawData);
 188              		.loc 1 744 0
 189 003e 0D4B     		ldr	r3, .L10+12
 190 0040 1B68     		ldr	r3, [r3]
 191 0042 0D4A     		ldr	r2, .L10+16
 192 0044 1278     		ldrb	r2, [r2]
 193 0046 B968     		ldr	r1, [r7, #8]
 194 0048 89B2     		uxth	r1, r1
 195 004a 5200     		lsl	r2, r2, #1
 196 004c D152     		strh	r1, [r2, r3]
 197 004e 07E0     		b	.L7
 198              	.L8:
 745:Generated_Source\PSoC4/CSD_INT.c ****         }
 746:Generated_Source\PSoC4/CSD_INT.c ****         else
 747:Generated_Source\PSoC4/CSD_INT.c ****         {
 748:Generated_Source\PSoC4/CSD_INT.c ****             CSD_curRamSnsPtr->raw[CSD_scanFreqIndex] = LO16(tmpMaxCount);
 199              		.loc 1 748 0
 200 0050 084B     		ldr	r3, .L10+12
 201 0052 1B68     		ldr	r3, [r3]
 202 0054 084A     		ldr	r2, .L10+16
 203 0056 1278     		ldrb	r2, [r2]
 204 0058 7968     		ldr	r1, [r7, #4]
 205 005a 89B2     		uxth	r1, r1
 206 005c 5200     		lsl	r2, r2, #1
 207 005e D152     		strh	r1, [r2, r3]
 208              	.L7:
 749:Generated_Source\PSoC4/CSD_INT.c ****         }
 750:Generated_Source\PSoC4/CSD_INT.c **** 
 751:Generated_Source\PSoC4/CSD_INT.c ****         #if (CSD_ENABLE == CSD_CSD_NOISE_METRIC_EN)
 752:Generated_Source\PSoC4/CSD_INT.c ****             /*  Init bad Conversions number */
 753:Generated_Source\PSoC4/CSD_INT.c ****             CSD_badConversionsNum = CSD_BAD_CONVERSIONS_NUM;
 754:Generated_Source\PSoC4/CSD_INT.c ****         #endif /* (CSD_ENABLE == CSD_CSD_NOISE_METRIC_EN) */
 755:Generated_Source\PSoC4/CSD_INT.c **** 
 756:Generated_Source\PSoC4/CSD_INT.c ****         #if ((CSD_ENABLE == CSD_CSD_SHIELD_EN) && \
 757:Generated_Source\PSoC4/CSD_INT.c ****              (CSD_2000_MV <= CSD_CYDEV_VDDA_MV))
 758:Generated_Source\PSoC4/CSD_INT.c ****             /*  Disconnect Vrefhi from AMUBUF positive input. Disconnect AMUBUF output from CSDBUSB
 759:Generated_Source\PSoC4/CSD_INT.c ****             CY_SET_REG32(CSD_SW_AMUXBUF_SEL_PTR, CSD_SW_AMUXBUF_SEL_SW_DEFAULT);
ARM GAS  C:\Users\CHRIST~1\AppData\Local\Temp\ccADi2zK.s 			page 18


 760:Generated_Source\PSoC4/CSD_INT.c ****         #endif /* ((CSD_ENABLE == CSD_CSD_SHIELD_EN) && \
 761:Generated_Source\PSoC4/CSD_INT.c ****                    (CSD_2000_MV <= CSD_CYDEV_VDDA_MV)) */
 762:Generated_Source\PSoC4/CSD_INT.c **** 
 763:Generated_Source\PSoC4/CSD_INT.c ****         #if (CSD_ENABLE == CSD_CSD_SHIELD_EN)
 764:Generated_Source\PSoC4/CSD_INT.c ****             /* Open HCBV and HCBG switches */
 765:Generated_Source\PSoC4/CSD_INT.c ****             CY_SET_REG32(CSD_SW_SHIELD_SEL_PTR, CSD_SW_SHIELD_SEL_SW_HCBV_STATIC_OPEN |
 766:Generated_Source\PSoC4/CSD_INT.c ****                                                              CSD_SW_SHIELD_SEL_SW_HCBG_STATIC_OPEN)
 767:Generated_Source\PSoC4/CSD_INT.c ****         #endif /* (CSD_ENABLE == CSD_CSD_SHIELD_EN) */
 768:Generated_Source\PSoC4/CSD_INT.c **** 
 769:Generated_Source\PSoC4/CSD_INT.c ****     #else
 770:Generated_Source\PSoC4/CSD_INT.c **** 
 771:Generated_Source\PSoC4/CSD_INT.c ****         /* Read SlotResult from Raw Counter */
 772:Generated_Source\PSoC4/CSD_INT.c ****        CSD_curRamSnsPtr->raw[CSD_scanFreqIndex] = (uint16)CY_GET_REG32(CSD_COUNTER_PTR);
 773:Generated_Source\PSoC4/CSD_INT.c **** 
 774:Generated_Source\PSoC4/CSD_INT.c ****     #endif /* (CSD_ENABLE == CSD_CSDV2) */
 775:Generated_Source\PSoC4/CSD_INT.c **** }
 209              		.loc 1 775 0
 210 0060 BD46     		mov	sp, r7
 211 0062 04B0     		add	sp, sp, #16
 212              		@ sp needed
 213 0064 80BD     		pop	{r7, pc}
 214              	.L11:
 215 0066 C046     		.align	2
 216              	.L10:
 217 0068 00000000 		.word	CSD_widgetIndex
 218 006c 00000000 		.word	CSD_dsFlash
 219 0070 D0000C40 		.word	1074528464
 220 0074 00000000 		.word	CSD_curRamSnsPtr
 221 0078 00000000 		.word	CSD_scanFreqIndex
 222              		.cfi_endproc
 223              	.LFE3:
 224              		.size	CSD_SsCSDPostScan, .-CSD_SsCSDPostScan
 225              		.section	.text.CSD_SsInitNextScan,"ax",%progbits
 226              		.align	2
 227              		.code	16
 228              		.thumb_func
 229              		.type	CSD_SsInitNextScan, %function
 230              	CSD_SsInitNextScan:
 231              	.LFB4:
 776:Generated_Source\PSoC4/CSD_INT.c **** 
 777:Generated_Source\PSoC4/CSD_INT.c **** 
 778:Generated_Source\PSoC4/CSD_INT.c **** /*******************************************************************************
 779:Generated_Source\PSoC4/CSD_INT.c **** * Function Name: CSD_SsInitNextScan
 780:Generated_Source\PSoC4/CSD_INT.c **** ****************************************************************************//**
 781:Generated_Source\PSoC4/CSD_INT.c **** *
 782:Generated_Source\PSoC4/CSD_INT.c **** * \brief
 783:Generated_Source\PSoC4/CSD_INT.c **** *   This function initializes the next sensor scan.
 784:Generated_Source\PSoC4/CSD_INT.c **** *
 785:Generated_Source\PSoC4/CSD_INT.c **** * \details
 786:Generated_Source\PSoC4/CSD_INT.c **** *   The function decrements the sensor index, updates sense clock for matrix
 787:Generated_Source\PSoC4/CSD_INT.c **** *   or touchpad widgets only, sets up Compensation IDAC, enables the sensor and
 788:Generated_Source\PSoC4/CSD_INT.c **** *   scans it. When all sensors are scanned it continues to set up the next widget
 789:Generated_Source\PSoC4/CSD_INT.c **** *   until all widgets are scanned. The CSD block is disabled when all widgets are
 790:Generated_Source\PSoC4/CSD_INT.c **** *   scanned.
 791:Generated_Source\PSoC4/CSD_INT.c **** *
 792:Generated_Source\PSoC4/CSD_INT.c **** *******************************************************************************/
 793:Generated_Source\PSoC4/CSD_INT.c **** CY_INLINE static void CSD_SsInitNextScan(void)
ARM GAS  C:\Users\CHRIST~1\AppData\Local\Temp\ccADi2zK.s 			page 19


 794:Generated_Source\PSoC4/CSD_INT.c **** {
 232              		.loc 1 794 0
 233              		.cfi_startproc
 234 0000 80B5     		push	{r7, lr}
 235              		.cfi_def_cfa_offset 8
 236              		.cfi_offset 7, -8
 237              		.cfi_offset 14, -4
 238 0002 82B0     		sub	sp, sp, #8
 239              		.cfi_def_cfa_offset 16
 240 0004 00AF     		add	r7, sp, #0
 241              		.cfi_def_cfa_register 7
 795:Generated_Source\PSoC4/CSD_INT.c ****     /*  Declare and initialise ptr to widget and sensor structures to appropriate address */
 796:Generated_Source\PSoC4/CSD_INT.c ****     #if (((CSD_ENABLE == CSD_CSD_IDAC_COMP_EN) || \
 797:Generated_Source\PSoC4/CSD_INT.c ****              (CSD_ENABLE == (CSD_CSD_MATRIX_WIDGET_EN | CSD_CSD_TOUCHPAD_WIDGET_EN))) || \
 798:Generated_Source\PSoC4/CSD_INT.c ****          (((CSD_DISABLE == CSD_CSD_COMMON_SNS_CLK_EN) && \
 799:Generated_Source\PSoC4/CSD_INT.c ****            (CSD_ENABLE == CSD_CSDV2) && \
 800:Generated_Source\PSoC4/CSD_INT.c ****           (CSD_ENABLE == (CSD_CSD_MATRIX_WIDGET_EN | CSD_CSD_TOUCHPAD_WIDGET_EN)))))
 801:Generated_Source\PSoC4/CSD_INT.c ****         CSD_RAM_WD_BASE_STRUCT *ptrWdgt = (CSD_RAM_WD_BASE_STRUCT *)
 802:Generated_Source\PSoC4/CSD_INT.c ****                                                         CSD_dsFlash.wdgtArray[CSD_widgetIndex].ptr2
 242              		.loc 1 802 0
 243 0006 374B     		ldr	r3, .L16
 244 0008 1B78     		ldrb	r3, [r3]
 245 000a DBB2     		uxtb	r3, r3
 246 000c 191C     		mov	r1, r3
 801:Generated_Source\PSoC4/CSD_INT.c ****                                                         CSD_dsFlash.wdgtArray[CSD_widgetIndex].ptr2
 247              		.loc 1 801 0
 248 000e 364A     		ldr	r2, .L16+4
 249 0010 0B1C     		mov	r3, r1
 250 0012 DB00     		lsl	r3, r3, #3
 251 0014 5B1A     		sub	r3, r3, r1
 252 0016 9B00     		lsl	r3, r3, #2
 253 0018 D318     		add	r3, r2, r3
 254 001a 5B68     		ldr	r3, [r3, #4]
 255 001c 7B60     		str	r3, [r7, #4]
 803:Generated_Source\PSoC4/CSD_INT.c ****     #endif /* ((((CSD_ENABLE == CSD_CSD_IDAC_COMP_EN) && \
 804:Generated_Source\PSoC4/CSD_INT.c ****                (CSD_ENABLE == (CSD_CSD_MATRIX_WIDGET_EN | CSD_CSD_TOUCHPAD_WIDGET_EN)))) || \
 805:Generated_Source\PSoC4/CSD_INT.c ****                (((CSD_DISABLE == CSD_CSD_COMMON_SNS_CLK_EN) && \
 806:Generated_Source\PSoC4/CSD_INT.c ****                (CSD_ENABLE == (CSD_CSD_MATRIX_WIDGET_EN | CSD_CSD_TOUCHPAD_WIDGET_EN))) && \
 807:Generated_Source\PSoC4/CSD_INT.c ****                (CSD_CLK_SOURCE_DIRECT == CSD_CSD_SNS_CLK_SOURCE))) */
 808:Generated_Source\PSoC4/CSD_INT.c **** 
 809:Generated_Source\PSoC4/CSD_INT.c ****     /* Check if all sensors are scanned in widget */
 810:Generated_Source\PSoC4/CSD_INT.c ****     if (((uint8)CSD_dsFlash.wdgtArray[(CSD_widgetIndex)].totalNumSns - 1u) > CSD_sensorIndex)
 256              		.loc 1 810 0
 257 001e 314B     		ldr	r3, .L16
 258 0020 1B78     		ldrb	r3, [r3]
 259 0022 DBB2     		uxtb	r3, r3
 260 0024 191C     		mov	r1, r3
 261 0026 304A     		ldr	r2, .L16+4
 262 0028 0B1C     		mov	r3, r1
 263 002a DB00     		lsl	r3, r3, #3
 264 002c 5B1A     		sub	r3, r3, r1
 265 002e 9B00     		lsl	r3, r3, #2
 266 0030 D318     		add	r3, r2, r3
 267 0032 1033     		add	r3, r3, #16
 268 0034 DB88     		ldrh	r3, [r3, #6]
 269 0036 DBB2     		uxtb	r3, r3
 270 0038 013B     		sub	r3, r3, #1
ARM GAS  C:\Users\CHRIST~1\AppData\Local\Temp\ccADi2zK.s 			page 20


 271 003a 2C4A     		ldr	r2, .L16+8
 272 003c 1278     		ldrb	r2, [r2]
 273 003e D2B2     		uxtb	r2, r2
 274 0040 9342     		cmp	r3, r2
 275 0042 2FD9     		bls	.L13
 811:Generated_Source\PSoC4/CSD_INT.c ****     {
 812:Generated_Source\PSoC4/CSD_INT.c ****         /*  Decrement snsIndex to configure next sensor in widget */
 813:Generated_Source\PSoC4/CSD_INT.c ****         CSD_sensorIndex++;
 276              		.loc 1 813 0
 277 0044 294B     		ldr	r3, .L16+8
 278 0046 1B78     		ldrb	r3, [r3]
 279 0048 DBB2     		uxtb	r3, r3
 280 004a 0133     		add	r3, r3, #1
 281 004c DAB2     		uxtb	r2, r3
 282 004e 274B     		ldr	r3, .L16+8
 283 0050 1A70     		strb	r2, [r3]
 814:Generated_Source\PSoC4/CSD_INT.c **** 
 815:Generated_Source\PSoC4/CSD_INT.c ****         /*  Update global pointer to CSD_RAM_SNS_STRUCT to current sensor  */
 816:Generated_Source\PSoC4/CSD_INT.c ****         CSD_curRamSnsPtr = (CSD_RAM_SNS_STRUCT *)
 817:Generated_Source\PSoC4/CSD_INT.c ****                                                   CSD_dsFlash.wdgtArray[CSD_widgetIndex].ptr2SnsRam
 284              		.loc 1 817 0
 285 0052 244B     		ldr	r3, .L16
 286 0054 1B78     		ldrb	r3, [r3]
 287 0056 DBB2     		uxtb	r3, r3
 288 0058 191C     		mov	r1, r3
 289 005a 234A     		ldr	r2, .L16+4
 290 005c 0B1C     		mov	r3, r1
 291 005e DB00     		lsl	r3, r3, #3
 292 0060 5B1A     		sub	r3, r3, r1
 293 0062 9B00     		lsl	r3, r3, #2
 294 0064 D318     		add	r3, r2, r3
 295 0066 0833     		add	r3, r3, #8
 296 0068 1A68     		ldr	r2, [r3]
 818:Generated_Source\PSoC4/CSD_INT.c ****                                                   + CSD_sensorIndex;
 297              		.loc 1 818 0
 298 006a 204B     		ldr	r3, .L16+8
 299 006c 1B78     		ldrb	r3, [r3]
 300 006e DBB2     		uxtb	r3, r3
 301 0070 191C     		mov	r1, r3
 302 0072 0B1C     		mov	r3, r1
 303 0074 9B00     		lsl	r3, r3, #2
 304 0076 5B18     		add	r3, r3, r1
 305 0078 5B00     		lsl	r3, r3, #1
 306 007a D218     		add	r2, r2, r3
 816:Generated_Source\PSoC4/CSD_INT.c ****                                                   CSD_dsFlash.wdgtArray[CSD_widgetIndex].ptr2SnsRam
 307              		.loc 1 816 0
 308 007c 1C4B     		ldr	r3, .L16+12
 309 007e 1A60     		str	r2, [r3]
 819:Generated_Source\PSoC4/CSD_INT.c **** 
 820:Generated_Source\PSoC4/CSD_INT.c ****         /* Configure clock divider to row or column */
 821:Generated_Source\PSoC4/CSD_INT.c ****         #if ((CSD_DISABLE == CSD_CSD_COMMON_SNS_CLK_EN) && \
 822:Generated_Source\PSoC4/CSD_INT.c ****              (CSD_ENABLE == (CSD_CSD_MATRIX_WIDGET_EN | CSD_CSD_TOUCHPAD_WIDGET_EN)))
 823:Generated_Source\PSoC4/CSD_INT.c ****             if ((CSD_WD_TOUCHPAD_E == (CSD_WD_TYPE_ENUM)CSD_dsFlash.wdgtArray[(CSD_widgetIndex)].wd
 824:Generated_Source\PSoC4/CSD_INT.c ****                 (CSD_WD_MATRIX_BUTTON_E == (CSD_WD_TYPE_ENUM)CSD_dsFlash.wdgtArray[(CSD_widgetIndex
 825:Generated_Source\PSoC4/CSD_INT.c ****             {
 826:Generated_Source\PSoC4/CSD_INT.c ****                 CSD_SsCSDConfigClock();
 827:Generated_Source\PSoC4/CSD_INT.c **** 
ARM GAS  C:\Users\CHRIST~1\AppData\Local\Temp\ccADi2zK.s 			page 21


 828:Generated_Source\PSoC4/CSD_INT.c ****                 #if (CSD_ENABLE == CSD_CSDV2)
 829:Generated_Source\PSoC4/CSD_INT.c ****                      /* Set up scanning resolution */
 830:Generated_Source\PSoC4/CSD_INT.c ****                     CSD_SsCSDCalculateScanDuration(ptrWdgt);
 831:Generated_Source\PSoC4/CSD_INT.c ****                 #endif /* (CSD_ENABLE == CSD_CSDV2) */
 832:Generated_Source\PSoC4/CSD_INT.c ****             }
 833:Generated_Source\PSoC4/CSD_INT.c ****         #endif /* ((CSD_DISABLE == CSD_CSD_COMMON_SNS_CLK_EN) && \
 834:Generated_Source\PSoC4/CSD_INT.c ****                    (CSD_ENABLE == (CSD_CSD_MATRIX_WIDGET_EN | CSD_CSD_TOUCHPAD_WIDGET_EN)))) */
 835:Generated_Source\PSoC4/CSD_INT.c **** 
 836:Generated_Source\PSoC4/CSD_INT.c ****         /* Setup Compensation IDAC for next sensor in widget */
 837:Generated_Source\PSoC4/CSD_INT.c ****         #if ((CSD_ENABLE == CSD_CSD_IDAC_COMP_EN) || \
 838:Generated_Source\PSoC4/CSD_INT.c ****              (CSD_ENABLE == (CSD_CSD_MATRIX_WIDGET_EN | CSD_CSD_TOUCHPAD_WIDGET_EN)))
 839:Generated_Source\PSoC4/CSD_INT.c ****             CSD_SsCSDSetUpIdacs(ptrWdgt);
 310              		.loc 1 839 0
 311 0080 7B68     		ldr	r3, [r7, #4]
 312 0082 181C     		mov	r0, r3
 313 0084 FFF7FEFF 		bl	CSD_SsCSDSetUpIdacs
 840:Generated_Source\PSoC4/CSD_INT.c ****         #endif /* ((CSD_ENABLE == CSD_CSD_IDAC_COMP_EN) || \
 841:Generated_Source\PSoC4/CSD_INT.c ****              (CSD_ENABLE == (CSD_CSD_MATRIX_WIDGET_EN | CSD_CSD_TOUCHPAD_WIDGET_EN)))*/
 842:Generated_Source\PSoC4/CSD_INT.c **** 
 843:Generated_Source\PSoC4/CSD_INT.c ****         /* Enable sensor */
 844:Generated_Source\PSoC4/CSD_INT.c ****         CSD_SsCSDConnectSensorExt((uint32)CSD_widgetIndex, (uint32)CSD_sensorIndex);
 314              		.loc 1 844 0
 315 0088 164B     		ldr	r3, .L16
 316 008a 1B78     		ldrb	r3, [r3]
 317 008c DBB2     		uxtb	r3, r3
 318 008e 1A1C     		mov	r2, r3
 319 0090 164B     		ldr	r3, .L16+8
 320 0092 1B78     		ldrb	r3, [r3]
 321 0094 DBB2     		uxtb	r3, r3
 322 0096 101C     		mov	r0, r2
 323 0098 191C     		mov	r1, r3
 324 009a FFF7FEFF 		bl	CSD_SsCSDConnectSensorExt
 845:Generated_Source\PSoC4/CSD_INT.c **** 
 846:Generated_Source\PSoC4/CSD_INT.c ****         /* Proceed scanning */
 847:Generated_Source\PSoC4/CSD_INT.c ****         CSD_SsCSDStartSample();
 325              		.loc 1 847 0
 326 009e FFF7FEFF 		bl	CSD_SsCSDStartSample
 327 00a2 1CE0     		b	.L12
 328              	.L13:
 848:Generated_Source\PSoC4/CSD_INT.c ****     }
 849:Generated_Source\PSoC4/CSD_INT.c ****     /*    Call scan next widget API if requested, if not, complete the scan  */
 850:Generated_Source\PSoC4/CSD_INT.c ****     else
 851:Generated_Source\PSoC4/CSD_INT.c ****     {
 852:Generated_Source\PSoC4/CSD_INT.c ****         CSD_sensorIndex = 0u;
 329              		.loc 1 852 0
 330 00a4 114B     		ldr	r3, .L16+8
 331 00a6 0022     		mov	r2, #0
 332 00a8 1A70     		strb	r2, [r3]
 853:Generated_Source\PSoC4/CSD_INT.c **** 
 854:Generated_Source\PSoC4/CSD_INT.c ****         /* Current widget is totally scanned. Reset WIDGET BUSY flag */
 855:Generated_Source\PSoC4/CSD_INT.c ****         CSD_dsRam.status &= ~CSD_WDGT_SW_STS_BUSY;
 333              		.loc 1 855 0
 334 00aa 124B     		ldr	r3, .L16+16
 335 00ac 9B68     		ldr	r3, [r3, #8]
 336 00ae 124A     		ldr	r2, .L16+20
 337 00b0 1A40     		and	r2, r3
 338 00b2 104B     		ldr	r3, .L16+16
ARM GAS  C:\Users\CHRIST~1\AppData\Local\Temp\ccADi2zK.s 			page 22


 339 00b4 9A60     		str	r2, [r3, #8]
 856:Generated_Source\PSoC4/CSD_INT.c **** 
 857:Generated_Source\PSoC4/CSD_INT.c ****         /* Check if all widgets have been scanned */
 858:Generated_Source\PSoC4/CSD_INT.c ****         if (CSD_ENABLE == CSD_requestScanAllWidget)
 340              		.loc 1 858 0
 341 00b6 114B     		ldr	r3, .L16+24
 342 00b8 1B78     		ldrb	r3, [r3]
 343 00ba 012B     		cmp	r3, #1
 344 00bc 02D1     		bne	.L15
 859:Generated_Source\PSoC4/CSD_INT.c ****         {
 860:Generated_Source\PSoC4/CSD_INT.c ****             /* Configure and begin scanning next widget */
 861:Generated_Source\PSoC4/CSD_INT.c ****             CSD_SsPostAllWidgetsScan();
 345              		.loc 1 861 0
 346 00be FFF7FEFF 		bl	CSD_SsPostAllWidgetsScan
 347 00c2 0CE0     		b	.L12
 348              	.L15:
 862:Generated_Source\PSoC4/CSD_INT.c ****         }
 863:Generated_Source\PSoC4/CSD_INT.c ****         else
 864:Generated_Source\PSoC4/CSD_INT.c ****         {
 865:Generated_Source\PSoC4/CSD_INT.c ****             #if (CSD_ENABLE == CSD_BLOCK_OFF_AFTER_SCAN_EN)
 866:Generated_Source\PSoC4/CSD_INT.c ****                 #if (CSD_ENABLE == CSD_CSDV2)
 867:Generated_Source\PSoC4/CSD_INT.c ****                     /*  Disable the CSD block */
 868:Generated_Source\PSoC4/CSD_INT.c ****                     CY_SET_REG32(CSD_CONFIG_PTR, CSD_configCsd);
 869:Generated_Source\PSoC4/CSD_INT.c ****                 #else
 870:Generated_Source\PSoC4/CSD_INT.c ****                     /*  Disable the CSD block. Connect Vref Buffer to AMUX bus */
 871:Generated_Source\PSoC4/CSD_INT.c ****                     #if ((CSD_CSH_PRECHARGE_IO_BUF == CSD_CSD_CSH_PRECHARGE_SRC) &&\
 872:Generated_Source\PSoC4/CSD_INT.c ****                          (CSD_ENABLE == CSD_CSD_SHIELD_TANK_EN))
 873:Generated_Source\PSoC4/CSD_INT.c ****                         CY_SET_REG32(CSD_CONFIG_PTR, CSD_configCsd | CSD_CMOD_PRECHARGE_CONFIG);
 874:Generated_Source\PSoC4/CSD_INT.c ****                     #else
 875:Generated_Source\PSoC4/CSD_INT.c ****                         CY_SET_REG32(CSD_CONFIG_PTR, CSD_configCsd | CSD_CTANK_PRECHARGE_CONFIG);
 876:Generated_Source\PSoC4/CSD_INT.c ****                     #endif /* ((CSD_CSH_PRECHARGE_IO_BUF == CSD_CSD_CSH_PRECHARGE_SRC) &&\
 877:Generated_Source\PSoC4/CSD_INT.c ****                                (CSD_ENABLE == CSD_CSD_SHIELD_TANK_EN)) */
 878:Generated_Source\PSoC4/CSD_INT.c ****                 #endif /* (CSD_ENABLE == CSD_CSDV2) */
 879:Generated_Source\PSoC4/CSD_INT.c ****             #endif /* (CSD_ENABLE == CSD_BLOCK_OFF_AFTER_SCAN_EN) */
 880:Generated_Source\PSoC4/CSD_INT.c **** 
 881:Generated_Source\PSoC4/CSD_INT.c ****             /* All widgets are totally scanned. Reset BUSY flag */
 882:Generated_Source\PSoC4/CSD_INT.c ****             CSD_dsRam.status &= ~CSD_SW_STS_BUSY;
 349              		.loc 1 882 0
 350 00c4 0B4B     		ldr	r3, .L16+16
 351 00c6 9B68     		ldr	r3, [r3, #8]
 352 00c8 8022     		mov	r2, #128
 353 00ca 9343     		bic	r3, r2
 354 00cc 1A1C     		mov	r2, r3
 355 00ce 094B     		ldr	r3, .L16+16
 356 00d0 9A60     		str	r2, [r3, #8]
 883:Generated_Source\PSoC4/CSD_INT.c **** 
 884:Generated_Source\PSoC4/CSD_INT.c ****             /* Update scan Counter */
 885:Generated_Source\PSoC4/CSD_INT.c ****             CSD_dsRam.scanCounter++;
 357              		.loc 1 885 0
 358 00d2 084B     		ldr	r3, .L16+16
 359 00d4 DB88     		ldrh	r3, [r3, #6]
 360 00d6 0133     		add	r3, r3, #1
 361 00d8 9AB2     		uxth	r2, r3
 362 00da 064B     		ldr	r3, .L16+16
 363 00dc DA80     		strh	r2, [r3, #6]
 364              	.L12:
 886:Generated_Source\PSoC4/CSD_INT.c ****         }
ARM GAS  C:\Users\CHRIST~1\AppData\Local\Temp\ccADi2zK.s 			page 23


 887:Generated_Source\PSoC4/CSD_INT.c ****     }
 888:Generated_Source\PSoC4/CSD_INT.c **** 
 889:Generated_Source\PSoC4/CSD_INT.c **** }
 365              		.loc 1 889 0
 366 00de BD46     		mov	sp, r7
 367 00e0 02B0     		add	sp, sp, #8
 368              		@ sp needed
 369 00e2 80BD     		pop	{r7, pc}
 370              	.L17:
 371              		.align	2
 372              	.L16:
 373 00e4 00000000 		.word	CSD_widgetIndex
 374 00e8 00000000 		.word	CSD_dsFlash
 375 00ec 00000000 		.word	CSD_sensorIndex
 376 00f0 00000000 		.word	CSD_curRamSnsPtr
 377 00f4 00000000 		.word	CSD_dsRam
 378 00f8 FFFFFEFF 		.word	-65537
 379 00fc 00000000 		.word	CSD_requestScanAllWidget
 380              		.cfi_endproc
 381              	.LFE4:
 382              		.size	CSD_SsInitNextScan, .-CSD_SsInitNextScan
 383              		.text
 384              	.Letext0:
 385              		.file 2 "Generated_Source\\PSoC4\\cytypes.h"
 386              		.file 3 "Generated_Source\\PSoC4\\CSD_Configuration.h"
 387              		.file 4 "Generated_Source\\PSoC4\\CSD_Structure.h"
 388              		.file 5 "Generated_Source\\PSoC4\\CSD_Sensing.h"