ARM GAS  C:\Users\CHRIST~1\AppData\Local\Temp\ccghn5Jm.s 			page 1


   1              		.cpu cortex-m0plus
   2              		.fpu softvfp
   3              		.eabi_attribute 20, 1
   4              		.eabi_attribute 21, 1
   5              		.eabi_attribute 23, 3
   6              		.eabi_attribute 24, 1
   7              		.eabi_attribute 25, 1
   8              		.eabi_attribute 26, 1
   9              		.eabi_attribute 30, 6
  10              		.eabi_attribute 34, 0
  11              		.eabi_attribute 18, 4
  12              		.code	16
  13              		.file	"CSD_Filter.c"
  14              		.text
  15              	.Ltext0:
  16              		.cfi_sections	.debug_frame
  17              		.section	.text.CSD_FtInitialize,"ax",%progbits
  18              		.align	2
  19              		.global	CSD_FtInitialize
  20              		.code	16
  21              		.thumb_func
  22              		.type	CSD_FtInitialize, %function
  23              	CSD_FtInitialize:
  24              	.LFB1:
  25              		.file 1 "Generated_Source\\PSoC4\\CSD_Filter.c"
   1:Generated_Source\PSoC4/CSD_Filter.c **** /***************************************************************************//**
   2:Generated_Source\PSoC4/CSD_Filter.c **** * \file     CSD_Filter.c
   3:Generated_Source\PSoC4/CSD_Filter.c **** * \version  3.0
   4:Generated_Source\PSoC4/CSD_Filter.c **** *
   5:Generated_Source\PSoC4/CSD_Filter.c **** * \brief    This file contains the implementation source code to implement all 
   6:Generated_Source\PSoC4/CSD_Filter.c **** *           firmware filters.
   7:Generated_Source\PSoC4/CSD_Filter.c **** *
   8:Generated_Source\PSoC4/CSD_Filter.c **** * \see      CapSense P4 v3.0 Datasheet
   9:Generated_Source\PSoC4/CSD_Filter.c **** * 
  10:Generated_Source\PSoC4/CSD_Filter.c **** *//*****************************************************************************
  11:Generated_Source\PSoC4/CSD_Filter.c **** * Copyright (2016), Cypress Semiconductor Corporation.
  12:Generated_Source\PSoC4/CSD_Filter.c **** ********************************************************************************
  13:Generated_Source\PSoC4/CSD_Filter.c **** * This software is owned by Cypress Semiconductor Corporation (Cypress) and is
  14:Generated_Source\PSoC4/CSD_Filter.c **** * protected by and subject to worldwide patent protection (United States and
  15:Generated_Source\PSoC4/CSD_Filter.c **** * foreign), United States copyright laws and international treaty provisions.
  16:Generated_Source\PSoC4/CSD_Filter.c **** * Cypress hereby grants to licensee a personal, non-exclusive, non-transferable
  17:Generated_Source\PSoC4/CSD_Filter.c **** * license to copy, use, modify, create derivative works of, and compile the
  18:Generated_Source\PSoC4/CSD_Filter.c **** * Cypress Source Code and derivative works for the sole purpose of creating
  19:Generated_Source\PSoC4/CSD_Filter.c **** * custom software in support of licensee product to be used only in conjunction
  20:Generated_Source\PSoC4/CSD_Filter.c **** * with a Cypress integrated circuit as specified in the applicable agreement.
  21:Generated_Source\PSoC4/CSD_Filter.c **** * Any reproduction, modification, translation, compilation, or representation of
  22:Generated_Source\PSoC4/CSD_Filter.c **** * this software except as specified above is prohibited without the express
  23:Generated_Source\PSoC4/CSD_Filter.c **** * written permission of Cypress.
  24:Generated_Source\PSoC4/CSD_Filter.c **** *
  25:Generated_Source\PSoC4/CSD_Filter.c **** * Disclaimer: CYPRESS MAKES NO WARRANTY OF ANY KIND, EXPRESS OR IMPLIED, WITH
  26:Generated_Source\PSoC4/CSD_Filter.c **** * REGARD TO THIS MATERIAL, INCLUDING, BUT NOT LIMITED TO, THE IMPLIED
  27:Generated_Source\PSoC4/CSD_Filter.c **** * WARRANTIES OF MERCHANTABILITY AND FITNESS FOR A PARTICULAR PURPOSE.
  28:Generated_Source\PSoC4/CSD_Filter.c **** * Cypress reserves the right to make changes without further notice to the
  29:Generated_Source\PSoC4/CSD_Filter.c **** * materials described herein. Cypress does not assume any liability arising out
  30:Generated_Source\PSoC4/CSD_Filter.c **** * of the application or use of any product or circuit described herein. Cypress
  31:Generated_Source\PSoC4/CSD_Filter.c **** * does not authorize its products for use as critical components in life-support
  32:Generated_Source\PSoC4/CSD_Filter.c **** * systems where a malfunction or failure may reasonably be expected to result in
ARM GAS  C:\Users\CHRIST~1\AppData\Local\Temp\ccghn5Jm.s 			page 2


  33:Generated_Source\PSoC4/CSD_Filter.c **** * significant injury to the user. The inclusion of Cypress' product in a life-
  34:Generated_Source\PSoC4/CSD_Filter.c **** * support systems application implies that the manufacturer assumes all risk of
  35:Generated_Source\PSoC4/CSD_Filter.c **** * such use and in doing so indemnifies Cypress against all charges. Use may be
  36:Generated_Source\PSoC4/CSD_Filter.c **** * limited by and subject to the applicable Cypress software license agreement.
  37:Generated_Source\PSoC4/CSD_Filter.c **** *******************************************************************************/
  38:Generated_Source\PSoC4/CSD_Filter.c **** 
  39:Generated_Source\PSoC4/CSD_Filter.c **** #include "CSD_Filter.h"
  40:Generated_Source\PSoC4/CSD_Filter.c **** 
  41:Generated_Source\PSoC4/CSD_Filter.c **** #if (0 != (CSD_CSD_AUTOTUNE & CSD_CSD_SS_TH_EN))
  42:Generated_Source\PSoC4/CSD_Filter.c ****     #include "CSD_SmartSense_LL.h"
  43:Generated_Source\PSoC4/CSD_Filter.c **** #endif /* (0 != (CSD_CSD_AUTOTUNE & CSD_CSD_SS_TH_EN)) */
  44:Generated_Source\PSoC4/CSD_Filter.c **** 
  45:Generated_Source\PSoC4/CSD_Filter.c **** /*******************************************************************************
  46:Generated_Source\PSoC4/CSD_Filter.c **** * Function Name: CSD_FtInitialize
  47:Generated_Source\PSoC4/CSD_Filter.c **** ****************************************************************************//**
  48:Generated_Source\PSoC4/CSD_Filter.c **** *
  49:Generated_Source\PSoC4/CSD_Filter.c **** * \brief
  50:Generated_Source\PSoC4/CSD_Filter.c **** *    Initializes all the firmware filter history, except the baseline filter.
  51:Generated_Source\PSoC4/CSD_Filter.c **** *
  52:Generated_Source\PSoC4/CSD_Filter.c **** * \details
  53:Generated_Source\PSoC4/CSD_Filter.c **** *    Initializes all the firmware filter history, except the baseline filter.
  54:Generated_Source\PSoC4/CSD_Filter.c **** *
  55:Generated_Source\PSoC4/CSD_Filter.c **** *******************************************************************************/
  56:Generated_Source\PSoC4/CSD_Filter.c **** void CSD_FtInitialize(void)
  57:Generated_Source\PSoC4/CSD_Filter.c **** {
  26              		.loc 1 57 0
  27              		.cfi_startproc
  28 0000 90B5     		push	{r4, r7, lr}
  29              		.cfi_def_cfa_offset 12
  30              		.cfi_offset 4, -12
  31              		.cfi_offset 7, -8
  32              		.cfi_offset 14, -4
  33 0002 87B0     		sub	sp, sp, #28
  34              		.cfi_def_cfa_offset 40
  35 0004 00AF     		add	r7, sp, #0
  36              		.cfi_def_cfa_register 7
  58:Generated_Source\PSoC4/CSD_Filter.c ****     uint32 widgetId;
  59:Generated_Source\PSoC4/CSD_Filter.c ****     uint32 sensorId;
  60:Generated_Source\PSoC4/CSD_Filter.c ****     uint32 sensorsNumber;
  61:Generated_Source\PSoC4/CSD_Filter.c **** 
  62:Generated_Source\PSoC4/CSD_Filter.c ****     CSD_FLASH_WD_STRUCT const *ptrWidget;
  63:Generated_Source\PSoC4/CSD_Filter.c ****     CSD_RAM_SNS_STRUCT *ptrSensor = NULL;
  37              		.loc 1 63 0
  38 0006 0023     		mov	r3, #0
  39 0008 FB60     		str	r3, [r7, #12]
  64:Generated_Source\PSoC4/CSD_Filter.c ****     CSD_PTR_FILTER_VARIANT ptrFilterHistObj;
  65:Generated_Source\PSoC4/CSD_Filter.c ****     
  66:Generated_Source\PSoC4/CSD_Filter.c ****     #if CSD_CSD_AUTOTUNE & CSD_CSD_SS_TH_EN
  67:Generated_Source\PSoC4/CSD_Filter.c ****         CSD_RAM_WD_BASE_STRUCT *ptrWidgetRam;
  68:Generated_Source\PSoC4/CSD_Filter.c ****         SMARTSENSE_CSD_NOISE_ENVELOPE_STRUCT *ptrNoiseEnvelope = NULL;
  69:Generated_Source\PSoC4/CSD_Filter.c ****     #endif /* #if CSD_CSD_AUTOTUNE & CSD_CSD_SS_TH_EN */
  70:Generated_Source\PSoC4/CSD_Filter.c ****     
  71:Generated_Source\PSoC4/CSD_Filter.c ****     for (widgetId = CSD_TOTAL_WIDGETS; widgetId-- > 0u;)
  40              		.loc 1 71 0
  41 000a 0123     		mov	r3, #1
  42 000c 7B61     		str	r3, [r7, #20]
  43 000e 34E0     		b	.L2
ARM GAS  C:\Users\CHRIST~1\AppData\Local\Temp\ccghn5Jm.s 			page 3


  44              	.L6:
  72:Generated_Source\PSoC4/CSD_Filter.c ****     {
  73:Generated_Source\PSoC4/CSD_Filter.c ****         ptrWidget = &CSD_dsFlash.wdgtArray[widgetId];
  45              		.loc 1 73 0
  46 0010 7A69     		ldr	r2, [r7, #20]
  47 0012 131C     		mov	r3, r2
  48 0014 DB00     		lsl	r3, r3, #3
  49 0016 9B1A     		sub	r3, r3, r2
  50 0018 9B00     		lsl	r3, r3, #2
  51 001a 1C4A     		ldr	r2, .L7
  52 001c 9B18     		add	r3, r3, r2
  53 001e BB60     		str	r3, [r7, #8]
  74:Generated_Source\PSoC4/CSD_Filter.c ****         
  75:Generated_Source\PSoC4/CSD_Filter.c ****         #if CSD_CSD_AUTOTUNE & CSD_CSD_SS_TH_EN
  76:Generated_Source\PSoC4/CSD_Filter.c ****             ptrWidgetRam = ptrWidget->ptr2WdgtRam;
  77:Generated_Source\PSoC4/CSD_Filter.c ****         #endif /* #if CSD_CSD_AUTOTUNE & CSD_CSD_SS_TH_EN */
  78:Generated_Source\PSoC4/CSD_Filter.c **** 
  79:Generated_Source\PSoC4/CSD_Filter.c ****         /* Find total amount of sensors in specified widget */   
  80:Generated_Source\PSoC4/CSD_Filter.c ****         sensorsNumber = CSD_GET_SNS_CNT_BY_PTR(ptrWidget);    
  54              		.loc 1 80 0
  55 0020 BB68     		ldr	r3, [r7, #8]
  56 0022 DB8A     		ldrh	r3, [r3, #22]
  57 0024 7B60     		str	r3, [r7, #4]
  81:Generated_Source\PSoC4/CSD_Filter.c ****     
  82:Generated_Source\PSoC4/CSD_Filter.c ****         for (sensorId = sensorsNumber; sensorId-- > 0u;) 
  58              		.loc 1 82 0
  59 0026 7B68     		ldr	r3, [r7, #4]
  60 0028 3B61     		str	r3, [r7, #16]
  61 002a 21E0     		b	.L3
  62              	.L5:
  83:Generated_Source\PSoC4/CSD_Filter.c ****         {
  84:Generated_Source\PSoC4/CSD_Filter.c ****             /* Find pointer to specified sensor object */
  85:Generated_Source\PSoC4/CSD_Filter.c ****             ptrSensor = ptrWidget->ptr2SnsRam;
  63              		.loc 1 85 0
  64 002c BB68     		ldr	r3, [r7, #8]
  65 002e 9B68     		ldr	r3, [r3, #8]
  66 0030 FB60     		str	r3, [r7, #12]
  86:Generated_Source\PSoC4/CSD_Filter.c ****             ptrSensor = &ptrSensor[sensorId];
  67              		.loc 1 86 0
  68 0032 3A69     		ldr	r2, [r7, #16]
  69 0034 131C     		mov	r3, r2
  70 0036 9B00     		lsl	r3, r3, #2
  71 0038 9B18     		add	r3, r3, r2
  72 003a 5B00     		lsl	r3, r3, #1
  73 003c 1A1C     		mov	r2, r3
  74 003e FB68     		ldr	r3, [r7, #12]
  75 0040 9B18     		add	r3, r3, r2
  76 0042 FB60     		str	r3, [r7, #12]
  87:Generated_Source\PSoC4/CSD_Filter.c ****                         
  88:Generated_Source\PSoC4/CSD_Filter.c ****             /* Find pointer to to specified filter sensor object */
  89:Generated_Source\PSoC4/CSD_Filter.c ****             ptrFilterHistObj.ptr = ptrWidget->ptr2FltrHistory;
  77              		.loc 1 89 0
  78 0044 BB68     		ldr	r3, [r7, #8]
  79 0046 DB68     		ldr	r3, [r3, #12]
  80 0048 3B60     		str	r3, [r7]
  90:Generated_Source\PSoC4/CSD_Filter.c **** 
  91:Generated_Source\PSoC4/CSD_Filter.c ****             #if CSD_CSD_AUTOTUNE & CSD_CSD_SS_TH_EN
ARM GAS  C:\Users\CHRIST~1\AppData\Local\Temp\ccghn5Jm.s 			page 4


  92:Generated_Source\PSoC4/CSD_Filter.c ****                 /* Find pointer to specified noise envelope sensor object */
  93:Generated_Source\PSoC4/CSD_Filter.c ****                 ptrNoiseEnvelope = ptrWidget->ptr2NoiseEnvlp;
  94:Generated_Source\PSoC4/CSD_Filter.c ****                 ptrNoiseEnvelope = &ptrNoiseEnvelope[sensorId];    
  95:Generated_Source\PSoC4/CSD_Filter.c ****             #endif /* #if CSD_CSD_AUTOTUNE & CSD_CSD_SS_TH_EN */
  96:Generated_Source\PSoC4/CSD_Filter.c ****             
  97:Generated_Source\PSoC4/CSD_Filter.c ****             if ((CSD_WD_TYPE_ENUM)ptrWidget->wdgtType != CSD_WD_PROXIMITY_E)
  81              		.loc 1 97 0
  82 004a BB68     		ldr	r3, [r7, #8]
  83 004c 1B7E     		ldrb	r3, [r3, #24]
  84 004e 062B     		cmp	r3, #6
  85 0050 04D0     		beq	.L4
  98:Generated_Source\PSoC4/CSD_Filter.c ****             {
  99:Generated_Source\PSoC4/CSD_Filter.c ****                 #if (CSD_REGULAR_SENSOR_EN)             
 100:Generated_Source\PSoC4/CSD_Filter.c ****                     ptrFilterHistObj.ptrRegular = &ptrFilterHistObj.ptrRegular[sensorId];
  86              		.loc 1 100 0
  87 0052 3A68     		ldr	r2, [r7]
  88 0054 3B69     		ldr	r3, [r7, #16]
  89 0056 5B00     		lsl	r3, r3, #1
  90 0058 D318     		add	r3, r2, r3
  91 005a 3B60     		str	r3, [r7]
  92              	.L4:
 101:Generated_Source\PSoC4/CSD_Filter.c ****                 #endif /* (CSD_REGULAR_SENSOR_EN) */
 102:Generated_Source\PSoC4/CSD_Filter.c ****             }
 103:Generated_Source\PSoC4/CSD_Filter.c ****             else
 104:Generated_Source\PSoC4/CSD_Filter.c ****             {
 105:Generated_Source\PSoC4/CSD_Filter.c ****                 #if (CSD_PROXIMITY_SENSOR_EN)             
 106:Generated_Source\PSoC4/CSD_Filter.c ****                     ptrFilterHistObj.ptrProx = &ptrFilterHistObj.ptrProx[sensorId];
 107:Generated_Source\PSoC4/CSD_Filter.c ****                 #endif /* (CSD_PROXIMITY_SENSOR_EN) */
 108:Generated_Source\PSoC4/CSD_Filter.c ****             }
 109:Generated_Source\PSoC4/CSD_Filter.c ****             
 110:Generated_Source\PSoC4/CSD_Filter.c ****             #if (CSD_REGULAR_RC_IIR_FILTER_EN || CSD_PROX_RC_IIR_FILTER_EN)
 111:Generated_Source\PSoC4/CSD_Filter.c ****                 CSD_InitializeIIRInternal(ptrFilterHistObj, ptrSensor, (uint32)ptrWidget->wdgtType)
  93              		.loc 1 111 0
  94 005c BB68     		ldr	r3, [r7, #8]
  95 005e 1B7E     		ldrb	r3, [r3, #24]
  96 0060 1C1C     		mov	r4, r3
  97 0062 3A68     		ldr	r2, [r7]
  98 0064 FB68     		ldr	r3, [r7, #12]
  99 0066 101C     		mov	r0, r2
 100 0068 191C     		mov	r1, r3
 101 006a 221C     		mov	r2, r4
 102 006c FFF7FEFF 		bl	CSD_InitializeIIRInternal
 103              	.L3:
  82:Generated_Source\PSoC4/CSD_Filter.c ****         {
 104              		.loc 1 82 0 discriminator 1
 105 0070 3B69     		ldr	r3, [r7, #16]
 106 0072 5A1E     		sub	r2, r3, #1
 107 0074 3A61     		str	r2, [r7, #16]
 108 0076 002B     		cmp	r3, #0
 109 0078 D8D1     		bne	.L5
 110              	.L2:
  71:Generated_Source\PSoC4/CSD_Filter.c ****     {
 111              		.loc 1 71 0 discriminator 1
 112 007a 7B69     		ldr	r3, [r7, #20]
 113 007c 5A1E     		sub	r2, r3, #1
 114 007e 7A61     		str	r2, [r7, #20]
 115 0080 002B     		cmp	r3, #0
ARM GAS  C:\Users\CHRIST~1\AppData\Local\Temp\ccghn5Jm.s 			page 5


 116 0082 C5D1     		bne	.L6
 112:Generated_Source\PSoC4/CSD_Filter.c ****             #endif /* (CSD_REGULAR_RC_IIR_FILTER_EN || CSD_PROX_RC_IIR_FILTER_EN) */               
 113:Generated_Source\PSoC4/CSD_Filter.c **** 
 114:Generated_Source\PSoC4/CSD_Filter.c ****             #if (CSD_REGULAR_RC_MEDIAN_FILTER_EN || CSD_PROX_RC_MEDIAN_FILTER_EN)
 115:Generated_Source\PSoC4/CSD_Filter.c ****                 CSD_InitializeMedianInternal(ptrFilterHistObj, ptrSensor, (uint32)ptrWidget->wdgtTy
 116:Generated_Source\PSoC4/CSD_Filter.c ****             #endif /* (CSD_REGULAR_RC_MEDIAN_FILTER_EN || CSD_PROX_RC_MEDIAN_FILTER_EN) */
 117:Generated_Source\PSoC4/CSD_Filter.c **** 
 118:Generated_Source\PSoC4/CSD_Filter.c ****             #if (CSD_REGULAR_RC_AVERAGE_FILTER_EN || CSD_PROX_RC_AVERAGE_FILTER_EN)
 119:Generated_Source\PSoC4/CSD_Filter.c ****                 CSD_InitializeAverageInternal(ptrFilterHistObj, ptrSensor, (uint32)ptrWidget->wdgtT
 120:Generated_Source\PSoC4/CSD_Filter.c ****             #endif /* (CSD_REGULAR_RC_AVERAGE_FILTER_EN || CSD_PROX_RC_AVERAGE_FILTER_EN) */
 121:Generated_Source\PSoC4/CSD_Filter.c ****             
 122:Generated_Source\PSoC4/CSD_Filter.c ****             #if (CSD_CSD_AUTOTUNE & CSD_CSD_SS_TH_EN)
 123:Generated_Source\PSoC4/CSD_Filter.c ****                 if (CSD_SENSE_METHOD_CSD_E ==
 124:Generated_Source\PSoC4/CSD_Filter.c ****                     (CSD_SENSE_METHOD_ENUM)CSD_GET_SENSE_METHOD(&CSD_dsFlash.wdgtArray[widgetId]))
 125:Generated_Source\PSoC4/CSD_Filter.c ****                 {
 126:Generated_Source\PSoC4/CSD_Filter.c ****                     SmartSense_InitializeNoiseEnvelope(ptrSensor->raw[0u], ptrWidgetRam->sigPFC, pt
 127:Generated_Source\PSoC4/CSD_Filter.c ****                 }
 128:Generated_Source\PSoC4/CSD_Filter.c ****             #endif /* #if CSD_CSD_AUTOTUNE & CSD_CSD_SS_TH_EN */
 129:Generated_Source\PSoC4/CSD_Filter.c ****         }
 130:Generated_Source\PSoC4/CSD_Filter.c ****     }   
 131:Generated_Source\PSoC4/CSD_Filter.c **** }
 117              		.loc 1 131 0
 118 0084 BD46     		mov	sp, r7
 119 0086 07B0     		add	sp, sp, #28
 120              		@ sp needed
 121 0088 90BD     		pop	{r4, r7, pc}
 122              	.L8:
 123 008a C046     		.align	2
 124              	.L7:
 125 008c 00000000 		.word	CSD_dsFlash
 126              		.cfi_endproc
 127              	.LFE1:
 128              		.size	CSD_FtInitialize, .-CSD_FtInitialize
 129              		.section	.text.CSD_UpdateAllBaselines,"ax",%progbits
 130              		.align	2
 131              		.global	CSD_UpdateAllBaselines
 132              		.code	16
 133              		.thumb_func
 134              		.type	CSD_UpdateAllBaselines, %function
 135              	CSD_UpdateAllBaselines:
 136              	.LFB2:
 132:Generated_Source\PSoC4/CSD_Filter.c **** 
 133:Generated_Source\PSoC4/CSD_Filter.c **** 
 134:Generated_Source\PSoC4/CSD_Filter.c **** /*******************************************************************************
 135:Generated_Source\PSoC4/CSD_Filter.c **** * Function Name: CSD_UpdateAllBaselines
 136:Generated_Source\PSoC4/CSD_Filter.c **** ****************************************************************************//**
 137:Generated_Source\PSoC4/CSD_Filter.c **** *
 138:Generated_Source\PSoC4/CSD_Filter.c **** * \brief    
 139:Generated_Source\PSoC4/CSD_Filter.c **** *  Updates the baseline for all sensors in all widgets.
 140:Generated_Source\PSoC4/CSD_Filter.c **** *
 141:Generated_Source\PSoC4/CSD_Filter.c **** * \details
 142:Generated_Source\PSoC4/CSD_Filter.c **** *  Updates the baseline for all sensors in all widgets. Baseline updating is a 
 143:Generated_Source\PSoC4/CSD_Filter.c **** *  part of data processing performed by the process functions. So, no need to 
 144:Generated_Source\PSoC4/CSD_Filter.c **** *  call this function except a specific process flow is implemented.
 145:Generated_Source\PSoC4/CSD_Filter.c **** *  
 146:Generated_Source\PSoC4/CSD_Filter.c **** *  This function ignores the value of the wdgtEnable register. Multiple calling 
 147:Generated_Source\PSoC4/CSD_Filter.c **** *  of this function (or any other function with a baseline updating task) 
ARM GAS  C:\Users\CHRIST~1\AppData\Local\Temp\ccghn5Jm.s 			page 6


 148:Generated_Source\PSoC4/CSD_Filter.c **** *  without scanning leads to unexpected behavior.
 149:Generated_Source\PSoC4/CSD_Filter.c **** *
 150:Generated_Source\PSoC4/CSD_Filter.c **** * \return   
 151:Generated_Source\PSoC4/CSD_Filter.c **** *  Returns the status of the update baseline operation of all widgets:
 152:Generated_Source\PSoC4/CSD_Filter.c **** *    - CYRET_SUCCESS if operation was successfully completed
 153:Generated_Source\PSoC4/CSD_Filter.c **** *
 154:Generated_Source\PSoC4/CSD_Filter.c **** *******************************************************************************/
 155:Generated_Source\PSoC4/CSD_Filter.c **** cystatus CSD_UpdateAllBaselines(void)
 156:Generated_Source\PSoC4/CSD_Filter.c **** {
 137              		.loc 1 156 0
 138              		.cfi_startproc
 139 0000 80B5     		push	{r7, lr}
 140              		.cfi_def_cfa_offset 8
 141              		.cfi_offset 7, -8
 142              		.cfi_offset 14, -4
 143 0002 82B0     		sub	sp, sp, #8
 144              		.cfi_def_cfa_offset 16
 145 0004 00AF     		add	r7, sp, #0
 146              		.cfi_def_cfa_register 7
 157:Generated_Source\PSoC4/CSD_Filter.c ****     uint32 widgetId; 
 158:Generated_Source\PSoC4/CSD_Filter.c ****     cystatus bslnStatus = CYRET_SUCCESS;
 147              		.loc 1 158 0
 148 0006 0023     		mov	r3, #0
 149 0008 3B60     		str	r3, [r7]
 159:Generated_Source\PSoC4/CSD_Filter.c ****     
 160:Generated_Source\PSoC4/CSD_Filter.c ****     for(widgetId = CSD_TOTAL_WIDGETS; widgetId-- > 0u;)
 150              		.loc 1 160 0
 151 000a 0123     		mov	r3, #1
 152 000c 7B60     		str	r3, [r7, #4]
 153 000e 07E0     		b	.L10
 154              	.L11:
 161:Generated_Source\PSoC4/CSD_Filter.c ****     {            
 162:Generated_Source\PSoC4/CSD_Filter.c ****         bslnStatus |= CSD_UpdateWidgetBaseline(widgetId);       
 155              		.loc 1 162 0
 156 0010 7B68     		ldr	r3, [r7, #4]
 157 0012 181C     		mov	r0, r3
 158 0014 FFF7FEFF 		bl	CSD_UpdateWidgetBaseline
 159 0018 021C     		mov	r2, r0
 160 001a 3B68     		ldr	r3, [r7]
 161 001c 1343     		orr	r3, r2
 162 001e 3B60     		str	r3, [r7]
 163              	.L10:
 160:Generated_Source\PSoC4/CSD_Filter.c ****     {            
 164              		.loc 1 160 0 discriminator 1
 165 0020 7B68     		ldr	r3, [r7, #4]
 166 0022 5A1E     		sub	r2, r3, #1
 167 0024 7A60     		str	r2, [r7, #4]
 168 0026 002B     		cmp	r3, #0
 169 0028 F2D1     		bne	.L11
 163:Generated_Source\PSoC4/CSD_Filter.c ****     }      
 164:Generated_Source\PSoC4/CSD_Filter.c ****     
 165:Generated_Source\PSoC4/CSD_Filter.c ****     return(bslnStatus);
 170              		.loc 1 165 0
 171 002a 3B68     		ldr	r3, [r7]
 166:Generated_Source\PSoC4/CSD_Filter.c **** }
 172              		.loc 1 166 0
 173 002c 181C     		mov	r0, r3
ARM GAS  C:\Users\CHRIST~1\AppData\Local\Temp\ccghn5Jm.s 			page 7


 174 002e BD46     		mov	sp, r7
 175 0030 02B0     		add	sp, sp, #8
 176              		@ sp needed
 177 0032 80BD     		pop	{r7, pc}
 178              		.cfi_endproc
 179              	.LFE2:
 180              		.size	CSD_UpdateAllBaselines, .-CSD_UpdateAllBaselines
 181              		.section	.text.CSD_UpdateWidgetBaseline,"ax",%progbits
 182              		.align	2
 183              		.global	CSD_UpdateWidgetBaseline
 184              		.code	16
 185              		.thumb_func
 186              		.type	CSD_UpdateWidgetBaseline, %function
 187              	CSD_UpdateWidgetBaseline:
 188              	.LFB3:
 167:Generated_Source\PSoC4/CSD_Filter.c ****   
 168:Generated_Source\PSoC4/CSD_Filter.c **** 
 169:Generated_Source\PSoC4/CSD_Filter.c **** /*******************************************************************************
 170:Generated_Source\PSoC4/CSD_Filter.c **** * Function Name: CSD_UpdateWidgetBaseline
 171:Generated_Source\PSoC4/CSD_Filter.c **** ****************************************************************************//**
 172:Generated_Source\PSoC4/CSD_Filter.c **** *
 173:Generated_Source\PSoC4/CSD_Filter.c **** * \brief    
 174:Generated_Source\PSoC4/CSD_Filter.c **** *  Updates the baseline for all sensors in a widget specified by input parameter.
 175:Generated_Source\PSoC4/CSD_Filter.c **** *
 176:Generated_Source\PSoC4/CSD_Filter.c **** * \details  
 177:Generated_Source\PSoC4/CSD_Filter.c **** *  This function performs exactly the same tasks as 
 178:Generated_Source\PSoC4/CSD_Filter.c **** *  CSD_UpdateAllBaselines(), but only for a specified widget.
 179:Generated_Source\PSoC4/CSD_Filter.c **** *  
 180:Generated_Source\PSoC4/CSD_Filter.c **** *  This function ignores the value of the wdgtEnable register. Multiple calling
 181:Generated_Source\PSoC4/CSD_Filter.c **** *  of this function (or any other function with a baseline updating task) 
 182:Generated_Source\PSoC4/CSD_Filter.c **** *  without scanning leads to unexpected behavior.
 183:Generated_Source\PSoC4/CSD_Filter.c **** *
 184:Generated_Source\PSoC4/CSD_Filter.c **** * \param widgetId 
 185:Generated_Source\PSoC4/CSD_Filter.c **** *  Specify the ID number of the widget to update the baseline of all sensors
 186:Generated_Source\PSoC4/CSD_Filter.c **** *  in the widget.
 187:Generated_Source\PSoC4/CSD_Filter.c **** *  A macro for the widget ID can be found in the 
 188:Generated_Source\PSoC4/CSD_Filter.c **** *  CSD_Configuration.h file defined as 
 189:Generated_Source\PSoC4/CSD_Filter.c **** *  CSD_<WidgetName>_WDGT_ID Specifies the ID of the widget.
 190:Generated_Source\PSoC4/CSD_Filter.c **** *
 191:Generated_Source\PSoC4/CSD_Filter.c **** * \return   
 192:Generated_Source\PSoC4/CSD_Filter.c **** *  Returns the status of the specified widget update baseline operation:
 193:Generated_Source\PSoC4/CSD_Filter.c **** *    - CYRET_SUCCESS if operation was successfully completed
 194:Generated_Source\PSoC4/CSD_Filter.c **** *
 195:Generated_Source\PSoC4/CSD_Filter.c **** *******************************************************************************/
 196:Generated_Source\PSoC4/CSD_Filter.c **** cystatus CSD_UpdateWidgetBaseline(uint32 widgetId)
 197:Generated_Source\PSoC4/CSD_Filter.c **** {
 189              		.loc 1 197 0
 190              		.cfi_startproc
 191 0000 80B5     		push	{r7, lr}
 192              		.cfi_def_cfa_offset 8
 193              		.cfi_offset 7, -8
 194              		.cfi_offset 14, -4
 195 0002 86B0     		sub	sp, sp, #24
 196              		.cfi_def_cfa_offset 32
 197 0004 00AF     		add	r7, sp, #0
 198              		.cfi_def_cfa_register 7
 199 0006 7860     		str	r0, [r7, #4]
ARM GAS  C:\Users\CHRIST~1\AppData\Local\Temp\ccghn5Jm.s 			page 8


 198:Generated_Source\PSoC4/CSD_Filter.c ****     uint32 sensorId;       
 199:Generated_Source\PSoC4/CSD_Filter.c ****     uint32 sensorsNumber;  
 200:Generated_Source\PSoC4/CSD_Filter.c **** 
 201:Generated_Source\PSoC4/CSD_Filter.c ****     CSD_FLASH_WD_STRUCT const *ptrWidget = &CSD_dsFlash.wdgtArray[widgetId];    
 200              		.loc 1 201 0
 201 0008 7A68     		ldr	r2, [r7, #4]
 202 000a 131C     		mov	r3, r2
 203 000c DB00     		lsl	r3, r3, #3
 204 000e 9B1A     		sub	r3, r3, r2
 205 0010 9B00     		lsl	r3, r3, #2
 206 0012 0F4A     		ldr	r2, .L17
 207 0014 9B18     		add	r3, r3, r2
 208 0016 FB60     		str	r3, [r7, #12]
 202:Generated_Source\PSoC4/CSD_Filter.c ****     cystatus bslnStatus = CYRET_SUCCESS;    
 209              		.loc 1 202 0
 210 0018 0023     		mov	r3, #0
 211 001a 3B61     		str	r3, [r7, #16]
 203:Generated_Source\PSoC4/CSD_Filter.c ****     
 204:Generated_Source\PSoC4/CSD_Filter.c ****     /* Find total amount of sensors in specified widget */   
 205:Generated_Source\PSoC4/CSD_Filter.c ****     sensorsNumber = CSD_GET_SNS_CNT_BY_PTR(ptrWidget);    
 212              		.loc 1 205 0
 213 001c FB68     		ldr	r3, [r7, #12]
 214 001e DB8A     		ldrh	r3, [r3, #22]
 215 0020 BB60     		str	r3, [r7, #8]
 206:Generated_Source\PSoC4/CSD_Filter.c ****     
 207:Generated_Source\PSoC4/CSD_Filter.c ****     for(sensorId = sensorsNumber; sensorId-- > 0u;)
 216              		.loc 1 207 0
 217 0022 BB68     		ldr	r3, [r7, #8]
 218 0024 7B61     		str	r3, [r7, #20]
 219 0026 09E0     		b	.L14
 220              	.L15:
 208:Generated_Source\PSoC4/CSD_Filter.c ****     {
 209:Generated_Source\PSoC4/CSD_Filter.c ****         bslnStatus |= CSD_UpdateSensorBaseline(widgetId, sensorId);    
 221              		.loc 1 209 0
 222 0028 7A68     		ldr	r2, [r7, #4]
 223 002a 7B69     		ldr	r3, [r7, #20]
 224 002c 101C     		mov	r0, r2
 225 002e 191C     		mov	r1, r3
 226 0030 FFF7FEFF 		bl	CSD_UpdateSensorBaseline
 227 0034 021C     		mov	r2, r0
 228 0036 3B69     		ldr	r3, [r7, #16]
 229 0038 1343     		orr	r3, r2
 230 003a 3B61     		str	r3, [r7, #16]
 231              	.L14:
 207:Generated_Source\PSoC4/CSD_Filter.c ****     {
 232              		.loc 1 207 0 discriminator 1
 233 003c 7B69     		ldr	r3, [r7, #20]
 234 003e 5A1E     		sub	r2, r3, #1
 235 0040 7A61     		str	r2, [r7, #20]
 236 0042 002B     		cmp	r3, #0
 237 0044 F0D1     		bne	.L15
 210:Generated_Source\PSoC4/CSD_Filter.c ****     }
 211:Generated_Source\PSoC4/CSD_Filter.c **** 
 212:Generated_Source\PSoC4/CSD_Filter.c ****     return(bslnStatus);
 238              		.loc 1 212 0
 239 0046 3B69     		ldr	r3, [r7, #16]
 213:Generated_Source\PSoC4/CSD_Filter.c **** }
ARM GAS  C:\Users\CHRIST~1\AppData\Local\Temp\ccghn5Jm.s 			page 9


 240              		.loc 1 213 0
 241 0048 181C     		mov	r0, r3
 242 004a BD46     		mov	sp, r7
 243 004c 06B0     		add	sp, sp, #24
 244              		@ sp needed
 245 004e 80BD     		pop	{r7, pc}
 246              	.L18:
 247              		.align	2
 248              	.L17:
 249 0050 00000000 		.word	CSD_dsFlash
 250              		.cfi_endproc
 251              	.LFE3:
 252              		.size	CSD_UpdateWidgetBaseline, .-CSD_UpdateWidgetBaseline
 253              		.section	.text.CSD_UpdateSensorBaseline,"ax",%progbits
 254              		.align	2
 255              		.global	CSD_UpdateSensorBaseline
 256              		.code	16
 257              		.thumb_func
 258              		.type	CSD_UpdateSensorBaseline, %function
 259              	CSD_UpdateSensorBaseline:
 260              	.LFB4:
 214:Generated_Source\PSoC4/CSD_Filter.c **** 
 215:Generated_Source\PSoC4/CSD_Filter.c **** 
 216:Generated_Source\PSoC4/CSD_Filter.c **** /*******************************************************************************
 217:Generated_Source\PSoC4/CSD_Filter.c **** * Function Name: CSD_UpdateSensorBaseline
 218:Generated_Source\PSoC4/CSD_Filter.c **** ****************************************************************************//**
 219:Generated_Source\PSoC4/CSD_Filter.c **** *
 220:Generated_Source\PSoC4/CSD_Filter.c **** * \brief    
 221:Generated_Source\PSoC4/CSD_Filter.c **** *  Updates the baseline for a sensor in a widget specified by input parameters.
 222:Generated_Source\PSoC4/CSD_Filter.c **** *
 223:Generated_Source\PSoC4/CSD_Filter.c **** * \details  
 224:Generated_Source\PSoC4/CSD_Filter.c **** *  This function performs exactly the same tasks as
 225:Generated_Source\PSoC4/CSD_Filter.c **** *  CSD_UpdateAllBaselines() and 
 226:Generated_Source\PSoC4/CSD_Filter.c **** *  CSD_UpdateWidgetBaseline() but only for a specified sensor.
 227:Generated_Source\PSoC4/CSD_Filter.c **** *  
 228:Generated_Source\PSoC4/CSD_Filter.c **** *  This function ignores the value of the wdgtEnable register. Multiple calling 
 229:Generated_Source\PSoC4/CSD_Filter.c **** *  of this function (or any other function with a baseline updating task) 
 230:Generated_Source\PSoC4/CSD_Filter.c **** *  without scanning leads to unexpected behavior.
 231:Generated_Source\PSoC4/CSD_Filter.c **** *
 232:Generated_Source\PSoC4/CSD_Filter.c **** * \param   widgetId 
 233:Generated_Source\PSoC4/CSD_Filter.c **** *  Specify the ID number of the widget to update the baseline of the sensor 
 234:Generated_Source\PSoC4/CSD_Filter.c **** *  specified by the sensorId parameter.
 235:Generated_Source\PSoC4/CSD_Filter.c **** *  A macro for the widget ID can be found in CSD_Configuration.h 
 236:Generated_Source\PSoC4/CSD_Filter.c **** *  file defined as CSD_<WidgetName>_WDGT_ID Specifies the ID of 
 237:Generated_Source\PSoC4/CSD_Filter.c **** *  the widget. 
 238:Generated_Source\PSoC4/CSD_Filter.c **** *
 239:Generated_Source\PSoC4/CSD_Filter.c **** * \param   sensorId 
 240:Generated_Source\PSoC4/CSD_Filter.c **** *  Specify the ID number of the sensor within the widget to update its baseline.
 241:Generated_Source\PSoC4/CSD_Filter.c **** *  A macro for the sensor ID within a specified widget can be found in the 
 242:Generated_Source\PSoC4/CSD_Filter.c **** *  CSD_Configuration.h file defined as 
 243:Generated_Source\PSoC4/CSD_Filter.c **** *  CSD_<WidgetName>_SNS<SensorNumber>_ID
 244:Generated_Source\PSoC4/CSD_Filter.c **** *
 245:Generated_Source\PSoC4/CSD_Filter.c **** * \return   
 246:Generated_Source\PSoC4/CSD_Filter.c **** *  Returns the status of the specified sensor update baseline operation:
 247:Generated_Source\PSoC4/CSD_Filter.c **** *    - CYRET_SUCCESS if operation was successfully completed
 248:Generated_Source\PSoC4/CSD_Filter.c **** *
 249:Generated_Source\PSoC4/CSD_Filter.c **** *******************************************************************************/
ARM GAS  C:\Users\CHRIST~1\AppData\Local\Temp\ccghn5Jm.s 			page 10


 250:Generated_Source\PSoC4/CSD_Filter.c **** cystatus CSD_UpdateSensorBaseline(uint32 widgetId, uint32 sensorId)
 251:Generated_Source\PSoC4/CSD_Filter.c **** {    
 261              		.loc 1 251 0
 262              		.cfi_startproc
 263 0000 90B5     		push	{r4, r7, lr}
 264              		.cfi_def_cfa_offset 12
 265              		.cfi_offset 4, -12
 266              		.cfi_offset 7, -8
 267              		.cfi_offset 14, -4
 268 0002 87B0     		sub	sp, sp, #28
 269              		.cfi_def_cfa_offset 40
 270 0004 00AF     		add	r7, sp, #0
 271              		.cfi_def_cfa_register 7
 272 0006 7860     		str	r0, [r7, #4]
 273 0008 3960     		str	r1, [r7]
 252:Generated_Source\PSoC4/CSD_Filter.c ****     cystatus bslnStatus = CYRET_SUCCESS;  
 274              		.loc 1 252 0
 275 000a 0023     		mov	r3, #0
 276 000c 7B61     		str	r3, [r7, #20]
 253:Generated_Source\PSoC4/CSD_Filter.c ****     
 254:Generated_Source\PSoC4/CSD_Filter.c ****     CSD_RAM_SNS_STRUCT *ptrSensor = NULL;    
 277              		.loc 1 254 0
 278 000e 0023     		mov	r3, #0
 279 0010 3B61     		str	r3, [r7, #16]
 255:Generated_Source\PSoC4/CSD_Filter.c ****     CSD_FLASH_WD_STRUCT const *ptrWidget = &CSD_dsFlash.wdgtArray[widgetId];    
 280              		.loc 1 255 0
 281 0012 7A68     		ldr	r2, [r7, #4]
 282 0014 131C     		mov	r3, r2
 283 0016 DB00     		lsl	r3, r3, #3
 284 0018 9B1A     		sub	r3, r3, r2
 285 001a 9B00     		lsl	r3, r3, #2
 286 001c 114A     		ldr	r2, .L21
 287 001e 9B18     		add	r3, r3, r2
 288 0020 FB60     		str	r3, [r7, #12]
 256:Generated_Source\PSoC4/CSD_Filter.c ****     CSD_RAM_WD_BASE_STRUCT *ptrWidgetRam = ptrWidget->ptr2WdgtRam;   
 289              		.loc 1 256 0
 290 0022 FB68     		ldr	r3, [r7, #12]
 291 0024 5B68     		ldr	r3, [r3, #4]
 292 0026 BB60     		str	r3, [r7, #8]
 257:Generated_Source\PSoC4/CSD_Filter.c ****           
 258:Generated_Source\PSoC4/CSD_Filter.c ****     /* Find pointer to specified sensor object */     
 259:Generated_Source\PSoC4/CSD_Filter.c ****     ptrSensor = ptrWidget->ptr2SnsRam;
 293              		.loc 1 259 0
 294 0028 FB68     		ldr	r3, [r7, #12]
 295 002a 9B68     		ldr	r3, [r3, #8]
 296 002c 3B61     		str	r3, [r7, #16]
 260:Generated_Source\PSoC4/CSD_Filter.c ****     ptrSensor = &ptrSensor[sensorId];
 297              		.loc 1 260 0
 298 002e 3A68     		ldr	r2, [r7]
 299 0030 131C     		mov	r3, r2
 300 0032 9B00     		lsl	r3, r3, #2
 301 0034 9B18     		add	r3, r3, r2
 302 0036 5B00     		lsl	r3, r3, #1
 303 0038 1A1C     		mov	r2, r3
 304 003a 3B69     		ldr	r3, [r7, #16]
 305 003c 9B18     		add	r3, r3, r2
 306 003e 3B61     		str	r3, [r7, #16]
ARM GAS  C:\Users\CHRIST~1\AppData\Local\Temp\ccghn5Jm.s 			page 11


 261:Generated_Source\PSoC4/CSD_Filter.c ****     
 262:Generated_Source\PSoC4/CSD_Filter.c ****     bslnStatus = CSD_FtUpdateBaseline(
 263:Generated_Source\PSoC4/CSD_Filter.c ****                         ptrWidgetRam, ptrSensor, (uint32)ptrWidget->wdgtType);
 307              		.loc 1 263 0
 308 0040 FB68     		ldr	r3, [r7, #12]
 309 0042 1B7E     		ldrb	r3, [r3, #24]
 262:Generated_Source\PSoC4/CSD_Filter.c ****                         ptrWidgetRam, ptrSensor, (uint32)ptrWidget->wdgtType);
 310              		.loc 1 262 0
 311 0044 1C1C     		mov	r4, r3
 312 0046 BA68     		ldr	r2, [r7, #8]
 313 0048 3B69     		ldr	r3, [r7, #16]
 314 004a 101C     		mov	r0, r2
 315 004c 191C     		mov	r1, r3
 316 004e 221C     		mov	r2, r4
 317 0050 FFF7FEFF 		bl	CSD_FtUpdateBaseline
 318 0054 031C     		mov	r3, r0
 319 0056 7B61     		str	r3, [r7, #20]
 264:Generated_Source\PSoC4/CSD_Filter.c ****    
 265:Generated_Source\PSoC4/CSD_Filter.c ****     return(bslnStatus);
 320              		.loc 1 265 0
 321 0058 7B69     		ldr	r3, [r7, #20]
 266:Generated_Source\PSoC4/CSD_Filter.c **** }
 322              		.loc 1 266 0
 323 005a 181C     		mov	r0, r3
 324 005c BD46     		mov	sp, r7
 325 005e 07B0     		add	sp, sp, #28
 326              		@ sp needed
 327 0060 90BD     		pop	{r4, r7, pc}
 328              	.L22:
 329 0062 C046     		.align	2
 330              	.L21:
 331 0064 00000000 		.word	CSD_dsFlash
 332              		.cfi_endproc
 333              	.LFE4:
 334              		.size	CSD_UpdateSensorBaseline, .-CSD_UpdateSensorBaseline
 335              		.section	.text.CSD_FtUpdateBaseline,"ax",%progbits
 336              		.align	2
 337              		.global	CSD_FtUpdateBaseline
 338              		.code	16
 339              		.thumb_func
 340              		.type	CSD_FtUpdateBaseline, %function
 341              	CSD_FtUpdateBaseline:
 342              	.LFB5:
 267:Generated_Source\PSoC4/CSD_Filter.c ****  
 268:Generated_Source\PSoC4/CSD_Filter.c **** 
 269:Generated_Source\PSoC4/CSD_Filter.c **** /*******************************************************************************
 270:Generated_Source\PSoC4/CSD_Filter.c **** * Function Name: CSD_FtUpdateBaseline
 271:Generated_Source\PSoC4/CSD_Filter.c **** ****************************************************************************//**
 272:Generated_Source\PSoC4/CSD_Filter.c **** *
 273:Generated_Source\PSoC4/CSD_Filter.c **** * \brief    Updates the baseline for a sensor specified by an input parameter.
 274:Generated_Source\PSoC4/CSD_Filter.c **** *
 275:Generated_Source\PSoC4/CSD_Filter.c **** * \details  Updates the baseline for a sensor specified by an input parameter.
 276:Generated_Source\PSoC4/CSD_Filter.c **** *
 277:Generated_Source\PSoC4/CSD_Filter.c **** * \param    ptr2wd_ram The pointer to the widget RAM structure where all the widget 
 278:Generated_Source\PSoC4/CSD_Filter.c **** *           parameters are stored.
 279:Generated_Source\PSoC4/CSD_Filter.c **** *
 280:Generated_Source\PSoC4/CSD_Filter.c **** * \param    ptrSensor The pointer to the sensor RAM structure where all the sensor
ARM GAS  C:\Users\CHRIST~1\AppData\Local\Temp\ccghn5Jm.s 			page 12


 281:Generated_Source\PSoC4/CSD_Filter.c **** *           parameters are stored.
 282:Generated_Source\PSoC4/CSD_Filter.c **** *
 283:Generated_Source\PSoC4/CSD_Filter.c **** * \return   Returns a status indicating whether the baseline has been updated. 
 284:Generated_Source\PSoC4/CSD_Filter.c **** *
 285:Generated_Source\PSoC4/CSD_Filter.c **** *******************************************************************************/
 286:Generated_Source\PSoC4/CSD_Filter.c **** cystatus CSD_FtUpdateBaseline(
 287:Generated_Source\PSoC4/CSD_Filter.c ****                                 CSD_RAM_WD_BASE_STRUCT *ptrWidgetRam,
 288:Generated_Source\PSoC4/CSD_Filter.c ****                                 CSD_RAM_SNS_STRUCT *ptrSensor, 
 289:Generated_Source\PSoC4/CSD_Filter.c ****                                 uint32 wdType)
 290:Generated_Source\PSoC4/CSD_Filter.c **** {         
 343              		.loc 1 290 0
 344              		.cfi_startproc
 345 0000 80B5     		push	{r7, lr}
 346              		.cfi_def_cfa_offset 8
 347              		.cfi_offset 7, -8
 348              		.cfi_offset 14, -4
 349 0002 8AB0     		sub	sp, sp, #40
 350              		.cfi_def_cfa_offset 48
 351 0004 00AF     		add	r7, sp, #0
 352              		.cfi_def_cfa_register 7
 353 0006 F860     		str	r0, [r7, #12]
 354 0008 B960     		str	r1, [r7, #8]
 355 000a 7A60     		str	r2, [r7, #4]
 291:Generated_Source\PSoC4/CSD_Filter.c ****     uint32 sign;
 292:Generated_Source\PSoC4/CSD_Filter.c ****     uint32 difference;        
 293:Generated_Source\PSoC4/CSD_Filter.c ****     uint32 channel;
 294:Generated_Source\PSoC4/CSD_Filter.c ****     cystatus bslnStatus = CYRET_SUCCESS; 
 356              		.loc 1 294 0
 357 000c 0023     		mov	r3, #0
 358 000e BB61     		str	r3, [r7, #24]
 295:Generated_Source\PSoC4/CSD_Filter.c ****     
 296:Generated_Source\PSoC4/CSD_Filter.c ****     #if (CSD_TOTAL_WIDGETS)  
 297:Generated_Source\PSoC4/CSD_Filter.c ****         uint32 history;
 298:Generated_Source\PSoC4/CSD_Filter.c ****     #endif /* (CSD_TOTAL_WIDGETS) */    
 299:Generated_Source\PSoC4/CSD_Filter.c ****     
 300:Generated_Source\PSoC4/CSD_Filter.c ****     /* Apply baseline to every channel in sensor */
 301:Generated_Source\PSoC4/CSD_Filter.c ****     for(channel = CSD_NUM_SCAN_FREQS; channel-- > 0u;) 
 359              		.loc 1 301 0
 360 0010 0123     		mov	r3, #1
 361 0012 FB61     		str	r3, [r7, #28]
 362 0014 96E0     		b	.L24
 363              	.L31:
 302:Generated_Source\PSoC4/CSD_Filter.c ****     {               
 303:Generated_Source\PSoC4/CSD_Filter.c ****         /* Calculate signal value and its sign */
 304:Generated_Source\PSoC4/CSD_Filter.c ****         if(ptrSensor->raw[channel] >= ptrSensor->bsln[channel])
 364              		.loc 1 304 0
 365 0016 BB68     		ldr	r3, [r7, #8]
 366 0018 FA69     		ldr	r2, [r7, #28]
 367 001a 5200     		lsl	r2, r2, #1
 368 001c D25A     		ldrh	r2, [r2, r3]
 369 001e B968     		ldr	r1, [r7, #8]
 370 0020 FB69     		ldr	r3, [r7, #28]
 371 0022 5B00     		lsl	r3, r3, #1
 372 0024 CB18     		add	r3, r1, r3
 373 0026 5B88     		ldrh	r3, [r3, #2]
 374 0028 9A42     		cmp	r2, r3
 375 002a 14D3     		bcc	.L25
ARM GAS  C:\Users\CHRIST~1\AppData\Local\Temp\ccghn5Jm.s 			page 13


 305:Generated_Source\PSoC4/CSD_Filter.c ****         {
 306:Generated_Source\PSoC4/CSD_Filter.c ****             difference = (uint32)ptrSensor->raw[channel] - (uint32)ptrSensor->bsln[channel];
 376              		.loc 1 306 0
 377 002c BB68     		ldr	r3, [r7, #8]
 378 002e FA69     		ldr	r2, [r7, #28]
 379 0030 5200     		lsl	r2, r2, #1
 380 0032 D35A     		ldrh	r3, [r2, r3]
 381 0034 191C     		mov	r1, r3
 382 0036 BA68     		ldr	r2, [r7, #8]
 383 0038 FB69     		ldr	r3, [r7, #28]
 384 003a 5B00     		lsl	r3, r3, #1
 385 003c D318     		add	r3, r2, r3
 386 003e 5B88     		ldrh	r3, [r3, #2]
 387 0040 CB1A     		sub	r3, r1, r3
 388 0042 3B62     		str	r3, [r7, #32]
 307:Generated_Source\PSoC4/CSD_Filter.c ****             sign = 1u;
 389              		.loc 1 307 0
 390 0044 0123     		mov	r3, #1
 391 0046 7B62     		str	r3, [r7, #36]
 308:Generated_Source\PSoC4/CSD_Filter.c ****             ptrSensor->negBslnRstCnt[channel] = 0u;
 392              		.loc 1 308 0
 393 0048 BA68     		ldr	r2, [r7, #8]
 394 004a FB69     		ldr	r3, [r7, #28]
 395 004c D318     		add	r3, r2, r3
 396 004e 0833     		add	r3, r3, #8
 397 0050 0022     		mov	r2, #0
 398 0052 1A70     		strb	r2, [r3]
 399 0054 0DE0     		b	.L26
 400              	.L25:
 309:Generated_Source\PSoC4/CSD_Filter.c ****         }
 310:Generated_Source\PSoC4/CSD_Filter.c ****         else
 311:Generated_Source\PSoC4/CSD_Filter.c ****         {
 312:Generated_Source\PSoC4/CSD_Filter.c ****             difference = (uint32)ptrSensor->bsln[channel] - (uint32)ptrSensor->raw[channel];
 401              		.loc 1 312 0
 402 0056 BA68     		ldr	r2, [r7, #8]
 403 0058 FB69     		ldr	r3, [r7, #28]
 404 005a 5B00     		lsl	r3, r3, #1
 405 005c D318     		add	r3, r2, r3
 406 005e 5B88     		ldrh	r3, [r3, #2]
 407 0060 191C     		mov	r1, r3
 408 0062 BB68     		ldr	r3, [r7, #8]
 409 0064 FA69     		ldr	r2, [r7, #28]
 410 0066 5200     		lsl	r2, r2, #1
 411 0068 D35A     		ldrh	r3, [r2, r3]
 412 006a CB1A     		sub	r3, r1, r3
 413 006c 3B62     		str	r3, [r7, #32]
 313:Generated_Source\PSoC4/CSD_Filter.c ****             sign = 0u;
 414              		.loc 1 313 0
 415 006e 0023     		mov	r3, #0
 416 0070 7B62     		str	r3, [r7, #36]
 417              	.L26:
 314:Generated_Source\PSoC4/CSD_Filter.c ****         }     
 315:Generated_Source\PSoC4/CSD_Filter.c ****         
 316:Generated_Source\PSoC4/CSD_Filter.c ****         /* Reset baseline if condition is met */ 
 317:Generated_Source\PSoC4/CSD_Filter.c ****         if((sign == 0u) && (difference > (uint32) ptrWidgetRam->nNoiseTh))
 418              		.loc 1 317 0
 419 0072 7B6A     		ldr	r3, [r7, #36]
ARM GAS  C:\Users\CHRIST~1\AppData\Local\Temp\ccghn5Jm.s 			page 14


 420 0074 002B     		cmp	r3, #0
 421 0076 25D1     		bne	.L27
 422              		.loc 1 317 0 is_stmt 0 discriminator 1
 423 0078 FB68     		ldr	r3, [r7, #12]
 424 007a 5B79     		ldrb	r3, [r3, #5]
 425 007c 1A1E     		sub	r2, r3, #0
 426 007e 3B6A     		ldr	r3, [r7, #32]
 427 0080 9A42     		cmp	r2, r3
 428 0082 1FD2     		bcs	.L27
 318:Generated_Source\PSoC4/CSD_Filter.c ****         {
 319:Generated_Source\PSoC4/CSD_Filter.c ****             if(ptrSensor->negBslnRstCnt[channel] >= ptrWidgetRam->lowBslnRst)
 429              		.loc 1 319 0 is_stmt 1
 430 0084 BA68     		ldr	r2, [r7, #8]
 431 0086 FB69     		ldr	r3, [r7, #28]
 432 0088 D318     		add	r3, r2, r3
 433 008a 0833     		add	r3, r3, #8
 434 008c 1A78     		ldrb	r2, [r3]
 435 008e FB68     		ldr	r3, [r7, #12]
 436 0090 1B7A     		ldrb	r3, [r3, #8]
 437 0092 9A42     		cmp	r2, r3
 438 0094 08D3     		bcc	.L28
 320:Generated_Source\PSoC4/CSD_Filter.c ****             {                
 321:Generated_Source\PSoC4/CSD_Filter.c ****                 CSD_FtInitializeBaselineChannel(ptrSensor, wdType, channel);             
 439              		.loc 1 321 0
 440 0096 B968     		ldr	r1, [r7, #8]
 441 0098 7A68     		ldr	r2, [r7, #4]
 442 009a FB69     		ldr	r3, [r7, #28]
 443 009c 081C     		mov	r0, r1
 444 009e 111C     		mov	r1, r2
 445 00a0 1A1C     		mov	r2, r3
 446 00a2 FFF7FEFF 		bl	CSD_FtInitializeBaselineChannel
 447 00a6 0CE0     		b	.L29
 448              	.L28:
 322:Generated_Source\PSoC4/CSD_Filter.c ****             }
 323:Generated_Source\PSoC4/CSD_Filter.c ****             else
 324:Generated_Source\PSoC4/CSD_Filter.c ****             {
 325:Generated_Source\PSoC4/CSD_Filter.c ****                 ptrSensor->negBslnRstCnt[channel]++;
 449              		.loc 1 325 0
 450 00a8 BA68     		ldr	r2, [r7, #8]
 451 00aa FB69     		ldr	r3, [r7, #28]
 452 00ac D318     		add	r3, r2, r3
 453 00ae 0833     		add	r3, r3, #8
 454 00b0 1B78     		ldrb	r3, [r3]
 455 00b2 0133     		add	r3, r3, #1
 456 00b4 D9B2     		uxtb	r1, r3
 457 00b6 BA68     		ldr	r2, [r7, #8]
 458 00b8 FB69     		ldr	r3, [r7, #28]
 459 00ba D318     		add	r3, r2, r3
 460 00bc 0833     		add	r3, r3, #8
 461 00be 0A1C     		add	r2, r1, #0
 462 00c0 1A70     		strb	r2, [r3]
 463              	.L29:
 319:Generated_Source\PSoC4/CSD_Filter.c ****             {                
 464              		.loc 1 319 0
 465 00c2 3FE0     		b	.L24
 466              	.L27:
 326:Generated_Source\PSoC4/CSD_Filter.c ****             }
ARM GAS  C:\Users\CHRIST~1\AppData\Local\Temp\ccghn5Jm.s 			page 15


 327:Generated_Source\PSoC4/CSD_Filter.c ****         }
 328:Generated_Source\PSoC4/CSD_Filter.c ****         else
 329:Generated_Source\PSoC4/CSD_Filter.c ****         {
 330:Generated_Source\PSoC4/CSD_Filter.c ****             #if (!CSD_SENSOR_AUTO_RESET_EN)
 331:Generated_Source\PSoC4/CSD_Filter.c ****                 /* Update baseline only if signal is in range between noiseThreshold and negativeno
 332:Generated_Source\PSoC4/CSD_Filter.c ****                 if ((difference <= (uint32)ptrWidgetRam->noiseTh) ||
 467              		.loc 1 332 0
 468 00c4 FB68     		ldr	r3, [r7, #12]
 469 00c6 1B79     		ldrb	r3, [r3, #4]
 470 00c8 1A1E     		sub	r2, r3, #0
 471 00ca 3B6A     		ldr	r3, [r7, #32]
 472 00cc 9A42     		cmp	r2, r3
 473 00ce 08D2     		bcs	.L30
 333:Generated_Source\PSoC4/CSD_Filter.c ****                     ((difference < (uint32) ptrWidgetRam->nNoiseTh) && (sign == 0u)))
 474              		.loc 1 333 0 discriminator 1
 475 00d0 FB68     		ldr	r3, [r7, #12]
 476 00d2 5B79     		ldrb	r3, [r3, #5]
 477 00d4 1A1E     		sub	r2, r3, #0
 332:Generated_Source\PSoC4/CSD_Filter.c ****                     ((difference < (uint32) ptrWidgetRam->nNoiseTh) && (sign == 0u)))
 478              		.loc 1 332 0 discriminator 1
 479 00d6 3B6A     		ldr	r3, [r7, #32]
 480 00d8 9A42     		cmp	r2, r3
 481 00da 33D9     		bls	.L24
 482              		.loc 1 333 0
 483 00dc 7B6A     		ldr	r3, [r7, #36]
 484 00de 002B     		cmp	r3, #0
 485 00e0 30D1     		bne	.L24
 486              	.L30:
 334:Generated_Source\PSoC4/CSD_Filter.c ****                 {
 335:Generated_Source\PSoC4/CSD_Filter.c ****             #endif /* (CSD_CSD_AUTO_RESET == CSD_CSD_AUTO_RESET_DISABLE) */
 336:Generated_Source\PSoC4/CSD_Filter.c ****                     #if (CSD_BASELINE_TYPE == CSD_IIR_BASELINE)  
 337:Generated_Source\PSoC4/CSD_Filter.c ****                         
 338:Generated_Source\PSoC4/CSD_Filter.c ****                         /* Calculate baseline value */
 339:Generated_Source\PSoC4/CSD_Filter.c ****                         if ((CSD_WD_TYPE_ENUM)wdType != CSD_WD_PROXIMITY_E)
 487              		.loc 1 339 0
 488 00e2 7B68     		ldr	r3, [r7, #4]
 489 00e4 DBB2     		uxtb	r3, r3
 490 00e6 062B     		cmp	r3, #6
 491 00e8 2CD0     		beq	.L24
 340:Generated_Source\PSoC4/CSD_Filter.c ****                         {
 341:Generated_Source\PSoC4/CSD_Filter.c ****                             #if (CSD_REGULAR_SENSOR_EN) 
 342:Generated_Source\PSoC4/CSD_Filter.c ****                                 #if (CSD_REGULAR_IIR_BL_TYPE == CSD_IIR_FILTER_PERFORMANCE)        
 343:Generated_Source\PSoC4/CSD_Filter.c ****                                     history = (uint32) ptrSensor->bsln[channel] << 8u; 
 492              		.loc 1 343 0
 493 00ea BA68     		ldr	r2, [r7, #8]
 494 00ec FB69     		ldr	r3, [r7, #28]
 495 00ee 5B00     		lsl	r3, r3, #1
 496 00f0 D318     		add	r3, r2, r3
 497 00f2 5B88     		ldrh	r3, [r3, #2]
 498 00f4 1B02     		lsl	r3, r3, #8
 499 00f6 7B61     		str	r3, [r7, #20]
 344:Generated_Source\PSoC4/CSD_Filter.c ****                                     history |= ptrSensor->bslnExt[channel];
 500              		.loc 1 344 0
 501 00f8 BA68     		ldr	r2, [r7, #8]
 502 00fa FB69     		ldr	r3, [r7, #28]
 503 00fc D318     		add	r3, r2, r3
 504 00fe 1B79     		ldrb	r3, [r3, #4]
ARM GAS  C:\Users\CHRIST~1\AppData\Local\Temp\ccghn5Jm.s 			page 16


 505 0100 1A1C     		mov	r2, r3
 506 0102 7B69     		ldr	r3, [r7, #20]
 507 0104 1343     		orr	r3, r2
 508 0106 7B61     		str	r3, [r7, #20]
 345:Generated_Source\PSoC4/CSD_Filter.c ****                                 #else
 346:Generated_Source\PSoC4/CSD_Filter.c ****                                     history = ptrSensor->bsln[channel];                            
 347:Generated_Source\PSoC4/CSD_Filter.c ****                                 #endif /* (CSD_REGULAR_IIR_BL_TYPE == CSD_IIR_FILTER_PERFORMANCE) *
 348:Generated_Source\PSoC4/CSD_Filter.c ****                             
 349:Generated_Source\PSoC4/CSD_Filter.c ****                                 history =  CSD_FtIIR1stOrder(
 350:Generated_Source\PSoC4/CSD_Filter.c ****                                                 (uint32)ptrSensor->raw[channel],
 509              		.loc 1 350 0
 510 0108 BB68     		ldr	r3, [r7, #8]
 511 010a FA69     		ldr	r2, [r7, #28]
 512 010c 5200     		lsl	r2, r2, #1
 513 010e D35A     		ldrh	r3, [r2, r3]
 349:Generated_Source\PSoC4/CSD_Filter.c ****                                                 (uint32)ptrSensor->raw[channel],
 514              		.loc 1 349 0
 515 0110 1A1C     		mov	r2, r3
 516 0112 7B69     		ldr	r3, [r7, #20]
 517 0114 101C     		mov	r0, r2
 518 0116 191C     		mov	r1, r3
 519 0118 0122     		mov	r2, #1
 520 011a 0823     		mov	r3, #8
 521 011c FFF7FEFF 		bl	CSD_FtIIR1stOrder
 522 0120 031C     		mov	r3, r0
 523 0122 7B61     		str	r3, [r7, #20]
 351:Generated_Source\PSoC4/CSD_Filter.c ****                                                 history, 
 352:Generated_Source\PSoC4/CSD_Filter.c ****                                                 CSD_REGULAR_IIR_BL_N, 
 353:Generated_Source\PSoC4/CSD_Filter.c ****                                                 CSD_REGULAR_IIR_BL_SHIFT);
 354:Generated_Source\PSoC4/CSD_Filter.c ****                                                            
 355:Generated_Source\PSoC4/CSD_Filter.c ****                                 #if (CSD_REGULAR_IIR_BL_TYPE == CSD_IIR_FILTER_PERFORMANCE)        
 356:Generated_Source\PSoC4/CSD_Filter.c ****                                     ptrSensor->bsln[channel] = LO16(history >> 8u);
 524              		.loc 1 356 0
 525 0124 7B69     		ldr	r3, [r7, #20]
 526 0126 1B0A     		lsr	r3, r3, #8
 527 0128 99B2     		uxth	r1, r3
 528 012a BA68     		ldr	r2, [r7, #8]
 529 012c FB69     		ldr	r3, [r7, #28]
 530 012e 5B00     		lsl	r3, r3, #1
 531 0130 D318     		add	r3, r2, r3
 532 0132 0A1C     		add	r2, r1, #0
 533 0134 5A80     		strh	r2, [r3, #2]
 357:Generated_Source\PSoC4/CSD_Filter.c ****                                     ptrSensor->bslnExt[channel] = LO8(history);
 534              		.loc 1 357 0
 535 0136 7B69     		ldr	r3, [r7, #20]
 536 0138 D9B2     		uxtb	r1, r3
 537 013a BA68     		ldr	r2, [r7, #8]
 538 013c FB69     		ldr	r3, [r7, #28]
 539 013e D318     		add	r3, r2, r3
 540 0140 0A1C     		add	r2, r1, #0
 541 0142 1A71     		strb	r2, [r3, #4]
 542              	.L24:
 301:Generated_Source\PSoC4/CSD_Filter.c ****     {               
 543              		.loc 1 301 0 discriminator 1
 544 0144 FB69     		ldr	r3, [r7, #28]
 545 0146 5A1E     		sub	r2, r3, #1
 546 0148 FA61     		str	r2, [r7, #28]
ARM GAS  C:\Users\CHRIST~1\AppData\Local\Temp\ccghn5Jm.s 			page 17


 547 014a 002B     		cmp	r3, #0
 548 014c 00D0     		beq	.LCB478
 549 014e 62E7     		b	.L31	@long jump
 550              	.LCB478:
 358:Generated_Source\PSoC4/CSD_Filter.c ****                                 #else
 359:Generated_Source\PSoC4/CSD_Filter.c ****                                     ptrSensor->bsln[channel] = LO16(history);
 360:Generated_Source\PSoC4/CSD_Filter.c ****                                 #endif /* (CSD_REGULAR_IIR_BL_TYPE == CSD_IIR_FILTER_PERFORMANCE) *
 361:Generated_Source\PSoC4/CSD_Filter.c ****                             #endif /* (CSD_REGULAR_SENSOR_EN) */
 362:Generated_Source\PSoC4/CSD_Filter.c ****                         }
 363:Generated_Source\PSoC4/CSD_Filter.c ****                         else 
 364:Generated_Source\PSoC4/CSD_Filter.c ****                         {
 365:Generated_Source\PSoC4/CSD_Filter.c ****                             #if (CSD_PROXIMITY_SENSOR_EN)     
 366:Generated_Source\PSoC4/CSD_Filter.c ****                                 #if (CSD_PROX_IIR_BL_TYPE == CSD_IIR_FILTER_PERFORMANCE)           
 367:Generated_Source\PSoC4/CSD_Filter.c ****                                     history = (uint32) ptrSensor->bsln[channel] << 8u; 
 368:Generated_Source\PSoC4/CSD_Filter.c ****                                     history |= ptrSensor->bslnExt[channel];
 369:Generated_Source\PSoC4/CSD_Filter.c ****                                 #else
 370:Generated_Source\PSoC4/CSD_Filter.c ****                                     history = (uint32) ptrSensor->bsln[channel];                   
 371:Generated_Source\PSoC4/CSD_Filter.c ****                                 #endif /* (CSD_PROX_IIR_BL_TYPE == CSD_IIR_FILTER_PERFORMANCE) */ 
 372:Generated_Source\PSoC4/CSD_Filter.c ****                                 
 373:Generated_Source\PSoC4/CSD_Filter.c ****                                 history = CSD_FtIIR1stOrder((uint32)ptrSensor->raw[channel], histor
 374:Generated_Source\PSoC4/CSD_Filter.c ****                                 
 375:Generated_Source\PSoC4/CSD_Filter.c ****                                 #if (CSD_PROX_IIR_BL_TYPE == CSD_IIR_FILTER_PERFORMANCE)           
 376:Generated_Source\PSoC4/CSD_Filter.c ****                                     ptrSensor->bsln[channel] = LO16(history >> 8u);
 377:Generated_Source\PSoC4/CSD_Filter.c ****                                     ptrSensor->bslnExt[channel] = LO8(history);
 378:Generated_Source\PSoC4/CSD_Filter.c ****                                 #else
 379:Generated_Source\PSoC4/CSD_Filter.c ****                                     ptrSensor->bsln[channel] = LO16(history);
 380:Generated_Source\PSoC4/CSD_Filter.c ****                                 #endif /* (CSD_PROX_IIR_BL_TYPE == CSD_IIR_FILTER_PERFORMANCE) */  
 381:Generated_Source\PSoC4/CSD_Filter.c ****                             #endif /* (CSD_PROX_SENSOR_EN)   */
 382:Generated_Source\PSoC4/CSD_Filter.c ****                         }
 383:Generated_Source\PSoC4/CSD_Filter.c ****                     #else
 384:Generated_Source\PSoC4/CSD_Filter.c ****                         
 385:Generated_Source\PSoC4/CSD_Filter.c ****                         /******************************************************************
 386:Generated_Source\PSoC4/CSD_Filter.c ****                         * This is the place where the bucket algorithm should be implemented.
 387:Generated_Source\PSoC4/CSD_Filter.c ****                         * The bucket method will be implemented in the next component version.
 388:Generated_Source\PSoC4/CSD_Filter.c ****                         *******************************************************************/
 389:Generated_Source\PSoC4/CSD_Filter.c ****                         
 390:Generated_Source\PSoC4/CSD_Filter.c ****                     #endif /* (CSD_CSD_BASELINE_TYPE == CSD_IIR_BASELINE)  */
 391:Generated_Source\PSoC4/CSD_Filter.c ****                     
 392:Generated_Source\PSoC4/CSD_Filter.c ****             #if (!CSD_SENSOR_AUTO_RESET_EN)
 393:Generated_Source\PSoC4/CSD_Filter.c ****                 }
 394:Generated_Source\PSoC4/CSD_Filter.c ****             #endif /* (!CSD_SENSOR_AUTO_RESET_EN) */
 395:Generated_Source\PSoC4/CSD_Filter.c ****         }
 396:Generated_Source\PSoC4/CSD_Filter.c ****     }
 397:Generated_Source\PSoC4/CSD_Filter.c ****     
 398:Generated_Source\PSoC4/CSD_Filter.c ****     return(bslnStatus);    
 551              		.loc 1 398 0
 552 0150 BB69     		ldr	r3, [r7, #24]
 399:Generated_Source\PSoC4/CSD_Filter.c **** }
 553              		.loc 1 399 0
 554 0152 181C     		mov	r0, r3
 555 0154 BD46     		mov	sp, r7
 556 0156 0AB0     		add	sp, sp, #40
 557              		@ sp needed
 558 0158 80BD     		pop	{r7, pc}
 559              		.cfi_endproc
 560              	.LFE5:
 561              		.size	CSD_FtUpdateBaseline, .-CSD_FtUpdateBaseline
ARM GAS  C:\Users\CHRIST~1\AppData\Local\Temp\ccghn5Jm.s 			page 18


 562 015a C046     		.section	.text.CSD_InitializeAllBaselines,"ax",%progbits
 563              		.align	2
 564              		.global	CSD_InitializeAllBaselines
 565              		.code	16
 566              		.thumb_func
 567              		.type	CSD_InitializeAllBaselines, %function
 568              	CSD_InitializeAllBaselines:
 569              	.LFB6:
 400:Generated_Source\PSoC4/CSD_Filter.c **** 
 401:Generated_Source\PSoC4/CSD_Filter.c **** 
 402:Generated_Source\PSoC4/CSD_Filter.c **** /*******************************************************************************
 403:Generated_Source\PSoC4/CSD_Filter.c **** * Function Name: CSD_InitializeAllBaselines
 404:Generated_Source\PSoC4/CSD_Filter.c **** ****************************************************************************//**
 405:Generated_Source\PSoC4/CSD_Filter.c **** *
 406:Generated_Source\PSoC4/CSD_Filter.c **** * \brief    
 407:Generated_Source\PSoC4/CSD_Filter.c **** *  Initializes (or re-initialize) the baseline of all sensors of all widgets.
 408:Generated_Source\PSoC4/CSD_Filter.c **** *
 409:Generated_Source\PSoC4/CSD_Filter.c **** * \details  
 410:Generated_Source\PSoC4/CSD_Filter.c **** *  Initializes the baseline for all sensors of all widgets. Also, this function
 411:Generated_Source\PSoC4/CSD_Filter.c **** *  can be used to re-initialize baselines. CSD_Start() calls this 
 412:Generated_Source\PSoC4/CSD_Filter.c **** *  API as part of CSD operation initialization.
 413:Generated_Source\PSoC4/CSD_Filter.c **** *
 414:Generated_Source\PSoC4/CSD_Filter.c **** *******************************************************************************/
 415:Generated_Source\PSoC4/CSD_Filter.c **** void CSD_InitializeAllBaselines(void)
 416:Generated_Source\PSoC4/CSD_Filter.c **** {
 570              		.loc 1 416 0
 571              		.cfi_startproc
 572 0000 80B5     		push	{r7, lr}
 573              		.cfi_def_cfa_offset 8
 574              		.cfi_offset 7, -8
 575              		.cfi_offset 14, -4
 576 0002 82B0     		sub	sp, sp, #8
 577              		.cfi_def_cfa_offset 16
 578 0004 00AF     		add	r7, sp, #0
 579              		.cfi_def_cfa_register 7
 417:Generated_Source\PSoC4/CSD_Filter.c ****     uint32 widgetId;    
 418:Generated_Source\PSoC4/CSD_Filter.c ****     
 419:Generated_Source\PSoC4/CSD_Filter.c ****     for(widgetId = CSD_TOTAL_WIDGETS; widgetId-- > 0u;)
 580              		.loc 1 419 0
 581 0006 0123     		mov	r3, #1
 582 0008 7B60     		str	r3, [r7, #4]
 583 000a 03E0     		b	.L34
 584              	.L35:
 420:Generated_Source\PSoC4/CSD_Filter.c ****     {
 421:Generated_Source\PSoC4/CSD_Filter.c ****         CSD_InitializeWidgetBaseline(widgetId); 
 585              		.loc 1 421 0
 586 000c 7B68     		ldr	r3, [r7, #4]
 587 000e 181C     		mov	r0, r3
 588 0010 FFF7FEFF 		bl	CSD_InitializeWidgetBaseline
 589              	.L34:
 419:Generated_Source\PSoC4/CSD_Filter.c ****     {
 590              		.loc 1 419 0 discriminator 1
 591 0014 7B68     		ldr	r3, [r7, #4]
 592 0016 5A1E     		sub	r2, r3, #1
 593 0018 7A60     		str	r2, [r7, #4]
 594 001a 002B     		cmp	r3, #0
 595 001c F6D1     		bne	.L35
ARM GAS  C:\Users\CHRIST~1\AppData\Local\Temp\ccghn5Jm.s 			page 19


 422:Generated_Source\PSoC4/CSD_Filter.c ****     }
 423:Generated_Source\PSoC4/CSD_Filter.c **** }
 596              		.loc 1 423 0
 597 001e BD46     		mov	sp, r7
 598 0020 02B0     		add	sp, sp, #8
 599              		@ sp needed
 600 0022 80BD     		pop	{r7, pc}
 601              		.cfi_endproc
 602              	.LFE6:
 603              		.size	CSD_InitializeAllBaselines, .-CSD_InitializeAllBaselines
 604              		.section	.text.CSD_InitializeWidgetBaseline,"ax",%progbits
 605              		.align	2
 606              		.global	CSD_InitializeWidgetBaseline
 607              		.code	16
 608              		.thumb_func
 609              		.type	CSD_InitializeWidgetBaseline, %function
 610              	CSD_InitializeWidgetBaseline:
 611              	.LFB7:
 424:Generated_Source\PSoC4/CSD_Filter.c **** 
 425:Generated_Source\PSoC4/CSD_Filter.c **** 
 426:Generated_Source\PSoC4/CSD_Filter.c **** /*******************************************************************************
 427:Generated_Source\PSoC4/CSD_Filter.c **** * Function Name: CSD_InitializeWidgetBaseline
 428:Generated_Source\PSoC4/CSD_Filter.c **** ****************************************************************************//**
 429:Generated_Source\PSoC4/CSD_Filter.c **** *
 430:Generated_Source\PSoC4/CSD_Filter.c **** * \brief    
 431:Generated_Source\PSoC4/CSD_Filter.c **** *  Initializes (or re-initialize) the baseline of all sensors in a widget 
 432:Generated_Source\PSoC4/CSD_Filter.c **** *  specified by input parameter. 
 433:Generated_Source\PSoC4/CSD_Filter.c **** *
 434:Generated_Source\PSoC4/CSD_Filter.c **** * \details  
 435:Generated_Source\PSoC4/CSD_Filter.c **** *  Initializes (or re-initializes) the baseline for all sensors of the 
 436:Generated_Source\PSoC4/CSD_Filter.c **** *  specified widget.
 437:Generated_Source\PSoC4/CSD_Filter.c **** *
 438:Generated_Source\PSoC4/CSD_Filter.c **** * \param  widgetId 
 439:Generated_Source\PSoC4/CSD_Filter.c **** *  Specify the ID number of a widget to initialize the baseline of all sensors
 440:Generated_Source\PSoC4/CSD_Filter.c **** *  in the widget. 
 441:Generated_Source\PSoC4/CSD_Filter.c **** *  A macro for the widget ID can be found in the 
 442:Generated_Source\PSoC4/CSD_Filter.c **** *  CSD_Configuration.h file defined as 
 443:Generated_Source\PSoC4/CSD_Filter.c **** *  CSD_<WidgetName>_WDGT_ID Specifies the ID of the widget.
 444:Generated_Source\PSoC4/CSD_Filter.c **** *
 445:Generated_Source\PSoC4/CSD_Filter.c **** *******************************************************************************/
 446:Generated_Source\PSoC4/CSD_Filter.c **** void CSD_InitializeWidgetBaseline(uint32 widgetId)
 447:Generated_Source\PSoC4/CSD_Filter.c **** {   
 612              		.loc 1 447 0
 613              		.cfi_startproc
 614 0000 80B5     		push	{r7, lr}
 615              		.cfi_def_cfa_offset 8
 616              		.cfi_offset 7, -8
 617              		.cfi_offset 14, -4
 618 0002 86B0     		sub	sp, sp, #24
 619              		.cfi_def_cfa_offset 32
 620 0004 00AF     		add	r7, sp, #0
 621              		.cfi_def_cfa_register 7
 622 0006 7860     		str	r0, [r7, #4]
 448:Generated_Source\PSoC4/CSD_Filter.c ****     uint32 sensorId;
 449:Generated_Source\PSoC4/CSD_Filter.c ****     uint32 sensorsNumber;
 450:Generated_Source\PSoC4/CSD_Filter.c ****   
 451:Generated_Source\PSoC4/CSD_Filter.c ****     CSD_FLASH_WD_STRUCT const *ptrWidget = &CSD_dsFlash.wdgtArray[widgetId];
ARM GAS  C:\Users\CHRIST~1\AppData\Local\Temp\ccghn5Jm.s 			page 20


 623              		.loc 1 451 0
 624 0008 7A68     		ldr	r2, [r7, #4]
 625 000a 131C     		mov	r3, r2
 626 000c DB00     		lsl	r3, r3, #3
 627 000e 9B1A     		sub	r3, r3, r2
 628 0010 9B00     		lsl	r3, r3, #2
 629 0012 0B4A     		ldr	r2, .L39
 630 0014 9B18     		add	r3, r3, r2
 631 0016 3B61     		str	r3, [r7, #16]
 452:Generated_Source\PSoC4/CSD_Filter.c **** 
 453:Generated_Source\PSoC4/CSD_Filter.c ****     /* Find total amount of sensors in specified widget */   
 454:Generated_Source\PSoC4/CSD_Filter.c ****     sensorsNumber = CSD_GET_SNS_CNT_BY_PTR(ptrWidget);    
 632              		.loc 1 454 0
 633 0018 3B69     		ldr	r3, [r7, #16]
 634 001a DB8A     		ldrh	r3, [r3, #22]
 635 001c FB60     		str	r3, [r7, #12]
 455:Generated_Source\PSoC4/CSD_Filter.c ****     
 456:Generated_Source\PSoC4/CSD_Filter.c ****     for(sensorId = sensorsNumber; sensorId-- > 0u;)
 636              		.loc 1 456 0
 637 001e FB68     		ldr	r3, [r7, #12]
 638 0020 7B61     		str	r3, [r7, #20]
 639 0022 05E0     		b	.L37
 640              	.L38:
 457:Generated_Source\PSoC4/CSD_Filter.c ****     {
 458:Generated_Source\PSoC4/CSD_Filter.c ****         CSD_InitializeSensorBaseline(widgetId, sensorId);   
 641              		.loc 1 458 0
 642 0024 7A68     		ldr	r2, [r7, #4]
 643 0026 7B69     		ldr	r3, [r7, #20]
 644 0028 101C     		mov	r0, r2
 645 002a 191C     		mov	r1, r3
 646 002c FFF7FEFF 		bl	CSD_InitializeSensorBaseline
 647              	.L37:
 456:Generated_Source\PSoC4/CSD_Filter.c ****     {
 648              		.loc 1 456 0 discriminator 1
 649 0030 7B69     		ldr	r3, [r7, #20]
 650 0032 5A1E     		sub	r2, r3, #1
 651 0034 7A61     		str	r2, [r7, #20]
 652 0036 002B     		cmp	r3, #0
 653 0038 F4D1     		bne	.L38
 459:Generated_Source\PSoC4/CSD_Filter.c ****     }
 460:Generated_Source\PSoC4/CSD_Filter.c **** }
 654              		.loc 1 460 0
 655 003a BD46     		mov	sp, r7
 656 003c 06B0     		add	sp, sp, #24
 657              		@ sp needed
 658 003e 80BD     		pop	{r7, pc}
 659              	.L40:
 660              		.align	2
 661              	.L39:
 662 0040 00000000 		.word	CSD_dsFlash
 663              		.cfi_endproc
 664              	.LFE7:
 665              		.size	CSD_InitializeWidgetBaseline, .-CSD_InitializeWidgetBaseline
 666              		.section	.text.CSD_InitializeSensorBaseline,"ax",%progbits
 667              		.align	2
 668              		.global	CSD_InitializeSensorBaseline
 669              		.code	16
ARM GAS  C:\Users\CHRIST~1\AppData\Local\Temp\ccghn5Jm.s 			page 21


 670              		.thumb_func
 671              		.type	CSD_InitializeSensorBaseline, %function
 672              	CSD_InitializeSensorBaseline:
 673              	.LFB8:
 461:Generated_Source\PSoC4/CSD_Filter.c **** 
 462:Generated_Source\PSoC4/CSD_Filter.c **** 
 463:Generated_Source\PSoC4/CSD_Filter.c **** /*******************************************************************************
 464:Generated_Source\PSoC4/CSD_Filter.c **** * Function Name: CSD_InitializeSensorBaseline
 465:Generated_Source\PSoC4/CSD_Filter.c **** ****************************************************************************//**
 466:Generated_Source\PSoC4/CSD_Filter.c **** *
 467:Generated_Source\PSoC4/CSD_Filter.c **** * \brief
 468:Generated_Source\PSoC4/CSD_Filter.c **** *  Initializes (or re-initialize) the baseline of a sensor in a widget specified
 469:Generated_Source\PSoC4/CSD_Filter.c **** *  by input parameters.
 470:Generated_Source\PSoC4/CSD_Filter.c **** *
 471:Generated_Source\PSoC4/CSD_Filter.c **** * \details  
 472:Generated_Source\PSoC4/CSD_Filter.c **** *  Initializes (or re-initializes) the baseline for a specified sensor within
 473:Generated_Source\PSoC4/CSD_Filter.c **** *  a specified widget.
 474:Generated_Source\PSoC4/CSD_Filter.c **** *
 475:Generated_Source\PSoC4/CSD_Filter.c **** * \param    widgetId 
 476:Generated_Source\PSoC4/CSD_Filter.c **** *  Specify the ID number of a widget to initialize the baseline of all sensors
 477:Generated_Source\PSoC4/CSD_Filter.c **** *  in the widget.
 478:Generated_Source\PSoC4/CSD_Filter.c **** *  A macro for the widget ID can be found in the 
 479:Generated_Source\PSoC4/CSD_Filter.c **** *  CSD_Configuration.h file defined as 
 480:Generated_Source\PSoC4/CSD_Filter.c **** *  CSD_<WidgetName>_WDGT_ID Specifies the ID of the widget.
 481:Generated_Source\PSoC4/CSD_Filter.c **** *  
 482:Generated_Source\PSoC4/CSD_Filter.c **** * \param    sensorId 
 483:Generated_Source\PSoC4/CSD_Filter.c **** *  Specify the ID number of the sensor within the widget to initialize its 
 484:Generated_Source\PSoC4/CSD_Filter.c **** *  baseline.
 485:Generated_Source\PSoC4/CSD_Filter.c **** *  A macro for the sensor ID within a specified widget can be found in the 
 486:Generated_Source\PSoC4/CSD_Filter.c **** *  CSD_Configuration.h file defined as 
 487:Generated_Source\PSoC4/CSD_Filter.c **** *  CSD_<WidgetName>_SNS<SensorNumber>_ID
 488:Generated_Source\PSoC4/CSD_Filter.c **** *
 489:Generated_Source\PSoC4/CSD_Filter.c **** *******************************************************************************/
 490:Generated_Source\PSoC4/CSD_Filter.c **** void CSD_InitializeSensorBaseline(uint32 widgetId, uint32 sensorId)
 491:Generated_Source\PSoC4/CSD_Filter.c **** {      
 674              		.loc 1 491 0
 675              		.cfi_startproc
 676 0000 80B5     		push	{r7, lr}
 677              		.cfi_def_cfa_offset 8
 678              		.cfi_offset 7, -8
 679              		.cfi_offset 14, -4
 680 0002 84B0     		sub	sp, sp, #16
 681              		.cfi_def_cfa_offset 24
 682 0004 00AF     		add	r7, sp, #0
 683              		.cfi_def_cfa_register 7
 684 0006 7860     		str	r0, [r7, #4]
 685 0008 3960     		str	r1, [r7]
 492:Generated_Source\PSoC4/CSD_Filter.c ****     CSD_RAM_SNS_STRUCT *ptrSensor = NULL;    
 686              		.loc 1 492 0
 687 000a 0023     		mov	r3, #0
 688 000c FB60     		str	r3, [r7, #12]
 493:Generated_Source\PSoC4/CSD_Filter.c ****     CSD_FLASH_WD_STRUCT const *ptrWidget = NULL;
 689              		.loc 1 493 0
 690 000e 0023     		mov	r3, #0
 691 0010 BB60     		str	r3, [r7, #8]
 494:Generated_Source\PSoC4/CSD_Filter.c ****     ptrWidget = &CSD_dsFlash.wdgtArray[widgetId];
 692              		.loc 1 494 0
ARM GAS  C:\Users\CHRIST~1\AppData\Local\Temp\ccghn5Jm.s 			page 22


 693 0012 7A68     		ldr	r2, [r7, #4]
 694 0014 131C     		mov	r3, r2
 695 0016 DB00     		lsl	r3, r3, #3
 696 0018 9B1A     		sub	r3, r3, r2
 697 001a 9B00     		lsl	r3, r3, #2
 698 001c 0C4A     		ldr	r2, .L42
 699 001e 9B18     		add	r3, r3, r2
 700 0020 BB60     		str	r3, [r7, #8]
 495:Generated_Source\PSoC4/CSD_Filter.c ****     
 496:Generated_Source\PSoC4/CSD_Filter.c ****     /* Find pointer to specified sensor object */     
 497:Generated_Source\PSoC4/CSD_Filter.c ****     ptrSensor = ptrWidget->ptr2SnsRam;
 701              		.loc 1 497 0
 702 0022 BB68     		ldr	r3, [r7, #8]
 703 0024 9B68     		ldr	r3, [r3, #8]
 704 0026 FB60     		str	r3, [r7, #12]
 498:Generated_Source\PSoC4/CSD_Filter.c ****     ptrSensor = &ptrSensor[sensorId];
 705              		.loc 1 498 0
 706 0028 3A68     		ldr	r2, [r7]
 707 002a 131C     		mov	r3, r2
 708 002c 9B00     		lsl	r3, r3, #2
 709 002e 9B18     		add	r3, r3, r2
 710 0030 5B00     		lsl	r3, r3, #1
 711 0032 1A1C     		mov	r2, r3
 712 0034 FB68     		ldr	r3, [r7, #12]
 713 0036 9B18     		add	r3, r3, r2
 714 0038 FB60     		str	r3, [r7, #12]
 499:Generated_Source\PSoC4/CSD_Filter.c ****     
 500:Generated_Source\PSoC4/CSD_Filter.c ****     CSD_FtInitializeBaseline(ptrSensor, (uint32)ptrWidget->wdgtType);      
 715              		.loc 1 500 0
 716 003a BB68     		ldr	r3, [r7, #8]
 717 003c 1B7E     		ldrb	r3, [r3, #24]
 718 003e 1A1C     		mov	r2, r3
 719 0040 FB68     		ldr	r3, [r7, #12]
 720 0042 181C     		mov	r0, r3
 721 0044 111C     		mov	r1, r2
 722 0046 FFF7FEFF 		bl	CSD_FtInitializeBaseline
 501:Generated_Source\PSoC4/CSD_Filter.c **** }
 723              		.loc 1 501 0
 724 004a BD46     		mov	sp, r7
 725 004c 04B0     		add	sp, sp, #16
 726              		@ sp needed
 727 004e 80BD     		pop	{r7, pc}
 728              	.L43:
 729              		.align	2
 730              	.L42:
 731 0050 00000000 		.word	CSD_dsFlash
 732              		.cfi_endproc
 733              	.LFE8:
 734              		.size	CSD_InitializeSensorBaseline, .-CSD_InitializeSensorBaseline
 735              		.section	.text.CSD_FtInitializeBaseline,"ax",%progbits
 736              		.align	2
 737              		.global	CSD_FtInitializeBaseline
 738              		.code	16
 739              		.thumb_func
 740              		.type	CSD_FtInitializeBaseline, %function
 741              	CSD_FtInitializeBaseline:
 742              	.LFB9:
ARM GAS  C:\Users\CHRIST~1\AppData\Local\Temp\ccghn5Jm.s 			page 23


 502:Generated_Source\PSoC4/CSD_Filter.c **** 
 503:Generated_Source\PSoC4/CSD_Filter.c **** 
 504:Generated_Source\PSoC4/CSD_Filter.c **** /*******************************************************************************
 505:Generated_Source\PSoC4/CSD_Filter.c **** * Function Name: CSD_FtInitializeBaseline
 506:Generated_Source\PSoC4/CSD_Filter.c **** ****************************************************************************//**
 507:Generated_Source\PSoC4/CSD_Filter.c **** *
 508:Generated_Source\PSoC4/CSD_Filter.c **** * \brief    Initializes the baseline history for a sensor indicated by an input
 509:Generated_Source\PSoC4/CSD_Filter.c **** *           parameter.
 510:Generated_Source\PSoC4/CSD_Filter.c **** *
 511:Generated_Source\PSoC4/CSD_Filter.c **** * \details  Initializes the baseline history for a sensor indicated by an input
 512:Generated_Source\PSoC4/CSD_Filter.c **** *           parameter.
 513:Generated_Source\PSoC4/CSD_Filter.c **** *
 514:Generated_Source\PSoC4/CSD_Filter.c **** * \param    *ptrSensor The pointer to the sensor RAM object.
 515:Generated_Source\PSoC4/CSD_Filter.c **** * \param    wdType     Specifies the type of a widget.
 516:Generated_Source\PSoC4/CSD_Filter.c **** *
 517:Generated_Source\PSoC4/CSD_Filter.c **** *******************************************************************************/
 518:Generated_Source\PSoC4/CSD_Filter.c **** CY_INLINE void CSD_FtInitializeBaseline(CSD_RAM_SNS_STRUCT *ptrSensor, uint32 wdType) 
 519:Generated_Source\PSoC4/CSD_Filter.c **** {
 743              		.loc 1 519 0
 744              		.cfi_startproc
 745 0000 80B5     		push	{r7, lr}
 746              		.cfi_def_cfa_offset 8
 747              		.cfi_offset 7, -8
 748              		.cfi_offset 14, -4
 749 0002 84B0     		sub	sp, sp, #16
 750              		.cfi_def_cfa_offset 24
 751 0004 00AF     		add	r7, sp, #0
 752              		.cfi_def_cfa_register 7
 753 0006 7860     		str	r0, [r7, #4]
 754 0008 3960     		str	r1, [r7]
 520:Generated_Source\PSoC4/CSD_Filter.c ****     uint32 channel;
 521:Generated_Source\PSoC4/CSD_Filter.c **** 
 522:Generated_Source\PSoC4/CSD_Filter.c ****     /* Apply baseline initialization to every channel in sensor */    
 523:Generated_Source\PSoC4/CSD_Filter.c ****     for(channel = CSD_NUM_SCAN_FREQS; channel-- > 0u;) 
 755              		.loc 1 523 0
 756 000a 0123     		mov	r3, #1
 757 000c FB60     		str	r3, [r7, #12]
 758 000e 07E0     		b	.L45
 759              	.L46:
 524:Generated_Source\PSoC4/CSD_Filter.c ****     {
 525:Generated_Source\PSoC4/CSD_Filter.c ****         CSD_FtInitializeBaselineChannel(ptrSensor, wdType, channel); 
 760              		.loc 1 525 0
 761 0010 7968     		ldr	r1, [r7, #4]
 762 0012 3A68     		ldr	r2, [r7]
 763 0014 FB68     		ldr	r3, [r7, #12]
 764 0016 081C     		mov	r0, r1
 765 0018 111C     		mov	r1, r2
 766 001a 1A1C     		mov	r2, r3
 767 001c FFF7FEFF 		bl	CSD_FtInitializeBaselineChannel
 768              	.L45:
 523:Generated_Source\PSoC4/CSD_Filter.c ****     {
 769              		.loc 1 523 0 discriminator 1
 770 0020 FB68     		ldr	r3, [r7, #12]
 771 0022 5A1E     		sub	r2, r3, #1
 772 0024 FA60     		str	r2, [r7, #12]
 773 0026 002B     		cmp	r3, #0
 774 0028 F2D1     		bne	.L46
ARM GAS  C:\Users\CHRIST~1\AppData\Local\Temp\ccghn5Jm.s 			page 24


 526:Generated_Source\PSoC4/CSD_Filter.c ****     }
 527:Generated_Source\PSoC4/CSD_Filter.c **** }
 775              		.loc 1 527 0
 776 002a BD46     		mov	sp, r7
 777 002c 04B0     		add	sp, sp, #16
 778              		@ sp needed
 779 002e 80BD     		pop	{r7, pc}
 780              		.cfi_endproc
 781              	.LFE9:
 782              		.size	CSD_FtInitializeBaseline, .-CSD_FtInitializeBaseline
 783              		.section	.text.CSD_FtInitializeBaselineChannel,"ax",%progbits
 784              		.align	2
 785              		.global	CSD_FtInitializeBaselineChannel
 786              		.code	16
 787              		.thumb_func
 788              		.type	CSD_FtInitializeBaselineChannel, %function
 789              	CSD_FtInitializeBaselineChannel:
 790              	.LFB10:
 528:Generated_Source\PSoC4/CSD_Filter.c **** 
 529:Generated_Source\PSoC4/CSD_Filter.c **** 
 530:Generated_Source\PSoC4/CSD_Filter.c **** /*******************************************************************************
 531:Generated_Source\PSoC4/CSD_Filter.c **** * Function Name: CSD_FtInitializeBaselineChannel
 532:Generated_Source\PSoC4/CSD_Filter.c **** ****************************************************************************//**
 533:Generated_Source\PSoC4/CSD_Filter.c **** *
 534:Generated_Source\PSoC4/CSD_Filter.c **** * \brief    Initializes the baseline history for a sensor indicated by an input
 535:Generated_Source\PSoC4/CSD_Filter.c **** *           parameter.
 536:Generated_Source\PSoC4/CSD_Filter.c **** *
 537:Generated_Source\PSoC4/CSD_Filter.c **** * \details  Initializes the baseline history for a sensor indicated by an input
 538:Generated_Source\PSoC4/CSD_Filter.c **** *           parameter.
 539:Generated_Source\PSoC4/CSD_Filter.c **** *
 540:Generated_Source\PSoC4/CSD_Filter.c **** * \param    *ptrSensor The pointer to the sensor RAM object.
 541:Generated_Source\PSoC4/CSD_Filter.c **** * \param    wdType     Specifies the type of a widget.
 542:Generated_Source\PSoC4/CSD_Filter.c **** * \param    channel    Specifies the number of the channel to be initialized.
 543:Generated_Source\PSoC4/CSD_Filter.c **** *
 544:Generated_Source\PSoC4/CSD_Filter.c **** *******************************************************************************/
 545:Generated_Source\PSoC4/CSD_Filter.c **** void CSD_FtInitializeBaselineChannel(CSD_RAM_SNS_STRUCT *ptrSensor, uint32 wdType, uint32 channel) 
 546:Generated_Source\PSoC4/CSD_Filter.c **** {
 791              		.loc 1 546 0
 792              		.cfi_startproc
 793 0000 80B5     		push	{r7, lr}
 794              		.cfi_def_cfa_offset 8
 795              		.cfi_offset 7, -8
 796              		.cfi_offset 14, -4
 797 0002 84B0     		sub	sp, sp, #16
 798              		.cfi_def_cfa_offset 24
 799 0004 00AF     		add	r7, sp, #0
 800              		.cfi_def_cfa_register 7
 801 0006 F860     		str	r0, [r7, #12]
 802 0008 B960     		str	r1, [r7, #8]
 803 000a 7A60     		str	r2, [r7, #4]
 547:Generated_Source\PSoC4/CSD_Filter.c ****     #if (CSD_BASELINE_TYPE == CSD_IIR_BASELINE)  
 548:Generated_Source\PSoC4/CSD_Filter.c ****         if ((CSD_WD_TYPE_ENUM)wdType != CSD_WD_PROXIMITY_E)
 804              		.loc 1 548 0
 805 000c BB68     		ldr	r3, [r7, #8]
 806 000e DBB2     		uxtb	r3, r3
 807 0010 062B     		cmp	r3, #6
 808 0012 04D0     		beq	.L48
ARM GAS  C:\Users\CHRIST~1\AppData\Local\Temp\ccghn5Jm.s 			page 25


 549:Generated_Source\PSoC4/CSD_Filter.c ****         {
 550:Generated_Source\PSoC4/CSD_Filter.c ****             #if (CSD_REGULAR_SENSOR_EN)
 551:Generated_Source\PSoC4/CSD_Filter.c ****                 #if (CSD_REGULAR_IIR_BL_TYPE == CSD_IIR_FILTER_PERFORMANCE)                    
 552:Generated_Source\PSoC4/CSD_Filter.c ****                     ptrSensor->bslnExt[channel] = 0u;                
 809              		.loc 1 552 0
 810 0014 FA68     		ldr	r2, [r7, #12]
 811 0016 7B68     		ldr	r3, [r7, #4]
 812 0018 D318     		add	r3, r2, r3
 813 001a 0022     		mov	r2, #0
 814 001c 1A71     		strb	r2, [r3, #4]
 815              	.L48:
 553:Generated_Source\PSoC4/CSD_Filter.c ****                 #endif /* (CSD_REGULAR_IIR_BL_TYPE == CSD_IIR_FILTER_PERFORMANCE) */
 554:Generated_Source\PSoC4/CSD_Filter.c ****             #endif /* (CSD_REGULAR_SENSOR_EN) */
 555:Generated_Source\PSoC4/CSD_Filter.c ****         }
 556:Generated_Source\PSoC4/CSD_Filter.c ****         else
 557:Generated_Source\PSoC4/CSD_Filter.c ****         {
 558:Generated_Source\PSoC4/CSD_Filter.c ****             #if (CSD_PROXIMITY_SENSOR_EN)     
 559:Generated_Source\PSoC4/CSD_Filter.c ****                 #if (CSD_PROX_IIR_BL_TYPE == CSD_IIR_FILTER_PERFORMANCE)                   
 560:Generated_Source\PSoC4/CSD_Filter.c ****                     ptrSensor->bslnExt[channel] = 0u;               
 561:Generated_Source\PSoC4/CSD_Filter.c ****                 #endif /* (CSD_PROX_IIR_BL_TYPE == CSD_IIR_FILTER_PERFORMANCE) */
 562:Generated_Source\PSoC4/CSD_Filter.c ****             #endif /* (CSD_PROX_SENSOR_EN) */
 563:Generated_Source\PSoC4/CSD_Filter.c ****         }
 564:Generated_Source\PSoC4/CSD_Filter.c ****     #else
 565:Generated_Source\PSoC4/CSD_Filter.c ****         /* CSD_BASELINE_TYPE == CSD_BUCKET_BASELINE */        
 566:Generated_Source\PSoC4/CSD_Filter.c ****         ptrSensor->bslnExt[channel] = 0u;        
 567:Generated_Source\PSoC4/CSD_Filter.c ****     #endif /* (CSD_BASELINE_TYPE == CSD_IIR_BASELINE) */      
 568:Generated_Source\PSoC4/CSD_Filter.c ****     
 569:Generated_Source\PSoC4/CSD_Filter.c ****     ptrSensor->bsln[channel] = ptrSensor->raw[channel];
 816              		.loc 1 569 0
 817 001e FB68     		ldr	r3, [r7, #12]
 818 0020 7A68     		ldr	r2, [r7, #4]
 819 0022 5200     		lsl	r2, r2, #1
 820 0024 D15A     		ldrh	r1, [r2, r3]
 821 0026 FA68     		ldr	r2, [r7, #12]
 822 0028 7B68     		ldr	r3, [r7, #4]
 823 002a 5B00     		lsl	r3, r3, #1
 824 002c D318     		add	r3, r2, r3
 825 002e 0A1C     		add	r2, r1, #0
 826 0030 5A80     		strh	r2, [r3, #2]
 570:Generated_Source\PSoC4/CSD_Filter.c ****     ptrSensor->negBslnRstCnt[channel] = 0u;
 827              		.loc 1 570 0
 828 0032 FA68     		ldr	r2, [r7, #12]
 829 0034 7B68     		ldr	r3, [r7, #4]
 830 0036 D318     		add	r3, r2, r3
 831 0038 0833     		add	r3, r3, #8
 832 003a 0022     		mov	r2, #0
 833 003c 1A70     		strb	r2, [r3]
 571:Generated_Source\PSoC4/CSD_Filter.c **** }
 834              		.loc 1 571 0
 835 003e BD46     		mov	sp, r7
 836 0040 04B0     		add	sp, sp, #16
 837              		@ sp needed
 838 0042 80BD     		pop	{r7, pc}
 839              		.cfi_endproc
 840              	.LFE10:
 841              		.size	CSD_FtInitializeBaselineChannel, .-CSD_FtInitializeBaselineChannel
 842              		.section	.text.CSD_InitializeIIR,"ax",%progbits
ARM GAS  C:\Users\CHRIST~1\AppData\Local\Temp\ccghn5Jm.s 			page 26


 843              		.align	2
 844              		.global	CSD_InitializeIIR
 845              		.code	16
 846              		.thumb_func
 847              		.type	CSD_InitializeIIR, %function
 848              	CSD_InitializeIIR:
 849              	.LFB11:
 572:Generated_Source\PSoC4/CSD_Filter.c **** 
 573:Generated_Source\PSoC4/CSD_Filter.c **** 
 574:Generated_Source\PSoC4/CSD_Filter.c **** #if (CSD_REGULAR_RC_IIR_FILTER_EN || CSD_PROX_RC_IIR_FILTER_EN)
 575:Generated_Source\PSoC4/CSD_Filter.c **** 
 576:Generated_Source\PSoC4/CSD_Filter.c **** /*******************************************************************************
 577:Generated_Source\PSoC4/CSD_Filter.c **** * Function Name: CSD_InitializeIIR
 578:Generated_Source\PSoC4/CSD_Filter.c **** ****************************************************************************//**
 579:Generated_Source\PSoC4/CSD_Filter.c **** *
 580:Generated_Source\PSoC4/CSD_Filter.c **** * \brief    Initialize the IIR filter history.
 581:Generated_Source\PSoC4/CSD_Filter.c **** *
 582:Generated_Source\PSoC4/CSD_Filter.c **** * \details  Initialize the IIR filter history.
 583:Generated_Source\PSoC4/CSD_Filter.c **** *
 584:Generated_Source\PSoC4/CSD_Filter.c **** * \param    widgetId Specifies the ID number of the widget.
 585:Generated_Source\PSoC4/CSD_Filter.c **** * \param    sensorId Specifies the ID number of the sensor in the widget.
 586:Generated_Source\PSoC4/CSD_Filter.c **** *
 587:Generated_Source\PSoC4/CSD_Filter.c **** *******************************************************************************/
 588:Generated_Source\PSoC4/CSD_Filter.c **** void CSD_InitializeIIR(uint32 widgetId, uint32 sensorId)
 589:Generated_Source\PSoC4/CSD_Filter.c **** {   
 850              		.loc 1 589 0
 851              		.cfi_startproc
 852 0000 90B5     		push	{r4, r7, lr}
 853              		.cfi_def_cfa_offset 12
 854              		.cfi_offset 4, -12
 855              		.cfi_offset 7, -8
 856              		.cfi_offset 14, -4
 857 0002 87B0     		sub	sp, sp, #28
 858              		.cfi_def_cfa_offset 40
 859 0004 00AF     		add	r7, sp, #0
 860              		.cfi_def_cfa_register 7
 861 0006 7860     		str	r0, [r7, #4]
 862 0008 3960     		str	r1, [r7]
 590:Generated_Source\PSoC4/CSD_Filter.c ****     CSD_FLASH_WD_STRUCT const *ptrWidget = &CSD_dsFlash.wdgtArray[widgetId];      
 863              		.loc 1 590 0
 864 000a 7A68     		ldr	r2, [r7, #4]
 865 000c 131C     		mov	r3, r2
 866 000e DB00     		lsl	r3, r3, #3
 867 0010 9B1A     		sub	r3, r3, r2
 868 0012 9B00     		lsl	r3, r3, #2
 869 0014 144A     		ldr	r2, .L51
 870 0016 9B18     		add	r3, r3, r2
 871 0018 7B61     		str	r3, [r7, #20]
 591:Generated_Source\PSoC4/CSD_Filter.c ****     CSD_RAM_SNS_STRUCT *ptrSensor = NULL;    
 872              		.loc 1 591 0
 873 001a 0023     		mov	r3, #0
 874 001c 3B61     		str	r3, [r7, #16]
 592:Generated_Source\PSoC4/CSD_Filter.c ****     CSD_PTR_FILTER_VARIANT ptrFilterHistObj; 
 593:Generated_Source\PSoC4/CSD_Filter.c ****               
 594:Generated_Source\PSoC4/CSD_Filter.c ****     /* Find pointer to specified sensor object */     
 595:Generated_Source\PSoC4/CSD_Filter.c ****     ptrSensor = ptrWidget->ptr2SnsRam;
 875              		.loc 1 595 0
ARM GAS  C:\Users\CHRIST~1\AppData\Local\Temp\ccghn5Jm.s 			page 27


 876 001e 7B69     		ldr	r3, [r7, #20]
 877 0020 9B68     		ldr	r3, [r3, #8]
 878 0022 3B61     		str	r3, [r7, #16]
 596:Generated_Source\PSoC4/CSD_Filter.c ****     ptrSensor = &ptrSensor[sensorId];
 879              		.loc 1 596 0
 880 0024 3A68     		ldr	r2, [r7]
 881 0026 131C     		mov	r3, r2
 882 0028 9B00     		lsl	r3, r3, #2
 883 002a 9B18     		add	r3, r3, r2
 884 002c 5B00     		lsl	r3, r3, #1
 885 002e 1A1C     		mov	r2, r3
 886 0030 3B69     		ldr	r3, [r7, #16]
 887 0032 9B18     		add	r3, r3, r2
 888 0034 3B61     		str	r3, [r7, #16]
 597:Generated_Source\PSoC4/CSD_Filter.c ****         
 598:Generated_Source\PSoC4/CSD_Filter.c ****     /* Find pointer to specified filter sensor object */     
 599:Generated_Source\PSoC4/CSD_Filter.c ****     ptrFilterHistObj.ptr = ptrWidget->ptr2FltrHistory;
 889              		.loc 1 599 0
 890 0036 7B69     		ldr	r3, [r7, #20]
 891 0038 DB68     		ldr	r3, [r3, #12]
 892 003a FB60     		str	r3, [r7, #12]
 600:Generated_Source\PSoC4/CSD_Filter.c ****     
 601:Generated_Source\PSoC4/CSD_Filter.c ****     if ((CSD_WD_TYPE_ENUM)ptrWidget->wdgtType != CSD_WD_PROXIMITY_E)
 893              		.loc 1 601 0
 894 003c 7B69     		ldr	r3, [r7, #20]
 895 003e 1B7E     		ldrb	r3, [r3, #24]
 896 0040 062B     		cmp	r3, #6
 897 0042 04D0     		beq	.L50
 602:Generated_Source\PSoC4/CSD_Filter.c ****     {
 603:Generated_Source\PSoC4/CSD_Filter.c ****         #if (CSD_REGULAR_SENSOR_EN)
 604:Generated_Source\PSoC4/CSD_Filter.c ****             ptrFilterHistObj.ptrRegular = &ptrFilterHistObj.ptrRegular[sensorId];
 898              		.loc 1 604 0
 899 0044 FA68     		ldr	r2, [r7, #12]
 900 0046 3B68     		ldr	r3, [r7]
 901 0048 5B00     		lsl	r3, r3, #1
 902 004a D318     		add	r3, r2, r3
 903 004c FB60     		str	r3, [r7, #12]
 904              	.L50:
 605:Generated_Source\PSoC4/CSD_Filter.c ****         #endif /* (CSD_REGULAR_SENSOR_EN) */
 606:Generated_Source\PSoC4/CSD_Filter.c ****     }
 607:Generated_Source\PSoC4/CSD_Filter.c ****     else
 608:Generated_Source\PSoC4/CSD_Filter.c ****     {
 609:Generated_Source\PSoC4/CSD_Filter.c ****         #if (CSD_PROXIMITY_SENSOR_EN)
 610:Generated_Source\PSoC4/CSD_Filter.c ****             ptrFilterHistObj.ptrProx = &ptrFilterHistObj.ptrProx[sensorId];
 611:Generated_Source\PSoC4/CSD_Filter.c ****         #endif /* (CSD_PROXIMITY_SENSOR_EN) */
 612:Generated_Source\PSoC4/CSD_Filter.c ****     }    
 613:Generated_Source\PSoC4/CSD_Filter.c ****     
 614:Generated_Source\PSoC4/CSD_Filter.c ****     CSD_InitializeIIRInternal(ptrFilterHistObj, ptrSensor, (uint32)ptrWidget->wdgtType);
 905              		.loc 1 614 0
 906 004e 7B69     		ldr	r3, [r7, #20]
 907 0050 1B7E     		ldrb	r3, [r3, #24]
 908 0052 1C1C     		mov	r4, r3
 909 0054 FA68     		ldr	r2, [r7, #12]
 910 0056 3B69     		ldr	r3, [r7, #16]
 911 0058 101C     		mov	r0, r2
 912 005a 191C     		mov	r1, r3
 913 005c 221C     		mov	r2, r4
ARM GAS  C:\Users\CHRIST~1\AppData\Local\Temp\ccghn5Jm.s 			page 28


 914 005e FFF7FEFF 		bl	CSD_InitializeIIRInternal
 615:Generated_Source\PSoC4/CSD_Filter.c **** }
 915              		.loc 1 615 0
 916 0062 BD46     		mov	sp, r7
 917 0064 07B0     		add	sp, sp, #28
 918              		@ sp needed
 919 0066 90BD     		pop	{r4, r7, pc}
 920              	.L52:
 921              		.align	2
 922              	.L51:
 923 0068 00000000 		.word	CSD_dsFlash
 924              		.cfi_endproc
 925              	.LFE11:
 926              		.size	CSD_InitializeIIR, .-CSD_InitializeIIR
 927              		.section	.text.CSD_RunIIR,"ax",%progbits
 928              		.align	2
 929              		.global	CSD_RunIIR
 930              		.code	16
 931              		.thumb_func
 932              		.type	CSD_RunIIR, %function
 933              	CSD_RunIIR:
 934              	.LFB12:
 616:Generated_Source\PSoC4/CSD_Filter.c **** 
 617:Generated_Source\PSoC4/CSD_Filter.c **** 
 618:Generated_Source\PSoC4/CSD_Filter.c **** /*******************************************************************************
 619:Generated_Source\PSoC4/CSD_Filter.c **** * Function Name: CSD_RunIIR
 620:Generated_Source\PSoC4/CSD_Filter.c **** ****************************************************************************//**
 621:Generated_Source\PSoC4/CSD_Filter.c **** *
 622:Generated_Source\PSoC4/CSD_Filter.c **** * \brief    Executes the IIR filter algorithm on a sensor indicated by an input
 623:Generated_Source\PSoC4/CSD_Filter.c **** *           parameter. 
 624:Generated_Source\PSoC4/CSD_Filter.c **** *
 625:Generated_Source\PSoC4/CSD_Filter.c **** * \details  Executes the IIR filter algorithm on a sensor indicated by an input
 626:Generated_Source\PSoC4/CSD_Filter.c **** *           parameter. 
 627:Generated_Source\PSoC4/CSD_Filter.c **** *
 628:Generated_Source\PSoC4/CSD_Filter.c **** * \param    widgetId Specifies the ID number of the widget.
 629:Generated_Source\PSoC4/CSD_Filter.c **** * \param    sensorId Specifies the ID number of the sensor in the widget.
 630:Generated_Source\PSoC4/CSD_Filter.c **** *
 631:Generated_Source\PSoC4/CSD_Filter.c **** *******************************************************************************/
 632:Generated_Source\PSoC4/CSD_Filter.c **** void CSD_RunIIR(uint32 widgetId, uint32 sensorId)
 633:Generated_Source\PSoC4/CSD_Filter.c **** {
 935              		.loc 1 633 0
 936              		.cfi_startproc
 937 0000 90B5     		push	{r4, r7, lr}
 938              		.cfi_def_cfa_offset 12
 939              		.cfi_offset 4, -12
 940              		.cfi_offset 7, -8
 941              		.cfi_offset 14, -4
 942 0002 87B0     		sub	sp, sp, #28
 943              		.cfi_def_cfa_offset 40
 944 0004 00AF     		add	r7, sp, #0
 945              		.cfi_def_cfa_register 7
 946 0006 7860     		str	r0, [r7, #4]
 947 0008 3960     		str	r1, [r7]
 634:Generated_Source\PSoC4/CSD_Filter.c ****     CSD_FLASH_WD_STRUCT const *ptrWidget = &CSD_dsFlash.wdgtArray[widgetId];      
 948              		.loc 1 634 0
 949 000a 7A68     		ldr	r2, [r7, #4]
 950 000c 131C     		mov	r3, r2
ARM GAS  C:\Users\CHRIST~1\AppData\Local\Temp\ccghn5Jm.s 			page 29


 951 000e DB00     		lsl	r3, r3, #3
 952 0010 9B1A     		sub	r3, r3, r2
 953 0012 9B00     		lsl	r3, r3, #2
 954 0014 144A     		ldr	r2, .L55
 955 0016 9B18     		add	r3, r3, r2
 956 0018 7B61     		str	r3, [r7, #20]
 635:Generated_Source\PSoC4/CSD_Filter.c ****     CSD_RAM_SNS_STRUCT *ptrSensor = NULL;    
 957              		.loc 1 635 0
 958 001a 0023     		mov	r3, #0
 959 001c 3B61     		str	r3, [r7, #16]
 636:Generated_Source\PSoC4/CSD_Filter.c ****     CSD_PTR_FILTER_VARIANT ptrFilterHistObj; 
 637:Generated_Source\PSoC4/CSD_Filter.c ****               
 638:Generated_Source\PSoC4/CSD_Filter.c ****     /* Find pointer to specified sensor object */     
 639:Generated_Source\PSoC4/CSD_Filter.c ****     ptrSensor = ptrWidget->ptr2SnsRam;
 960              		.loc 1 639 0
 961 001e 7B69     		ldr	r3, [r7, #20]
 962 0020 9B68     		ldr	r3, [r3, #8]
 963 0022 3B61     		str	r3, [r7, #16]
 640:Generated_Source\PSoC4/CSD_Filter.c ****     ptrSensor = &ptrSensor[sensorId];
 964              		.loc 1 640 0
 965 0024 3A68     		ldr	r2, [r7]
 966 0026 131C     		mov	r3, r2
 967 0028 9B00     		lsl	r3, r3, #2
 968 002a 9B18     		add	r3, r3, r2
 969 002c 5B00     		lsl	r3, r3, #1
 970 002e 1A1C     		mov	r2, r3
 971 0030 3B69     		ldr	r3, [r7, #16]
 972 0032 9B18     		add	r3, r3, r2
 973 0034 3B61     		str	r3, [r7, #16]
 641:Generated_Source\PSoC4/CSD_Filter.c ****         
 642:Generated_Source\PSoC4/CSD_Filter.c ****     /* Find pointer to specified filter sensor object */     
 643:Generated_Source\PSoC4/CSD_Filter.c ****     ptrFilterHistObj.ptr = ptrWidget->ptr2FltrHistory;
 974              		.loc 1 643 0
 975 0036 7B69     		ldr	r3, [r7, #20]
 976 0038 DB68     		ldr	r3, [r3, #12]
 977 003a FB60     		str	r3, [r7, #12]
 644:Generated_Source\PSoC4/CSD_Filter.c ****     
 645:Generated_Source\PSoC4/CSD_Filter.c ****     if ((CSD_WD_TYPE_ENUM)ptrWidget->wdgtType != CSD_WD_PROXIMITY_E)
 978              		.loc 1 645 0
 979 003c 7B69     		ldr	r3, [r7, #20]
 980 003e 1B7E     		ldrb	r3, [r3, #24]
 981 0040 062B     		cmp	r3, #6
 982 0042 04D0     		beq	.L54
 646:Generated_Source\PSoC4/CSD_Filter.c ****     {
 647:Generated_Source\PSoC4/CSD_Filter.c ****         #if (CSD_REGULAR_SENSOR_EN)
 648:Generated_Source\PSoC4/CSD_Filter.c ****             ptrFilterHistObj.ptrRegular = &ptrFilterHistObj.ptrRegular[sensorId];
 983              		.loc 1 648 0
 984 0044 FA68     		ldr	r2, [r7, #12]
 985 0046 3B68     		ldr	r3, [r7]
 986 0048 5B00     		lsl	r3, r3, #1
 987 004a D318     		add	r3, r2, r3
 988 004c FB60     		str	r3, [r7, #12]
 989              	.L54:
 649:Generated_Source\PSoC4/CSD_Filter.c ****         #endif /* (CSD_REGULAR_SENSOR_EN) */
 650:Generated_Source\PSoC4/CSD_Filter.c ****     }
 651:Generated_Source\PSoC4/CSD_Filter.c ****     else
 652:Generated_Source\PSoC4/CSD_Filter.c ****     {
ARM GAS  C:\Users\CHRIST~1\AppData\Local\Temp\ccghn5Jm.s 			page 30


 653:Generated_Source\PSoC4/CSD_Filter.c ****         #if (CSD_PROXIMITY_SENSOR_EN)
 654:Generated_Source\PSoC4/CSD_Filter.c ****             ptrFilterHistObj.ptrProx = &ptrFilterHistObj.ptrProx[sensorId];
 655:Generated_Source\PSoC4/CSD_Filter.c ****         #endif /* (CSD_PROXIMITY_SENSOR_EN) */
 656:Generated_Source\PSoC4/CSD_Filter.c ****     }    
 657:Generated_Source\PSoC4/CSD_Filter.c ****     
 658:Generated_Source\PSoC4/CSD_Filter.c ****     CSD_RunIIRInternal(ptrFilterHistObj, ptrSensor, (uint32)ptrWidget->wdgtType);
 990              		.loc 1 658 0
 991 004e 7B69     		ldr	r3, [r7, #20]
 992 0050 1B7E     		ldrb	r3, [r3, #24]
 993 0052 1C1C     		mov	r4, r3
 994 0054 FA68     		ldr	r2, [r7, #12]
 995 0056 3B69     		ldr	r3, [r7, #16]
 996 0058 101C     		mov	r0, r2
 997 005a 191C     		mov	r1, r3
 998 005c 221C     		mov	r2, r4
 999 005e FFF7FEFF 		bl	CSD_RunIIRInternal
 659:Generated_Source\PSoC4/CSD_Filter.c **** }
 1000              		.loc 1 659 0
 1001 0062 BD46     		mov	sp, r7
 1002 0064 07B0     		add	sp, sp, #28
 1003              		@ sp needed
 1004 0066 90BD     		pop	{r4, r7, pc}
 1005              	.L56:
 1006              		.align	2
 1007              	.L55:
 1008 0068 00000000 		.word	CSD_dsFlash
 1009              		.cfi_endproc
 1010              	.LFE12:
 1011              		.size	CSD_RunIIR, .-CSD_RunIIR
 1012              		.section	.text.CSD_InitializeIIRInternal,"ax",%progbits
 1013              		.align	2
 1014              		.global	CSD_InitializeIIRInternal
 1015              		.code	16
 1016              		.thumb_func
 1017              		.type	CSD_InitializeIIRInternal, %function
 1018              	CSD_InitializeIIRInternal:
 1019              	.LFB13:
 660:Generated_Source\PSoC4/CSD_Filter.c ****     
 661:Generated_Source\PSoC4/CSD_Filter.c **** /*******************************************************************************
 662:Generated_Source\PSoC4/CSD_Filter.c **** * Function Name: CSD_InitializeIIRInternal
 663:Generated_Source\PSoC4/CSD_Filter.c **** ****************************************************************************//**
 664:Generated_Source\PSoC4/CSD_Filter.c **** *
 665:Generated_Source\PSoC4/CSD_Filter.c **** * \brief    Initializes the IIR filter history.
 666:Generated_Source\PSoC4/CSD_Filter.c **** *
 667:Generated_Source\PSoC4/CSD_Filter.c **** * \details  Initializes the IIR filter history.
 668:Generated_Source\PSoC4/CSD_Filter.c **** *
 669:Generated_Source\PSoC4/CSD_Filter.c **** * \param    ptrFilterHistObj The pointer to the filter RAM object of the sensor.
 670:Generated_Source\PSoC4/CSD_Filter.c **** * \param    ptrSensorObj     The pointer to the sensor RAM object of the sensor.
 671:Generated_Source\PSoC4/CSD_Filter.c **** * \param    wdType           Specifies the type of a widget.                                  
 672:Generated_Source\PSoC4/CSD_Filter.c **** *
 673:Generated_Source\PSoC4/CSD_Filter.c **** *******************************************************************************/
 674:Generated_Source\PSoC4/CSD_Filter.c **** void CSD_InitializeIIRInternal(CSD_PTR_FILTER_VARIANT ptrFilterHistObj,
 675:Generated_Source\PSoC4/CSD_Filter.c ****                                             CSD_RAM_SNS_STRUCT *ptrSensorObj, uint32 wdType)
 676:Generated_Source\PSoC4/CSD_Filter.c **** {
 1020              		.loc 1 676 0
 1021              		.cfi_startproc
 1022 0000 80B5     		push	{r7, lr}
ARM GAS  C:\Users\CHRIST~1\AppData\Local\Temp\ccghn5Jm.s 			page 31


 1023              		.cfi_def_cfa_offset 8
 1024              		.cfi_offset 7, -8
 1025              		.cfi_offset 14, -4
 1026 0002 86B0     		sub	sp, sp, #24
 1027              		.cfi_def_cfa_offset 32
 1028 0004 00AF     		add	r7, sp, #0
 1029              		.cfi_def_cfa_register 7
 1030 0006 F860     		str	r0, [r7, #12]
 1031 0008 B960     		str	r1, [r7, #8]
 1032 000a 7A60     		str	r2, [r7, #4]
 677:Generated_Source\PSoC4/CSD_Filter.c ****     uint32 channel;
 678:Generated_Source\PSoC4/CSD_Filter.c **** 
 679:Generated_Source\PSoC4/CSD_Filter.c ****     for(channel = CSD_NUM_SCAN_FREQS; channel-- > 0u;)
 1033              		.loc 1 679 0
 1034 000c 0123     		mov	r3, #1
 1035 000e 7B61     		str	r3, [r7, #20]
 1036 0010 0BE0     		b	.L58
 1037              	.L59:
 680:Generated_Source\PSoC4/CSD_Filter.c ****     {
 681:Generated_Source\PSoC4/CSD_Filter.c ****         if ((CSD_WD_TYPE_ENUM)wdType != CSD_WD_PROXIMITY_E)
 1038              		.loc 1 681 0
 1039 0012 7B68     		ldr	r3, [r7, #4]
 1040 0014 DBB2     		uxtb	r3, r3
 1041 0016 062B     		cmp	r3, #6
 1042 0018 07D0     		beq	.L58
 682:Generated_Source\PSoC4/CSD_Filter.c ****         {
 683:Generated_Source\PSoC4/CSD_Filter.c ****             #if (CSD_REGULAR_SENSOR_EN && CSD_REGULAR_RC_IIR_FILTER_EN)
 684:Generated_Source\PSoC4/CSD_Filter.c ****                 #if (CSD_REGULAR_IIR_RC_TYPE == CSD_IIR_FILTER_PERFORMANCE)
 685:Generated_Source\PSoC4/CSD_Filter.c ****                     ptrFilterHistObj.ptrRegular->regularChannel[channel].iirHistory = ptrSensorObj-
 686:Generated_Source\PSoC4/CSD_Filter.c ****                     ptrFilterHistObj.ptrRegular->regularChannel[channel].iirHistoryLow = 0u;
 687:Generated_Source\PSoC4/CSD_Filter.c ****                 #else
 688:Generated_Source\PSoC4/CSD_Filter.c ****                     ptrFilterHistObj.ptrRegular->regularChannel[channel].iirHistory = ptrSensorObj-
 1043              		.loc 1 688 0
 1044 001a FB68     		ldr	r3, [r7, #12]
 1045 001c BA68     		ldr	r2, [r7, #8]
 1046 001e 7969     		ldr	r1, [r7, #20]
 1047 0020 4900     		lsl	r1, r1, #1
 1048 0022 895A     		ldrh	r1, [r1, r2]
 1049 0024 7A69     		ldr	r2, [r7, #20]
 1050 0026 5200     		lsl	r2, r2, #1
 1051 0028 D152     		strh	r1, [r2, r3]
 1052              	.L58:
 679:Generated_Source\PSoC4/CSD_Filter.c ****     {
 1053              		.loc 1 679 0 discriminator 1
 1054 002a 7B69     		ldr	r3, [r7, #20]
 1055 002c 5A1E     		sub	r2, r3, #1
 1056 002e 7A61     		str	r2, [r7, #20]
 1057 0030 002B     		cmp	r3, #0
 1058 0032 EED1     		bne	.L59
 689:Generated_Source\PSoC4/CSD_Filter.c ****                 #endif /* (CSD_REGULAR_IIR_RC_TYPE == CSD_IIR_FILTER_PERFORMANCE) */
 690:Generated_Source\PSoC4/CSD_Filter.c ****             #endif /* (CSD_REGULAR_SENSOR_EN) */    
 691:Generated_Source\PSoC4/CSD_Filter.c ****         }
 692:Generated_Source\PSoC4/CSD_Filter.c ****         else
 693:Generated_Source\PSoC4/CSD_Filter.c ****         {
 694:Generated_Source\PSoC4/CSD_Filter.c ****             #if (CSD_PROXIMITY_SENSOR_EN && CSD_PROX_RC_IIR_FILTER_EN)
 695:Generated_Source\PSoC4/CSD_Filter.c ****                 #if (CSD_PROX_IIR_RC_TYPE == CSD_IIR_FILTER_PERFORMANCE)
 696:Generated_Source\PSoC4/CSD_Filter.c ****                     ptrFilterHistObj.ptrProx->proxChannel[channel].iirHistory = ptrSensorObj->raw[c
ARM GAS  C:\Users\CHRIST~1\AppData\Local\Temp\ccghn5Jm.s 			page 32


 697:Generated_Source\PSoC4/CSD_Filter.c ****                     ptrFilterHistObj.ptrProx->proxChannel[channel].iirHistoryLow = 0u;    
 698:Generated_Source\PSoC4/CSD_Filter.c ****                 #else
 699:Generated_Source\PSoC4/CSD_Filter.c ****                     ptrFilterHistObj.ptrProx->proxChannel[channel].iirHistory = ptrSensorObj->raw[c
 700:Generated_Source\PSoC4/CSD_Filter.c ****                 #endif /* (CSD_PROX_IIR_RC_TYPE == CSD_IIR_FILTER_PERFORMANCE) */
 701:Generated_Source\PSoC4/CSD_Filter.c ****             #endif /* (CSD_PROX_SENSOR_EN) */
 702:Generated_Source\PSoC4/CSD_Filter.c ****         }    
 703:Generated_Source\PSoC4/CSD_Filter.c ****     }    
 704:Generated_Source\PSoC4/CSD_Filter.c **** }
 1059              		.loc 1 704 0
 1060 0034 BD46     		mov	sp, r7
 1061 0036 06B0     		add	sp, sp, #24
 1062              		@ sp needed
 1063 0038 80BD     		pop	{r7, pc}
 1064              		.cfi_endproc
 1065              	.LFE13:
 1066              		.size	CSD_InitializeIIRInternal, .-CSD_InitializeIIRInternal
 1067 003a C046     		.section	.text.CSD_RunIIRInternal,"ax",%progbits
 1068              		.align	2
 1069              		.global	CSD_RunIIRInternal
 1070              		.code	16
 1071              		.thumb_func
 1072              		.type	CSD_RunIIRInternal, %function
 1073              	CSD_RunIIRInternal:
 1074              	.LFB14:
 705:Generated_Source\PSoC4/CSD_Filter.c ****  
 706:Generated_Source\PSoC4/CSD_Filter.c **** 
 707:Generated_Source\PSoC4/CSD_Filter.c **** /*******************************************************************************
 708:Generated_Source\PSoC4/CSD_Filter.c **** * Function Name: CSD_RunIIRInternal
 709:Generated_Source\PSoC4/CSD_Filter.c **** ****************************************************************************//**
 710:Generated_Source\PSoC4/CSD_Filter.c **** *
 711:Generated_Source\PSoC4/CSD_Filter.c **** * \brief    Run the IIR filter.
 712:Generated_Source\PSoC4/CSD_Filter.c **** *
 713:Generated_Source\PSoC4/CSD_Filter.c **** * \details  Run the IIR filter.
 714:Generated_Source\PSoC4/CSD_Filter.c **** *
 715:Generated_Source\PSoC4/CSD_Filter.c **** * \param    ptrFilterHistObj The pointer to the filter RAM object of the sensor.
 716:Generated_Source\PSoC4/CSD_Filter.c **** * \param    ptrSensorObj     The pointer to the sensor RAM object of the sensor.
 717:Generated_Source\PSoC4/CSD_Filter.c **** * \param    wdType           Specifies the type of a widget.
 718:Generated_Source\PSoC4/CSD_Filter.c **** *
 719:Generated_Source\PSoC4/CSD_Filter.c **** *******************************************************************************/    
 720:Generated_Source\PSoC4/CSD_Filter.c **** void CSD_RunIIRInternal(CSD_PTR_FILTER_VARIANT ptrFilterHistObj, 
 721:Generated_Source\PSoC4/CSD_Filter.c ****                                      CSD_RAM_SNS_STRUCT *ptrSensorObj, uint32 wdType)
 722:Generated_Source\PSoC4/CSD_Filter.c **** {        
 1075              		.loc 1 722 0
 1076              		.cfi_startproc
 1077 0000 80B5     		push	{r7, lr}
 1078              		.cfi_def_cfa_offset 8
 1079              		.cfi_offset 7, -8
 1080              		.cfi_offset 14, -4
 1081 0002 86B0     		sub	sp, sp, #24
 1082              		.cfi_def_cfa_offset 32
 1083 0004 00AF     		add	r7, sp, #0
 1084              		.cfi_def_cfa_register 7
 1085 0006 F860     		str	r0, [r7, #12]
 1086 0008 B960     		str	r1, [r7, #8]
 1087 000a 7A60     		str	r2, [r7, #4]
 723:Generated_Source\PSoC4/CSD_Filter.c ****     uint32 channel;
 724:Generated_Source\PSoC4/CSD_Filter.c ****     uint32 temp;
ARM GAS  C:\Users\CHRIST~1\AppData\Local\Temp\ccghn5Jm.s 			page 33


 725:Generated_Source\PSoC4/CSD_Filter.c **** 
 726:Generated_Source\PSoC4/CSD_Filter.c ****     for(channel = CSD_NUM_SCAN_FREQS; channel-- > 0u;)
 1088              		.loc 1 726 0
 1089 000c 0123     		mov	r3, #1
 1090 000e 7B61     		str	r3, [r7, #20]
 1091 0010 20E0     		b	.L61
 1092              	.L62:
 727:Generated_Source\PSoC4/CSD_Filter.c ****     {
 728:Generated_Source\PSoC4/CSD_Filter.c ****         if ((CSD_WD_TYPE_ENUM)wdType != CSD_WD_PROXIMITY_E)
 1093              		.loc 1 728 0
 1094 0012 7B68     		ldr	r3, [r7, #4]
 1095 0014 DBB2     		uxtb	r3, r3
 1096 0016 062B     		cmp	r3, #6
 1097 0018 1CD0     		beq	.L61
 729:Generated_Source\PSoC4/CSD_Filter.c ****         {
 730:Generated_Source\PSoC4/CSD_Filter.c ****             #if (CSD_REGULAR_SENSOR_EN && CSD_REGULAR_RC_IIR_FILTER_EN)
 731:Generated_Source\PSoC4/CSD_Filter.c ****                 #if (CSD_REGULAR_IIR_RC_TYPE == CSD_IIR_FILTER_PERFORMANCE)
 732:Generated_Source\PSoC4/CSD_Filter.c ****                     temp =  ptrFilterHistObj.ptrRegular->regularChannel[channel].iirHistory << CSD_
 733:Generated_Source\PSoC4/CSD_Filter.c ****                     temp |= ptrFilterHistObj.ptrRegular->regularChannel[channel].iirHistoryLow;
 734:Generated_Source\PSoC4/CSD_Filter.c ****                     temp =CSD_FtIIR1stOrder((uint32)ptrSensorObj->raw[channel],
 735:Generated_Source\PSoC4/CSD_Filter.c ****                                                         temp,
 736:Generated_Source\PSoC4/CSD_Filter.c ****                                                         CSD_REGULAR_IIR_RC_N,
 737:Generated_Source\PSoC4/CSD_Filter.c ****                                                         CSD_REGULAR_IIR_RC_SHIFT);
 738:Generated_Source\PSoC4/CSD_Filter.c ****                     ptrFilterHistObj.ptrRegular->regularChannel[channel].iirHistory = LO16(temp >>C
 739:Generated_Source\PSoC4/CSD_Filter.c ****                     ptrFilterHistObj.ptrRegular->regularChannel[channel].iirHistoryLow = LO8(temp);
 740:Generated_Source\PSoC4/CSD_Filter.c ****                     ptrSensorObj->raw[channel] = LO16(temp >>CSD_REGULAR_IIR_RC_SHIFT);
 741:Generated_Source\PSoC4/CSD_Filter.c ****                 #else
 742:Generated_Source\PSoC4/CSD_Filter.c ****                     temp =CSD_FtIIR1stOrder((uint32)ptrSensorObj->raw[channel],
 1098              		.loc 1 742 0
 1099 001a BB68     		ldr	r3, [r7, #8]
 1100 001c 7A69     		ldr	r2, [r7, #20]
 1101 001e 5200     		lsl	r2, r2, #1
 1102 0020 D35A     		ldrh	r3, [r2, r3]
 1103 0022 191C     		mov	r1, r3
 743:Generated_Source\PSoC4/CSD_Filter.c ****                                                         (uint32)ptrFilterHistObj.ptrRegular->regula
 1104              		.loc 1 743 0
 1105 0024 FB68     		ldr	r3, [r7, #12]
 1106 0026 7A69     		ldr	r2, [r7, #20]
 1107 0028 5200     		lsl	r2, r2, #1
 1108 002a D35A     		ldrh	r3, [r2, r3]
 742:Generated_Source\PSoC4/CSD_Filter.c ****                                                         (uint32)ptrFilterHistObj.ptrRegular->regula
 1109              		.loc 1 742 0
 1110 002c 081C     		mov	r0, r1
 1111 002e 191C     		mov	r1, r3
 1112 0030 8022     		mov	r2, #128
 1113 0032 0023     		mov	r3, #0
 1114 0034 FFF7FEFF 		bl	CSD_FtIIR1stOrder
 1115 0038 031C     		mov	r3, r0
 1116 003a 3B61     		str	r3, [r7, #16]
 744:Generated_Source\PSoC4/CSD_Filter.c ****                                                         CSD_REGULAR_IIR_RC_N,
 745:Generated_Source\PSoC4/CSD_Filter.c ****                                                         CSD_REGULAR_IIR_RC_SHIFT);
 746:Generated_Source\PSoC4/CSD_Filter.c ****                     ptrFilterHistObj.ptrRegular->regularChannel[channel].iirHistory = LO16(temp);
 1117              		.loc 1 746 0
 1118 003c FB68     		ldr	r3, [r7, #12]
 1119 003e 3A69     		ldr	r2, [r7, #16]
 1120 0040 91B2     		uxth	r1, r2
 1121 0042 7A69     		ldr	r2, [r7, #20]
ARM GAS  C:\Users\CHRIST~1\AppData\Local\Temp\ccghn5Jm.s 			page 34


 1122 0044 5200     		lsl	r2, r2, #1
 1123 0046 D152     		strh	r1, [r2, r3]
 747:Generated_Source\PSoC4/CSD_Filter.c ****                     ptrSensorObj->raw[channel] = LO16(temp >>CSD_REGULAR_IIR_RC_SHIFT);
 1124              		.loc 1 747 0
 1125 0048 3B69     		ldr	r3, [r7, #16]
 1126 004a 99B2     		uxth	r1, r3
 1127 004c BB68     		ldr	r3, [r7, #8]
 1128 004e 7A69     		ldr	r2, [r7, #20]
 1129 0050 5200     		lsl	r2, r2, #1
 1130 0052 D152     		strh	r1, [r2, r3]
 1131              	.L61:
 726:Generated_Source\PSoC4/CSD_Filter.c ****     {
 1132              		.loc 1 726 0 discriminator 1
 1133 0054 7B69     		ldr	r3, [r7, #20]
 1134 0056 5A1E     		sub	r2, r3, #1
 1135 0058 7A61     		str	r2, [r7, #20]
 1136 005a 002B     		cmp	r3, #0
 1137 005c D9D1     		bne	.L62
 748:Generated_Source\PSoC4/CSD_Filter.c ****                 #endif /* (CSD_REGULAR_IIR_RC_TYPE == CSD_IIR_FILTER_PERFORMANCE) */
 749:Generated_Source\PSoC4/CSD_Filter.c ****             #endif /* (CSD_REGULAR_SENSOR_EN) */    
 750:Generated_Source\PSoC4/CSD_Filter.c ****         }
 751:Generated_Source\PSoC4/CSD_Filter.c ****         else
 752:Generated_Source\PSoC4/CSD_Filter.c ****         {
 753:Generated_Source\PSoC4/CSD_Filter.c ****             #if (CSD_PROXIMITY_SENSOR_EN && CSD_PROX_RC_IIR_FILTER_EN)
 754:Generated_Source\PSoC4/CSD_Filter.c ****                 #if (CSD_PROX_IIR_RC_TYPE == CSD_IIR_FILTER_PERFORMANCE)
 755:Generated_Source\PSoC4/CSD_Filter.c ****                     temp =  ptrFilterHistObj.ptrProx->proxChannel[channel].iirHistory << CSD_PROX_I
 756:Generated_Source\PSoC4/CSD_Filter.c ****                     temp |= ptrFilterHistObj.ptrProx->proxChannel[channel].iirHistoryLow;
 757:Generated_Source\PSoC4/CSD_Filter.c ****                     temp =CSD_FtIIR1stOrder((uint32)ptrSensorObj->raw[channel],
 758:Generated_Source\PSoC4/CSD_Filter.c ****                                                         temp,
 759:Generated_Source\PSoC4/CSD_Filter.c ****                                                         CSD_PROX_IIR_RC_N,
 760:Generated_Source\PSoC4/CSD_Filter.c ****                                                         CSD_PROX_IIR_RC_SHIFT);
 761:Generated_Source\PSoC4/CSD_Filter.c ****                     ptrFilterHistObj.ptrProx->proxChannel[channel].iirHistory = LO16(temp >>CSD_PRO
 762:Generated_Source\PSoC4/CSD_Filter.c ****                     ptrFilterHistObj.ptrProx->proxChannel[channel].iirHistoryLow = LO8(temp);
 763:Generated_Source\PSoC4/CSD_Filter.c ****                     ptrSensorObj->raw[channel] = LO16(temp >>CSD_PROX_IIR_RC_SHIFT);
 764:Generated_Source\PSoC4/CSD_Filter.c ****                 #else
 765:Generated_Source\PSoC4/CSD_Filter.c ****                     temp =CSD_FtIIR1stOrder((uint32)ptrSensorObj->raw[channel],
 766:Generated_Source\PSoC4/CSD_Filter.c ****                                                         (uint32)ptrFilterHistObj.ptrProx->proxChann
 767:Generated_Source\PSoC4/CSD_Filter.c ****                                                         CSD_PROX_IIR_RC_N,
 768:Generated_Source\PSoC4/CSD_Filter.c ****                                                         CSD_PROX_IIR_RC_SHIFT);
 769:Generated_Source\PSoC4/CSD_Filter.c ****                     ptrFilterHistObj.ptrProx->proxChannel[channel].iirHistory = LO16(temp);
 770:Generated_Source\PSoC4/CSD_Filter.c ****                     ptrSensorObj->raw[channel] = LO16(temp >>CSD_PROX_IIR_RC_SHIFT);
 771:Generated_Source\PSoC4/CSD_Filter.c ****                 #endif /* (CSD_PROX_IIR_RC_TYPE == CSD_IIR_FILTER_PERFORMANCE) */
 772:Generated_Source\PSoC4/CSD_Filter.c ****             #endif /* (CSD_PROX_SENSOR_EN) */
 773:Generated_Source\PSoC4/CSD_Filter.c ****         }    
 774:Generated_Source\PSoC4/CSD_Filter.c ****     }        
 775:Generated_Source\PSoC4/CSD_Filter.c **** }    
 1138              		.loc 1 775 0
 1139 005e BD46     		mov	sp, r7
 1140 0060 06B0     		add	sp, sp, #24
 1141              		@ sp needed
 1142 0062 80BD     		pop	{r7, pc}
 1143              		.cfi_endproc
 1144              	.LFE14:
 1145              		.size	CSD_RunIIRInternal, .-CSD_RunIIRInternal
 1146              		.section	.text.CSD_FtRunEnabledFilters,"ax",%progbits
 1147              		.align	2
 1148              		.global	CSD_FtRunEnabledFilters
ARM GAS  C:\Users\CHRIST~1\AppData\Local\Temp\ccghn5Jm.s 			page 35


 1149              		.code	16
 1150              		.thumb_func
 1151              		.type	CSD_FtRunEnabledFilters, %function
 1152              	CSD_FtRunEnabledFilters:
 1153              	.LFB15:
 776:Generated_Source\PSoC4/CSD_Filter.c **** #endif /* #if (CSD_REGULAR_RC_IIR_FILTER_EN || CSD_PROX_RC_IIR_FILTER_EN) */
 777:Generated_Source\PSoC4/CSD_Filter.c **** 
 778:Generated_Source\PSoC4/CSD_Filter.c **** 
 779:Generated_Source\PSoC4/CSD_Filter.c **** #if (CSD_REGULAR_RC_MEDIAN_FILTER_EN || CSD_PROX_RC_MEDIAN_FILTER_EN)
 780:Generated_Source\PSoC4/CSD_Filter.c **** 
 781:Generated_Source\PSoC4/CSD_Filter.c **** /*******************************************************************************
 782:Generated_Source\PSoC4/CSD_Filter.c **** * Function Name: CSD_InitializeMedian
 783:Generated_Source\PSoC4/CSD_Filter.c **** ****************************************************************************//**
 784:Generated_Source\PSoC4/CSD_Filter.c **** *
 785:Generated_Source\PSoC4/CSD_Filter.c **** * \brief    Initializes the Median filter history.
 786:Generated_Source\PSoC4/CSD_Filter.c **** *
 787:Generated_Source\PSoC4/CSD_Filter.c **** * \details  Initializes the Median filter history.
 788:Generated_Source\PSoC4/CSD_Filter.c **** *
 789:Generated_Source\PSoC4/CSD_Filter.c **** * \param    widgetId Specifies the ID number of the widget.
 790:Generated_Source\PSoC4/CSD_Filter.c **** * \param    sensorId Specifies the ID number of the sensor in the widget.
 791:Generated_Source\PSoC4/CSD_Filter.c **** *
 792:Generated_Source\PSoC4/CSD_Filter.c **** *******************************************************************************/
 793:Generated_Source\PSoC4/CSD_Filter.c **** void CSD_InitializeMedian(uint32 widgetId, uint32 sensorId)
 794:Generated_Source\PSoC4/CSD_Filter.c **** {
 795:Generated_Source\PSoC4/CSD_Filter.c ****     CSD_FLASH_WD_STRUCT const *ptrWidget = &CSD_dsFlash.wdgtArray[widgetId];      
 796:Generated_Source\PSoC4/CSD_Filter.c ****     CSD_RAM_SNS_STRUCT *ptrSensor = NULL;    
 797:Generated_Source\PSoC4/CSD_Filter.c ****     CSD_PTR_FILTER_VARIANT ptrFilterHistObj; 
 798:Generated_Source\PSoC4/CSD_Filter.c ****               
 799:Generated_Source\PSoC4/CSD_Filter.c ****     /* Find pointer to specified sensor object */     
 800:Generated_Source\PSoC4/CSD_Filter.c ****     ptrSensor = ptrWidget->ptr2SnsRam;
 801:Generated_Source\PSoC4/CSD_Filter.c ****     ptrSensor = &ptrSensor[sensorId];
 802:Generated_Source\PSoC4/CSD_Filter.c ****     
 803:Generated_Source\PSoC4/CSD_Filter.c ****     /* Find pointer to specified filter sensor object */     
 804:Generated_Source\PSoC4/CSD_Filter.c ****     ptrFilterHistObj.ptr = ptrWidget->ptr2FltrHistory;
 805:Generated_Source\PSoC4/CSD_Filter.c ****     
 806:Generated_Source\PSoC4/CSD_Filter.c ****     if ((CSD_WD_TYPE_ENUM)ptrWidget->wdgtType != CSD_WD_PROXIMITY_E)
 807:Generated_Source\PSoC4/CSD_Filter.c ****     {
 808:Generated_Source\PSoC4/CSD_Filter.c ****         #if (CSD_REGULAR_SENSOR_EN)
 809:Generated_Source\PSoC4/CSD_Filter.c ****             ptrFilterHistObj.ptrRegular = &ptrFilterHistObj.ptrRegular[sensorId];
 810:Generated_Source\PSoC4/CSD_Filter.c ****         #endif /* (CSD_REGULAR_SENSOR_EN) */
 811:Generated_Source\PSoC4/CSD_Filter.c ****     }
 812:Generated_Source\PSoC4/CSD_Filter.c ****     else
 813:Generated_Source\PSoC4/CSD_Filter.c ****     {
 814:Generated_Source\PSoC4/CSD_Filter.c ****         #if (CSD_PROXIMITY_SENSOR_EN)
 815:Generated_Source\PSoC4/CSD_Filter.c ****             ptrFilterHistObj.ptrProx = &ptrFilterHistObj.ptrProx[sensorId];
 816:Generated_Source\PSoC4/CSD_Filter.c ****         #endif /* (CSD_PROXIMITY_SENSOR_EN) */
 817:Generated_Source\PSoC4/CSD_Filter.c ****     }
 818:Generated_Source\PSoC4/CSD_Filter.c ****     
 819:Generated_Source\PSoC4/CSD_Filter.c ****     CSD_InitializeMedianInternal(ptrFilterHistObj, ptrSensor, (uint32)ptrWidget->wdgtType);
 820:Generated_Source\PSoC4/CSD_Filter.c **** }     
 821:Generated_Source\PSoC4/CSD_Filter.c **** 
 822:Generated_Source\PSoC4/CSD_Filter.c **** 
 823:Generated_Source\PSoC4/CSD_Filter.c **** /*******************************************************************************
 824:Generated_Source\PSoC4/CSD_Filter.c **** * Function Name: CSD_RunMedian
 825:Generated_Source\PSoC4/CSD_Filter.c **** ****************************************************************************//**
 826:Generated_Source\PSoC4/CSD_Filter.c **** *
 827:Generated_Source\PSoC4/CSD_Filter.c **** * \brief    Executes the Median filter algorithm on a sensor indicated by an input 
ARM GAS  C:\Users\CHRIST~1\AppData\Local\Temp\ccghn5Jm.s 			page 36


 828:Generated_Source\PSoC4/CSD_Filter.c **** *           parameter. 
 829:Generated_Source\PSoC4/CSD_Filter.c **** *
 830:Generated_Source\PSoC4/CSD_Filter.c **** * \details  Executes the Median filter algorithm on a sensor indicated by an input 
 831:Generated_Source\PSoC4/CSD_Filter.c **** *           parameter. 
 832:Generated_Source\PSoC4/CSD_Filter.c **** *
 833:Generated_Source\PSoC4/CSD_Filter.c **** * \param    widgetId Specifies the ID number of the widget.
 834:Generated_Source\PSoC4/CSD_Filter.c **** * \param    sensorId Specifies the ID number of the sensor in the widget.
 835:Generated_Source\PSoC4/CSD_Filter.c **** *
 836:Generated_Source\PSoC4/CSD_Filter.c **** *******************************************************************************/
 837:Generated_Source\PSoC4/CSD_Filter.c **** void CSD_RunMedian(uint32 widgetId, uint32 sensorId)
 838:Generated_Source\PSoC4/CSD_Filter.c **** {
 839:Generated_Source\PSoC4/CSD_Filter.c ****     CSD_FLASH_WD_STRUCT const *ptrWidget = &CSD_dsFlash.wdgtArray[widgetId];      
 840:Generated_Source\PSoC4/CSD_Filter.c ****     CSD_RAM_SNS_STRUCT *ptrSensor = NULL;    
 841:Generated_Source\PSoC4/CSD_Filter.c ****     CSD_PTR_FILTER_VARIANT ptrFilterHistObj; 
 842:Generated_Source\PSoC4/CSD_Filter.c ****               
 843:Generated_Source\PSoC4/CSD_Filter.c ****     /* Find pointer to specified sensor object */     
 844:Generated_Source\PSoC4/CSD_Filter.c ****     ptrSensor = ptrWidget->ptr2SnsRam;
 845:Generated_Source\PSoC4/CSD_Filter.c ****     ptrSensor = &ptrSensor[sensorId];
 846:Generated_Source\PSoC4/CSD_Filter.c ****     
 847:Generated_Source\PSoC4/CSD_Filter.c ****     /* Find pointer to specified filter sensor object */     
 848:Generated_Source\PSoC4/CSD_Filter.c ****     ptrFilterHistObj.ptr = ptrWidget->ptr2FltrHistory;
 849:Generated_Source\PSoC4/CSD_Filter.c ****     
 850:Generated_Source\PSoC4/CSD_Filter.c ****     if ((CSD_WD_TYPE_ENUM)ptrWidget->wdgtType != CSD_WD_PROXIMITY_E)
 851:Generated_Source\PSoC4/CSD_Filter.c ****     {
 852:Generated_Source\PSoC4/CSD_Filter.c ****         #if (CSD_REGULAR_SENSOR_EN)
 853:Generated_Source\PSoC4/CSD_Filter.c ****             ptrFilterHistObj.ptrRegular = &ptrFilterHistObj.ptrRegular[sensorId];
 854:Generated_Source\PSoC4/CSD_Filter.c ****         #endif /* (CSD_REGULAR_SENSOR_EN) */
 855:Generated_Source\PSoC4/CSD_Filter.c ****     }
 856:Generated_Source\PSoC4/CSD_Filter.c ****     else
 857:Generated_Source\PSoC4/CSD_Filter.c ****     {
 858:Generated_Source\PSoC4/CSD_Filter.c ****         #if (CSD_PROXIMITY_SENSOR_EN)
 859:Generated_Source\PSoC4/CSD_Filter.c ****             ptrFilterHistObj.ptrProx = &ptrFilterHistObj.ptrProx[sensorId];
 860:Generated_Source\PSoC4/CSD_Filter.c ****         #endif /* (CSD_PROXIMITY_SENSOR_EN) */
 861:Generated_Source\PSoC4/CSD_Filter.c ****     }
 862:Generated_Source\PSoC4/CSD_Filter.c ****     
 863:Generated_Source\PSoC4/CSD_Filter.c ****     CSD_RunMedianInternal(ptrFilterHistObj, ptrSensor, (uint32)ptrWidget->wdgtType);
 864:Generated_Source\PSoC4/CSD_Filter.c **** }
 865:Generated_Source\PSoC4/CSD_Filter.c ****    
 866:Generated_Source\PSoC4/CSD_Filter.c **** 
 867:Generated_Source\PSoC4/CSD_Filter.c **** /*******************************************************************************
 868:Generated_Source\PSoC4/CSD_Filter.c **** * Function Name: CSD_InitializeMedianInternal
 869:Generated_Source\PSoC4/CSD_Filter.c **** ****************************************************************************//**
 870:Generated_Source\PSoC4/CSD_Filter.c **** *
 871:Generated_Source\PSoC4/CSD_Filter.c **** * \brief    Initializes the Median filter.
 872:Generated_Source\PSoC4/CSD_Filter.c **** *
 873:Generated_Source\PSoC4/CSD_Filter.c **** * \details  Initializes the Median filter.
 874:Generated_Source\PSoC4/CSD_Filter.c **** *
 875:Generated_Source\PSoC4/CSD_Filter.c **** * \param    ptrFilterHistObj The pointer to the filter RAM object of the sensor.
 876:Generated_Source\PSoC4/CSD_Filter.c **** * \param    ptrSensorObj     The pointer to the sensor RAM object of the sensor.
 877:Generated_Source\PSoC4/CSD_Filter.c **** * \param    wdType           Specifies the type of a widget.
 878:Generated_Source\PSoC4/CSD_Filter.c **** *
 879:Generated_Source\PSoC4/CSD_Filter.c **** *******************************************************************************/
 880:Generated_Source\PSoC4/CSD_Filter.c **** void CSD_InitializeMedianInternal(CSD_PTR_FILTER_VARIANT ptrFilterHistObj,
 881:Generated_Source\PSoC4/CSD_Filter.c ****                                                CSD_RAM_SNS_STRUCT *ptrSensorObj, uint32 wdType)
 882:Generated_Source\PSoC4/CSD_Filter.c **** {
 883:Generated_Source\PSoC4/CSD_Filter.c ****     uint32 channel;
 884:Generated_Source\PSoC4/CSD_Filter.c **** 
ARM GAS  C:\Users\CHRIST~1\AppData\Local\Temp\ccghn5Jm.s 			page 37


 885:Generated_Source\PSoC4/CSD_Filter.c ****     for(channel = CSD_NUM_SCAN_FREQS; channel-- > 0u;)
 886:Generated_Source\PSoC4/CSD_Filter.c ****     {
 887:Generated_Source\PSoC4/CSD_Filter.c ****         if ((CSD_WD_TYPE_ENUM)wdType != CSD_WD_PROXIMITY_E)
 888:Generated_Source\PSoC4/CSD_Filter.c ****         {
 889:Generated_Source\PSoC4/CSD_Filter.c ****             #if (CSD_REGULAR_SENSOR_EN && CSD_REGULAR_RC_MEDIAN_FILTER_EN)
 890:Generated_Source\PSoC4/CSD_Filter.c ****                 ptrFilterHistObj.ptrRegular->regularChannel[channel].medHistory[0u] = ptrSensorObj-
 891:Generated_Source\PSoC4/CSD_Filter.c ****                 ptrFilterHistObj.ptrRegular->regularChannel[channel].medHistory[1u] = ptrSensorObj-
 892:Generated_Source\PSoC4/CSD_Filter.c ****             #endif /* (CSD_REGULAR_SENSOR_EN) */
 893:Generated_Source\PSoC4/CSD_Filter.c ****         }
 894:Generated_Source\PSoC4/CSD_Filter.c ****         else
 895:Generated_Source\PSoC4/CSD_Filter.c ****         {
 896:Generated_Source\PSoC4/CSD_Filter.c ****             #if (CSD_PROXIMITY_SENSOR_EN && CSD_PROX_RC_MEDIAN_FILTER_EN)
 897:Generated_Source\PSoC4/CSD_Filter.c ****                 ptrFilterHistObj.ptrProx->proxChannel[channel].medHistory[0u] = ptrSensorObj->raw[c
 898:Generated_Source\PSoC4/CSD_Filter.c ****                 ptrFilterHistObj.ptrProx->proxChannel[channel].medHistory[1u] = ptrSensorObj->raw[c
 899:Generated_Source\PSoC4/CSD_Filter.c ****             #endif /* (CSD_PROXIMITY_SENSOR_EN) */               
 900:Generated_Source\PSoC4/CSD_Filter.c ****         }
 901:Generated_Source\PSoC4/CSD_Filter.c ****     }
 902:Generated_Source\PSoC4/CSD_Filter.c **** }
 903:Generated_Source\PSoC4/CSD_Filter.c **** 
 904:Generated_Source\PSoC4/CSD_Filter.c **** 
 905:Generated_Source\PSoC4/CSD_Filter.c **** /*******************************************************************************
 906:Generated_Source\PSoC4/CSD_Filter.c **** * Function Name: CSD_RunMedianInternal
 907:Generated_Source\PSoC4/CSD_Filter.c **** ****************************************************************************//**
 908:Generated_Source\PSoC4/CSD_Filter.c **** *
 909:Generated_Source\PSoC4/CSD_Filter.c **** * \brief    Runs the Median filter.
 910:Generated_Source\PSoC4/CSD_Filter.c **** *
 911:Generated_Source\PSoC4/CSD_Filter.c **** * \details  Runs the Median filter.
 912:Generated_Source\PSoC4/CSD_Filter.c **** *
 913:Generated_Source\PSoC4/CSD_Filter.c **** * \param    ptrFilterHistObj The pointer to the filter RAM object of the sensor.
 914:Generated_Source\PSoC4/CSD_Filter.c **** * \param    ptrSensorObj     The pointer to the sensor RAM object of the sensor.
 915:Generated_Source\PSoC4/CSD_Filter.c **** * \param    wdType           Specifies the type of a widget.
 916:Generated_Source\PSoC4/CSD_Filter.c **** *
 917:Generated_Source\PSoC4/CSD_Filter.c **** *******************************************************************************/
 918:Generated_Source\PSoC4/CSD_Filter.c **** void CSD_RunMedianInternal(CSD_PTR_FILTER_VARIANT ptrFilterHistObj,
 919:Generated_Source\PSoC4/CSD_Filter.c ****                                         CSD_RAM_SNS_STRUCT *ptrSensorObj, uint32 wdType)
 920:Generated_Source\PSoC4/CSD_Filter.c **** {
 921:Generated_Source\PSoC4/CSD_Filter.c ****     uint32 channel;
 922:Generated_Source\PSoC4/CSD_Filter.c ****     
 923:Generated_Source\PSoC4/CSD_Filter.c ****     #if ((CSD_REGULAR_SENSOR_EN && CSD_REGULAR_RC_MEDIAN_FILTER_EN) || \
 924:Generated_Source\PSoC4/CSD_Filter.c ****          (CSD_PROXIMITY_SENSOR_EN && CSD_PROX_RC_MEDIAN_FILTER_EN))
 925:Generated_Source\PSoC4/CSD_Filter.c ****         uint32 temp;
 926:Generated_Source\PSoC4/CSD_Filter.c ****     #endif
 927:Generated_Source\PSoC4/CSD_Filter.c ****     
 928:Generated_Source\PSoC4/CSD_Filter.c ****     for(channel = CSD_NUM_SCAN_FREQS; channel-- > 0u;)
 929:Generated_Source\PSoC4/CSD_Filter.c ****     {    
 930:Generated_Source\PSoC4/CSD_Filter.c ****         if ((CSD_WD_TYPE_ENUM)wdType != CSD_WD_PROXIMITY_E)
 931:Generated_Source\PSoC4/CSD_Filter.c ****         {                                             
 932:Generated_Source\PSoC4/CSD_Filter.c ****             #if (CSD_REGULAR_SENSOR_EN && CSD_REGULAR_RC_MEDIAN_FILTER_EN)
 933:Generated_Source\PSoC4/CSD_Filter.c ****                 temp = CSD_FtMedian((uint32)ptrSensorObj->raw[channel],\
 934:Generated_Source\PSoC4/CSD_Filter.c ****                                                  (uint32)ptrFilterHistObj.ptrRegular->regularChanne
 935:Generated_Source\PSoC4/CSD_Filter.c ****                                                  (uint32)ptrFilterHistObj.ptrRegular->regularChanne
 936:Generated_Source\PSoC4/CSD_Filter.c ****                 ptrFilterHistObj.ptrRegular->regularChannel[channel].medHistory[1u] = \
 937:Generated_Source\PSoC4/CSD_Filter.c ****                 ptrFilterHistObj.ptrRegular->regularChannel[channel].medHistory[0u];
 938:Generated_Source\PSoC4/CSD_Filter.c ****                 ptrFilterHistObj.ptrRegular->regularChannel[channel].medHistory[0u] = ptrSensorObj-
 939:Generated_Source\PSoC4/CSD_Filter.c ****                 ptrSensorObj->raw[channel] = LO16(temp);
 940:Generated_Source\PSoC4/CSD_Filter.c ****             #endif /* (CSD_REGULAR_SENSOR_EN) */     
 941:Generated_Source\PSoC4/CSD_Filter.c ****         }
ARM GAS  C:\Users\CHRIST~1\AppData\Local\Temp\ccghn5Jm.s 			page 38


 942:Generated_Source\PSoC4/CSD_Filter.c ****         else 
 943:Generated_Source\PSoC4/CSD_Filter.c ****         {                   
 944:Generated_Source\PSoC4/CSD_Filter.c ****             #if (CSD_PROXIMITY_SENSOR_EN && CSD_PROX_RC_MEDIAN_FILTER_EN)
 945:Generated_Source\PSoC4/CSD_Filter.c ****                 temp = CSD_FtMedian((uint32)ptrSensorObj->raw[channel],\
 946:Generated_Source\PSoC4/CSD_Filter.c ****                                                  (uint32)ptrFilterHistObj.ptrProx->proxChannel[chan
 947:Generated_Source\PSoC4/CSD_Filter.c ****                                                  (uint32)ptrFilterHistObj.ptrProx->proxChannel[chan
 948:Generated_Source\PSoC4/CSD_Filter.c ****                 ptrFilterHistObj.ptrProx->proxChannel[channel].medHistory[1u] = \
 949:Generated_Source\PSoC4/CSD_Filter.c ****                 ptrFilterHistObj.ptrProx->proxChannel[channel].medHistory[0u];
 950:Generated_Source\PSoC4/CSD_Filter.c ****                 ptrFilterHistObj.ptrProx->proxChannel[channel].medHistory[0u] = ptrSensorObj->raw[c
 951:Generated_Source\PSoC4/CSD_Filter.c ****                 ptrSensorObj->raw[channel] = LO16(temp);
 952:Generated_Source\PSoC4/CSD_Filter.c ****             #endif /* (CSD_PROXIMITY_SENSOR_EN) */               
 953:Generated_Source\PSoC4/CSD_Filter.c ****         }
 954:Generated_Source\PSoC4/CSD_Filter.c ****     }
 955:Generated_Source\PSoC4/CSD_Filter.c **** }
 956:Generated_Source\PSoC4/CSD_Filter.c **** #endif /* (CSD_REGULAR_RC_MEDIAN_FILTER_EN || CSD_PROX_RC_MEDIAN_FILTER_EN) */
 957:Generated_Source\PSoC4/CSD_Filter.c **** 
 958:Generated_Source\PSoC4/CSD_Filter.c **** 
 959:Generated_Source\PSoC4/CSD_Filter.c **** #if (CSD_REGULAR_RC_AVERAGE_FILTER_EN || CSD_PROX_RC_AVERAGE_FILTER_EN)
 960:Generated_Source\PSoC4/CSD_Filter.c **** 
 961:Generated_Source\PSoC4/CSD_Filter.c **** /*******************************************************************************
 962:Generated_Source\PSoC4/CSD_Filter.c **** * Function Name: CSD_InitializeAverage
 963:Generated_Source\PSoC4/CSD_Filter.c **** ****************************************************************************//**
 964:Generated_Source\PSoC4/CSD_Filter.c **** *
 965:Generated_Source\PSoC4/CSD_Filter.c **** * \brief    Initializes the average filter history.
 966:Generated_Source\PSoC4/CSD_Filter.c **** *
 967:Generated_Source\PSoC4/CSD_Filter.c **** * \details  Initializes the average filter history.
 968:Generated_Source\PSoC4/CSD_Filter.c **** *
 969:Generated_Source\PSoC4/CSD_Filter.c **** * \param    widgetId Specifies the ID number of the widget.
 970:Generated_Source\PSoC4/CSD_Filter.c **** * \param    sensorId Specifies the ID number of the sensor in the widget.
 971:Generated_Source\PSoC4/CSD_Filter.c **** *
 972:Generated_Source\PSoC4/CSD_Filter.c **** *******************************************************************************/
 973:Generated_Source\PSoC4/CSD_Filter.c **** void CSD_InitializeAverage(uint32 widgetId, uint32 sensorId)
 974:Generated_Source\PSoC4/CSD_Filter.c **** {
 975:Generated_Source\PSoC4/CSD_Filter.c ****     CSD_FLASH_WD_STRUCT const *ptrWidget = &CSD_dsFlash.wdgtArray[widgetId];      
 976:Generated_Source\PSoC4/CSD_Filter.c ****     CSD_RAM_SNS_STRUCT *ptrSensor = NULL;
 977:Generated_Source\PSoC4/CSD_Filter.c ****     CSD_PTR_FILTER_VARIANT ptrFilterHistObj;
 978:Generated_Source\PSoC4/CSD_Filter.c **** 
 979:Generated_Source\PSoC4/CSD_Filter.c ****     /* Find pointer to specified sensor object */
 980:Generated_Source\PSoC4/CSD_Filter.c ****     ptrSensor = ptrWidget->ptr2SnsRam;
 981:Generated_Source\PSoC4/CSD_Filter.c ****     ptrSensor = &ptrSensor[sensorId];
 982:Generated_Source\PSoC4/CSD_Filter.c ****     
 983:Generated_Source\PSoC4/CSD_Filter.c ****     /* Find pointer to specified filter sensor object */
 984:Generated_Source\PSoC4/CSD_Filter.c ****     ptrFilterHistObj.ptr = ptrWidget->ptr2FltrHistory;
 985:Generated_Source\PSoC4/CSD_Filter.c **** 
 986:Generated_Source\PSoC4/CSD_Filter.c ****     if ((CSD_WD_TYPE_ENUM)ptrWidget->wdgtType != CSD_WD_PROXIMITY_E)
 987:Generated_Source\PSoC4/CSD_Filter.c ****     {
 988:Generated_Source\PSoC4/CSD_Filter.c ****         #if (CSD_REGULAR_SENSOR_EN)
 989:Generated_Source\PSoC4/CSD_Filter.c ****             ptrFilterHistObj.ptrRegular = &ptrFilterHistObj.ptrRegular[sensorId];
 990:Generated_Source\PSoC4/CSD_Filter.c ****         #endif /* (CSD_REGULAR_SENSOR_EN) */
 991:Generated_Source\PSoC4/CSD_Filter.c ****     }
 992:Generated_Source\PSoC4/CSD_Filter.c ****     else
 993:Generated_Source\PSoC4/CSD_Filter.c ****     {
 994:Generated_Source\PSoC4/CSD_Filter.c ****         #if (CSD_PROXIMITY_SENSOR_EN)
 995:Generated_Source\PSoC4/CSD_Filter.c ****             ptrFilterHistObj.ptrProx = &ptrFilterHistObj.ptrProx[sensorId];
 996:Generated_Source\PSoC4/CSD_Filter.c ****         #endif /* (CSD_PROXIMITY_SENSOR_EN) */
 997:Generated_Source\PSoC4/CSD_Filter.c ****     }
 998:Generated_Source\PSoC4/CSD_Filter.c **** 
ARM GAS  C:\Users\CHRIST~1\AppData\Local\Temp\ccghn5Jm.s 			page 39


 999:Generated_Source\PSoC4/CSD_Filter.c ****     CSD_InitializeAverageInternal(ptrFilterHistObj, ptrSensor, (uint32)ptrWidget->wdgtType);
1000:Generated_Source\PSoC4/CSD_Filter.c **** }
1001:Generated_Source\PSoC4/CSD_Filter.c **** 
1002:Generated_Source\PSoC4/CSD_Filter.c **** 
1003:Generated_Source\PSoC4/CSD_Filter.c **** /*******************************************************************************
1004:Generated_Source\PSoC4/CSD_Filter.c **** * Function Name: CSD_RunAverage
1005:Generated_Source\PSoC4/CSD_Filter.c **** ****************************************************************************//**
1006:Generated_Source\PSoC4/CSD_Filter.c **** *
1007:Generated_Source\PSoC4/CSD_Filter.c **** * \brief    Executes the average filter algorithm on a sensor indicated by an input 
1008:Generated_Source\PSoC4/CSD_Filter.c **** *           parameter. 
1009:Generated_Source\PSoC4/CSD_Filter.c **** *
1010:Generated_Source\PSoC4/CSD_Filter.c **** * \details  Executes the average filter algorithm on a sensor indicated by an input 
1011:Generated_Source\PSoC4/CSD_Filter.c **** *           parameter. 
1012:Generated_Source\PSoC4/CSD_Filter.c **** *
1013:Generated_Source\PSoC4/CSD_Filter.c **** * \param    widgetId Specifies the ID number of the widget.
1014:Generated_Source\PSoC4/CSD_Filter.c **** * \param    sensorId Specifies the ID number of the sensor in the widget.
1015:Generated_Source\PSoC4/CSD_Filter.c **** *
1016:Generated_Source\PSoC4/CSD_Filter.c **** *******************************************************************************/
1017:Generated_Source\PSoC4/CSD_Filter.c **** void CSD_RunAverage(uint32 widgetId, uint32 sensorId)
1018:Generated_Source\PSoC4/CSD_Filter.c **** {
1019:Generated_Source\PSoC4/CSD_Filter.c ****     CSD_FLASH_WD_STRUCT const *ptrWidget = &CSD_dsFlash.wdgtArray[widgetId];      
1020:Generated_Source\PSoC4/CSD_Filter.c ****     CSD_RAM_SNS_STRUCT *ptrSensor = NULL;    
1021:Generated_Source\PSoC4/CSD_Filter.c ****     CSD_PTR_FILTER_VARIANT ptrFilterHistObj; 
1022:Generated_Source\PSoC4/CSD_Filter.c ****               
1023:Generated_Source\PSoC4/CSD_Filter.c ****     /* Find pointer to specified sensor object */     
1024:Generated_Source\PSoC4/CSD_Filter.c ****     ptrSensor = ptrWidget->ptr2SnsRam;
1025:Generated_Source\PSoC4/CSD_Filter.c ****     ptrSensor = &ptrSensor[sensorId];
1026:Generated_Source\PSoC4/CSD_Filter.c ****     
1027:Generated_Source\PSoC4/CSD_Filter.c ****     /* Find pointer to specified filter sensor object */     
1028:Generated_Source\PSoC4/CSD_Filter.c ****     ptrFilterHistObj.ptr = ptrWidget->ptr2FltrHistory;
1029:Generated_Source\PSoC4/CSD_Filter.c ****     
1030:Generated_Source\PSoC4/CSD_Filter.c ****     if ((CSD_WD_TYPE_ENUM)ptrWidget->wdgtType != CSD_WD_PROXIMITY_E)
1031:Generated_Source\PSoC4/CSD_Filter.c ****     {
1032:Generated_Source\PSoC4/CSD_Filter.c ****         #if (CSD_REGULAR_SENSOR_EN)
1033:Generated_Source\PSoC4/CSD_Filter.c ****             ptrFilterHistObj.ptrRegular = &ptrFilterHistObj.ptrRegular[sensorId];
1034:Generated_Source\PSoC4/CSD_Filter.c ****         #endif /* (CSD_REGULAR_SENSOR_EN) */
1035:Generated_Source\PSoC4/CSD_Filter.c ****     }
1036:Generated_Source\PSoC4/CSD_Filter.c ****     else
1037:Generated_Source\PSoC4/CSD_Filter.c ****     {
1038:Generated_Source\PSoC4/CSD_Filter.c ****         #if (CSD_PROXIMITY_SENSOR_EN)
1039:Generated_Source\PSoC4/CSD_Filter.c ****             ptrFilterHistObj.ptrProx = &ptrFilterHistObj.ptrProx[sensorId];
1040:Generated_Source\PSoC4/CSD_Filter.c ****         #endif /* (CSD_PROXIMITY_SENSOR_EN) */
1041:Generated_Source\PSoC4/CSD_Filter.c ****     }
1042:Generated_Source\PSoC4/CSD_Filter.c ****     
1043:Generated_Source\PSoC4/CSD_Filter.c ****     CSD_RunAverageInternal(ptrFilterHistObj, ptrSensor, (uint32)ptrWidget->wdgtType);
1044:Generated_Source\PSoC4/CSD_Filter.c **** }
1045:Generated_Source\PSoC4/CSD_Filter.c **** 
1046:Generated_Source\PSoC4/CSD_Filter.c **** 
1047:Generated_Source\PSoC4/CSD_Filter.c **** /*******************************************************************************
1048:Generated_Source\PSoC4/CSD_Filter.c **** * Function Name: CSD_InitializeAverageInternal
1049:Generated_Source\PSoC4/CSD_Filter.c **** ****************************************************************************//**
1050:Generated_Source\PSoC4/CSD_Filter.c **** *
1051:Generated_Source\PSoC4/CSD_Filter.c **** * \brief    Initializes the average filter.
1052:Generated_Source\PSoC4/CSD_Filter.c **** *
1053:Generated_Source\PSoC4/CSD_Filter.c **** * \details  Initializes the average filter.
1054:Generated_Source\PSoC4/CSD_Filter.c **** *
1055:Generated_Source\PSoC4/CSD_Filter.c **** * \param    ptrFilterHistObj The pointer to the filter RAM object of the sensor.
ARM GAS  C:\Users\CHRIST~1\AppData\Local\Temp\ccghn5Jm.s 			page 40


1056:Generated_Source\PSoC4/CSD_Filter.c **** * \param    ptrSensorObj     The pointer to the sensor RAM object of the sensor.
1057:Generated_Source\PSoC4/CSD_Filter.c **** * \param    wdType           Specifies the type of a widget.
1058:Generated_Source\PSoC4/CSD_Filter.c **** *
1059:Generated_Source\PSoC4/CSD_Filter.c **** *******************************************************************************/
1060:Generated_Source\PSoC4/CSD_Filter.c **** void CSD_InitializeAverageInternal(CSD_PTR_FILTER_VARIANT ptrFilterHistObj,\
1061:Generated_Source\PSoC4/CSD_Filter.c ****                                                   CSD_RAM_SNS_STRUCT *ptrSensorObj, uint32 wdType)
1062:Generated_Source\PSoC4/CSD_Filter.c **** {
1063:Generated_Source\PSoC4/CSD_Filter.c ****     uint32 channel;
1064:Generated_Source\PSoC4/CSD_Filter.c **** 
1065:Generated_Source\PSoC4/CSD_Filter.c ****     for(channel = CSD_NUM_SCAN_FREQS; channel-- > 0u;)
1066:Generated_Source\PSoC4/CSD_Filter.c ****     {
1067:Generated_Source\PSoC4/CSD_Filter.c ****         if ((CSD_WD_TYPE_ENUM)wdType != CSD_WD_PROXIMITY_E)
1068:Generated_Source\PSoC4/CSD_Filter.c ****         {
1069:Generated_Source\PSoC4/CSD_Filter.c ****             #if (CSD_REGULAR_SENSOR_EN && CSD_REGULAR_RC_AVERAGE_FILTER_EN)
1070:Generated_Source\PSoC4/CSD_Filter.c ****                 ptrFilterHistObj.ptrRegular->regularChannel[channel].avgHistory[0] = ptrSensorObj->
1071:Generated_Source\PSoC4/CSD_Filter.c ****                 #if (CSD_REGULAR_AVERAGE_LEN == CSD_AVERAGE_FILTER_LEN_4)
1072:Generated_Source\PSoC4/CSD_Filter.c ****                     ptrFilterHistObj.ptrRegular->regularChannel[channel].avgHistory[1u] = ptrSensor
1073:Generated_Source\PSoC4/CSD_Filter.c ****                     ptrFilterHistObj.ptrRegular->regularChannel[channel].avgHistory[2u] = ptrSensor
1074:Generated_Source\PSoC4/CSD_Filter.c ****                 #endif /* CSD_REGULAR_AVERAGE_LEN == CSD_AVERAGE_FILTER_LEN_4 */
1075:Generated_Source\PSoC4/CSD_Filter.c ****             #endif /* (CSD_REGULAR_SENSOR_EN) */      
1076:Generated_Source\PSoC4/CSD_Filter.c ****         }
1077:Generated_Source\PSoC4/CSD_Filter.c ****         else
1078:Generated_Source\PSoC4/CSD_Filter.c ****         {
1079:Generated_Source\PSoC4/CSD_Filter.c ****             #if (CSD_PROXIMITY_SENSOR_EN && CSD_PROX_RC_AVERAGE_FILTER_EN)
1080:Generated_Source\PSoC4/CSD_Filter.c ****                 ptrFilterHistObj.ptrProx->proxChannel[channel].avgHistory[0] = ptrSensorObj->raw[ch
1081:Generated_Source\PSoC4/CSD_Filter.c ****                     #if (CSD_PROX_AVERAGE_LEN == CSD_AVERAGE_FILTER_LEN_4)
1082:Generated_Source\PSoC4/CSD_Filter.c ****                         ptrFilterHistObj.ptrProx->proxChannel[channel].avgHistory[1u] = ptrSensorOb
1083:Generated_Source\PSoC4/CSD_Filter.c ****                         ptrFilterHistObj.ptrProx->proxChannel[channel].avgHistory[2u] = ptrSensorOb
1084:Generated_Source\PSoC4/CSD_Filter.c ****                     #endif /* CSD_REGULAR_AVERAGE_LEN == CSD_AVERAGE_FILTER_LEN_4 */
1085:Generated_Source\PSoC4/CSD_Filter.c ****             #endif /* (CSD_PROXIMITY_SENSOR_EN) */
1086:Generated_Source\PSoC4/CSD_Filter.c ****         }
1087:Generated_Source\PSoC4/CSD_Filter.c ****     }
1088:Generated_Source\PSoC4/CSD_Filter.c **** }
1089:Generated_Source\PSoC4/CSD_Filter.c **** 
1090:Generated_Source\PSoC4/CSD_Filter.c **** 
1091:Generated_Source\PSoC4/CSD_Filter.c **** /*******************************************************************************
1092:Generated_Source\PSoC4/CSD_Filter.c **** * Function Name: CSD_RunAverageInternal
1093:Generated_Source\PSoC4/CSD_Filter.c **** ****************************************************************************//**
1094:Generated_Source\PSoC4/CSD_Filter.c **** *
1095:Generated_Source\PSoC4/CSD_Filter.c **** * \brief    Runs the average filter.
1096:Generated_Source\PSoC4/CSD_Filter.c **** *
1097:Generated_Source\PSoC4/CSD_Filter.c **** * \details  Runs the average filter.
1098:Generated_Source\PSoC4/CSD_Filter.c **** *
1099:Generated_Source\PSoC4/CSD_Filter.c **** * \param    ptrFilterHistObj The pointer to the filter RAM object of the sensor.
1100:Generated_Source\PSoC4/CSD_Filter.c **** * \param    ptrSensorObj     The pointer to the sensor RAM object of the sensor.
1101:Generated_Source\PSoC4/CSD_Filter.c **** * \param    wdType           Specifies the type of a widget.
1102:Generated_Source\PSoC4/CSD_Filter.c **** *
1103:Generated_Source\PSoC4/CSD_Filter.c **** *******************************************************************************/
1104:Generated_Source\PSoC4/CSD_Filter.c **** void CSD_RunAverageInternal(CSD_PTR_FILTER_VARIANT ptrFilterHistObj,\
1105:Generated_Source\PSoC4/CSD_Filter.c ****                                            CSD_RAM_SNS_STRUCT *ptrSensorObj, uint32 wdType)
1106:Generated_Source\PSoC4/CSD_Filter.c **** {
1107:Generated_Source\PSoC4/CSD_Filter.c ****     uint32 channel;
1108:Generated_Source\PSoC4/CSD_Filter.c ****     uint32 temp;
1109:Generated_Source\PSoC4/CSD_Filter.c **** 
1110:Generated_Source\PSoC4/CSD_Filter.c ****     for(channel = CSD_NUM_SCAN_FREQS; channel-- > 0u;)
1111:Generated_Source\PSoC4/CSD_Filter.c ****     {
1112:Generated_Source\PSoC4/CSD_Filter.c ****         if ((CSD_WD_TYPE_ENUM)wdType != CSD_WD_PROXIMITY_E)
ARM GAS  C:\Users\CHRIST~1\AppData\Local\Temp\ccghn5Jm.s 			page 41


1113:Generated_Source\PSoC4/CSD_Filter.c ****         {
1114:Generated_Source\PSoC4/CSD_Filter.c ****             #if (CSD_REGULAR_SENSOR_EN && CSD_REGULAR_RC_AVERAGE_FILTER_EN)
1115:Generated_Source\PSoC4/CSD_Filter.c ****                 #if (CSD_REGULAR_AVERAGE_LEN == CSD_AVERAGE_FILTER_LEN_2)
1116:Generated_Source\PSoC4/CSD_Filter.c ****                     temp = ((uint32)ptrSensorObj->raw[channel] + 
1117:Generated_Source\PSoC4/CSD_Filter.c ****                             (uint32)ptrFilterHistObj.ptrRegular->regularChannel[channel].avgHistory
1118:Generated_Source\PSoC4/CSD_Filter.c ****                     ptrFilterHistObj.ptrRegular->regularChannel[channel].avgHistory[0] = ptrSensorO
1119:Generated_Source\PSoC4/CSD_Filter.c ****                     ptrSensorObj->raw[channel] = LO16(temp);
1120:Generated_Source\PSoC4/CSD_Filter.c ****                 #else
1121:Generated_Source\PSoC4/CSD_Filter.c ****                     temp = ((uint32)ptrSensorObj->raw[channel] + 
1122:Generated_Source\PSoC4/CSD_Filter.c ****                             (uint32)ptrFilterHistObj.ptrRegular->regularChannel[channel].avgHistory
1123:Generated_Source\PSoC4/CSD_Filter.c ****                             (uint32)ptrFilterHistObj.ptrRegular->regularChannel[channel].avgHistory
1124:Generated_Source\PSoC4/CSD_Filter.c ****                             (uint32)ptrFilterHistObj.ptrRegular->regularChannel[channel].avgHistory
1125:Generated_Source\PSoC4/CSD_Filter.c **** 
1126:Generated_Source\PSoC4/CSD_Filter.c ****                     ptrFilterHistObj.ptrRegular->regularChannel[channel].avgHistory[2u] =
1127:Generated_Source\PSoC4/CSD_Filter.c ****                     ptrFilterHistObj.ptrRegular->regularChannel[channel].avgHistory[1u];
1128:Generated_Source\PSoC4/CSD_Filter.c ****                     ptrFilterHistObj.ptrRegular->regularChannel[channel].avgHistory[1u] =
1129:Generated_Source\PSoC4/CSD_Filter.c ****                     ptrFilterHistObj.ptrRegular->regularChannel[channel].avgHistory[0];
1130:Generated_Source\PSoC4/CSD_Filter.c ****                     ptrFilterHistObj.ptrRegular->regularChannel[channel].avgHistory[0] = ptrSensorO
1131:Generated_Source\PSoC4/CSD_Filter.c ****                     ptrSensorObj->raw[channel] = LO16(temp);
1132:Generated_Source\PSoC4/CSD_Filter.c ****                 #endif /* CSD_REGULAR_AVERAGE_LEN == CSD_AVERAGE_FILTER_LEN_4 */
1133:Generated_Source\PSoC4/CSD_Filter.c ****             #endif /* (CSD_REGULAR_SENSOR_EN) */
1134:Generated_Source\PSoC4/CSD_Filter.c ****         }
1135:Generated_Source\PSoC4/CSD_Filter.c ****         else 
1136:Generated_Source\PSoC4/CSD_Filter.c ****         {
1137:Generated_Source\PSoC4/CSD_Filter.c ****             #if (CSD_PROXIMITY_SENSOR_EN && CSD_PROX_RC_AVERAGE_FILTER_EN)
1138:Generated_Source\PSoC4/CSD_Filter.c ****                 #if (CSD_PROX_AVERAGE_LEN == CSD_AVERAGE_FILTER_LEN_2)     
1139:Generated_Source\PSoC4/CSD_Filter.c ****                     temp = ((uint32)ptrSensorObj->raw[channel] + 
1140:Generated_Source\PSoC4/CSD_Filter.c ****                             (uint32)ptrFilterHistObj.ptrProx->proxChannel[channel].avgHistory[0]) >
1141:Generated_Source\PSoC4/CSD_Filter.c ****                     ptrFilterHistObj.ptrProx->proxChannel[channel].avgHistory[0] = ptrSensorObj->ra
1142:Generated_Source\PSoC4/CSD_Filter.c ****                     ptrSensorObj->raw[channel] = LO16(temp);
1143:Generated_Source\PSoC4/CSD_Filter.c ****                 #else
1144:Generated_Source\PSoC4/CSD_Filter.c ****                     temp = ((uint32)ptrSensorObj->raw[channel] + 
1145:Generated_Source\PSoC4/CSD_Filter.c ****                             (uint32)ptrFilterHistObj.ptrProx->proxChannel[channel].avgHistory[0] +
1146:Generated_Source\PSoC4/CSD_Filter.c ****                             (uint32)ptrFilterHistObj.ptrProx->proxChannel[channel].avgHistory[1u] +
1147:Generated_Source\PSoC4/CSD_Filter.c ****                             (uint32)ptrFilterHistObj.ptrProx->proxChannel[channel].avgHistory[2u]) 
1148:Generated_Source\PSoC4/CSD_Filter.c ****                     
1149:Generated_Source\PSoC4/CSD_Filter.c ****                     ptrFilterHistObj.ptrProx->proxChannel[channel].avgHistory[2u] =
1150:Generated_Source\PSoC4/CSD_Filter.c ****                     ptrFilterHistObj.ptrProx->proxChannel[channel].avgHistory[1u];
1151:Generated_Source\PSoC4/CSD_Filter.c ****                     ptrFilterHistObj.ptrProx->proxChannel[channel].avgHistory[1u] =
1152:Generated_Source\PSoC4/CSD_Filter.c ****                     ptrFilterHistObj.ptrProx->proxChannel[channel].avgHistory[0];
1153:Generated_Source\PSoC4/CSD_Filter.c ****                     ptrFilterHistObj.ptrProx->proxChannel[channel].avgHistory[0] = ptrSensorObj->ra
1154:Generated_Source\PSoC4/CSD_Filter.c ****                     ptrSensorObj->raw[channel] = LO16(temp);
1155:Generated_Source\PSoC4/CSD_Filter.c ****                 #endif /* CSD_PROX_AVERAGE_LEN == CSD_AVERAGE_FILTER_LEN_4 */
1156:Generated_Source\PSoC4/CSD_Filter.c ****             #endif /* (CSD_PROXIMITY_SENSOR_EN) */
1157:Generated_Source\PSoC4/CSD_Filter.c ****         }
1158:Generated_Source\PSoC4/CSD_Filter.c ****     }
1159:Generated_Source\PSoC4/CSD_Filter.c **** }
1160:Generated_Source\PSoC4/CSD_Filter.c **** #endif /* (CSD_REGULAR_RC_AVERAGE_FILTER_EN || CSD_PROX_RC_AVERAGE_FILTER_EN) */
1161:Generated_Source\PSoC4/CSD_Filter.c **** 
1162:Generated_Source\PSoC4/CSD_Filter.c **** 
1163:Generated_Source\PSoC4/CSD_Filter.c **** #if ((CSD_REGULAR_RC_FILTER_EN || CSD_PROX_RC_FILTER_EN))
1164:Generated_Source\PSoC4/CSD_Filter.c **** /*******************************************************************************
1165:Generated_Source\PSoC4/CSD_Filter.c **** * Function Name: CSD_FtRunEnabledFilters
1166:Generated_Source\PSoC4/CSD_Filter.c **** ****************************************************************************//**
1167:Generated_Source\PSoC4/CSD_Filter.c **** *
1168:Generated_Source\PSoC4/CSD_Filter.c **** * \brief    Runs all enabled filters.
1169:Generated_Source\PSoC4/CSD_Filter.c **** *
ARM GAS  C:\Users\CHRIST~1\AppData\Local\Temp\ccghn5Jm.s 			page 42


1170:Generated_Source\PSoC4/CSD_Filter.c **** * \details  Runs all enabled filters.
1171:Generated_Source\PSoC4/CSD_Filter.c **** *
1172:Generated_Source\PSoC4/CSD_Filter.c **** * \param    widgetId Specifies the ID number of a widget to update the IIR filter history.*
1173:Generated_Source\PSoC4/CSD_Filter.c **** * \param    sensorId Specifies the ID number of a sensor in the widget to update the IIR 
1174:Generated_Source\PSoC4/CSD_Filter.c **** *           filter history.
1175:Generated_Source\PSoC4/CSD_Filter.c **** *
1176:Generated_Source\PSoC4/CSD_Filter.c **** *******************************************************************************/
1177:Generated_Source\PSoC4/CSD_Filter.c **** void CSD_FtRunEnabledFilters(uint32 widgetId, uint32 sensorId)
1178:Generated_Source\PSoC4/CSD_Filter.c **** {
 1154              		.loc 1 1178 0
 1155              		.cfi_startproc
 1156 0000 90B5     		push	{r4, r7, lr}
 1157              		.cfi_def_cfa_offset 12
 1158              		.cfi_offset 4, -12
 1159              		.cfi_offset 7, -8
 1160              		.cfi_offset 14, -4
 1161 0002 87B0     		sub	sp, sp, #28
 1162              		.cfi_def_cfa_offset 40
 1163 0004 00AF     		add	r7, sp, #0
 1164              		.cfi_def_cfa_register 7
 1165 0006 7860     		str	r0, [r7, #4]
 1166 0008 3960     		str	r1, [r7]
1179:Generated_Source\PSoC4/CSD_Filter.c ****     CSD_FLASH_WD_STRUCT const *ptrWidget = &CSD_dsFlash.wdgtArray[widgetId];      
 1167              		.loc 1 1179 0
 1168 000a 7A68     		ldr	r2, [r7, #4]
 1169 000c 131C     		mov	r3, r2
 1170 000e DB00     		lsl	r3, r3, #3
 1171 0010 9B1A     		sub	r3, r3, r2
 1172 0012 9B00     		lsl	r3, r3, #2
 1173 0014 144A     		ldr	r2, .L65
 1174 0016 9B18     		add	r3, r3, r2
 1175 0018 7B61     		str	r3, [r7, #20]
1180:Generated_Source\PSoC4/CSD_Filter.c ****     CSD_RAM_SNS_STRUCT *ptrSensor = NULL;    
 1176              		.loc 1 1180 0
 1177 001a 0023     		mov	r3, #0
 1178 001c 3B61     		str	r3, [r7, #16]
1181:Generated_Source\PSoC4/CSD_Filter.c ****     CSD_PTR_FILTER_VARIANT ptrFilterHistObj; 
1182:Generated_Source\PSoC4/CSD_Filter.c ****               
1183:Generated_Source\PSoC4/CSD_Filter.c ****     /* Find pointer to specified sensor object */     
1184:Generated_Source\PSoC4/CSD_Filter.c ****     ptrSensor = ptrWidget->ptr2SnsRam;
 1179              		.loc 1 1184 0
 1180 001e 7B69     		ldr	r3, [r7, #20]
 1181 0020 9B68     		ldr	r3, [r3, #8]
 1182 0022 3B61     		str	r3, [r7, #16]
1185:Generated_Source\PSoC4/CSD_Filter.c ****     ptrSensor = &ptrSensor[sensorId];
 1183              		.loc 1 1185 0
 1184 0024 3A68     		ldr	r2, [r7]
 1185 0026 131C     		mov	r3, r2
 1186 0028 9B00     		lsl	r3, r3, #2
 1187 002a 9B18     		add	r3, r3, r2
 1188 002c 5B00     		lsl	r3, r3, #1
 1189 002e 1A1C     		mov	r2, r3
 1190 0030 3B69     		ldr	r3, [r7, #16]
 1191 0032 9B18     		add	r3, r3, r2
 1192 0034 3B61     		str	r3, [r7, #16]
1186:Generated_Source\PSoC4/CSD_Filter.c ****     
1187:Generated_Source\PSoC4/CSD_Filter.c ****     /* Find pointer to specified filter sensor object */     
ARM GAS  C:\Users\CHRIST~1\AppData\Local\Temp\ccghn5Jm.s 			page 43


1188:Generated_Source\PSoC4/CSD_Filter.c ****     ptrFilterHistObj.ptr = ptrWidget->ptr2FltrHistory;
 1193              		.loc 1 1188 0
 1194 0036 7B69     		ldr	r3, [r7, #20]
 1195 0038 DB68     		ldr	r3, [r3, #12]
 1196 003a FB60     		str	r3, [r7, #12]
1189:Generated_Source\PSoC4/CSD_Filter.c ****     
1190:Generated_Source\PSoC4/CSD_Filter.c ****     if ((CSD_WD_TYPE_ENUM)ptrWidget->wdgtType != CSD_WD_PROXIMITY_E)
 1197              		.loc 1 1190 0
 1198 003c 7B69     		ldr	r3, [r7, #20]
 1199 003e 1B7E     		ldrb	r3, [r3, #24]
 1200 0040 062B     		cmp	r3, #6
 1201 0042 04D0     		beq	.L64
1191:Generated_Source\PSoC4/CSD_Filter.c ****     {
1192:Generated_Source\PSoC4/CSD_Filter.c ****         #if (CSD_REGULAR_SENSOR_EN)
1193:Generated_Source\PSoC4/CSD_Filter.c ****             ptrFilterHistObj.ptrRegular = &ptrFilterHistObj.ptrRegular[sensorId];
 1202              		.loc 1 1193 0
 1203 0044 FA68     		ldr	r2, [r7, #12]
 1204 0046 3B68     		ldr	r3, [r7]
 1205 0048 5B00     		lsl	r3, r3, #1
 1206 004a D318     		add	r3, r2, r3
 1207 004c FB60     		str	r3, [r7, #12]
 1208              	.L64:
1194:Generated_Source\PSoC4/CSD_Filter.c ****         #endif /* (CSD_REGULAR_SENSOR_EN) */
1195:Generated_Source\PSoC4/CSD_Filter.c ****     }
1196:Generated_Source\PSoC4/CSD_Filter.c ****     else
1197:Generated_Source\PSoC4/CSD_Filter.c ****     {
1198:Generated_Source\PSoC4/CSD_Filter.c ****         #if (CSD_PROXIMITY_SENSOR_EN)
1199:Generated_Source\PSoC4/CSD_Filter.c ****             ptrFilterHistObj.ptrProx = &ptrFilterHistObj.ptrProx[sensorId];
1200:Generated_Source\PSoC4/CSD_Filter.c ****         #endif /* (CSD_PROXIMITY_SENSOR_EN) */
1201:Generated_Source\PSoC4/CSD_Filter.c ****     }
1202:Generated_Source\PSoC4/CSD_Filter.c ****     
1203:Generated_Source\PSoC4/CSD_Filter.c ****     CSD_FtRunEnabledFiltersInternal(ptrFilterHistObj, ptrSensor, (uint32)ptrWidget->wdgtType);
 1209              		.loc 1 1203 0
 1210 004e 7B69     		ldr	r3, [r7, #20]
 1211 0050 1B7E     		ldrb	r3, [r3, #24]
 1212 0052 1C1C     		mov	r4, r3
 1213 0054 FA68     		ldr	r2, [r7, #12]
 1214 0056 3B69     		ldr	r3, [r7, #16]
 1215 0058 101C     		mov	r0, r2
 1216 005a 191C     		mov	r1, r3
 1217 005c 221C     		mov	r2, r4
 1218 005e FFF7FEFF 		bl	CSD_FtRunEnabledFiltersInternal
1204:Generated_Source\PSoC4/CSD_Filter.c **** }
 1219              		.loc 1 1204 0
 1220 0062 BD46     		mov	sp, r7
 1221 0064 07B0     		add	sp, sp, #28
 1222              		@ sp needed
 1223 0066 90BD     		pop	{r4, r7, pc}
 1224              	.L66:
 1225              		.align	2
 1226              	.L65:
 1227 0068 00000000 		.word	CSD_dsFlash
 1228              		.cfi_endproc
 1229              	.LFE15:
 1230              		.size	CSD_FtRunEnabledFilters, .-CSD_FtRunEnabledFilters
 1231              		.section	.text.CSD_FtRunEnabledFiltersInternal,"ax",%progbits
 1232              		.align	2
ARM GAS  C:\Users\CHRIST~1\AppData\Local\Temp\ccghn5Jm.s 			page 44


 1233              		.global	CSD_FtRunEnabledFiltersInternal
 1234              		.code	16
 1235              		.thumb_func
 1236              		.type	CSD_FtRunEnabledFiltersInternal, %function
 1237              	CSD_FtRunEnabledFiltersInternal:
 1238              	.LFB16:
1205:Generated_Source\PSoC4/CSD_Filter.c **** 
1206:Generated_Source\PSoC4/CSD_Filter.c **** 
1207:Generated_Source\PSoC4/CSD_Filter.c **** /*******************************************************************************
1208:Generated_Source\PSoC4/CSD_Filter.c **** * Function Name: CSD_FtRunEnabledFiltersInternal
1209:Generated_Source\PSoC4/CSD_Filter.c **** ****************************************************************************//**
1210:Generated_Source\PSoC4/CSD_Filter.c **** *
1211:Generated_Source\PSoC4/CSD_Filter.c **** * \brief    Runs all enabled filters.
1212:Generated_Source\PSoC4/CSD_Filter.c **** *
1213:Generated_Source\PSoC4/CSD_Filter.c **** * \details  Runs all enabled filters.
1214:Generated_Source\PSoC4/CSD_Filter.c **** *
1215:Generated_Source\PSoC4/CSD_Filter.c **** * \param    ptrFilterHistObj The pointer to the filter RAM object of the sensor.
1216:Generated_Source\PSoC4/CSD_Filter.c **** * \param    ptrSensorObj     The pointer to the sensor RAM object of the sensor.
1217:Generated_Source\PSoC4/CSD_Filter.c **** * \param    wdType           Specifies the type of a widget.
1218:Generated_Source\PSoC4/CSD_Filter.c **** *
1219:Generated_Source\PSoC4/CSD_Filter.c **** *******************************************************************************/
1220:Generated_Source\PSoC4/CSD_Filter.c **** void CSD_FtRunEnabledFiltersInternal(CSD_PTR_FILTER_VARIANT ptrFilterHistObj, 
1221:Generated_Source\PSoC4/CSD_Filter.c ****                                                   CSD_RAM_SNS_STRUCT *ptrSensorObj, uint32 wdType)
1222:Generated_Source\PSoC4/CSD_Filter.c **** {
 1239              		.loc 1 1222 0
 1240              		.cfi_startproc
 1241 0000 80B5     		push	{r7, lr}
 1242              		.cfi_def_cfa_offset 8
 1243              		.cfi_offset 7, -8
 1244              		.cfi_offset 14, -4
 1245 0002 84B0     		sub	sp, sp, #16
 1246              		.cfi_def_cfa_offset 24
 1247 0004 00AF     		add	r7, sp, #0
 1248              		.cfi_def_cfa_register 7
 1249 0006 F860     		str	r0, [r7, #12]
 1250 0008 B960     		str	r1, [r7, #8]
 1251 000a 7A60     		str	r2, [r7, #4]
1223:Generated_Source\PSoC4/CSD_Filter.c ****     #if (CSD_REGULAR_RC_MEDIAN_FILTER_EN || CSD_PROX_RC_MEDIAN_FILTER_EN)
1224:Generated_Source\PSoC4/CSD_Filter.c ****         CSD_RunMedianInternal(ptrFilterHistObj, ptrSensorObj, wdType);
1225:Generated_Source\PSoC4/CSD_Filter.c ****     #endif /* (CSD_REGULAR_RC_MEDIAN_FILTER_EN || CSD_PROX_RC_MEDIAN_FILTER_EN) */
1226:Generated_Source\PSoC4/CSD_Filter.c ****     
1227:Generated_Source\PSoC4/CSD_Filter.c ****     #if (CSD_REGULAR_RC_IIR_FILTER_EN || CSD_PROX_RC_IIR_FILTER_EN)    
1228:Generated_Source\PSoC4/CSD_Filter.c ****         CSD_RunIIRInternal(ptrFilterHistObj, ptrSensorObj, wdType);
 1252              		.loc 1 1228 0
 1253 000c F968     		ldr	r1, [r7, #12]
 1254 000e BA68     		ldr	r2, [r7, #8]
 1255 0010 7B68     		ldr	r3, [r7, #4]
 1256 0012 081C     		mov	r0, r1
 1257 0014 111C     		mov	r1, r2
 1258 0016 1A1C     		mov	r2, r3
 1259 0018 FFF7FEFF 		bl	CSD_RunIIRInternal
1229:Generated_Source\PSoC4/CSD_Filter.c ****     #endif /* (CSD_REGULAR_RC_IIR_FILTER_EN || CSD_PROX_RC_IIR_FILTER_EN) */ 
1230:Generated_Source\PSoC4/CSD_Filter.c **** 
1231:Generated_Source\PSoC4/CSD_Filter.c ****     #if (CSD_REGULAR_RC_AVERAGE_FILTER_EN || CSD_PROX_RC_AVERAGE_FILTER_EN)
1232:Generated_Source\PSoC4/CSD_Filter.c ****         CSD_RunAverageInternal(ptrFilterHistObj, ptrSensorObj, wdType);
1233:Generated_Source\PSoC4/CSD_Filter.c ****     #endif /* (CSD_REGULAR_RC_AVERAGE_FILTER_EN || CSD_PROX_RC_AVERAGE_FILTER_EN) */            
1234:Generated_Source\PSoC4/CSD_Filter.c **** }
ARM GAS  C:\Users\CHRIST~1\AppData\Local\Temp\ccghn5Jm.s 			page 45


 1260              		.loc 1 1234 0
 1261 001c BD46     		mov	sp, r7
 1262 001e 04B0     		add	sp, sp, #16
 1263              		@ sp needed
 1264 0020 80BD     		pop	{r7, pc}
 1265              		.cfi_endproc
 1266              	.LFE16:
 1267              		.size	CSD_FtRunEnabledFiltersInternal, .-CSD_FtRunEnabledFiltersInternal
 1268 0022 C046     		.section	.text.CSD_FtIIR1stOrder,"ax",%progbits
 1269              		.align	2
 1270              		.global	CSD_FtIIR1stOrder
 1271              		.code	16
 1272              		.thumb_func
 1273              		.type	CSD_FtIIR1stOrder, %function
 1274              	CSD_FtIIR1stOrder:
 1275              	.LFB17:
1235:Generated_Source\PSoC4/CSD_Filter.c **** #endif /* (CSD_REGULAR_RC_FILTER_EN || CSD_PROX_RC_FILTER_EN) */
1236:Generated_Source\PSoC4/CSD_Filter.c **** 
1237:Generated_Source\PSoC4/CSD_Filter.c **** 
1238:Generated_Source\PSoC4/CSD_Filter.c **** #if (CSD_CSD_AUTOTUNE & CSD_CSD_SS_TH_EN)
1239:Generated_Source\PSoC4/CSD_Filter.c **** /*******************************************************************************
1240:Generated_Source\PSoC4/CSD_Filter.c **** * Function Name: CSD_RunNoiseEnvelope
1241:Generated_Source\PSoC4/CSD_Filter.c **** ****************************************************************************//**
1242:Generated_Source\PSoC4/CSD_Filter.c **** *
1243:Generated_Source\PSoC4/CSD_Filter.c **** * \brief    Executes the noise envelope  filter algorithm on a sensor indicated by 
1244:Generated_Source\PSoC4/CSD_Filter.c **** *           an input parameter to measure the pk-to-pk noise in the sensor raw count.
1245:Generated_Source\PSoC4/CSD_Filter.c **** *
1246:Generated_Source\PSoC4/CSD_Filter.c **** * \details  Executes the noise envelope  filter algorithm on a sensor indicated by 
1247:Generated_Source\PSoC4/CSD_Filter.c **** *           an input parameter to measure the pk-to-pk noise in the sensor raw count.
1248:Generated_Source\PSoC4/CSD_Filter.c **** *
1249:Generated_Source\PSoC4/CSD_Filter.c **** * \param    widgetId Specifies the ID number of the widget.
1250:Generated_Source\PSoC4/CSD_Filter.c **** * \param    sensorId Specifies the ID number of the sensor in the widget.
1251:Generated_Source\PSoC4/CSD_Filter.c **** *
1252:Generated_Source\PSoC4/CSD_Filter.c **** *******************************************************************************/
1253:Generated_Source\PSoC4/CSD_Filter.c **** void CSD_RunNoiseEnvelope(uint32 widgetId, uint32 sensorId)
1254:Generated_Source\PSoC4/CSD_Filter.c **** {
1255:Generated_Source\PSoC4/CSD_Filter.c ****     CSD_FLASH_WD_STRUCT const *ptrWidget = &CSD_dsFlash.wdgtArray[widgetId];
1256:Generated_Source\PSoC4/CSD_Filter.c ****     CSD_RAM_WD_BASE_STRUCT *ptrWidgetRam = ptrWidget->ptr2WdgtRam;
1257:Generated_Source\PSoC4/CSD_Filter.c ****     CSD_RAM_SNS_STRUCT *ptrSensor = NULL;    
1258:Generated_Source\PSoC4/CSD_Filter.c ****     SMARTSENSE_CSD_NOISE_ENVELOPE_STRUCT *ptrNoiseEnvelope = NULL;
1259:Generated_Source\PSoC4/CSD_Filter.c **** 
1260:Generated_Source\PSoC4/CSD_Filter.c ****     /* Find pointer to specified sensor object */
1261:Generated_Source\PSoC4/CSD_Filter.c ****     ptrSensor = ptrWidget->ptr2SnsRam;
1262:Generated_Source\PSoC4/CSD_Filter.c ****     ptrSensor = &ptrSensor[sensorId];
1263:Generated_Source\PSoC4/CSD_Filter.c ****     
1264:Generated_Source\PSoC4/CSD_Filter.c ****     /* Find pointer to specified filter sensor object */
1265:Generated_Source\PSoC4/CSD_Filter.c ****     ptrNoiseEnvelope = ptrWidget->ptr2NoiseEnvlp;
1266:Generated_Source\PSoC4/CSD_Filter.c ****     ptrNoiseEnvelope = &ptrNoiseEnvelope[sensorId];    
1267:Generated_Source\PSoC4/CSD_Filter.c **** 
1268:Generated_Source\PSoC4/CSD_Filter.c ****     SmartSense_RunNoiseEnvelope(ptrSensor->raw[0u], ptrWidgetRam->sigPFC, ptrNoiseEnvelope);
1269:Generated_Source\PSoC4/CSD_Filter.c **** }
1270:Generated_Source\PSoC4/CSD_Filter.c **** 
1271:Generated_Source\PSoC4/CSD_Filter.c **** 
1272:Generated_Source\PSoC4/CSD_Filter.c **** /*******************************************************************************
1273:Generated_Source\PSoC4/CSD_Filter.c **** * Function Name: CSD_InitializeNoiseEnvelope
1274:Generated_Source\PSoC4/CSD_Filter.c **** ****************************************************************************//**
1275:Generated_Source\PSoC4/CSD_Filter.c **** *
ARM GAS  C:\Users\CHRIST~1\AppData\Local\Temp\ccghn5Jm.s 			page 46


1276:Generated_Source\PSoC4/CSD_Filter.c **** * \brief    Initializes the noise-envelope filter
1277:Generated_Source\PSoC4/CSD_Filter.c **** *
1278:Generated_Source\PSoC4/CSD_Filter.c **** * \details  Initializes the noise-envelope filter
1279:Generated_Source\PSoC4/CSD_Filter.c **** *
1280:Generated_Source\PSoC4/CSD_Filter.c **** * \param    widgetId Specifies the ID number of the widget.
1281:Generated_Source\PSoC4/CSD_Filter.c **** * \param    sensorId Specifies the ID number of the sensor in the widget.
1282:Generated_Source\PSoC4/CSD_Filter.c **** *
1283:Generated_Source\PSoC4/CSD_Filter.c **** *******************************************************************************/
1284:Generated_Source\PSoC4/CSD_Filter.c **** void CSD_InitializeNoiseEnvelope(uint32 widgetId, uint32 sensorId)
1285:Generated_Source\PSoC4/CSD_Filter.c **** {
1286:Generated_Source\PSoC4/CSD_Filter.c ****     CSD_FLASH_WD_STRUCT const *ptrWidget = &CSD_dsFlash.wdgtArray[widgetId];
1287:Generated_Source\PSoC4/CSD_Filter.c ****     CSD_RAM_WD_BASE_STRUCT *ptrWidgetRam = ptrWidget->ptr2WdgtRam;
1288:Generated_Source\PSoC4/CSD_Filter.c ****     CSD_RAM_SNS_STRUCT *ptrSensor = NULL;    
1289:Generated_Source\PSoC4/CSD_Filter.c ****     SMARTSENSE_CSD_NOISE_ENVELOPE_STRUCT *ptrNoiseEnvelope = NULL;
1290:Generated_Source\PSoC4/CSD_Filter.c **** 
1291:Generated_Source\PSoC4/CSD_Filter.c ****     /* Find pointer to specified sensor object */
1292:Generated_Source\PSoC4/CSD_Filter.c ****     ptrSensor = ptrWidget->ptr2SnsRam;
1293:Generated_Source\PSoC4/CSD_Filter.c ****     ptrSensor = &ptrSensor[sensorId];
1294:Generated_Source\PSoC4/CSD_Filter.c ****     
1295:Generated_Source\PSoC4/CSD_Filter.c ****     /* Find pointer to specified filter sensor object */
1296:Generated_Source\PSoC4/CSD_Filter.c ****     ptrNoiseEnvelope = ptrWidget->ptr2NoiseEnvlp;
1297:Generated_Source\PSoC4/CSD_Filter.c ****     ptrNoiseEnvelope = &ptrNoiseEnvelope[sensorId];    
1298:Generated_Source\PSoC4/CSD_Filter.c **** 
1299:Generated_Source\PSoC4/CSD_Filter.c ****     SmartSense_InitializeNoiseEnvelope(ptrSensor->raw[0u], ptrWidgetRam->sigPFC, ptrNoiseEnvelope);
1300:Generated_Source\PSoC4/CSD_Filter.c **** }
1301:Generated_Source\PSoC4/CSD_Filter.c **** #endif /* #if CSD_CSD_AUTOTUNE & CSD_CSD_SS_TH_EN */
1302:Generated_Source\PSoC4/CSD_Filter.c **** 
1303:Generated_Source\PSoC4/CSD_Filter.c **** 
1304:Generated_Source\PSoC4/CSD_Filter.c **** #if (CSD_POS_MEDIAN_FILTER_EN || CSD_REGULAR_RC_MEDIAN_FILTER_EN || CSD_PROX_RC_MEDIAN_FILTER_EN)
1305:Generated_Source\PSoC4/CSD_Filter.c **** /*******************************************************************************
1306:Generated_Source\PSoC4/CSD_Filter.c **** * Function Name: CSD_FtMedian
1307:Generated_Source\PSoC4/CSD_Filter.c **** ****************************************************************************//**
1308:Generated_Source\PSoC4/CSD_Filter.c **** *
1309:Generated_Source\PSoC4/CSD_Filter.c **** * \brief    Return the median value from the three passed arguments.
1310:Generated_Source\PSoC4/CSD_Filter.c **** *
1311:Generated_Source\PSoC4/CSD_Filter.c **** * \details  Return the median value from the three passed arguments.
1312:Generated_Source\PSoC4/CSD_Filter.c **** *
1313:Generated_Source\PSoC4/CSD_Filter.c **** * \param    x1 The first value to be compared.
1314:Generated_Source\PSoC4/CSD_Filter.c **** * \param    x2 The second value to be compared.
1315:Generated_Source\PSoC4/CSD_Filter.c **** * \param    x3 The third value to be compared.
1316:Generated_Source\PSoC4/CSD_Filter.c **** *
1317:Generated_Source\PSoC4/CSD_Filter.c **** * \return   Returns the median value of input arguments.
1318:Generated_Source\PSoC4/CSD_Filter.c **** *
1319:Generated_Source\PSoC4/CSD_Filter.c **** *******************************************************************************/
1320:Generated_Source\PSoC4/CSD_Filter.c **** uint32 CSD_FtMedian(uint32 x1, uint32 x2, uint32 x3)
1321:Generated_Source\PSoC4/CSD_Filter.c **** {
1322:Generated_Source\PSoC4/CSD_Filter.c ****     uint32 tmp;
1323:Generated_Source\PSoC4/CSD_Filter.c **** 
1324:Generated_Source\PSoC4/CSD_Filter.c ****     if (x1 > x2)
1325:Generated_Source\PSoC4/CSD_Filter.c ****     {
1326:Generated_Source\PSoC4/CSD_Filter.c ****         tmp = x2;
1327:Generated_Source\PSoC4/CSD_Filter.c ****         x2 = x1;
1328:Generated_Source\PSoC4/CSD_Filter.c ****         x1 = tmp;
1329:Generated_Source\PSoC4/CSD_Filter.c ****     }
1330:Generated_Source\PSoC4/CSD_Filter.c **** 
1331:Generated_Source\PSoC4/CSD_Filter.c ****     if (x2 > x3)
1332:Generated_Source\PSoC4/CSD_Filter.c ****     {
ARM GAS  C:\Users\CHRIST~1\AppData\Local\Temp\ccghn5Jm.s 			page 47


1333:Generated_Source\PSoC4/CSD_Filter.c ****         x2 = x3;
1334:Generated_Source\PSoC4/CSD_Filter.c ****     }
1335:Generated_Source\PSoC4/CSD_Filter.c **** 
1336:Generated_Source\PSoC4/CSD_Filter.c ****     return ((x1 > x2) ? x1 : x2);
1337:Generated_Source\PSoC4/CSD_Filter.c **** }
1338:Generated_Source\PSoC4/CSD_Filter.c **** #endif /*CSD_POS_MEDIAN_FILTER_EN || CSD_REGULAR_RC_MEDIAN_FILTER_EN || CSD_PROX_RC_MEDIAN_FILTER_E
1339:Generated_Source\PSoC4/CSD_Filter.c **** 
1340:Generated_Source\PSoC4/CSD_Filter.c **** 
1341:Generated_Source\PSoC4/CSD_Filter.c **** /*******************************************************************************
1342:Generated_Source\PSoC4/CSD_Filter.c **** * Function Name: CSD_FtIIR1stOrder
1343:Generated_Source\PSoC4/CSD_Filter.c **** ****************************************************************************//**
1344:Generated_Source\PSoC4/CSD_Filter.c **** *
1345:Generated_Source\PSoC4/CSD_Filter.c **** * \brief    Return the filtered data by the IIR 1-st order algorithm
1346:Generated_Source\PSoC4/CSD_Filter.c **** *
1347:Generated_Source\PSoC4/CSD_Filter.c **** * \details  Return the filtered data by the IIR 1-st order algorithm
1348:Generated_Source\PSoC4/CSD_Filter.c **** *
1349:Generated_Source\PSoC4/CSD_Filter.c **** * \param    input      The data to be filtered.
1350:Generated_Source\PSoC4/CSD_Filter.c **** * \param    prevOutput The previous filtered data.
1351:Generated_Source\PSoC4/CSD_Filter.c **** * \param    n          The IIR filter coefficient (n/256).
1352:Generated_Source\PSoC4/CSD_Filter.c **** * \param    shift      The parameter is used to shift input data to have free LSB 
1353:Generated_Source\PSoC4/CSD_Filter.c **** *                       bits for a fraction storage of the filter output calculation.
1354:Generated_Source\PSoC4/CSD_Filter.c **** *
1355:Generated_Source\PSoC4/CSD_Filter.c **** * \return   Returns the filtered data.
1356:Generated_Source\PSoC4/CSD_Filter.c **** *
1357:Generated_Source\PSoC4/CSD_Filter.c **** *******************************************************************************/
1358:Generated_Source\PSoC4/CSD_Filter.c **** uint32 CSD_FtIIR1stOrder(uint32 input, uint32 prevOutput, uint32 n, uint32 shift)
1359:Generated_Source\PSoC4/CSD_Filter.c **** {   
 1276              		.loc 1 1359 0
 1277              		.cfi_startproc
 1278 0000 80B5     		push	{r7, lr}
 1279              		.cfi_def_cfa_offset 8
 1280              		.cfi_offset 7, -8
 1281              		.cfi_offset 14, -4
 1282 0002 86B0     		sub	sp, sp, #24
 1283              		.cfi_def_cfa_offset 32
 1284 0004 00AF     		add	r7, sp, #0
 1285              		.cfi_def_cfa_register 7
 1286 0006 F860     		str	r0, [r7, #12]
 1287 0008 B960     		str	r1, [r7, #8]
 1288 000a 7A60     		str	r2, [r7, #4]
 1289 000c 3B60     		str	r3, [r7]
1360:Generated_Source\PSoC4/CSD_Filter.c ****     uint32 output;
1361:Generated_Source\PSoC4/CSD_Filter.c ****    
1362:Generated_Source\PSoC4/CSD_Filter.c ****     /*
1363:Generated_Source\PSoC4/CSD_Filter.c ****     * n - IIR filter coefficient (n/256)
1364:Generated_Source\PSoC4/CSD_Filter.c ****     * shift - Used to shift input data to have free LSB bits
1365:Generated_Source\PSoC4/CSD_Filter.c ****     * for fraction storage of filter output calculation
1366:Generated_Source\PSoC4/CSD_Filter.c ****     */
1367:Generated_Source\PSoC4/CSD_Filter.c ****     output = ((n * (input << shift)) + ((CSD_IIR_COEFFICIENT_K - n) * prevOutput)) >> 8u;
 1290              		.loc 1 1367 0
 1291 000e 3B68     		ldr	r3, [r7]
 1292 0010 FA68     		ldr	r2, [r7, #12]
 1293 0012 9A40     		lsl	r2, r2, r3
 1294 0014 131C     		mov	r3, r2
 1295 0016 7A68     		ldr	r2, [r7, #4]
 1296 0018 5A43     		mul	r2, r3
 1297 001a 7B68     		ldr	r3, [r7, #4]
ARM GAS  C:\Users\CHRIST~1\AppData\Local\Temp\ccghn5Jm.s 			page 48


 1298 001c 8021     		mov	r1, #128
 1299 001e 4900     		lsl	r1, r1, #1
 1300 0020 CB1A     		sub	r3, r1, r3
 1301 0022 B968     		ldr	r1, [r7, #8]
 1302 0024 4B43     		mul	r3, r1
 1303 0026 D318     		add	r3, r2, r3
 1304 0028 1B0A     		lsr	r3, r3, #8
 1305 002a 7B61     		str	r3, [r7, #20]
1368:Generated_Source\PSoC4/CSD_Filter.c ****     
1369:Generated_Source\PSoC4/CSD_Filter.c ****     /* Shift operation of output will be done in upper level API if needed */
1370:Generated_Source\PSoC4/CSD_Filter.c ****     return output;
 1306              		.loc 1 1370 0
 1307 002c 7B69     		ldr	r3, [r7, #20]
1371:Generated_Source\PSoC4/CSD_Filter.c **** }
 1308              		.loc 1 1371 0
 1309 002e 181C     		mov	r0, r3
 1310 0030 BD46     		mov	sp, r7
 1311 0032 06B0     		add	sp, sp, #24
 1312              		@ sp needed
 1313 0034 80BD     		pop	{r7, pc}
 1314              		.cfi_endproc
 1315              	.LFE17:
 1316              		.size	CSD_FtIIR1stOrder, .-CSD_FtIIR1stOrder
 1317 0036 C046     		.text
 1318              	.Letext0:
 1319              		.file 2 "Generated_Source\\PSoC4\\cytypes.h"
 1320              		.file 3 "Generated_Source\\PSoC4\\CSD_Configuration.h"
 1321              		.file 4 "Generated_Source\\PSoC4\\CSD_Structure.h"