ARM GAS  C:\Users\CHRIST~1\AppData\Local\Temp\ccGy5PUQ.s 			page 1


   1              		.cpu cortex-m0plus
   2              		.fpu softvfp
   3              		.eabi_attribute 20, 1
   4              		.eabi_attribute 21, 1
   5              		.eabi_attribute 23, 3
   6              		.eabi_attribute 24, 1
   7              		.eabi_attribute 25, 1
   8              		.eabi_attribute 26, 1
   9              		.eabi_attribute 30, 6
  10              		.eabi_attribute 34, 0
  11              		.eabi_attribute 18, 4
  12              		.code	16
  13              		.file	"CSD_SensingCSD_LL.c"
  14              		.text
  15              	.Ltext0:
  16              		.cfi_sections	.debug_frame
  17              		.global	CSD_configCsd
  18              		.data
  19              		.align	2
  20              		.type	CSD_configCsd, %object
  21              		.size	CSD_configCsd, 4
  22              	CSD_configCsd:
  23 0000 02000004 		.word	67108866
  24              		.bss
  25              		.align	2
  26              	CSD_curSnsIOPtr:
  27 0000 00000000 		.space	4
  28              	CSD_eleCsdDisconnectFlag:
  29 0004 00       		.space	1
  30 0005 000000   		.section	.text.CSD_SsCSDClearCSDSensors,"ax",%progbits
  31              		.align	2
  32              		.code	16
  33              		.thumb_func
  34              		.type	CSD_SsCSDClearCSDSensors, %function
  35              	CSD_SsCSDClearCSDSensors:
  36              	.LFB1:
  37              		.file 1 "Generated_Source\\PSoC4\\CSD_SensingCSD_LL.c"
   1:Generated_Source\PSoC4/CSD_SensingCSD_LL.c **** /***************************************************************************//**
   2:Generated_Source\PSoC4/CSD_SensingCSD_LL.c **** * \file CSD_SensingCSD_LL.c
   3:Generated_Source\PSoC4/CSD_SensingCSD_LL.c **** * \version 3.0
   4:Generated_Source\PSoC4/CSD_SensingCSD_LL.c **** *
   5:Generated_Source\PSoC4/CSD_SensingCSD_LL.c **** * \brief
   6:Generated_Source\PSoC4/CSD_SensingCSD_LL.c **** *   This file defines the data structure global variables and provides
   7:Generated_Source\PSoC4/CSD_SensingCSD_LL.c **** *   implementation for the low-level APIs of the CSD part of
   8:Generated_Source\PSoC4/CSD_SensingCSD_LL.c **** *   the Sensing module. The file contains the APIs used for the CSD block
   9:Generated_Source\PSoC4/CSD_SensingCSD_LL.c **** *   initialization, calibration, and scanning.
  10:Generated_Source\PSoC4/CSD_SensingCSD_LL.c **** *
  11:Generated_Source\PSoC4/CSD_SensingCSD_LL.c **** * \see CapSense P4 v3.0 Datasheet
  12:Generated_Source\PSoC4/CSD_SensingCSD_LL.c **** *
  13:Generated_Source\PSoC4/CSD_SensingCSD_LL.c **** *//*****************************************************************************
  14:Generated_Source\PSoC4/CSD_SensingCSD_LL.c **** * Copyright (2016), Cypress Semiconductor Corporation.
  15:Generated_Source\PSoC4/CSD_SensingCSD_LL.c **** ********************************************************************************
  16:Generated_Source\PSoC4/CSD_SensingCSD_LL.c **** * This software is owned by Cypress Semiconductor Corporation (Cypress) and is
  17:Generated_Source\PSoC4/CSD_SensingCSD_LL.c **** * protected by and subject to worldwide patent protection (United States and
  18:Generated_Source\PSoC4/CSD_SensingCSD_LL.c **** * foreign), United States copyright laws and international treaty provisions.
  19:Generated_Source\PSoC4/CSD_SensingCSD_LL.c **** * Cypress hereby grants to licensee a personal, non-exclusive, non-transferable
  20:Generated_Source\PSoC4/CSD_SensingCSD_LL.c **** * license to copy, use, modify, create derivative works of, and compile the
ARM GAS  C:\Users\CHRIST~1\AppData\Local\Temp\ccGy5PUQ.s 			page 2


  21:Generated_Source\PSoC4/CSD_SensingCSD_LL.c **** * Cypress Source Code and derivative works for the sole purpose of creating
  22:Generated_Source\PSoC4/CSD_SensingCSD_LL.c **** * custom software in support of licensee product to be used only in conjunction
  23:Generated_Source\PSoC4/CSD_SensingCSD_LL.c **** * with a Cypress integrated circuit as specified in the applicable agreement.
  24:Generated_Source\PSoC4/CSD_SensingCSD_LL.c **** * Any reproduction, modification, translation, compilation, or representation of
  25:Generated_Source\PSoC4/CSD_SensingCSD_LL.c **** * this software except as specified above is prohibited without the express
  26:Generated_Source\PSoC4/CSD_SensingCSD_LL.c **** * written permission of Cypress.
  27:Generated_Source\PSoC4/CSD_SensingCSD_LL.c **** *
  28:Generated_Source\PSoC4/CSD_SensingCSD_LL.c **** * Disclaimer: CYPRESS MAKES NO WARRANTY OF ANY KIND, EXPRESS OR IMPLIED, WITH
  29:Generated_Source\PSoC4/CSD_SensingCSD_LL.c **** * REGARD TO THIS MATERIAL, INCLUDING, BUT NOT LIMITED TO, THE IMPLIED
  30:Generated_Source\PSoC4/CSD_SensingCSD_LL.c **** * WARRANTIES OF MERCHANTABILITY AND FITNESS FOR A PARTICULAR PURPOSE.
  31:Generated_Source\PSoC4/CSD_SensingCSD_LL.c **** * Cypress reserves the right to make changes without further notice to the
  32:Generated_Source\PSoC4/CSD_SensingCSD_LL.c **** * materials described herein. Cypress does not assume any liability arising out
  33:Generated_Source\PSoC4/CSD_SensingCSD_LL.c **** * of the application or use of any product or circuit described herein. Cypress
  34:Generated_Source\PSoC4/CSD_SensingCSD_LL.c **** * does not authorize its products for use as critical components in life-support
  35:Generated_Source\PSoC4/CSD_SensingCSD_LL.c **** * systems where a malfunction or failure may reasonably be expected to result in
  36:Generated_Source\PSoC4/CSD_SensingCSD_LL.c **** * significant injury to the user. The inclusion of Cypress' product in a life-
  37:Generated_Source\PSoC4/CSD_SensingCSD_LL.c **** * support systems application implies that the manufacturer assumes all risk of
  38:Generated_Source\PSoC4/CSD_SensingCSD_LL.c **** * such use and in doing so indemnifies Cypress against all charges. Use may be
  39:Generated_Source\PSoC4/CSD_SensingCSD_LL.c **** * limited by and subject to the applicable Cypress software license agreement.
  40:Generated_Source\PSoC4/CSD_SensingCSD_LL.c **** *******************************************************************************/
  41:Generated_Source\PSoC4/CSD_SensingCSD_LL.c **** #include "CSD_Structure.h"
  42:Generated_Source\PSoC4/CSD_SensingCSD_LL.c **** #include "CSD_Configuration.h"
  43:Generated_Source\PSoC4/CSD_SensingCSD_LL.c **** #include "CSD_SensingCSD_LL.h"
  44:Generated_Source\PSoC4/CSD_SensingCSD_LL.c **** #include "CSD_Sensing.h"
  45:Generated_Source\PSoC4/CSD_SensingCSD_LL.c **** 
  46:Generated_Source\PSoC4/CSD_SensingCSD_LL.c **** 
  47:Generated_Source\PSoC4/CSD_SensingCSD_LL.c **** #if (CSD_ENABLE == CSD_CSD_EN)
  48:Generated_Source\PSoC4/CSD_SensingCSD_LL.c **** 
  49:Generated_Source\PSoC4/CSD_SensingCSD_LL.c **** /***************************************
  50:Generated_Source\PSoC4/CSD_SensingCSD_LL.c **** * API Constants
  51:Generated_Source\PSoC4/CSD_SensingCSD_LL.c **** ***************************************/
  52:Generated_Source\PSoC4/CSD_SensingCSD_LL.c **** #define CSD_MOD_CSD_CLK_12MHZ                      (12000000uL)
  53:Generated_Source\PSoC4/CSD_SensingCSD_LL.c **** #define CSD_MOD_CSD_CLK_24MHZ                      (24000000uL)
  54:Generated_Source\PSoC4/CSD_SensingCSD_LL.c **** #define CSD_MOD_CSD_CLK_48MHZ                      (48000000uL)
  55:Generated_Source\PSoC4/CSD_SensingCSD_LL.c **** 
  56:Generated_Source\PSoC4/CSD_SensingCSD_LL.c **** #define CSD_DELAY_EXTRACYCLES_NUM                  (9u)
  57:Generated_Source\PSoC4/CSD_SensingCSD_LL.c **** #define CSD_GLITCH_ELIMINATION_CYCLES_CALC         (CSD_CSD_PRESCAN_SETTLING_TIME * CYDEV_BCLK__SYS
  58:Generated_Source\PSoC4/CSD_SensingCSD_LL.c **** #define CSD_CMOD_DISCHARGE_TIME                    (2u)
  59:Generated_Source\PSoC4/CSD_SensingCSD_LL.c **** #define CSD_CMOD_DISCHARGE_CYCLES_CALC             (CSD_CMOD_DISCHARGE_TIME * CYDEV_BCLK__SYSCLK__M
  60:Generated_Source\PSoC4/CSD_SensingCSD_LL.c **** 
  61:Generated_Source\PSoC4/CSD_SensingCSD_LL.c **** #if(CSD_GLITCH_ELIMINATION_CYCLES_CALC >= CSD_DELAY_EXTRACYCLES_NUM)
  62:Generated_Source\PSoC4/CSD_SensingCSD_LL.c ****     #define CSD_GLITCH_ELIMINATION_CYCLES          (CSD_GLITCH_ELIMINATION_CYCLES_CALC -\
  63:Generated_Source\PSoC4/CSD_SensingCSD_LL.c ****                                                                 CSD_DELAY_EXTRACYCLES_NUM)
  64:Generated_Source\PSoC4/CSD_SensingCSD_LL.c **** #else
  65:Generated_Source\PSoC4/CSD_SensingCSD_LL.c ****     #define CSD_GLITCH_ELIMINATION_CYCLES          (CSD_GLITCH_ELIMINATION_CYCLES_CALC)
  66:Generated_Source\PSoC4/CSD_SensingCSD_LL.c **** #endif /* (CSD_GLITCH_ELIMINATION_CYCLES_CALC >= CSD_DELAY_EXTRACYCLES_NUM) */
  67:Generated_Source\PSoC4/CSD_SensingCSD_LL.c **** 
  68:Generated_Source\PSoC4/CSD_SensingCSD_LL.c **** #if(CSD_CMOD_DISCHARGE_CYCLES_CALC >= CSD_DELAY_EXTRACYCLES_NUM)
  69:Generated_Source\PSoC4/CSD_SensingCSD_LL.c ****     #define CSD_CMOD_DISCHARGE_CYCLES              (CSD_CMOD_DISCHARGE_CYCLES_CALC -\
  70:Generated_Source\PSoC4/CSD_SensingCSD_LL.c ****                                                                 CSD_DELAY_EXTRACYCLES_NUM)
  71:Generated_Source\PSoC4/CSD_SensingCSD_LL.c **** #else
  72:Generated_Source\PSoC4/CSD_SensingCSD_LL.c ****     #define CSD_CMOD_DISCHARGE_CYCLES              (CSD_CMOD_DISCHARGE_CYCLES_CALC)
  73:Generated_Source\PSoC4/CSD_SensingCSD_LL.c **** #endif /* (CSD_CMOD_DISCHARGE_CYCLES_CALC >= CSD_DELAY_EXTRACYCLES_NUM) */
  74:Generated_Source\PSoC4/CSD_SensingCSD_LL.c **** 
  75:Generated_Source\PSoC4/CSD_SensingCSD_LL.c **** #define CSD_COARSE_INIT_WATCHDOG_TIME              (3u)
  76:Generated_Source\PSoC4/CSD_SensingCSD_LL.c **** #define CSD_COARSE_INIT_WATCHDOG_CYCLES_CALC       (CSD_COARSE_INIT_WATCHDOG_TIME * CYDEV_BCLK__SYS
  77:Generated_Source\PSoC4/CSD_SensingCSD_LL.c **** 
ARM GAS  C:\Users\CHRIST~1\AppData\Local\Temp\ccGy5PUQ.s 			page 3


  78:Generated_Source\PSoC4/CSD_SensingCSD_LL.c **** #if(CSD_COARSE_INIT_WATCHDOG_CYCLES_CALC >= CSD_DELAY_EXTRACYCLES_NUM)
  79:Generated_Source\PSoC4/CSD_SensingCSD_LL.c ****     #define CSD_COARSE_INIT_WATCHDOG_CYCLES        (CSD_COARSE_INIT_WATCHDOG_CYCLES_CALC -\
  80:Generated_Source\PSoC4/CSD_SensingCSD_LL.c ****                                                                  CSD_DELAY_EXTRACYCLES_NUM)
  81:Generated_Source\PSoC4/CSD_SensingCSD_LL.c **** #else
  82:Generated_Source\PSoC4/CSD_SensingCSD_LL.c ****     #define CSD_COARSE_INIT_WATCHDOG_CYCLES        (CSD_COARSE_INIT_WATCHDOG_CYCLES_CALC)
  83:Generated_Source\PSoC4/CSD_SensingCSD_LL.c **** #endif /* (CSD_COARSE_INIT_WATCHDOG_CYCLES_CALC >= CSD_DELAY_EXTRACYCLES_NUM) */
  84:Generated_Source\PSoC4/CSD_SensingCSD_LL.c **** 
  85:Generated_Source\PSoC4/CSD_SensingCSD_LL.c **** #if (CSD_ENABLE == CSD_CSDV2)
  86:Generated_Source\PSoC4/CSD_SensingCSD_LL.c ****     #if (CSD_CMOD_PAD == CSD_CMOD_CONNECTION)
  87:Generated_Source\PSoC4/CSD_SensingCSD_LL.c ****         #define CSD_SW_DSI_SEL_CMODPAD                (CSD_SW_DSI_CMOD)
  88:Generated_Source\PSoC4/CSD_SensingCSD_LL.c ****         #define CSD_CSD_SW_FW_MOD_SEL_INIT            (CSD_SW_FW_MOD_SEL_SW_F1PM_STATIC_CLOSE |\
  89:Generated_Source\PSoC4/CSD_SensingCSD_LL.c ****                                                                     CSD_SW_FW_MOD_SEL_SW_F1MA_STATI
  90:Generated_Source\PSoC4/CSD_SensingCSD_LL.c ****                                                                     CSD_SW_FW_MOD_SEL_SW_F1CA_STATI
  91:Generated_Source\PSoC4/CSD_SensingCSD_LL.c ****     #elif (CSD_CSH_TANK_PAD == CSD_CMOD_CONNECTION)
  92:Generated_Source\PSoC4/CSD_SensingCSD_LL.c ****         #define CSD_SW_DSI_SEL_CMODPAD                (CSD_SW_DSI_CTANK)
  93:Generated_Source\PSoC4/CSD_SensingCSD_LL.c ****         #define CSD_CSD_SW_FW_MOD_SEL_INIT            (0x00000000uL)
  94:Generated_Source\PSoC4/CSD_SensingCSD_LL.c ****     #else
  95:Generated_Source\PSoC4/CSD_SensingCSD_LL.c ****         #define CSD_SW_DSI_SEL_CMODPAD                (0x00000000uL)
  96:Generated_Source\PSoC4/CSD_SensingCSD_LL.c ****         #define CSD_CSD_SW_FW_MOD_SEL_INIT            (0x00000000uL)
  97:Generated_Source\PSoC4/CSD_SensingCSD_LL.c ****     #endif /* (CSD_CMOD_PAD == CSD_CMOD_CONNECTION) */
  98:Generated_Source\PSoC4/CSD_SensingCSD_LL.c **** 
  99:Generated_Source\PSoC4/CSD_SensingCSD_LL.c ****     #if (CSD_CSH_TANK_PAD == CSD_CTANK_CONNECTION)
 100:Generated_Source\PSoC4/CSD_SensingCSD_LL.c ****         #define CSD_SW_DSI_SEL_TANKPAD                (CSD_SW_DSI_CTANK)
 101:Generated_Source\PSoC4/CSD_SensingCSD_LL.c ****         #define CSD_CSD_SW_FW_TANK_SEL_INIT           (CSD_SW_FW_TANK_SEL_SW_F2PT_STATIC_CLOSE |\
 102:Generated_Source\PSoC4/CSD_SensingCSD_LL.c ****                                                                     CSD_SW_FW_TANK_SEL_SW_F2MA_STAT
 103:Generated_Source\PSoC4/CSD_SensingCSD_LL.c ****                                                                     CSD_SW_FW_TANK_SEL_SW_F2CA_STAT
 104:Generated_Source\PSoC4/CSD_SensingCSD_LL.c ****     #elif (CSD_CMOD_PAD == CSD_CTANK_CONNECTION)
 105:Generated_Source\PSoC4/CSD_SensingCSD_LL.c ****         #define CSD_SW_DSI_SEL_TANKPAD                (CSD_SW_DSI_CMOD)
 106:Generated_Source\PSoC4/CSD_SensingCSD_LL.c ****         #define CSD_CSD_SW_FW_TANK_SEL_INIT           (0x00000000uL)
 107:Generated_Source\PSoC4/CSD_SensingCSD_LL.c ****     #else
 108:Generated_Source\PSoC4/CSD_SensingCSD_LL.c ****         #define CSD_SW_DSI_SEL_TANKPAD                (0x00000000uL)
 109:Generated_Source\PSoC4/CSD_SensingCSD_LL.c ****         #define CSD_CSD_SW_FW_TANK_SEL_INIT           (0x00000000uL)
 110:Generated_Source\PSoC4/CSD_SensingCSD_LL.c ****     #endif /* ((CSD_CSH_TANK_PAD == CSD_CMOD_CONNECTION) || \
 111:Generated_Source\PSoC4/CSD_SensingCSD_LL.c ****                (CSD_CSH_TANK_PAD == CSD_CTANK_CONNECTION)) */
 112:Generated_Source\PSoC4/CSD_SensingCSD_LL.c **** 
 113:Generated_Source\PSoC4/CSD_SensingCSD_LL.c ****     /* SW_FW_MOD_SEL switches state for Coarse initialization of CMOD (sense path) */
 114:Generated_Source\PSoC4/CSD_SensingCSD_LL.c ****     #define CSD_CSD_SW_FW_MOD_SEL_SCAN                (0x00000000uL)
 115:Generated_Source\PSoC4/CSD_SensingCSD_LL.c **** 
 116:Generated_Source\PSoC4/CSD_SensingCSD_LL.c ****     #if ((CSD_ENABLE == CSD_CSD_SHIELD_EN) && \
 117:Generated_Source\PSoC4/CSD_SensingCSD_LL.c ****          (CSD_ENABLE == CSD_CSD_SHIELD_TANK_EN) && \
 118:Generated_Source\PSoC4/CSD_SensingCSD_LL.c ****          (CSD_CSH_TANK_PAD == CSD_CTANK_CONNECTION))
 119:Generated_Source\PSoC4/CSD_SensingCSD_LL.c ****         #define CSD_CSD_SW_FW_TANK_SEL_SCAN            (CSD_SW_FW_TANK_SEL_SW_F2PT_STATIC_CLOSE | C
 120:Generated_Source\PSoC4/CSD_SensingCSD_LL.c ****         #if (CSD_IDAC_SINKING == CSD_CSD_IDAC_CONFIG)
 121:Generated_Source\PSoC4/CSD_SensingCSD_LL.c ****             #define CSD_DEFAULT_SW_SHIELD_SEL          (CSD_SW_SHIELD_SEL_SW_HCBG_HSCMP)
 122:Generated_Source\PSoC4/CSD_SensingCSD_LL.c ****         #else
 123:Generated_Source\PSoC4/CSD_SensingCSD_LL.c ****             #define CSD_DEFAULT_SW_SHIELD_SEL          (CSD_SW_SHIELD_SEL_SW_HCBV_HSCMP)
 124:Generated_Source\PSoC4/CSD_SensingCSD_LL.c ****         #endif /* (CSD_IDAC_SINKING == CSD_CSD_IDAC_CONFIG) */
 125:Generated_Source\PSoC4/CSD_SensingCSD_LL.c ****     #elif((CSD_ENABLE == CSD_CSD_SHIELD_EN) && \
 126:Generated_Source\PSoC4/CSD_SensingCSD_LL.c ****           (CSD_ENABLE == CSD_CSD_SHIELD_TANK_EN))
 127:Generated_Source\PSoC4/CSD_SensingCSD_LL.c ****         #define CSD_CSD_SW_FW_TANK_SEL_SCAN            (0x00000000uL)
 128:Generated_Source\PSoC4/CSD_SensingCSD_LL.c ****         #if (CSD_IDAC_SINKING == CSD_CSD_IDAC_CONFIG)
 129:Generated_Source\PSoC4/CSD_SensingCSD_LL.c ****             #define CSD_DEFAULT_SW_SHIELD_SEL          (CSD_SW_SHIELD_SEL_SW_HCBG_HSCMP)
 130:Generated_Source\PSoC4/CSD_SensingCSD_LL.c ****         #else
 131:Generated_Source\PSoC4/CSD_SensingCSD_LL.c ****             #define CSD_DEFAULT_SW_SHIELD_SEL          (CSD_SW_SHIELD_SEL_SW_HCBV_HSCMP)
 132:Generated_Source\PSoC4/CSD_SensingCSD_LL.c ****         #endif /* (CSD_IDAC_SINKING == CSD_CSD_IDAC_CONFIG) */
 133:Generated_Source\PSoC4/CSD_SensingCSD_LL.c ****     #elif(CSD_ENABLE == CSD_CSD_SHIELD_EN)
 134:Generated_Source\PSoC4/CSD_SensingCSD_LL.c ****         #define CSD_CSD_SW_FW_TANK_SEL_SCAN            (0x00000000uL)
ARM GAS  C:\Users\CHRIST~1\AppData\Local\Temp\ccGy5PUQ.s 			page 4


 135:Generated_Source\PSoC4/CSD_SensingCSD_LL.c ****         #if (CSD_IDAC_SINKING == CSD_CSD_IDAC_CONFIG)
 136:Generated_Source\PSoC4/CSD_SensingCSD_LL.c ****             #define CSD_DEFAULT_SW_SHIELD_SEL          (CSD_SW_SHIELD_SEL_SW_HCBG_PHI1 | CSD_SW_SHI
 137:Generated_Source\PSoC4/CSD_SensingCSD_LL.c ****         #else
 138:Generated_Source\PSoC4/CSD_SensingCSD_LL.c ****             #define CSD_DEFAULT_SW_SHIELD_SEL          (CSD_SW_SHIELD_SEL_SW_HCBG_PHI1 | CSD_SW_SHI
 139:Generated_Source\PSoC4/CSD_SensingCSD_LL.c ****         #endif /* (CSD_IDAC_SINKING == CSD_CSD_IDAC_CONFIG) */
 140:Generated_Source\PSoC4/CSD_SensingCSD_LL.c ****     #else
 141:Generated_Source\PSoC4/CSD_SensingCSD_LL.c ****         #define CSD_CSD_SW_FW_TANK_SEL_SCAN            (0x00000000uL)
 142:Generated_Source\PSoC4/CSD_SensingCSD_LL.c ****         #define CSD_DEFAULT_SW_SHIELD_SEL              (0x00000000uL)
 143:Generated_Source\PSoC4/CSD_SensingCSD_LL.c ****     #endif /* ((CSD_ENABLE == CSD_CSD_SHIELD_EN) && \
 144:Generated_Source\PSoC4/CSD_SensingCSD_LL.c ****                (0u != CSD_CSD_SHIELD_TANK_EN) && \
 145:Generated_Source\PSoC4/CSD_SensingCSD_LL.c ****                (CSD_CSH_TANK_PAD == CSD_CTANK_CONNECTION)) */
 146:Generated_Source\PSoC4/CSD_SensingCSD_LL.c **** 
 147:Generated_Source\PSoC4/CSD_SensingCSD_LL.c ****     #define CSD_DEFAULT_CSD_SW_DSI_SEL                 (CSD_SW_DSI_SEL_CMODPAD | CSD_SW_DSI_SEL_TAN
 148:Generated_Source\PSoC4/CSD_SensingCSD_LL.c **** 
 149:Generated_Source\PSoC4/CSD_SensingCSD_LL.c ****     #define CSD_CSD_SW_RES_INIT                        (CSD_CSD_INIT_SWITCH_RES << CYFLD_CSD_RES_HC
 150:Generated_Source\PSoC4/CSD_SensingCSD_LL.c ****     #define CSD_CSD_SW_RES_SCAN                        ((CSD_CSD_SHIELD_SWITCH_RES << CYFLD_CSD_RES
 151:Generated_Source\PSoC4/CSD_SensingCSD_LL.c ****                                                                      (CSD_CSD_SHIELD_SWITCH_RES << 
 152:Generated_Source\PSoC4/CSD_SensingCSD_LL.c **** 
 153:Generated_Source\PSoC4/CSD_SensingCSD_LL.c ****     #if (CSD_ENABLE == CSD_CSD_AUTO_ZERO_EN)
 154:Generated_Source\PSoC4/CSD_SensingCSD_LL.c ****         #if (CSD_IDAC_SINKING == CSD_CSD_IDAC_CONFIG)
 155:Generated_Source\PSoC4/CSD_SensingCSD_LL.c ****             #define CSD_HSCMP_SCAN_MASK                (CSD_HSCMP_EN_MASK | \
 156:Generated_Source\PSoC4/CSD_SensingCSD_LL.c ****                                                                      CSD_CSD_AZ_EN_MASK |\
 157:Generated_Source\PSoC4/CSD_SensingCSD_LL.c ****                                                                      CSD_HSCMP_INVERT_MASK)
 158:Generated_Source\PSoC4/CSD_SensingCSD_LL.c ****         #else
 159:Generated_Source\PSoC4/CSD_SensingCSD_LL.c ****             #define CSD_HSCMP_SCAN_MASK                (CSD_HSCMP_EN_MASK | \
 160:Generated_Source\PSoC4/CSD_SensingCSD_LL.c ****                                                                      CSD_CSD_AZ_EN_MASK)
 161:Generated_Source\PSoC4/CSD_SensingCSD_LL.c ****         #endif /* (CSD_IDAC_SINKING == CSD_CSD_IDAC_CONFIG) */
 162:Generated_Source\PSoC4/CSD_SensingCSD_LL.c **** 
 163:Generated_Source\PSoC4/CSD_SensingCSD_LL.c ****         #define CSD_HSCMP_INIT_MASK                    (CSD_HSCMP_EN_MASK | \
 164:Generated_Source\PSoC4/CSD_SensingCSD_LL.c ****                                                                      CSD_CSD_AZ_EN_MASK)
 165:Generated_Source\PSoC4/CSD_SensingCSD_LL.c ****     #else
 166:Generated_Source\PSoC4/CSD_SensingCSD_LL.c ****         #if (CSD_IDAC_SINKING == CSD_CSD_IDAC_CONFIG)
 167:Generated_Source\PSoC4/CSD_SensingCSD_LL.c ****             #define CSD_HSCMP_SCAN_MASK                (CSD_HSCMP_EN_MASK | \
 168:Generated_Source\PSoC4/CSD_SensingCSD_LL.c ****                                                                      CSD_HSCMP_INVERT_MASK)
 169:Generated_Source\PSoC4/CSD_SensingCSD_LL.c ****         #else
 170:Generated_Source\PSoC4/CSD_SensingCSD_LL.c ****             #define CSD_HSCMP_SCAN_MASK                (CSD_HSCMP_EN_MASK)
 171:Generated_Source\PSoC4/CSD_SensingCSD_LL.c ****         #endif /* (CSD_IDAC_SINKING == CSD_CSD_IDAC_CONFIG) */
 172:Generated_Source\PSoC4/CSD_SensingCSD_LL.c **** 
 173:Generated_Source\PSoC4/CSD_SensingCSD_LL.c ****         #define CSD_HSCMP_INIT_MASK                    (CSD_HSCMP_EN_MASK)
 174:Generated_Source\PSoC4/CSD_SensingCSD_LL.c ****     #endif /* ((CSD_ENABLE == CSD_CSD_AUTO_ZERO_EN) */
 175:Generated_Source\PSoC4/CSD_SensingCSD_LL.c **** 
 176:Generated_Source\PSoC4/CSD_SensingCSD_LL.c ****     #define CSD_DEFAULT_CSD_INTR_SET                   (0x00000000uL)
 177:Generated_Source\PSoC4/CSD_SensingCSD_LL.c ****     #define CSD_DEFAULT_SW_HS_P_SEL                    (0x00000000uL)
 178:Generated_Source\PSoC4/CSD_SensingCSD_LL.c ****     #define CSD_DEFAULT_SW_HS_N_SEL                    (0X00000000uL)
 179:Generated_Source\PSoC4/CSD_SensingCSD_LL.c ****     #define CSD_DEFAULT_CSD_SW_FW_TANK_SEL             (0x00000000uL)
 180:Generated_Source\PSoC4/CSD_SensingCSD_LL.c ****     #define CSD_DEFAULT_CSD_ADC_CTL                    (0x00000000uL)
 181:Generated_Source\PSoC4/CSD_SensingCSD_LL.c ****     #define CSD_DEFAULT_HSCMP_CFG                      (0x00000000uL)
 182:Generated_Source\PSoC4/CSD_SensingCSD_LL.c **** 
 183:Generated_Source\PSoC4/CSD_SensingCSD_LL.c ****     #define CSD_CSD_ON_DELAY_TIME                      (3u)
 184:Generated_Source\PSoC4/CSD_SensingCSD_LL.c ****     #define CSD_CSD_ON_DELAY                           (CSD_CSD_ON_DELAY_TIME * CYDEV_BCLK__SYSCLK_
 185:Generated_Source\PSoC4/CSD_SensingCSD_LL.c **** 
 186:Generated_Source\PSoC4/CSD_SensingCSD_LL.c ****     #define CSD_HSCMP_ON_DELAY_TIME                    (1u)
 187:Generated_Source\PSoC4/CSD_SensingCSD_LL.c ****     #define CSD_HSCMP_ON_DELAY                         (CSD_HSCMP_ON_DELAY_TIME * CYDEV_BCLK__SYSCL
 188:Generated_Source\PSoC4/CSD_SensingCSD_LL.c **** #endif /* (CSD_ENABLE == CSD_CSDV2) */
 189:Generated_Source\PSoC4/CSD_SensingCSD_LL.c **** 
 190:Generated_Source\PSoC4/CSD_SensingCSD_LL.c **** /***************************************
 191:Generated_Source\PSoC4/CSD_SensingCSD_LL.c **** * Variables
ARM GAS  C:\Users\CHRIST~1\AppData\Local\Temp\ccGy5PUQ.s 			page 5


 192:Generated_Source\PSoC4/CSD_SensingCSD_LL.c **** ***************************************/
 193:Generated_Source\PSoC4/CSD_SensingCSD_LL.c **** 
 194:Generated_Source\PSoC4/CSD_SensingCSD_LL.c **** #if (CSD_ENABLE == CSD_CSDV2)
 195:Generated_Source\PSoC4/CSD_SensingCSD_LL.c ****     uint32 CSD_configCsd = CSD_DEFAULT_CSD_CONFIG;
 196:Generated_Source\PSoC4/CSD_SensingCSD_LL.c **** #else
 197:Generated_Source\PSoC4/CSD_SensingCSD_LL.c ****     uint32 CSD_configCsd = CSD_DEFAULT_CSD_CONFIG | CSD_DEFAULT_MODULATION_MODE;
 198:Generated_Source\PSoC4/CSD_SensingCSD_LL.c ****     static uint32 CSD_counterResolution = CSD_CNT_RESOLUTION_12_BITS;
 199:Generated_Source\PSoC4/CSD_SensingCSD_LL.c **** #endif /* (CSD_ENABLE == CSD_CSDV2) */
 200:Generated_Source\PSoC4/CSD_SensingCSD_LL.c **** /*  Pointer to Flash structure to hold Sns electrode that was connected previously  */
 201:Generated_Source\PSoC4/CSD_SensingCSD_LL.c **** static CSD_FLASH_IO_STRUCT const *CSD_curSnsIOPtr;
 202:Generated_Source\PSoC4/CSD_SensingCSD_LL.c **** /* Flag to indicate electrodes that were connected previously */
 203:Generated_Source\PSoC4/CSD_SensingCSD_LL.c **** static uint8 CSD_eleCsdDisconnectFlag = 0u;
 204:Generated_Source\PSoC4/CSD_SensingCSD_LL.c **** #if ((CSD_ENABLE == CSD_CSDV2) && (CSD_ENABLE == CSD_CSD_NOISE_METRIC_EN))
 205:Generated_Source\PSoC4/CSD_SensingCSD_LL.c ****     /* Number of re-samplings when the bad conversion occurs */
 206:Generated_Source\PSoC4/CSD_SensingCSD_LL.c ****     uint8 CSD_badConversionsNum = CSD_BAD_CONVERSIONS_NUM;
 207:Generated_Source\PSoC4/CSD_SensingCSD_LL.c **** #endif /* ((CSD_ENABLE == CSD_CSDV2) && (CSD_ENABLE == CSD_CSD_NOISE_METRIC_EN)) */
 208:Generated_Source\PSoC4/CSD_SensingCSD_LL.c **** 
 209:Generated_Source\PSoC4/CSD_SensingCSD_LL.c **** /*******************************************************************************
 210:Generated_Source\PSoC4/CSD_SensingCSD_LL.c **** * Static Function Prototypes
 211:Generated_Source\PSoC4/CSD_SensingCSD_LL.c **** *******************************************************************************/
 212:Generated_Source\PSoC4/CSD_SensingCSD_LL.c **** /**
 213:Generated_Source\PSoC4/CSD_SensingCSD_LL.c **** * \if SECTION_CAPSENSE_INTERNAL
 214:Generated_Source\PSoC4/CSD_SensingCSD_LL.c **** * \addtogroup group_capsense_internal
 215:Generated_Source\PSoC4/CSD_SensingCSD_LL.c **** * \{
 216:Generated_Source\PSoC4/CSD_SensingCSD_LL.c **** */
 217:Generated_Source\PSoC4/CSD_SensingCSD_LL.c **** 
 218:Generated_Source\PSoC4/CSD_SensingCSD_LL.c **** #if (CSD_ENABLE == CSD_CSD_SHIELD_EN)
 219:Generated_Source\PSoC4/CSD_SensingCSD_LL.c ****     static void CSD_SsSetShieldDelay(uint32 delay);
 220:Generated_Source\PSoC4/CSD_SensingCSD_LL.c ****     #if (CSD_ENABLE == CSD_CSD_SHIELD_TANK_EN)
 221:Generated_Source\PSoC4/CSD_SensingCSD_LL.c ****         static void CSD_SsCSDEnableShieldTank(void);
 222:Generated_Source\PSoC4/CSD_SensingCSD_LL.c ****     #endif /* (CSD_ENABLE == CSD_CSD_SHIELD_TANK_EN) */
 223:Generated_Source\PSoC4/CSD_SensingCSD_LL.c ****     #if (0u != CSD_CSD_TOTAL_SHIELD_COUNT)
 224:Generated_Source\PSoC4/CSD_SensingCSD_LL.c ****         static void CSD_SsCSDEnableShieldElectrodes(void);
 225:Generated_Source\PSoC4/CSD_SensingCSD_LL.c ****     #endif /* (0u != CSD_CSD_TOTAL_SHIELD_COUNT) */
 226:Generated_Source\PSoC4/CSD_SensingCSD_LL.c **** #endif /* (CSD_ENABLE == CSD_CSD_SHIELD_EN) */
 227:Generated_Source\PSoC4/CSD_SensingCSD_LL.c **** 
 228:Generated_Source\PSoC4/CSD_SensingCSD_LL.c **** static void CSD_SsCSDClearCSDSensors(void);
 229:Generated_Source\PSoC4/CSD_SensingCSD_LL.c **** #if ((CSD_CSD_SS_DIS != CSD_CSD_AUTOTUNE) || \
 230:Generated_Source\PSoC4/CSD_SensingCSD_LL.c ****      (CSD_ENABLE == CSD_CSD_IDAC_AUTOCAL_EN))
 231:Generated_Source\PSoC4/CSD_SensingCSD_LL.c ****     static cystatus CSD_SsCSDCalibrateCheck(CSD_RAM_WD_BASE_STRUCT const *ptrWdgt, uint32 rawLevel,
 232:Generated_Source\PSoC4/CSD_SensingCSD_LL.c ****     #if (CSD_ENABLE == CSD_CSD_IDAC_COMP_EN)
 233:Generated_Source\PSoC4/CSD_SensingCSD_LL.c ****         static void CSD_SsCSDSetSingleIdacMode(void);
 234:Generated_Source\PSoC4/CSD_SensingCSD_LL.c ****         static void CSD_SsCSDRestoreIdacMode(void);
 235:Generated_Source\PSoC4/CSD_SensingCSD_LL.c ****     #endif /* (CSD_ENABLE == CSD_CSD_IDAC_COMP_EN) */
 236:Generated_Source\PSoC4/CSD_SensingCSD_LL.c ****     static cystatus CSD_SsCSDCalibrateOneSensor(uint32 rawLevel,
 237:Generated_Source\PSoC4/CSD_SensingCSD_LL.c ****                                                              uint8 *ptrIdac,
 238:Generated_Source\PSoC4/CSD_SensingCSD_LL.c ****                                                              uint8 *iDAC8Max);
 239:Generated_Source\PSoC4/CSD_SensingCSD_LL.c **** #endif /* ((CSD_CSD_SS_DIS != CSD_CSD_AUTOTUNE) || \
 240:Generated_Source\PSoC4/CSD_SensingCSD_LL.c ****            (CSD_ENABLE == CSD_CSD_IDAC_AUTOCAL_EN))  */
 241:Generated_Source\PSoC4/CSD_SensingCSD_LL.c **** #if (CSD_ENABLE == CSD_CSDV2)
 242:Generated_Source\PSoC4/CSD_SensingCSD_LL.c ****     static void CSD_SsCSDSetFilterDelay(void);
 243:Generated_Source\PSoC4/CSD_SensingCSD_LL.c **** #else
 244:Generated_Source\PSoC4/CSD_SensingCSD_LL.c ****     CY_INLINE static void CSD_SsCSDClockRestart(void);
 245:Generated_Source\PSoC4/CSD_SensingCSD_LL.c **** #endif /* (CSD_ENABLE == CSD_CSDV2) */
 246:Generated_Source\PSoC4/CSD_SensingCSD_LL.c **** CY_INLINE static void CSD_SsCSDCmodPrecharge(void);
 247:Generated_Source\PSoC4/CSD_SensingCSD_LL.c **** CY_INLINE static void CSD_SsCSDTriggerScan(void);
 248:Generated_Source\PSoC4/CSD_SensingCSD_LL.c **** static void CSD_SsCSDSetModeSnsClockDivider(uint32 snsClkSource, uint32 snsClkDivider);
ARM GAS  C:\Users\CHRIST~1\AppData\Local\Temp\ccGy5PUQ.s 			page 6


 249:Generated_Source\PSoC4/CSD_SensingCSD_LL.c **** static void CSD_SsCSDConfigIDACs(void);
 250:Generated_Source\PSoC4/CSD_SensingCSD_LL.c **** 
 251:Generated_Source\PSoC4/CSD_SensingCSD_LL.c **** /** \}
 252:Generated_Source\PSoC4/CSD_SensingCSD_LL.c **** * \endif */
 253:Generated_Source\PSoC4/CSD_SensingCSD_LL.c **** 
 254:Generated_Source\PSoC4/CSD_SensingCSD_LL.c **** 
 255:Generated_Source\PSoC4/CSD_SensingCSD_LL.c **** #if (CSD_ENABLE == CSD_CSD_SHIELD_EN)
 256:Generated_Source\PSoC4/CSD_SensingCSD_LL.c ****     /*******************************************************************************
 257:Generated_Source\PSoC4/CSD_SensingCSD_LL.c ****     * Function Name: CSD_SsSetShieldDelay
 258:Generated_Source\PSoC4/CSD_SensingCSD_LL.c ****     ****************************************************************************//**
 259:Generated_Source\PSoC4/CSD_SensingCSD_LL.c ****     *
 260:Generated_Source\PSoC4/CSD_SensingCSD_LL.c ****     * \brief
 261:Generated_Source\PSoC4/CSD_SensingCSD_LL.c ****     *   This is an internal function that sets a shield delay.
 262:Generated_Source\PSoC4/CSD_SensingCSD_LL.c ****     *
 263:Generated_Source\PSoC4/CSD_SensingCSD_LL.c ****     * \details
 264:Generated_Source\PSoC4/CSD_SensingCSD_LL.c ****     *   The function updates the CSD configuration register bits that define the shield
 265:Generated_Source\PSoC4/CSD_SensingCSD_LL.c ****     *   signal delay relatively to the sense signal.
 266:Generated_Source\PSoC4/CSD_SensingCSD_LL.c ****     *
 267:Generated_Source\PSoC4/CSD_SensingCSD_LL.c ****     * \param delay
 268:Generated_Source\PSoC4/CSD_SensingCSD_LL.c ****     *   Specifies the shield delay value:
 269:Generated_Source\PSoC4/CSD_SensingCSD_LL.c ****     *                               0 - no delay
 270:Generated_Source\PSoC4/CSD_SensingCSD_LL.c ****     *                               1 - 5ns delay (50 ns for CSDv1 block)
 271:Generated_Source\PSoC4/CSD_SensingCSD_LL.c ****     *                               2 - 10ns delay (100 ns for CSDv1 block)
 272:Generated_Source\PSoC4/CSD_SensingCSD_LL.c ****     *                               3 - 20ns delay
 273:Generated_Source\PSoC4/CSD_SensingCSD_LL.c ****     *
 274:Generated_Source\PSoC4/CSD_SensingCSD_LL.c ****     *******************************************************************************/
 275:Generated_Source\PSoC4/CSD_SensingCSD_LL.c ****     static void CSD_SsSetShieldDelay(uint32 delay)
 276:Generated_Source\PSoC4/CSD_SensingCSD_LL.c ****     {
 277:Generated_Source\PSoC4/CSD_SensingCSD_LL.c ****         /* Update CSD config register shield delay bits with shield delay value */
 278:Generated_Source\PSoC4/CSD_SensingCSD_LL.c ****         CSD_configCsd &= (uint32)(~CSD_CONFIG_SHIELD_DELAY_MASK);
 279:Generated_Source\PSoC4/CSD_SensingCSD_LL.c ****         CSD_configCsd |= (delay << CSD_SHIELD_DELAY_SHIFT);
 280:Generated_Source\PSoC4/CSD_SensingCSD_LL.c ****     }
 281:Generated_Source\PSoC4/CSD_SensingCSD_LL.c **** 
 282:Generated_Source\PSoC4/CSD_SensingCSD_LL.c ****     #if (CSD_ENABLE == CSD_CSD_SHIELD_TANK_EN)
 283:Generated_Source\PSoC4/CSD_SensingCSD_LL.c ****         /*******************************************************************************
 284:Generated_Source\PSoC4/CSD_SensingCSD_LL.c ****         * Function Name: CSD_SsCSDEnableShieldTank
 285:Generated_Source\PSoC4/CSD_SensingCSD_LL.c ****         ****************************************************************************//**
 286:Generated_Source\PSoC4/CSD_SensingCSD_LL.c ****         *
 287:Generated_Source\PSoC4/CSD_SensingCSD_LL.c ****         * \brief
 288:Generated_Source\PSoC4/CSD_SensingCSD_LL.c ****         *   This function configures Csh pin
 289:Generated_Source\PSoC4/CSD_SensingCSD_LL.c ****         *
 290:Generated_Source\PSoC4/CSD_SensingCSD_LL.c ****         * \details
 291:Generated_Source\PSoC4/CSD_SensingCSD_LL.c ****         *   The function updates the CSH_HSIOM register to connect Csh to AMUXBUS-B.
 292:Generated_Source\PSoC4/CSD_SensingCSD_LL.c ****         *   For CSD v1 IP HW block it additionally sets Strong drive mode for Csh
 293:Generated_Source\PSoC4/CSD_SensingCSD_LL.c ****         *   and applies High level to Csh pin when precharge is set to IO buffer.
 294:Generated_Source\PSoC4/CSD_SensingCSD_LL.c ****         *
 295:Generated_Source\PSoC4/CSD_SensingCSD_LL.c ****         *******************************************************************************/
 296:Generated_Source\PSoC4/CSD_SensingCSD_LL.c ****         static void CSD_SsCSDEnableShieldTank(void)
 297:Generated_Source\PSoC4/CSD_SensingCSD_LL.c ****         {
 298:Generated_Source\PSoC4/CSD_SensingCSD_LL.c ****             uint32 newRegValue;
 299:Generated_Source\PSoC4/CSD_SensingCSD_LL.c **** 
 300:Generated_Source\PSoC4/CSD_SensingCSD_LL.c ****             /* Update the CSH_HSIOM register to connect Csh to AMUXBUS-B */
 301:Generated_Source\PSoC4/CSD_SensingCSD_LL.c ****             newRegValue = CY_GET_REG32(CSD_CSH_HSIOM_PTR);
 302:Generated_Source\PSoC4/CSD_SensingCSD_LL.c ****             newRegValue &= (uint32)(~(uint32)CSD_CSH_HSIOM_MASK);
 303:Generated_Source\PSoC4/CSD_SensingCSD_LL.c ****             newRegValue |= (CSD_CSH_TO_AMUXBUS_B_MASK << CSD_CSH_HSIOM_SHIFT);
 304:Generated_Source\PSoC4/CSD_SensingCSD_LL.c ****             CY_SET_REG32(CSD_CSH_HSIOM_PTR, newRegValue);
 305:Generated_Source\PSoC4/CSD_SensingCSD_LL.c **** 
ARM GAS  C:\Users\CHRIST~1\AppData\Local\Temp\ccGy5PUQ.s 			page 7


 306:Generated_Source\PSoC4/CSD_SensingCSD_LL.c ****             #if ((CSD_CSH_PRECHARGE_IO_BUF == CSD_CSD_CSH_PRECHARGE_SRC) &&\
 307:Generated_Source\PSoC4/CSD_SensingCSD_LL.c ****                  (CSD_DISABLE == CSD_CSDV2))
 308:Generated_Source\PSoC4/CSD_SensingCSD_LL.c ****                 /* Set Strong drive mode for Csh */
 309:Generated_Source\PSoC4/CSD_SensingCSD_LL.c ****                 newRegValue = CY_GET_REG32(CSD_CSH_PC_PTR);
 310:Generated_Source\PSoC4/CSD_SensingCSD_LL.c ****                 newRegValue &= (uint32)(~(CSD_CSH_PC_MASK << CSD_CSH_PC_SHIFT));
 311:Generated_Source\PSoC4/CSD_SensingCSD_LL.c ****                 newRegValue |= (CSD_CSH_PC_STRONG_MODE << CSD_CSH_PC_SHIFT);
 312:Generated_Source\PSoC4/CSD_SensingCSD_LL.c ****                 CY_SET_REG32(CSD_CSH_PC_PTR, newRegValue);
 313:Generated_Source\PSoC4/CSD_SensingCSD_LL.c **** 
 314:Generated_Source\PSoC4/CSD_SensingCSD_LL.c ****                 /* Appliy High level to Csh pin for Csh */
 315:Generated_Source\PSoC4/CSD_SensingCSD_LL.c ****                 newRegValue = CY_GET_REG32(CSD_CSH_DR_PTR);
 316:Generated_Source\PSoC4/CSD_SensingCSD_LL.c ****                 newRegValue &= (uint32)(~(CSD_DR_MASK << CSD_CSH_SHIFT));
 317:Generated_Source\PSoC4/CSD_SensingCSD_LL.c ****                 newRegValue |= (uint32)CSD_CSH_DR_CONFIG;
 318:Generated_Source\PSoC4/CSD_SensingCSD_LL.c ****                 CY_SET_REG32(CSD_CSH_DR_PTR, newRegValue);
 319:Generated_Source\PSoC4/CSD_SensingCSD_LL.c ****             #endif /* ((CSD_CSH_PRECHARGE_IO_BUF == CSD_CSD_CSH_PRECHARGE_SRC) &&\
 320:Generated_Source\PSoC4/CSD_SensingCSD_LL.c ****                        (CSD_DISABLE == CSD_CSDV2)) */
 321:Generated_Source\PSoC4/CSD_SensingCSD_LL.c ****         }
 322:Generated_Source\PSoC4/CSD_SensingCSD_LL.c ****     #endif /* (CSD_ENABLE == CSD_CSD_SHIELD_TANK_EN) */
 323:Generated_Source\PSoC4/CSD_SensingCSD_LL.c **** 
 324:Generated_Source\PSoC4/CSD_SensingCSD_LL.c ****     #if (0u != CSD_CSD_TOTAL_SHIELD_COUNT)
 325:Generated_Source\PSoC4/CSD_SensingCSD_LL.c ****         /*******************************************************************************
 326:Generated_Source\PSoC4/CSD_SensingCSD_LL.c ****         * Function Name: CSD_SsCSDEnableShieldElectrodes
 327:Generated_Source\PSoC4/CSD_SensingCSD_LL.c ****         ****************************************************************************//**
 328:Generated_Source\PSoC4/CSD_SensingCSD_LL.c ****         *
 329:Generated_Source\PSoC4/CSD_SensingCSD_LL.c ****         * \brief
 330:Generated_Source\PSoC4/CSD_SensingCSD_LL.c ****         *   This internal function initializes Shield Electrodes.
 331:Generated_Source\PSoC4/CSD_SensingCSD_LL.c ****         *
 332:Generated_Source\PSoC4/CSD_SensingCSD_LL.c ****         * \details
 333:Generated_Source\PSoC4/CSD_SensingCSD_LL.c ****         *   The function sets the bit in the HSIOM register which enables the shield electrode
 334:Generated_Source\PSoC4/CSD_SensingCSD_LL.c ****         *   functionality on the pin. The port and pin configurations are stored in
 335:Generated_Source\PSoC4/CSD_SensingCSD_LL.c ****         *   the CSD_shieldIoList structure.
 336:Generated_Source\PSoC4/CSD_SensingCSD_LL.c ****         *
 337:Generated_Source\PSoC4/CSD_SensingCSD_LL.c ****         *******************************************************************************/
 338:Generated_Source\PSoC4/CSD_SensingCSD_LL.c ****         static void CSD_SsCSDEnableShieldElectrodes(void)
 339:Generated_Source\PSoC4/CSD_SensingCSD_LL.c ****         {
 340:Generated_Source\PSoC4/CSD_SensingCSD_LL.c ****             uint32 newRegValue;
 341:Generated_Source\PSoC4/CSD_SensingCSD_LL.c ****             uint32 shieldIndex;
 342:Generated_Source\PSoC4/CSD_SensingCSD_LL.c **** 
 343:Generated_Source\PSoC4/CSD_SensingCSD_LL.c ****             for (shieldIndex = 0u; shieldIndex < CSD_CSD_TOTAL_SHIELD_COUNT; shieldIndex++)
 344:Generated_Source\PSoC4/CSD_SensingCSD_LL.c ****             {
 345:Generated_Source\PSoC4/CSD_SensingCSD_LL.c ****                 /* Set drive mode to Analog */
 346:Generated_Source\PSoC4/CSD_SensingCSD_LL.c ****                 CY_SET_REG32(CSD_shieldIoList[shieldIndex].pcPtr, CY_GET_REG32(CSD_shieldIoList[shi
 347:Generated_Source\PSoC4/CSD_SensingCSD_LL.c ****                            ~(CSD_GPIO_PC_MASK <<(CSD_shieldIoList[shieldIndex].shift)));
 348:Generated_Source\PSoC4/CSD_SensingCSD_LL.c **** 
 349:Generated_Source\PSoC4/CSD_SensingCSD_LL.c ****                 /* Set HSIOM register mode to CSD_SHIELD or AMUXBUS B connection */
 350:Generated_Source\PSoC4/CSD_SensingCSD_LL.c ****                 newRegValue = CY_GET_REG32(CSD_shieldIoList[shieldIndex].hsiomPtr);
 351:Generated_Source\PSoC4/CSD_SensingCSD_LL.c ****                 newRegValue &= ~(CSD_HSIOM_SEL_MASK << (CSD_shieldIoList[shieldIndex].hsiomShift));
 352:Generated_Source\PSoC4/CSD_SensingCSD_LL.c **** 
 353:Generated_Source\PSoC4/CSD_SensingCSD_LL.c ****                 /* Set HSIOM register mode to CSD_SHIELD */
 354:Generated_Source\PSoC4/CSD_SensingCSD_LL.c ****                 newRegValue |= (CSD_HSIOM_SEL_CSD_SHIELD << (CSD_shieldIoList[shieldIndex].hsiomShi
 355:Generated_Source\PSoC4/CSD_SensingCSD_LL.c **** 
 356:Generated_Source\PSoC4/CSD_SensingCSD_LL.c ****                 CY_SET_REG32(CSD_shieldIoList[shieldIndex].hsiomPtr, newRegValue);
 357:Generated_Source\PSoC4/CSD_SensingCSD_LL.c ****             }
 358:Generated_Source\PSoC4/CSD_SensingCSD_LL.c ****         }
 359:Generated_Source\PSoC4/CSD_SensingCSD_LL.c **** 
 360:Generated_Source\PSoC4/CSD_SensingCSD_LL.c **** 
 361:Generated_Source\PSoC4/CSD_SensingCSD_LL.c ****         /*******************************************************************************
 362:Generated_Source\PSoC4/CSD_SensingCSD_LL.c ****         * Function Name: CSD_SsCSDDisableShieldElectrodes
ARM GAS  C:\Users\CHRIST~1\AppData\Local\Temp\ccGy5PUQ.s 			page 8


 363:Generated_Source\PSoC4/CSD_SensingCSD_LL.c ****         ****************************************************************************//**
 364:Generated_Source\PSoC4/CSD_SensingCSD_LL.c ****         *
 365:Generated_Source\PSoC4/CSD_SensingCSD_LL.c ****         * \brief
 366:Generated_Source\PSoC4/CSD_SensingCSD_LL.c ****         *   This internal function disables Shield Electrodes.
 367:Generated_Source\PSoC4/CSD_SensingCSD_LL.c ****         *
 368:Generated_Source\PSoC4/CSD_SensingCSD_LL.c ****         * \details
 369:Generated_Source\PSoC4/CSD_SensingCSD_LL.c ****         *   The function resets the bit in the HSIOM register which disables the shield
 370:Generated_Source\PSoC4/CSD_SensingCSD_LL.c ****         *   electrode functionality on the pin. The port and pin configurations are
 371:Generated_Source\PSoC4/CSD_SensingCSD_LL.c ****         *   stored in  the CSD_shieldIoList structure.
 372:Generated_Source\PSoC4/CSD_SensingCSD_LL.c ****         *
 373:Generated_Source\PSoC4/CSD_SensingCSD_LL.c ****         *******************************************************************************/
 374:Generated_Source\PSoC4/CSD_SensingCSD_LL.c ****         void CSD_SsCSDDisableShieldElectrodes(void)
 375:Generated_Source\PSoC4/CSD_SensingCSD_LL.c ****         {
 376:Generated_Source\PSoC4/CSD_SensingCSD_LL.c ****             uint32 newRegValue;
 377:Generated_Source\PSoC4/CSD_SensingCSD_LL.c ****             uint32 shieldIndex;
 378:Generated_Source\PSoC4/CSD_SensingCSD_LL.c **** 
 379:Generated_Source\PSoC4/CSD_SensingCSD_LL.c ****             for (shieldIndex = 0u; shieldIndex < CSD_CSD_TOTAL_SHIELD_COUNT; shieldIndex++)
 380:Generated_Source\PSoC4/CSD_SensingCSD_LL.c ****             {
 381:Generated_Source\PSoC4/CSD_SensingCSD_LL.c ****                 /* Reset HSIOM register (to GPIO state) */
 382:Generated_Source\PSoC4/CSD_SensingCSD_LL.c ****                 CY_SET_REG32(CSD_shieldIoList[shieldIndex].hsiomPtr, CY_GET_REG32(CSD_shieldIoList[
 383:Generated_Source\PSoC4/CSD_SensingCSD_LL.c ****                              (uint32)~(uint32)(CSD_HSIOM_SEL_MASK << CSD_shieldIoList[shieldIndex].
 384:Generated_Source\PSoC4/CSD_SensingCSD_LL.c **** 
 385:Generated_Source\PSoC4/CSD_SensingCSD_LL.c ****                 /* Update port configuration register (drive mode to ground)  */
 386:Generated_Source\PSoC4/CSD_SensingCSD_LL.c ****                 newRegValue = CY_GET_REG32(CSD_shieldIoList[shieldIndex].pcPtr);
 387:Generated_Source\PSoC4/CSD_SensingCSD_LL.c ****                 newRegValue &= ~(CSD_GPIO_PC_MASK << CSD_shieldIoList[shieldIndex].shift);
 388:Generated_Source\PSoC4/CSD_SensingCSD_LL.c ****                 newRegValue |= (CSD_SNS_GROUND_CONNECT << CSD_shieldIoList[shieldIndex].shift);
 389:Generated_Source\PSoC4/CSD_SensingCSD_LL.c ****                 CY_SET_REG32(CSD_shieldIoList[shieldIndex].pcPtr, newRegValue);
 390:Generated_Source\PSoC4/CSD_SensingCSD_LL.c **** 
 391:Generated_Source\PSoC4/CSD_SensingCSD_LL.c ****                 /* Set logic 0 to port data register */
 392:Generated_Source\PSoC4/CSD_SensingCSD_LL.c ****                 CY_SET_REG32(CSD_shieldIoList[shieldIndex].drPtr, CY_GET_REG32(CSD_shieldIoList[shi
 393:Generated_Source\PSoC4/CSD_SensingCSD_LL.c ****                            (uint32)~(uint32)((uint32)1u << CSD_shieldIoList[shieldIndex].drShift));
 394:Generated_Source\PSoC4/CSD_SensingCSD_LL.c ****             }
 395:Generated_Source\PSoC4/CSD_SensingCSD_LL.c ****         }
 396:Generated_Source\PSoC4/CSD_SensingCSD_LL.c ****     #endif /* (0u != CSD_CSD_TOTAL_SHIELD_COUNT) */
 397:Generated_Source\PSoC4/CSD_SensingCSD_LL.c **** #endif /* (CSD_ENABLE == CSD_CSD_SHIELD_EN) */
 398:Generated_Source\PSoC4/CSD_SensingCSD_LL.c **** 
 399:Generated_Source\PSoC4/CSD_SensingCSD_LL.c **** 
 400:Generated_Source\PSoC4/CSD_SensingCSD_LL.c **** /*******************************************************************************
 401:Generated_Source\PSoC4/CSD_SensingCSD_LL.c **** * Function Name: CSD_SsCSDClearCSDSensors
 402:Generated_Source\PSoC4/CSD_SensingCSD_LL.c **** ****************************************************************************//**
 403:Generated_Source\PSoC4/CSD_SensingCSD_LL.c **** *
 404:Generated_Source\PSoC4/CSD_SensingCSD_LL.c **** * \brief
 405:Generated_Source\PSoC4/CSD_SensingCSD_LL.c **** *  Resets all the CSD sensors to the non-sampling state by sequentially
 406:Generated_Source\PSoC4/CSD_SensingCSD_LL.c **** *  disconnecting all the sensors from the Analog MUX bus and putting them to
 407:Generated_Source\PSoC4/CSD_SensingCSD_LL.c **** *  an inactive state.
 408:Generated_Source\PSoC4/CSD_SensingCSD_LL.c **** *
 409:Generated_Source\PSoC4/CSD_SensingCSD_LL.c **** * \details
 410:Generated_Source\PSoC4/CSD_SensingCSD_LL.c **** *   The function goes through all the widgets and updates appropriate bits in
 411:Generated_Source\PSoC4/CSD_SensingCSD_LL.c **** *   the IO HSIOM, PC and DR registers depending on the Inactive sensor connection
 412:Generated_Source\PSoC4/CSD_SensingCSD_LL.c **** *   parameter. DR register bits are set to zero when the Inactive sensor
 413:Generated_Source\PSoC4/CSD_SensingCSD_LL.c **** *   connection is Ground or Hi-Z.
 414:Generated_Source\PSoC4/CSD_SensingCSD_LL.c **** *
 415:Generated_Source\PSoC4/CSD_SensingCSD_LL.c **** *******************************************************************************/
 416:Generated_Source\PSoC4/CSD_SensingCSD_LL.c **** static void CSD_SsCSDClearCSDSensors(void)
 417:Generated_Source\PSoC4/CSD_SensingCSD_LL.c **** {
  38              		.loc 1 417 0
  39              		.cfi_startproc
ARM GAS  C:\Users\CHRIST~1\AppData\Local\Temp\ccGy5PUQ.s 			page 9


  40 0000 80B5     		push	{r7, lr}
  41              		.cfi_def_cfa_offset 8
  42              		.cfi_offset 7, -8
  43              		.cfi_offset 14, -4
  44 0002 82B0     		sub	sp, sp, #8
  45              		.cfi_def_cfa_offset 16
  46 0004 00AF     		add	r7, sp, #0
  47              		.cfi_def_cfa_register 7
 418:Generated_Source\PSoC4/CSD_SensingCSD_LL.c ****     uint32 wdgtIndex;
 419:Generated_Source\PSoC4/CSD_SensingCSD_LL.c ****     uint32 snsIndex;
 420:Generated_Source\PSoC4/CSD_SensingCSD_LL.c ****     #if (CSD_ENABLE == CSD_CSD_GANGED_SNS_EN)
 421:Generated_Source\PSoC4/CSD_SensingCSD_LL.c ****         /* Declare ptr to sensor IO structure */
 422:Generated_Source\PSoC4/CSD_SensingCSD_LL.c ****         CSD_FLASH_IO_STRUCT const *curDedicatedSnsIOPtr;
 423:Generated_Source\PSoC4/CSD_SensingCSD_LL.c ****     #endif /* (CSD_ENABLE == CSD_CSD_GANGED_SNS_EN)  */
 424:Generated_Source\PSoC4/CSD_SensingCSD_LL.c **** 
 425:Generated_Source\PSoC4/CSD_SensingCSD_LL.c ****     for (wdgtIndex = 0u; wdgtIndex < CSD_TOTAL_WIDGETS; wdgtIndex++)
  48              		.loc 1 425 0
  49 0006 0023     		mov	r3, #0
  50 0008 7B60     		str	r3, [r7, #4]
  51 000a 2AE0     		b	.L2
  52              	.L5:
 426:Generated_Source\PSoC4/CSD_SensingCSD_LL.c ****     {
 427:Generated_Source\PSoC4/CSD_SensingCSD_LL.c ****         if (CSD_SENSE_METHOD_CSD_E ==
 428:Generated_Source\PSoC4/CSD_SensingCSD_LL.c ****             (CSD_SENSE_METHOD_ENUM)CSD_GET_SENSE_METHOD(&CSD_dsFlash.wdgtArray[wdgtIndex]))
 429:Generated_Source\PSoC4/CSD_SensingCSD_LL.c ****         {
 430:Generated_Source\PSoC4/CSD_SensingCSD_LL.c ****             CSD_curSnsIOPtr = (CSD_FLASH_IO_STRUCT const *)
 431:Generated_Source\PSoC4/CSD_SensingCSD_LL.c ****                                             CSD_dsFlash.wdgtArray[wdgtIndex].ptr2SnsFlash;
  53              		.loc 1 431 0
  54 000c 1849     		ldr	r1, .L6
  55 000e 7A68     		ldr	r2, [r7, #4]
  56 0010 131C     		mov	r3, r2
  57 0012 DB00     		lsl	r3, r3, #3
  58 0014 9B1A     		sub	r3, r3, r2
  59 0016 9B00     		lsl	r3, r3, #2
  60 0018 5A58     		ldr	r2, [r3, r1]
 430:Generated_Source\PSoC4/CSD_SensingCSD_LL.c ****                                             CSD_dsFlash.wdgtArray[wdgtIndex].ptr2SnsFlash;
  61              		.loc 1 430 0
  62 001a 164B     		ldr	r3, .L6+4
  63 001c 1A60     		str	r2, [r3]
 432:Generated_Source\PSoC4/CSD_SensingCSD_LL.c **** 
 433:Generated_Source\PSoC4/CSD_SensingCSD_LL.c ****             /* Go through all sensors in widget */
 434:Generated_Source\PSoC4/CSD_SensingCSD_LL.c ****             for (snsIndex = 0u; snsIndex < (uint8)CSD_dsFlash.wdgtArray[(wdgtIndex)].totalNumSns; s
  64              		.loc 1 434 0
  65 001e 0023     		mov	r3, #0
  66 0020 3B60     		str	r3, [r7]
  67 0022 0DE0     		b	.L3
  68              	.L4:
 435:Generated_Source\PSoC4/CSD_SensingCSD_LL.c ****             {
 436:Generated_Source\PSoC4/CSD_SensingCSD_LL.c ****                 #if (CSD_ENABLE == CSD_CSD_GANGED_SNS_EN)
 437:Generated_Source\PSoC4/CSD_SensingCSD_LL.c ****                     /* Check ganged sns flag  */
 438:Generated_Source\PSoC4/CSD_SensingCSD_LL.c ****                     if (CSD_GANGED_SNS_MASK == (CSD_dsFlash.wdgtArray[wdgtIndex].staticConfig &
 439:Generated_Source\PSoC4/CSD_SensingCSD_LL.c ****                                                              CSD_GANGED_SNS_MASK))
 440:Generated_Source\PSoC4/CSD_SensingCSD_LL.c ****                     {
 441:Generated_Source\PSoC4/CSD_SensingCSD_LL.c ****                         /* Get sns pointer */
 442:Generated_Source\PSoC4/CSD_SensingCSD_LL.c ****                         CSD_curFlashSnsPtr = (CSD_FLASH_SNS_STRUCT const *)
 443:Generated_Source\PSoC4/CSD_SensingCSD_LL.c ****                                                            CSD_dsFlash.wdgtArray[wdgtIndex].ptr2Sns
 444:Generated_Source\PSoC4/CSD_SensingCSD_LL.c ****                                                            snsIndex;
ARM GAS  C:\Users\CHRIST~1\AppData\Local\Temp\ccGy5PUQ.s 			page 10


 445:Generated_Source\PSoC4/CSD_SensingCSD_LL.c **** 
 446:Generated_Source\PSoC4/CSD_SensingCSD_LL.c ****                         /* Get IO pointer for dedicated pin */
 447:Generated_Source\PSoC4/CSD_SensingCSD_LL.c ****                         curDedicatedSnsIOPtr = &CSD_ioList[CSD_curFlashSnsPtr->firstPinId];
 448:Generated_Source\PSoC4/CSD_SensingCSD_LL.c **** 
 449:Generated_Source\PSoC4/CSD_SensingCSD_LL.c ****                         /* Disconnect dedicated pin */
 450:Generated_Source\PSoC4/CSD_SensingCSD_LL.c ****                         CSD_CSDDisconnectSns(curDedicatedSnsIOPtr);
 451:Generated_Source\PSoC4/CSD_SensingCSD_LL.c ****                     }
 452:Generated_Source\PSoC4/CSD_SensingCSD_LL.c ****                     else
 453:Generated_Source\PSoC4/CSD_SensingCSD_LL.c ****                     {
 454:Generated_Source\PSoC4/CSD_SensingCSD_LL.c ****                         /* Disable sensor */
 455:Generated_Source\PSoC4/CSD_SensingCSD_LL.c ****                         CSD_CSDDisconnectSns(&CSD_curSnsIOPtr[snsIndex]);
 456:Generated_Source\PSoC4/CSD_SensingCSD_LL.c ****                     }
 457:Generated_Source\PSoC4/CSD_SensingCSD_LL.c ****                 #else
 458:Generated_Source\PSoC4/CSD_SensingCSD_LL.c ****                     /* Disable sensor */
 459:Generated_Source\PSoC4/CSD_SensingCSD_LL.c ****                     CSD_CSDDisconnectSns(&CSD_curSnsIOPtr[snsIndex]);
  69              		.loc 1 459 0 discriminator 3
  70 0024 134B     		ldr	r3, .L6+4
  71 0026 1968     		ldr	r1, [r3]
  72 0028 3A68     		ldr	r2, [r7]
  73 002a 131C     		mov	r3, r2
  74 002c DB00     		lsl	r3, r3, #3
  75 002e 9B1A     		sub	r3, r3, r2
  76 0030 9B00     		lsl	r3, r3, #2
  77 0032 CB18     		add	r3, r1, r3
  78 0034 181C     		mov	r0, r3
  79 0036 FFF7FEFF 		bl	CSD_CSDDisconnectSns
 434:Generated_Source\PSoC4/CSD_SensingCSD_LL.c ****             {
  80              		.loc 1 434 0 discriminator 3
  81 003a 3B68     		ldr	r3, [r7]
  82 003c 0133     		add	r3, r3, #1
  83 003e 3B60     		str	r3, [r7]
  84              	.L3:
 434:Generated_Source\PSoC4/CSD_SensingCSD_LL.c ****             {
  85              		.loc 1 434 0 is_stmt 0 discriminator 1
  86 0040 0B49     		ldr	r1, .L6
  87 0042 7A68     		ldr	r2, [r7, #4]
  88 0044 131C     		mov	r3, r2
  89 0046 DB00     		lsl	r3, r3, #3
  90 0048 9B1A     		sub	r3, r3, r2
  91 004a 9B00     		lsl	r3, r3, #2
  92 004c CB18     		add	r3, r1, r3
  93 004e 1033     		add	r3, r3, #16
  94 0050 DB88     		ldrh	r3, [r3, #6]
  95 0052 DBB2     		uxtb	r3, r3
  96 0054 1A1E     		sub	r2, r3, #0
  97 0056 3B68     		ldr	r3, [r7]
  98 0058 9A42     		cmp	r2, r3
  99 005a E3D8     		bhi	.L4
 425:Generated_Source\PSoC4/CSD_SensingCSD_LL.c ****     {
 100              		.loc 1 425 0 is_stmt 1 discriminator 2
 101 005c 7B68     		ldr	r3, [r7, #4]
 102 005e 0133     		add	r3, r3, #1
 103 0060 7B60     		str	r3, [r7, #4]
 104              	.L2:
 425:Generated_Source\PSoC4/CSD_SensingCSD_LL.c ****     {
 105              		.loc 1 425 0 is_stmt 0 discriminator 1
 106 0062 7B68     		ldr	r3, [r7, #4]
ARM GAS  C:\Users\CHRIST~1\AppData\Local\Temp\ccGy5PUQ.s 			page 11


 107 0064 002B     		cmp	r3, #0
 108 0066 D1D0     		beq	.L5
 460:Generated_Source\PSoC4/CSD_SensingCSD_LL.c ****                 #endif /* (CSD_ENABLE == CSD_CSD_GANGED_SNS_EN)  */
 461:Generated_Source\PSoC4/CSD_SensingCSD_LL.c ****             }
 462:Generated_Source\PSoC4/CSD_SensingCSD_LL.c ****         }
 463:Generated_Source\PSoC4/CSD_SensingCSD_LL.c ****     }
 464:Generated_Source\PSoC4/CSD_SensingCSD_LL.c **** }
 109              		.loc 1 464 0 is_stmt 1
 110 0068 BD46     		mov	sp, r7
 111 006a 02B0     		add	sp, sp, #8
 112              		@ sp needed
 113 006c 80BD     		pop	{r7, pc}
 114              	.L7:
 115 006e C046     		.align	2
 116              	.L6:
 117 0070 00000000 		.word	CSD_dsFlash
 118 0074 00000000 		.word	CSD_curSnsIOPtr
 119              		.cfi_endproc
 120              	.LFE1:
 121              		.size	CSD_SsCSDClearCSDSensors, .-CSD_SsCSDClearCSDSensors
 122              		.global	__aeabi_uidiv
 123              		.section	.text.CSD_SsCSDSetFilterDelay,"ax",%progbits
 124              		.align	2
 125              		.code	16
 126              		.thumb_func
 127              		.type	CSD_SsCSDSetFilterDelay, %function
 128              	CSD_SsCSDSetFilterDelay:
 129              	.LFB2:
 465:Generated_Source\PSoC4/CSD_SensingCSD_LL.c **** 
 466:Generated_Source\PSoC4/CSD_SensingCSD_LL.c **** 
 467:Generated_Source\PSoC4/CSD_SensingCSD_LL.c **** #if (CSD_CLK_SOURCE_PRSAUTO == CSD_CSD_SNS_CLK_SOURCE)
 468:Generated_Source\PSoC4/CSD_SensingCSD_LL.c ****     /*******************************************************************************
 469:Generated_Source\PSoC4/CSD_SensingCSD_LL.c ****     * Function Name: CSD_SsCSDCalcPrsSize
 470:Generated_Source\PSoC4/CSD_SensingCSD_LL.c ****     ****************************************************************************//**
 471:Generated_Source\PSoC4/CSD_SensingCSD_LL.c ****     *
 472:Generated_Source\PSoC4/CSD_SensingCSD_LL.c ****     * \brief
 473:Generated_Source\PSoC4/CSD_SensingCSD_LL.c ****     *   The function finds PRS polynomial size in the Auto mode.
 474:Generated_Source\PSoC4/CSD_SensingCSD_LL.c ****     *
 475:Generated_Source\PSoC4/CSD_SensingCSD_LL.c ****     * \details
 476:Generated_Source\PSoC4/CSD_SensingCSD_LL.c ****     *   The PRS polynomial size in the Auto mode is found based on the following
 477:Generated_Source\PSoC4/CSD_SensingCSD_LL.c ****     *   requirements:
 478:Generated_Source\PSoC4/CSD_SensingCSD_LL.c ****     *   - at least one full spread spectrum polynomial should pass during scan time.
 479:Generated_Source\PSoC4/CSD_SensingCSD_LL.c ****     *
 480:Generated_Source\PSoC4/CSD_SensingCSD_LL.c ****     * \param
 481:Generated_Source\PSoC4/CSD_SensingCSD_LL.c ****     *  snsClkDivider The divider value for the sense clock.
 482:Generated_Source\PSoC4/CSD_SensingCSD_LL.c ****     *  resolution The widget resolution.
 483:Generated_Source\PSoC4/CSD_SensingCSD_LL.c ****     *
 484:Generated_Source\PSoC4/CSD_SensingCSD_LL.c ****     * \return prsSize PRS value for SENSE_PERIOD register.
 485:Generated_Source\PSoC4/CSD_SensingCSD_LL.c ****     *
 486:Generated_Source\PSoC4/CSD_SensingCSD_LL.c ****     *******************************************************************************/
 487:Generated_Source\PSoC4/CSD_SensingCSD_LL.c ****     uint8 CSD_SsCSDCalcPrsSize(uint32 snsClkDivider, uint32 resolution)
 488:Generated_Source\PSoC4/CSD_SensingCSD_LL.c ****     {
 489:Generated_Source\PSoC4/CSD_SensingCSD_LL.c ****         uint32 prsSize;
 490:Generated_Source\PSoC4/CSD_SensingCSD_LL.c ****         uint32 modClkDivider;
 491:Generated_Source\PSoC4/CSD_SensingCSD_LL.c **** 
 492:Generated_Source\PSoC4/CSD_SensingCSD_LL.c ****         #if (CSD_ENABLE == CSD_CSDV2)
 493:Generated_Source\PSoC4/CSD_SensingCSD_LL.c ****             modClkDivider = 1uL;
ARM GAS  C:\Users\CHRIST~1\AppData\Local\Temp\ccGy5PUQ.s 			page 12


 494:Generated_Source\PSoC4/CSD_SensingCSD_LL.c ****         #else
 495:Generated_Source\PSoC4/CSD_SensingCSD_LL.c ****             #if (CSD_ENABLE == CSD_IS_M0S8PERI_BLOCK)
 496:Generated_Source\PSoC4/CSD_SensingCSD_LL.c ****                 modClkDivider = (uint32)CSD_dsRam.modCsdClk;
 497:Generated_Source\PSoC4/CSD_SensingCSD_LL.c ****             #else
 498:Generated_Source\PSoC4/CSD_SensingCSD_LL.c ****                 modClkDivider = 1uL;
 499:Generated_Source\PSoC4/CSD_SensingCSD_LL.c ****             #endif /* (CSD_ENABLE == CSD_IS_M0S8PERI_BLOCK) */
 500:Generated_Source\PSoC4/CSD_SensingCSD_LL.c ****         #endif /* (CSD_ENABLE == CSD_CSDV2) */
 501:Generated_Source\PSoC4/CSD_SensingCSD_LL.c **** 
 502:Generated_Source\PSoC4/CSD_SensingCSD_LL.c ****         if ((snsClkDivider * CSD_PRS_LENGTH_12_BITS) <
 503:Generated_Source\PSoC4/CSD_SensingCSD_LL.c ****             (modClkDivider * ((0x00000001Lu << resolution) - 1u)))
 504:Generated_Source\PSoC4/CSD_SensingCSD_LL.c ****         {
 505:Generated_Source\PSoC4/CSD_SensingCSD_LL.c ****             /* Set PRS12 mode */
 506:Generated_Source\PSoC4/CSD_SensingCSD_LL.c ****             prsSize = CSD_PRS_12_CONFIG;
 507:Generated_Source\PSoC4/CSD_SensingCSD_LL.c ****         }
 508:Generated_Source\PSoC4/CSD_SensingCSD_LL.c ****         else if ((snsClkDivider * CSD_PRS_LENGTH_8_BITS) <
 509:Generated_Source\PSoC4/CSD_SensingCSD_LL.c ****                  (modClkDivider * ((0x00000001Lu << resolution) - 1u)))
 510:Generated_Source\PSoC4/CSD_SensingCSD_LL.c ****         {
 511:Generated_Source\PSoC4/CSD_SensingCSD_LL.c ****             /* Set PRS8 mode */
 512:Generated_Source\PSoC4/CSD_SensingCSD_LL.c ****             prsSize = CSD_PRS_8_CONFIG;
 513:Generated_Source\PSoC4/CSD_SensingCSD_LL.c ****         }
 514:Generated_Source\PSoC4/CSD_SensingCSD_LL.c ****         else
 515:Generated_Source\PSoC4/CSD_SensingCSD_LL.c ****         {
 516:Generated_Source\PSoC4/CSD_SensingCSD_LL.c ****             /* Set Direct clock mode */
 517:Generated_Source\PSoC4/CSD_SensingCSD_LL.c ****             prsSize = CSD_CLK_SOURCE_DIRECT;
 518:Generated_Source\PSoC4/CSD_SensingCSD_LL.c ****         }
 519:Generated_Source\PSoC4/CSD_SensingCSD_LL.c **** 
 520:Generated_Source\PSoC4/CSD_SensingCSD_LL.c ****         return (uint8)prsSize;
 521:Generated_Source\PSoC4/CSD_SensingCSD_LL.c ****     }
 522:Generated_Source\PSoC4/CSD_SensingCSD_LL.c **** #endif /* (CSD_CLK_SOURCE_PRSAUTO == CSD_CSD_SNS_CLK_SOURCE) */
 523:Generated_Source\PSoC4/CSD_SensingCSD_LL.c **** 
 524:Generated_Source\PSoC4/CSD_SensingCSD_LL.c **** 
 525:Generated_Source\PSoC4/CSD_SensingCSD_LL.c **** #if (CSD_ENABLE == CSD_CSDV2)
 526:Generated_Source\PSoC4/CSD_SensingCSD_LL.c ****     /*******************************************************************************
 527:Generated_Source\PSoC4/CSD_SensingCSD_LL.c ****     * Function Name: CSD_SsCSDSetFilterDelay
 528:Generated_Source\PSoC4/CSD_SensingCSD_LL.c ****     ****************************************************************************//**
 529:Generated_Source\PSoC4/CSD_SensingCSD_LL.c ****     *
 530:Generated_Source\PSoC4/CSD_SensingCSD_LL.c ****     * \brief
 531:Generated_Source\PSoC4/CSD_SensingCSD_LL.c ****     *   Sets the filter delay for CSDv2 HW IP block.
 532:Generated_Source\PSoC4/CSD_SensingCSD_LL.c ****     *
 533:Generated_Source\PSoC4/CSD_SensingCSD_LL.c ****     * \details
 534:Generated_Source\PSoC4/CSD_SensingCSD_LL.c ****     *   This function updates CSDv2 configuration variable CSD_configCsd
 535:Generated_Source\PSoC4/CSD_SensingCSD_LL.c ****     *   with the filter delay which depends on the sample clock frequency.
 536:Generated_Source\PSoC4/CSD_SensingCSD_LL.c ****     *   This variable is written into CSDv2 CONFIG register during enabling
 537:Generated_Source\PSoC4/CSD_SensingCSD_LL.c ****     *   to CSDv2 block.
 538:Generated_Source\PSoC4/CSD_SensingCSD_LL.c ****     *
 539:Generated_Source\PSoC4/CSD_SensingCSD_LL.c ****     *******************************************************************************/
 540:Generated_Source\PSoC4/CSD_SensingCSD_LL.c ****     static void CSD_SsCSDSetFilterDelay(void)
 541:Generated_Source\PSoC4/CSD_SensingCSD_LL.c ****     {
 130              		.loc 1 541 0
 131              		.cfi_startproc
 132 0000 80B5     		push	{r7, lr}
 133              		.cfi_def_cfa_offset 8
 134              		.cfi_offset 7, -8
 135              		.cfi_offset 14, -4
 136 0002 82B0     		sub	sp, sp, #8
 137              		.cfi_def_cfa_offset 16
 138 0004 00AF     		add	r7, sp, #0
ARM GAS  C:\Users\CHRIST~1\AppData\Local\Temp\ccGy5PUQ.s 			page 13


 139              		.cfi_def_cfa_register 7
 542:Generated_Source\PSoC4/CSD_SensingCSD_LL.c ****         #if (CSD_MOD_CSD_CLK_12MHZ < CYDEV_BCLK__HFCLK__HZ)
 543:Generated_Source\PSoC4/CSD_SensingCSD_LL.c ****             uint32 sampleClkFreqHz;
 544:Generated_Source\PSoC4/CSD_SensingCSD_LL.c ****         #endif /* (CSD_MOD_CSD_CLK_12MHZ < CYDEV_BCLK__HFCLK__HZ) */
 545:Generated_Source\PSoC4/CSD_SensingCSD_LL.c **** 
 546:Generated_Source\PSoC4/CSD_SensingCSD_LL.c ****         CSD_configCsd &= ~CSD_CONFIG_FILTER_DELAY_MASK;
 140              		.loc 1 546 0
 141 0006 174B     		ldr	r3, .L12
 142 0008 1B68     		ldr	r3, [r3]
 143 000a 7022     		mov	r2, #112
 144 000c 9343     		bic	r3, r2
 145 000e 1A1C     		mov	r2, r3
 146 0010 144B     		ldr	r3, .L12
 147 0012 1A60     		str	r2, [r3]
 547:Generated_Source\PSoC4/CSD_SensingCSD_LL.c **** 
 548:Generated_Source\PSoC4/CSD_SensingCSD_LL.c ****         #if (CSD_MOD_CSD_CLK_12MHZ < CYDEV_BCLK__HFCLK__HZ)
 549:Generated_Source\PSoC4/CSD_SensingCSD_LL.c ****             sampleClkFreqHz = CYDEV_BCLK__HFCLK__HZ / (uint32)CSD_dsRam.modCsdClk;
 148              		.loc 1 549 0
 149 0014 144B     		ldr	r3, .L12+4
 150 0016 1B7E     		ldrb	r3, [r3, #24]
 151 0018 1448     		ldr	r0, .L12+8
 152 001a 191C     		mov	r1, r3
 153 001c FFF7FEFF 		bl	__aeabi_uidiv
 154 0020 031C     		mov	r3, r0
 155 0022 7B60     		str	r3, [r7, #4]
 550:Generated_Source\PSoC4/CSD_SensingCSD_LL.c ****             if(sampleClkFreqHz <= CSD_MOD_CSD_CLK_12MHZ)
 156              		.loc 1 550 0
 157 0024 7B68     		ldr	r3, [r7, #4]
 158 0026 124A     		ldr	r2, .L12+12
 159 0028 9342     		cmp	r3, r2
 160 002a 06D8     		bhi	.L9
 551:Generated_Source\PSoC4/CSD_SensingCSD_LL.c ****             {
 552:Generated_Source\PSoC4/CSD_SensingCSD_LL.c ****                 CSD_configCsd |= CSD_CONFIG_FILTER_DELAY_12MHZ;
 161              		.loc 1 552 0
 162 002c 0D4B     		ldr	r3, .L12
 163 002e 1B68     		ldr	r3, [r3]
 164 0030 2022     		mov	r2, #32
 165 0032 1A43     		orr	r2, r3
 166 0034 0B4B     		ldr	r3, .L12
 167 0036 1A60     		str	r2, [r3]
 168 0038 10E0     		b	.L8
 169              	.L9:
 553:Generated_Source\PSoC4/CSD_SensingCSD_LL.c ****             }
 554:Generated_Source\PSoC4/CSD_SensingCSD_LL.c ****             else if(sampleClkFreqHz <= CSD_MOD_CSD_CLK_24MHZ)
 170              		.loc 1 554 0
 171 003a 7B68     		ldr	r3, [r7, #4]
 172 003c 0D4A     		ldr	r2, .L12+16
 173 003e 9342     		cmp	r3, r2
 174 0040 06D8     		bhi	.L11
 555:Generated_Source\PSoC4/CSD_SensingCSD_LL.c ****             {
 556:Generated_Source\PSoC4/CSD_SensingCSD_LL.c ****                 CSD_configCsd |= CSD_CONFIG_FILTER_DELAY_24MHZ;
 175              		.loc 1 556 0
 176 0042 084B     		ldr	r3, .L12
 177 0044 1B68     		ldr	r3, [r3]
 178 0046 3022     		mov	r2, #48
 179 0048 1A43     		orr	r2, r3
 180 004a 064B     		ldr	r3, .L12
ARM GAS  C:\Users\CHRIST~1\AppData\Local\Temp\ccGy5PUQ.s 			page 14


 181 004c 1A60     		str	r2, [r3]
 182 004e 05E0     		b	.L8
 183              	.L11:
 557:Generated_Source\PSoC4/CSD_SensingCSD_LL.c ****             }
 558:Generated_Source\PSoC4/CSD_SensingCSD_LL.c ****             else
 559:Generated_Source\PSoC4/CSD_SensingCSD_LL.c ****             {
 560:Generated_Source\PSoC4/CSD_SensingCSD_LL.c ****                 CSD_configCsd |= CSD_CONFIG_FILTER_DELAY_48MHZ;
 184              		.loc 1 560 0
 185 0050 044B     		ldr	r3, .L12
 186 0052 1B68     		ldr	r3, [r3]
 187 0054 4022     		mov	r2, #64
 188 0056 1A43     		orr	r2, r3
 189 0058 024B     		ldr	r3, .L12
 190 005a 1A60     		str	r2, [r3]
 191              	.L8:
 561:Generated_Source\PSoC4/CSD_SensingCSD_LL.c ****             }
 562:Generated_Source\PSoC4/CSD_SensingCSD_LL.c ****         #else
 563:Generated_Source\PSoC4/CSD_SensingCSD_LL.c ****             CSD_configCsd |= CSD_CONFIG_FILTER_DELAY_12MHZ;
 564:Generated_Source\PSoC4/CSD_SensingCSD_LL.c ****         #endif /* (CSD_MOD_CSD_CLK_12MHZ < CYDEV_BCLK__HFCLK__HZ) */
 565:Generated_Source\PSoC4/CSD_SensingCSD_LL.c ****     }
 192              		.loc 1 565 0
 193 005c BD46     		mov	sp, r7
 194 005e 02B0     		add	sp, sp, #8
 195              		@ sp needed
 196 0060 80BD     		pop	{r7, pc}
 197              	.L13:
 198 0062 C046     		.align	2
 199              	.L12:
 200 0064 00000000 		.word	CSD_configCsd
 201 0068 00000000 		.word	CSD_dsRam
 202 006c 006CDC02 		.word	48000000
 203 0070 001BB700 		.word	12000000
 204 0074 00366E01 		.word	24000000
 205              		.cfi_endproc
 206              	.LFE2:
 207              		.size	CSD_SsCSDSetFilterDelay, .-CSD_SsCSDSetFilterDelay
 208              		.section	.text.CSD_SsCSDConfigIDACs,"ax",%progbits
 209              		.align	2
 210              		.code	16
 211              		.thumb_func
 212              		.type	CSD_SsCSDConfigIDACs, %function
 213              	CSD_SsCSDConfigIDACs:
 214              	.LFB3:
 566:Generated_Source\PSoC4/CSD_SensingCSD_LL.c **** #endif /* (CSD_ENABLE == CSD_CSD_GANGED_SNS_EN)  */
 567:Generated_Source\PSoC4/CSD_SensingCSD_LL.c **** 
 568:Generated_Source\PSoC4/CSD_SensingCSD_LL.c **** 
 569:Generated_Source\PSoC4/CSD_SensingCSD_LL.c **** /*******************************************************************************
 570:Generated_Source\PSoC4/CSD_SensingCSD_LL.c **** * Function Name: CSD_SsCSDConfigIDACs
 571:Generated_Source\PSoC4/CSD_SensingCSD_LL.c **** ****************************************************************************//**
 572:Generated_Source\PSoC4/CSD_SensingCSD_LL.c **** *
 573:Generated_Source\PSoC4/CSD_SensingCSD_LL.c **** * \brief
 574:Generated_Source\PSoC4/CSD_SensingCSD_LL.c **** *   Configures the mode for IDAC registers
 575:Generated_Source\PSoC4/CSD_SensingCSD_LL.c **** *
 576:Generated_Source\PSoC4/CSD_SensingCSD_LL.c **** * \details
 577:Generated_Source\PSoC4/CSD_SensingCSD_LL.c **** *   This function configures the IDAC modes depend on Compensation IDAC
 578:Generated_Source\PSoC4/CSD_SensingCSD_LL.c **** *   enabled or disabled.
 579:Generated_Source\PSoC4/CSD_SensingCSD_LL.c **** *
ARM GAS  C:\Users\CHRIST~1\AppData\Local\Temp\ccGy5PUQ.s 			page 15


 580:Generated_Source\PSoC4/CSD_SensingCSD_LL.c **** *******************************************************************************/
 581:Generated_Source\PSoC4/CSD_SensingCSD_LL.c **** static void CSD_SsCSDConfigIDACs(void)
 582:Generated_Source\PSoC4/CSD_SensingCSD_LL.c **** {
 215              		.loc 1 582 0
 216              		.cfi_startproc
 217 0000 80B5     		push	{r7, lr}
 218              		.cfi_def_cfa_offset 8
 219              		.cfi_offset 7, -8
 220              		.cfi_offset 14, -4
 221 0002 00AF     		add	r7, sp, #0
 222              		.cfi_def_cfa_register 7
 583:Generated_Source\PSoC4/CSD_SensingCSD_LL.c ****     #if (CSD_ENABLE == CSD_CSDV2)
 584:Generated_Source\PSoC4/CSD_SensingCSD_LL.c ****         CY_SET_REG32(CSD_IDAC_MOD_PTR, CSD_DEFAULT_IDAC_MOD);
 223              		.loc 1 584 0
 224 0004 044B     		ldr	r3, .L15
 225 0006 054A     		ldr	r2, .L15+4
 226 0008 1A60     		str	r2, [r3]
 585:Generated_Source\PSoC4/CSD_SensingCSD_LL.c ****         #if ((CSD_ENABLE == CSD_CSD_IDAC_COMP_EN) && \
 586:Generated_Source\PSoC4/CSD_SensingCSD_LL.c ****              (CSD_ENABLE == CSD_CSD_DEDICATED_IDAC_COMP_EN))
 587:Generated_Source\PSoC4/CSD_SensingCSD_LL.c ****             CY_SET_REG32(CSD_IDAC_COMP_PTR, CSD_DEFAULT_IDAC_COMP);
 227              		.loc 1 587 0
 228 000a 054B     		ldr	r3, .L15+8
 229 000c C122     		mov	r2, #193
 230 000e 5204     		lsl	r2, r2, #17
 231 0010 1A60     		str	r2, [r3]
 588:Generated_Source\PSoC4/CSD_SensingCSD_LL.c ****         #endif /* ((CSD_ENABLE == CSD_CSD_IDAC_COMP_EN) && \
 589:Generated_Source\PSoC4/CSD_SensingCSD_LL.c ****                    (CSD_ENABLE == CSD_CSD_DEDICATED_IDAC_COMP_EN)) */
 590:Generated_Source\PSoC4/CSD_SensingCSD_LL.c ****     #else
 591:Generated_Source\PSoC4/CSD_SensingCSD_LL.c ****         #if (CSD_ENABLE == CSD_CSD_IDAC_COMP_EN)
 592:Generated_Source\PSoC4/CSD_SensingCSD_LL.c ****             CY_SET_REG32(CSD_IDAC_PTR, CSD_DEFAULT_CSD_IDAC_CONFIG);
 593:Generated_Source\PSoC4/CSD_SensingCSD_LL.c ****         #else
 594:Generated_Source\PSoC4/CSD_SensingCSD_LL.c ****             CY_SET_REG32(CSD_IDAC_PTR, CY_GET_REG32(CSD_IDAC_PTR) &
 595:Generated_Source\PSoC4/CSD_SensingCSD_LL.c ****                                                                 ~(CSD_IDAC_MOD_MODE_MASK |
 596:Generated_Source\PSoC4/CSD_SensingCSD_LL.c ****                                                                   CSD_IDAC_MOD_MASK));
 597:Generated_Source\PSoC4/CSD_SensingCSD_LL.c ****             CY_SET_REG32(CSD_IDAC_PTR, CY_GET_REG32(CSD_IDAC_PTR) |
 598:Generated_Source\PSoC4/CSD_SensingCSD_LL.c ****                                                                  CSD_DEFAULT_CSD_IDAC_CONFIG);
 599:Generated_Source\PSoC4/CSD_SensingCSD_LL.c ****         #endif /* (CSD_ENABLE == CSD_CSD_IDAC_COMP_EN) */
 600:Generated_Source\PSoC4/CSD_SensingCSD_LL.c ****     #endif /* (CSD_ENABLE == CSD_CSDV2) */
 601:Generated_Source\PSoC4/CSD_SensingCSD_LL.c **** }
 232              		.loc 1 601 0
 233 0012 BD46     		mov	sp, r7
 234              		@ sp needed
 235 0014 80BD     		pop	{r7, pc}
 236              	.L16:
 237 0016 C046     		.align	2
 238              	.L15:
 239 0018 C0010C40 		.word	1074528704
 240 001c 00008301 		.word	25362432
 241 0020 C4010C40 		.word	1074528708
 242              		.cfi_endproc
 243              	.LFE3:
 244              		.size	CSD_SsCSDConfigIDACs, .-CSD_SsCSDConfigIDACs
 245              		.section	.text.CSD_SsCSDInitialize,"ax",%progbits
 246              		.align	2
 247              		.global	CSD_SsCSDInitialize
 248              		.code	16
 249              		.thumb_func
ARM GAS  C:\Users\CHRIST~1\AppData\Local\Temp\ccGy5PUQ.s 			page 16


 250              		.type	CSD_SsCSDInitialize, %function
 251              	CSD_SsCSDInitialize:
 252              	.LFB4:
 602:Generated_Source\PSoC4/CSD_SensingCSD_LL.c **** 
 603:Generated_Source\PSoC4/CSD_SensingCSD_LL.c **** 
 604:Generated_Source\PSoC4/CSD_SensingCSD_LL.c **** /*******************************************************************************
 605:Generated_Source\PSoC4/CSD_SensingCSD_LL.c **** * Function Name: CSD_SsCSDInitialize
 606:Generated_Source\PSoC4/CSD_SensingCSD_LL.c **** ****************************************************************************//**
 607:Generated_Source\PSoC4/CSD_SensingCSD_LL.c **** *
 608:Generated_Source\PSoC4/CSD_SensingCSD_LL.c **** * \brief
 609:Generated_Source\PSoC4/CSD_SensingCSD_LL.c **** *   This API initializes the CSD module.
 610:Generated_Source\PSoC4/CSD_SensingCSD_LL.c **** *
 611:Generated_Source\PSoC4/CSD_SensingCSD_LL.c **** * \details
 612:Generated_Source\PSoC4/CSD_SensingCSD_LL.c **** *   The function performs the following steps for CSDv2 HW block:
 613:Generated_Source\PSoC4/CSD_SensingCSD_LL.c **** *   1) Sets GPIO output to "0" for all sensor pins;
 614:Generated_Source\PSoC4/CSD_SensingCSD_LL.c **** *   2) Connects CMOD to AMUXBUS-A and to CSDBUS-A;
 615:Generated_Source\PSoC4/CSD_SensingCSD_LL.c **** *   3) Connects CMOD to (sense path) to CSDCOMP;
 616:Generated_Source\PSoC4/CSD_SensingCSD_LL.c **** *   4) Connects Csh_tank to AMUXBUS-B and to CSDBUS-B;
 617:Generated_Source\PSoC4/CSD_SensingCSD_LL.c **** *   5) Connects VREF to REFGEN;
 618:Generated_Source\PSoC4/CSD_SensingCSD_LL.c **** *   6) Configures REFGEN and sets the reference voltage;
 619:Generated_Source\PSoC4/CSD_SensingCSD_LL.c **** *   7) Connects VREF to CSDCOMP and HSCOMP;
 620:Generated_Source\PSoC4/CSD_SensingCSD_LL.c **** *   8) Configures IDAC and connect to CSDBUS-A (to drive CMOD);
 621:Generated_Source\PSoC4/CSD_SensingCSD_LL.c **** *   9) Configures ModClk;
 622:Generated_Source\PSoC4/CSD_SensingCSD_LL.c **** *   10) Configure SnsClk source;
 623:Generated_Source\PSoC4/CSD_SensingCSD_LL.c **** *   11) Sets other CSD configurations (Csd Auto Zero time,
 624:Generated_Source\PSoC4/CSD_SensingCSD_LL.c **** *       Sample Init period, interrupts,
 625:Generated_Source\PSoC4/CSD_SensingCSD_LL.c **** *       CMOD and Csh_tank/shield initialization switch resistance).
 626:Generated_Source\PSoC4/CSD_SensingCSD_LL.c **** *
 627:Generated_Source\PSoC4/CSD_SensingCSD_LL.c **** *   The function performs the following steps for CSDv1 HW block:
 628:Generated_Source\PSoC4/CSD_SensingCSD_LL.c **** *   1) Sets all the sensors to the inactive state;
 629:Generated_Source\PSoC4/CSD_SensingCSD_LL.c **** *   2) Enables Shield Electrodes;
 630:Generated_Source\PSoC4/CSD_SensingCSD_LL.c **** *   3) Configures the CSD block and IDACs;
 631:Generated_Source\PSoC4/CSD_SensingCSD_LL.c **** *   4) Connects Cmod to AMUXBUS-A;
 632:Generated_Source\PSoC4/CSD_SensingCSD_LL.c **** *   5) Enables the clocks;
 633:Generated_Source\PSoC4/CSD_SensingCSD_LL.c **** *   6) Sets the shield delay;
 634:Generated_Source\PSoC4/CSD_SensingCSD_LL.c **** *   7) Enables the CSD block; connects Vref Buffer to the AMUX bus;
 635:Generated_Source\PSoC4/CSD_SensingCSD_LL.c **** *   8) Enables the CSD interrupt;
 636:Generated_Source\PSoC4/CSD_SensingCSD_LL.c **** *
 637:Generated_Source\PSoC4/CSD_SensingCSD_LL.c **** *******************************************************************************/
 638:Generated_Source\PSoC4/CSD_SensingCSD_LL.c **** void CSD_SsCSDInitialize(void)
 639:Generated_Source\PSoC4/CSD_SensingCSD_LL.c **** {
 253              		.loc 1 639 0
 254              		.cfi_startproc
 255 0000 80B5     		push	{r7, lr}
 256              		.cfi_def_cfa_offset 8
 257              		.cfi_offset 7, -8
 258              		.cfi_offset 14, -4
 259 0002 82B0     		sub	sp, sp, #8
 260              		.cfi_def_cfa_offset 16
 261 0004 00AF     		add	r7, sp, #0
 262              		.cfi_def_cfa_register 7
 640:Generated_Source\PSoC4/CSD_SensingCSD_LL.c ****     uint32 newRegValue;
 641:Generated_Source\PSoC4/CSD_SensingCSD_LL.c **** 
 642:Generated_Source\PSoC4/CSD_SensingCSD_LL.c ****     /* Set all sensors to inactive state */
 643:Generated_Source\PSoC4/CSD_SensingCSD_LL.c ****     CSD_SsCSDClearCSDSensors();
 263              		.loc 1 643 0
 264 0006 FFF7FEFF 		bl	CSD_SsCSDClearCSDSensors
ARM GAS  C:\Users\CHRIST~1\AppData\Local\Temp\ccGy5PUQ.s 			page 17


 644:Generated_Source\PSoC4/CSD_SensingCSD_LL.c **** 
 645:Generated_Source\PSoC4/CSD_SensingCSD_LL.c ****     #if (CSD_ENABLE == CSD_CSD_SHIELD_EN)
 646:Generated_Source\PSoC4/CSD_SensingCSD_LL.c ****         /* Connect shields to AMUX-B bus (config HSIOM regs) */
 647:Generated_Source\PSoC4/CSD_SensingCSD_LL.c ****         #if (0u != CSD_CSD_TOTAL_SHIELD_COUNT)
 648:Generated_Source\PSoC4/CSD_SensingCSD_LL.c ****             CSD_SsCSDEnableShieldElectrodes();
 649:Generated_Source\PSoC4/CSD_SensingCSD_LL.c ****         #endif /* (0u != CSD_CSD_TOTAL_SHIELD_COUNT) */
 650:Generated_Source\PSoC4/CSD_SensingCSD_LL.c **** 
 651:Generated_Source\PSoC4/CSD_SensingCSD_LL.c ****         #if (CSD_ENABLE == CSD_CSD_SHIELD_TANK_EN)
 652:Generated_Source\PSoC4/CSD_SensingCSD_LL.c ****             /* Configure Csh */
 653:Generated_Source\PSoC4/CSD_SensingCSD_LL.c ****             CSD_SsCSDEnableShieldTank();
 654:Generated_Source\PSoC4/CSD_SensingCSD_LL.c ****         #endif /* (CSD_ENABLE == CSD_CSD_SHIELD_TANK_EN) */
 655:Generated_Source\PSoC4/CSD_SensingCSD_LL.c ****     #endif /* (CSD_ENABLE == CSD_CSD_SHIELD_EN) */
 656:Generated_Source\PSoC4/CSD_SensingCSD_LL.c **** 
 657:Generated_Source\PSoC4/CSD_SensingCSD_LL.c ****     #if (CSD_ENABLE == CSD_CSDV2)
 658:Generated_Source\PSoC4/CSD_SensingCSD_LL.c **** 
 659:Generated_Source\PSoC4/CSD_SensingCSD_LL.c ****         /* Initialize the unused CSD IP registers to defaut state */
 660:Generated_Source\PSoC4/CSD_SensingCSD_LL.c ****         CY_SET_REG32(CSD_INTR_SET_PTR,         CSD_DEFAULT_CSD_INTR_SET);
 265              		.loc 1 660 0
 266 000a 394B     		ldr	r3, .L18
 267 000c 0022     		mov	r2, #0
 268 000e 1A60     		str	r2, [r3]
 661:Generated_Source\PSoC4/CSD_SensingCSD_LL.c ****         CY_SET_REG32(CSD_SW_FW_TANK_SEL_PTR,   CSD_DEFAULT_CSD_SW_FW_TANK_SEL);
 269              		.loc 1 661 0
 270 0010 384B     		ldr	r3, .L18+4
 271 0012 0022     		mov	r2, #0
 272 0014 1A60     		str	r2, [r3]
 662:Generated_Source\PSoC4/CSD_SensingCSD_LL.c ****         CY_SET_REG32(CSD_SW_DSI_SEL_PTR,       CSD_DEFAULT_CSD_SW_DSI_SEL);
 273              		.loc 1 662 0
 274 0016 384B     		ldr	r3, .L18+8
 275 0018 1022     		mov	r2, #16
 276 001a 1A60     		str	r2, [r3]
 663:Generated_Source\PSoC4/CSD_SensingCSD_LL.c ****         CY_SET_REG32(CSD_ADC_CTL_PTR,          CSD_DEFAULT_CSD_ADC_CTL);
 277              		.loc 1 663 0
 278 001c 374B     		ldr	r3, .L18+12
 279 001e 0022     		mov	r2, #0
 280 0020 1A60     		str	r2, [r3]
 664:Generated_Source\PSoC4/CSD_SensingCSD_LL.c ****         CY_SET_REG32(CSD_AMBUF_PTR,            CSD_AMBUF_PWR_MODE_OFF);
 281              		.loc 1 664 0
 282 0022 374B     		ldr	r3, .L18+16
 283 0024 0022     		mov	r2, #0
 284 0026 1A60     		str	r2, [r3]
 665:Generated_Source\PSoC4/CSD_SensingCSD_LL.c ****         CY_SET_REG32(CSD_SW_SHIELD_SEL_PTR,    CSD_DEFAULT_SW_SHIELD_SEL);
 285              		.loc 1 665 0
 286 0028 364B     		ldr	r3, .L18+20
 287 002a 0022     		mov	r2, #0
 288 002c 1A60     		str	r2, [r3]
 666:Generated_Source\PSoC4/CSD_SensingCSD_LL.c ****         CY_SET_REG32(CSD_SW_HS_P_SEL_PTR,      CSD_DEFAULT_SW_HS_P_SEL);
 289              		.loc 1 666 0
 290 002e 364B     		ldr	r3, .L18+24
 291 0030 0022     		mov	r2, #0
 292 0032 1A60     		str	r2, [r3]
 667:Generated_Source\PSoC4/CSD_SensingCSD_LL.c ****         CY_SET_REG32(CSD_SW_HS_N_SEL_PTR,      CSD_DEFAULT_SW_HS_N_SEL);
 293              		.loc 1 667 0
 294 0034 354B     		ldr	r3, .L18+28
 295 0036 0022     		mov	r2, #0
 296 0038 1A60     		str	r2, [r3]
 668:Generated_Source\PSoC4/CSD_SensingCSD_LL.c ****         CY_SET_REG32(CSD_HSCMP_PTR,            CSD_DEFAULT_HSCMP_CFG);
ARM GAS  C:\Users\CHRIST~1\AppData\Local\Temp\ccGy5PUQ.s 			page 18


 297              		.loc 1 668 0
 298 003a 354B     		ldr	r3, .L18+32
 299 003c 0022     		mov	r2, #0
 300 003e 1A60     		str	r2, [r3]
 669:Generated_Source\PSoC4/CSD_SensingCSD_LL.c **** 
 670:Generated_Source\PSoC4/CSD_SensingCSD_LL.c ****         /* Connect CMOD to AMUXBUS-A */
 671:Generated_Source\PSoC4/CSD_SensingCSD_LL.c ****         newRegValue = CY_GET_REG32(CSD_CMOD_HSIOM_PTR);
 301              		.loc 1 671 0
 302 0040 344B     		ldr	r3, .L18+36
 303 0042 1B68     		ldr	r3, [r3]
 304 0044 7B60     		str	r3, [r7, #4]
 672:Generated_Source\PSoC4/CSD_SensingCSD_LL.c ****         newRegValue &= (uint32)(~(uint32)CSD_CMOD_HSIOM_MASK);
 305              		.loc 1 672 0
 306 0046 7B68     		ldr	r3, [r7, #4]
 307 0048 334A     		ldr	r2, .L18+40
 308 004a 1340     		and	r3, r2
 309 004c 7B60     		str	r3, [r7, #4]
 673:Generated_Source\PSoC4/CSD_SensingCSD_LL.c ****         newRegValue |= (CSD_HSIOM_SEL_AMUXA << CSD_CMOD_HSIOM_SHIFT);
 310              		.loc 1 673 0
 311 004e 7B68     		ldr	r3, [r7, #4]
 312 0050 C022     		mov	r2, #192
 313 0052 D200     		lsl	r2, r2, #3
 314 0054 1343     		orr	r3, r2
 315 0056 7B60     		str	r3, [r7, #4]
 674:Generated_Source\PSoC4/CSD_SensingCSD_LL.c ****         CY_SET_REG32(CSD_CMOD_HSIOM_PTR, newRegValue);
 316              		.loc 1 674 0
 317 0058 2E4B     		ldr	r3, .L18+36
 318 005a 7A68     		ldr	r2, [r7, #4]
 319 005c 1A60     		str	r2, [r3]
 675:Generated_Source\PSoC4/CSD_SensingCSD_LL.c **** 
 676:Generated_Source\PSoC4/CSD_SensingCSD_LL.c ****         /* Connect AMUXBUS-A to CSDBUS-A */
 677:Generated_Source\PSoC4/CSD_SensingCSD_LL.c ****         newRegValue = CY_GET_REG32(CSD_SW_BYP_SEL_PTR);
 320              		.loc 1 677 0
 321 005e 2F4B     		ldr	r3, .L18+44
 322 0060 1B68     		ldr	r3, [r3]
 323 0062 7B60     		str	r3, [r7, #4]
 678:Generated_Source\PSoC4/CSD_SensingCSD_LL.c ****         newRegValue |= CSD_SW_BYP_SEL_SW_BYA_MASK;
 324              		.loc 1 678 0
 325 0064 7B68     		ldr	r3, [r7, #4]
 326 0066 8022     		mov	r2, #128
 327 0068 5201     		lsl	r2, r2, #5
 328 006a 1343     		orr	r3, r2
 329 006c 7B60     		str	r3, [r7, #4]
 679:Generated_Source\PSoC4/CSD_SensingCSD_LL.c ****         CY_SET_REG32(CSD_SW_BYP_SEL_PTR, newRegValue);
 330              		.loc 1 679 0
 331 006e 2B4B     		ldr	r3, .L18+44
 332 0070 7A68     		ldr	r2, [r7, #4]
 333 0072 1A60     		str	r2, [r3]
 680:Generated_Source\PSoC4/CSD_SensingCSD_LL.c **** 
 681:Generated_Source\PSoC4/CSD_SensingCSD_LL.c ****         /* Connect CMOD to (sense path) to CSDCOMP */
 682:Generated_Source\PSoC4/CSD_SensingCSD_LL.c ****         #if (CSD_CMOD_PAD == CSD_CMOD_CONNECTION)
 683:Generated_Source\PSoC4/CSD_SensingCSD_LL.c ****             CY_SET_REG32(CSD_SW_CMP_P_SEL_PTR, CSD_SW_CMP_P_SEL_SW_SFPM_STATIC_CLOSE);
 334              		.loc 1 683 0
 335 0074 2A4B     		ldr	r3, .L18+48
 336 0076 0122     		mov	r2, #1
 337 0078 1A60     		str	r2, [r3]
 684:Generated_Source\PSoC4/CSD_SensingCSD_LL.c ****         #elif (CSD_CSHIELD_PAD == CSD_CMOD_CONNECTION)
ARM GAS  C:\Users\CHRIST~1\AppData\Local\Temp\ccGy5PUQ.s 			page 19


 685:Generated_Source\PSoC4/CSD_SensingCSD_LL.c ****             CY_SET_REG32(CSD_SW_CMP_P_SEL_PTR, CSD_SW_CMP_P_SEL_SW_SFPS_STATIC_CLOSE);
 686:Generated_Source\PSoC4/CSD_SensingCSD_LL.c ****         #else
 687:Generated_Source\PSoC4/CSD_SensingCSD_LL.c ****             CY_SET_REG32(CSD_SW_CMP_P_SEL_PTR, CSD_SW_CMP_P_SEL_SW_SFPT_STATIC_CLOSE);
 688:Generated_Source\PSoC4/CSD_SensingCSD_LL.c ****         #endif /* (CSD_CMOD_PAD == CSD_CMOD_CONNECTION) */
 689:Generated_Source\PSoC4/CSD_SensingCSD_LL.c **** 
 690:Generated_Source\PSoC4/CSD_SensingCSD_LL.c ****         /* Configure shield driving path */
 691:Generated_Source\PSoC4/CSD_SensingCSD_LL.c ****         #if (CSD_ENABLE == CSD_CSD_SHIELD_EN)
 692:Generated_Source\PSoC4/CSD_SensingCSD_LL.c ****             /* Connect AMUXBUS-B to CSDBUS-B (and AMUXBUS-A to CSDBUS-A ) */
 693:Generated_Source\PSoC4/CSD_SensingCSD_LL.c ****             CY_SET_REG32(CSD_SW_BYP_SEL_PTR, CSD_SW_BYP_SEL_SW_BYA_MASK | CSD_SW_BYP_SEL_SW_BYB_MAS
 694:Generated_Source\PSoC4/CSD_SensingCSD_LL.c **** 
 695:Generated_Source\PSoC4/CSD_SensingCSD_LL.c ****             /* Connect AMUXBUS-B to HSCMP positive input */
 696:Generated_Source\PSoC4/CSD_SensingCSD_LL.c ****             CY_SET_REG32(CSD_SW_HS_P_SEL_PTR, CSD_SW_HS_P_SEL_SW_HMMB_STATIC_CLOSE);
 697:Generated_Source\PSoC4/CSD_SensingCSD_LL.c ****         #endif /* (CSD_ENABLE == CSD_CSD_SHIELD_EN) */
 698:Generated_Source\PSoC4/CSD_SensingCSD_LL.c **** 
 699:Generated_Source\PSoC4/CSD_SensingCSD_LL.c ****         /* Configure VREF */
 700:Generated_Source\PSoC4/CSD_SensingCSD_LL.c ****         #if (CSD_ENABLE == CSD_CSD_IDAC_COMP_EN) && (CSD_ENABLE == CSD_CSD_DEDICATED_IDAC_COMP_EN)
 701:Generated_Source\PSoC4/CSD_SensingCSD_LL.c ****             /* Connect VREF to REFGEN. Connect IDACB to CSDBUSA */
 702:Generated_Source\PSoC4/CSD_SensingCSD_LL.c ****             newRegValue = CY_GET_REG32(CSD_SW_REFGEN_SEL_PTR);
 338              		.loc 1 702 0
 339 007a 2A4B     		ldr	r3, .L18+52
 340 007c 1B68     		ldr	r3, [r3]
 341 007e 7B60     		str	r3, [r7, #4]
 703:Generated_Source\PSoC4/CSD_SensingCSD_LL.c ****             newRegValue |= CSD_SW_REFGEN_SEL_SW_SGR_MASK | CSD_SW_REFGEN_SEL_SW_IAIB_MASK;
 342              		.loc 1 703 0
 343 0080 7B68     		ldr	r3, [r7, #4]
 344 0082 294A     		ldr	r2, .L18+56
 345 0084 1343     		orr	r3, r2
 346 0086 7B60     		str	r3, [r7, #4]
 704:Generated_Source\PSoC4/CSD_SensingCSD_LL.c ****             CY_SET_REG32(CSD_SW_REFGEN_SEL_PTR, newRegValue);
 347              		.loc 1 704 0
 348 0088 264B     		ldr	r3, .L18+52
 349 008a 7A68     		ldr	r2, [r7, #4]
 350 008c 1A60     		str	r2, [r3]
 705:Generated_Source\PSoC4/CSD_SensingCSD_LL.c ****         #else
 706:Generated_Source\PSoC4/CSD_SensingCSD_LL.c ****             /* Connect VREF to REFGEN (IAIB switch is open) */
 707:Generated_Source\PSoC4/CSD_SensingCSD_LL.c ****             newRegValue = CY_GET_REG32(CSD_SW_REFGEN_SEL_PTR);
 708:Generated_Source\PSoC4/CSD_SensingCSD_LL.c ****             newRegValue |= CSD_SW_REFGEN_SEL_SW_SGR_MASK;
 709:Generated_Source\PSoC4/CSD_SensingCSD_LL.c ****             CY_SET_REG32(CSD_SW_REFGEN_SEL_PTR, newRegValue);
 710:Generated_Source\PSoC4/CSD_SensingCSD_LL.c ****         #endif /* (CSD_ENABLE == CSD_CSD_IDAC_COMP_EN) && (CSD_ENABLE == CSD_CSD_DEDICATED_IDAC_COM
 711:Generated_Source\PSoC4/CSD_SensingCSD_LL.c **** 
 712:Generated_Source\PSoC4/CSD_SensingCSD_LL.c ****         #if (CSD_2000_MV > CSD_CYDEV_VDDA_MV)
 713:Generated_Source\PSoC4/CSD_SensingCSD_LL.c **** 
 714:Generated_Source\PSoC4/CSD_SensingCSD_LL.c ****             /* Connect VREFLOW (from AMBUF and RefGen is in bypass mode) to CSDCOMP when Vdda < 2 V
 715:Generated_Source\PSoC4/CSD_SensingCSD_LL.c ****             CY_SET_REG32(CSD_SW_CMP_N_SEL_PTR, CSD_SW_CMP_N_SEL_SW_SCRL_STATIC_CLOSE);
 716:Generated_Source\PSoC4/CSD_SensingCSD_LL.c **** 
 717:Generated_Source\PSoC4/CSD_SensingCSD_LL.c ****             /* Configure REFGEN to BYPASS mode when Vdda < 2 V */
 718:Generated_Source\PSoC4/CSD_SensingCSD_LL.c ****             CY_SET_REG32(CSD_REFGEN_PTR, CSD_REFGEN_REFGEN_EN_MASK |
 719:Generated_Source\PSoC4/CSD_SensingCSD_LL.c ****                                                       CSD_REFGEN_BYPASS_MASK |
 720:Generated_Source\PSoC4/CSD_SensingCSD_LL.c ****                                                       CSD_REFGEN_VREFLO_INT_MASK);
 721:Generated_Source\PSoC4/CSD_SensingCSD_LL.c **** 
 722:Generated_Source\PSoC4/CSD_SensingCSD_LL.c ****             /*  Connect Vrefhi to AMUBUF positive input when Vdaa < 2V
 723:Generated_Source\PSoC4/CSD_SensingCSD_LL.c ****              *  Connect AMUBUF to SCDCMP negative input when Vdaa < 2V
 724:Generated_Source\PSoC4/CSD_SensingCSD_LL.c ****              */
 725:Generated_Source\PSoC4/CSD_SensingCSD_LL.c ****             CY_SET_REG32(CSD_SW_AMUXBUF_SEL_PTR, CSD_SW_AMUXBUF_SEL_SW_IRH_STATIC_CLOSE |
 726:Generated_Source\PSoC4/CSD_SensingCSD_LL.c ****                                                               CSD_SW_AMUXBUF_SEL_SW_IRLB_STATIC_CLO
 727:Generated_Source\PSoC4/CSD_SensingCSD_LL.c **** 
 728:Generated_Source\PSoC4/CSD_SensingCSD_LL.c ****             /* Turn on CSD_AMBUF normal power level when Vdaa < 2V */
ARM GAS  C:\Users\CHRIST~1\AppData\Local\Temp\ccGy5PUQ.s 			page 20


 729:Generated_Source\PSoC4/CSD_SensingCSD_LL.c ****             CY_SET_REG32(CSD_AMBUF_PTR, CSD_AMBUF_PWR_MODE_NORM);
 730:Generated_Source\PSoC4/CSD_SensingCSD_LL.c ****         #else
 731:Generated_Source\PSoC4/CSD_SensingCSD_LL.c **** 
 732:Generated_Source\PSoC4/CSD_SensingCSD_LL.c ****             /* Connect VREFHI (from RefGen) to CSDCOMP when Vdda >= 2 V */
 733:Generated_Source\PSoC4/CSD_SensingCSD_LL.c ****             CY_SET_REG32(CSD_SW_CMP_N_SEL_PTR, CSD_SW_CMP_N_SEL_SW_SCRH_STATIC_CLOSE);
 351              		.loc 1 733 0
 352 008e 274B     		ldr	r3, .L18+60
 353 0090 8022     		mov	r2, #128
 354 0092 5204     		lsl	r2, r2, #17
 355 0094 1A60     		str	r2, [r3]
 734:Generated_Source\PSoC4/CSD_SensingCSD_LL.c **** 
 735:Generated_Source\PSoC4/CSD_SensingCSD_LL.c ****             #if (CSD_ENABLE == CSD_CSD_SHIELD_EN)
 736:Generated_Source\PSoC4/CSD_SensingCSD_LL.c **** 
 737:Generated_Source\PSoC4/CSD_SensingCSD_LL.c ****                 /* Configure REFGEN. Set reference voltage when Vdda >= 2 V */
 738:Generated_Source\PSoC4/CSD_SensingCSD_LL.c ****                 CY_SET_REG32(CSD_REFGEN_PTR, CSD_REFGEN_WITH_SHIELD);
 739:Generated_Source\PSoC4/CSD_SensingCSD_LL.c **** 
 740:Generated_Source\PSoC4/CSD_SensingCSD_LL.c ****                 /* Turn on CSD_AMBUF high power level when Vdaa >= 2V */
 741:Generated_Source\PSoC4/CSD_SensingCSD_LL.c ****                 CY_SET_REG32(CSD_AMBUF_PTR, CSD_AMBUF_PWR_MODE_HI);
 742:Generated_Source\PSoC4/CSD_SensingCSD_LL.c ****             #else
 743:Generated_Source\PSoC4/CSD_SensingCSD_LL.c **** 
 744:Generated_Source\PSoC4/CSD_SensingCSD_LL.c ****                 /* Configure REFGEN. Set reference voltage when Vdda >= 2 V */
 745:Generated_Source\PSoC4/CSD_SensingCSD_LL.c ****                 CY_SET_REG32(CSD_REFGEN_PTR, CSD_REFGEN_NO_SHIELD);
 356              		.loc 1 745 0
 357 0096 264B     		ldr	r3, .L18+64
 358 0098 264A     		ldr	r2, .L18+68
 359 009a 1A60     		str	r2, [r3]
 746:Generated_Source\PSoC4/CSD_SensingCSD_LL.c **** 
 747:Generated_Source\PSoC4/CSD_SensingCSD_LL.c ****                 /* Connect VREFHI to HSCOMP */
 748:Generated_Source\PSoC4/CSD_SensingCSD_LL.c ****                 CY_SET_REG32(CSD_SW_HS_N_SEL_PTR, CSD_SW_HS_N_SEL_SW_HCRH_STATIC_CLOSE);
 360              		.loc 1 748 0
 361 009c 1B4B     		ldr	r3, .L18+28
 362 009e 8022     		mov	r2, #128
 363 00a0 5204     		lsl	r2, r2, #17
 364 00a2 1A60     		str	r2, [r3]
 749:Generated_Source\PSoC4/CSD_SensingCSD_LL.c ****             #endif /* (CSD_ENABLE == CSD_CSD_SHIELD_EN) */
 750:Generated_Source\PSoC4/CSD_SensingCSD_LL.c **** 
 751:Generated_Source\PSoC4/CSD_SensingCSD_LL.c ****             /* Make sure that CSD_AMBUF is unconnected from Vrefhi and from Vreflo */
 752:Generated_Source\PSoC4/CSD_SensingCSD_LL.c ****             CY_SET_REG32(CSD_SW_AMUXBUF_SEL_PTR, CSD_SW_AMUXBUF_SEL_SW_DEFAULT);
 365              		.loc 1 752 0
 366 00a4 244B     		ldr	r3, .L18+72
 367 00a6 254A     		ldr	r2, .L18+76
 368 00a8 1A60     		str	r2, [r3]
 753:Generated_Source\PSoC4/CSD_SensingCSD_LL.c **** 
 754:Generated_Source\PSoC4/CSD_SensingCSD_LL.c ****         #endif /* (CSD_2000_MV > CSD_CYDEV_VDDA_MV) */
 755:Generated_Source\PSoC4/CSD_SensingCSD_LL.c **** 
 756:Generated_Source\PSoC4/CSD_SensingCSD_LL.c ****         /* Configure IDACs mode */
 757:Generated_Source\PSoC4/CSD_SensingCSD_LL.c ****         CSD_SsCSDConfigIDACs();
 369              		.loc 1 757 0
 370 00aa FFF7FEFF 		bl	CSD_SsCSDConfigIDACs
 758:Generated_Source\PSoC4/CSD_SensingCSD_LL.c **** 
 759:Generated_Source\PSoC4/CSD_SensingCSD_LL.c ****         /* Configure ModClk */
 760:Generated_Source\PSoC4/CSD_SensingCSD_LL.c ****         CSD_SsSetModClkClockDivider((uint32)CSD_dsRam.modCsdClk);
 371              		.loc 1 760 0
 372 00ae 244B     		ldr	r3, .L18+80
 373 00b0 1B7E     		ldrb	r3, [r3, #24]
 374 00b2 181C     		mov	r0, r3
 375 00b4 FFF7FEFF 		bl	CSD_SsSetModClkClockDivider
ARM GAS  C:\Users\CHRIST~1\AppData\Local\Temp\ccGy5PUQ.s 			page 21


 761:Generated_Source\PSoC4/CSD_SensingCSD_LL.c **** 
 762:Generated_Source\PSoC4/CSD_SensingCSD_LL.c ****         /* Set other CSD configurations */
 763:Generated_Source\PSoC4/CSD_SensingCSD_LL.c ****         #if (CSD_ENABLE == CSD_CSD_SHIELD_EN)
 764:Generated_Source\PSoC4/CSD_SensingCSD_LL.c ****             CSD_SsSetShieldDelay(CSD_CSD_SHIELD_DELAY);
 765:Generated_Source\PSoC4/CSD_SensingCSD_LL.c ****         #endif /* (CSD_ENABLE == CSD_CSD_SHIELD_EN) */
 766:Generated_Source\PSoC4/CSD_SensingCSD_LL.c **** 
 767:Generated_Source\PSoC4/CSD_SensingCSD_LL.c ****         /* Configure CSDv2 filter delay */
 768:Generated_Source\PSoC4/CSD_SensingCSD_LL.c ****         CSD_SsCSDSetFilterDelay();
 376              		.loc 1 768 0
 377 00b8 FFF7FEFF 		bl	CSD_SsCSDSetFilterDelay
 769:Generated_Source\PSoC4/CSD_SensingCSD_LL.c **** 
 770:Generated_Source\PSoC4/CSD_SensingCSD_LL.c ****         #if (CSD_DISABLE == CSD_BLOCK_OFF_AFTER_SCAN_EN)
 771:Generated_Source\PSoC4/CSD_SensingCSD_LL.c ****             /* Enable power to sub-blocks */
 772:Generated_Source\PSoC4/CSD_SensingCSD_LL.c ****             CY_SET_REG32(CSD_CONFIG_PTR, CSD_configCsd |
 378              		.loc 1 772 0
 379 00bc 214A     		ldr	r2, .L18+84
 380 00be 224B     		ldr	r3, .L18+88
 381 00c0 1B68     		ldr	r3, [r3]
 382 00c2 2249     		ldr	r1, .L18+92
 383 00c4 0B43     		orr	r3, r1
 384 00c6 1360     		str	r3, [r2]
 773:Generated_Source\PSoC4/CSD_SensingCSD_LL.c ****                                                       CSD_CONFIG_SENSE_EN_MASK |
 774:Generated_Source\PSoC4/CSD_SensingCSD_LL.c ****                                                       CSD_CONFIG_ENABLE_MASK);
 775:Generated_Source\PSoC4/CSD_SensingCSD_LL.c **** 
 776:Generated_Source\PSoC4/CSD_SensingCSD_LL.c ****             /*  Wait until CSD block powers ON */
 777:Generated_Source\PSoC4/CSD_SensingCSD_LL.c ****             CyDelayCycles(CSD_CSD_ON_DELAY);
 385              		.loc 1 777 0
 386 00c8 9020     		mov	r0, #144
 387 00ca FFF7FEFF 		bl	CyDelayCycles
 778:Generated_Source\PSoC4/CSD_SensingCSD_LL.c ****         #endif /* (CSD_ENABLE == CSD_BLOCK_OFF_AFTER_SCAN_EN) */
 779:Generated_Source\PSoC4/CSD_SensingCSD_LL.c **** 
 780:Generated_Source\PSoC4/CSD_SensingCSD_LL.c ****         /* Set Csd Auto Zero time (set AZ_TIME bitmask) */
 781:Generated_Source\PSoC4/CSD_SensingCSD_LL.c ****         CY_SET_REG32(CSD_SEQ_TIME_PTR, CSD_CSD_AUTO_ZERO_TIME);
 388              		.loc 1 781 0
 389 00ce 204B     		ldr	r3, .L18+96
 390 00d0 0122     		mov	r2, #1
 391 00d2 1A60     		str	r2, [r3]
 782:Generated_Source\PSoC4/CSD_SensingCSD_LL.c **** 
 783:Generated_Source\PSoC4/CSD_SensingCSD_LL.c ****         /* Select CMOD and Csh_tank/shield initialization switch resistance */
 784:Generated_Source\PSoC4/CSD_SensingCSD_LL.c ****         CY_SET_REG32(CSD_SW_RES_PTR, 0x00000000);
 392              		.loc 1 784 0
 393 00d4 1F4B     		ldr	r3, .L18+100
 394 00d6 0022     		mov	r2, #0
 395 00d8 1A60     		str	r2, [r3]
 785:Generated_Source\PSoC4/CSD_SensingCSD_LL.c **** 
 786:Generated_Source\PSoC4/CSD_SensingCSD_LL.c ****         /* Set the number of dummy fine initialization cycles */
 787:Generated_Source\PSoC4/CSD_SensingCSD_LL.c ****         CY_SET_REG32(CSD_SEQ_INIT_CNT_PTR, CSD_SEQ_INIT_CNT_CONV_CNT_FINE_INIT);
 396              		.loc 1 787 0
 397 00da 1F4B     		ldr	r3, .L18+104
 398 00dc 0422     		mov	r2, #4
 399 00de 1A60     		str	r2, [r3]
 788:Generated_Source\PSoC4/CSD_SensingCSD_LL.c **** 
 789:Generated_Source\PSoC4/CSD_SensingCSD_LL.c ****         /* Set Phi1 and Phi2 switches to non-overlapping (no low EMI)*/
 790:Generated_Source\PSoC4/CSD_SensingCSD_LL.c ****         CY_SET_REG32(CSD_SENSE_DUTY_PTR, CSD_SENSE_DUTY_OVERLAP_PHI1_MASK |
 400              		.loc 1 790 0
 401 00e0 1E4B     		ldr	r3, .L18+108
 402 00e2 C022     		mov	r2, #192
ARM GAS  C:\Users\CHRIST~1\AppData\Local\Temp\ccGy5PUQ.s 			page 22


 403 00e4 1203     		lsl	r2, r2, #12
 404 00e6 1A60     		str	r2, [r3]
 791:Generated_Source\PSoC4/CSD_SensingCSD_LL.c ****                                                       CSD_SENSE_DUTY_OVERLAP_PHI2_MASK);
 792:Generated_Source\PSoC4/CSD_SensingCSD_LL.c ****     #endif /* (CSD_ENABLE == CSD_CSDV2) */
 793:Generated_Source\PSoC4/CSD_SensingCSD_LL.c **** 
 794:Generated_Source\PSoC4/CSD_SensingCSD_LL.c ****     #if (CSD_DISABLE == CSD_CSDV2)
 795:Generated_Source\PSoC4/CSD_SensingCSD_LL.c **** 
 796:Generated_Source\PSoC4/CSD_SensingCSD_LL.c ****         /* Configure IDACs mode */
 797:Generated_Source\PSoC4/CSD_SensingCSD_LL.c ****         CSD_SsCSDConfigIDACs();
 798:Generated_Source\PSoC4/CSD_SensingCSD_LL.c **** 
 799:Generated_Source\PSoC4/CSD_SensingCSD_LL.c ****         /* Connect Cmod to AMUXBUS-A using HSIOM registers */
 800:Generated_Source\PSoC4/CSD_SensingCSD_LL.c ****         newRegValue = CY_GET_REG32(CSD_CMOD_HSIOM_PTR);
 801:Generated_Source\PSoC4/CSD_SensingCSD_LL.c ****         newRegValue &= (uint32)(~(uint32)CSD_CMOD_HSIOM_MASK);
 802:Generated_Source\PSoC4/CSD_SensingCSD_LL.c ****         newRegValue |= (CSD_HSIOM_SEL_AMUXA << CSD_CMOD_HSIOM_SHIFT);
 803:Generated_Source\PSoC4/CSD_SensingCSD_LL.c ****         CY_SET_REG32(CSD_CMOD_HSIOM_PTR, newRegValue);
 804:Generated_Source\PSoC4/CSD_SensingCSD_LL.c **** 
 805:Generated_Source\PSoC4/CSD_SensingCSD_LL.c ****         #if (CSD_ENABLE == CSD_CSD_SHIELD_EN)
 806:Generated_Source\PSoC4/CSD_SensingCSD_LL.c ****             CSD_SsSetShieldDelay(CSD_CSD_SHIELD_DELAY);
 807:Generated_Source\PSoC4/CSD_SensingCSD_LL.c ****         #endif /* (CSD_ENABLE == CSD_CSD_SHIELD_EN) */
 808:Generated_Source\PSoC4/CSD_SensingCSD_LL.c **** 
 809:Generated_Source\PSoC4/CSD_SensingCSD_LL.c ****         /* Enable CSD block. Connect Vref Buffer to AMUX bus to make sure that Cmod is charged befo
 810:Generated_Source\PSoC4/CSD_SensingCSD_LL.c ****         #if (CSD_ENABLE == CSD_BLOCK_OFF_AFTER_SCAN_EN)
 811:Generated_Source\PSoC4/CSD_SensingCSD_LL.c ****             CY_SET_REG32(CSD_CONFIG_PTR, CSD_configCsd);
 812:Generated_Source\PSoC4/CSD_SensingCSD_LL.c ****         #else
 813:Generated_Source\PSoC4/CSD_SensingCSD_LL.c ****             CY_SET_REG32(CSD_CONFIG_PTR, CSD_configCsd | CSD_CTANK_PRECHARGE_CONFIG_CSD_EN);
 814:Generated_Source\PSoC4/CSD_SensingCSD_LL.c ****         #endif /* (CSD_ENABLE == CSD_BLOCK_OFF_AFTER_SCAN_EN) */
 815:Generated_Source\PSoC4/CSD_SensingCSD_LL.c ****     #endif /* (CSD_DISABLE == CSD_CSDV2) */
 816:Generated_Source\PSoC4/CSD_SensingCSD_LL.c **** 
 817:Generated_Source\PSoC4/CSD_SensingCSD_LL.c ****     #if ((CSD_ENABLE == CSD_CSD_COMMON_SNS_CLK_EN) &&\
 818:Generated_Source\PSoC4/CSD_SensingCSD_LL.c ****          (CSD_CLK_SOURCE_DIRECT == CSD_CSD_SNS_CLK_SOURCE))
 819:Generated_Source\PSoC4/CSD_SensingCSD_LL.c ****          /* Set clock dividers and clock source mode */
 820:Generated_Source\PSoC4/CSD_SensingCSD_LL.c ****         CSD_SsCSDConfigClock();
 821:Generated_Source\PSoC4/CSD_SensingCSD_LL.c ****     #endif /* ((CSD_ENABLE == CSD_CSD_COMMON_SNS_CLK_EN) &&\
 822:Generated_Source\PSoC4/CSD_SensingCSD_LL.c ****                (CSD_CLK_SOURCE_DIRECT == CSD_CSD_SNS_CLK_SOURCE)) */
 823:Generated_Source\PSoC4/CSD_SensingCSD_LL.c **** }
 405              		.loc 1 823 0
 406 00e8 BD46     		mov	sp, r7
 407 00ea 02B0     		add	sp, sp, #8
 408              		@ sp needed
 409 00ec 80BD     		pop	{r7, pc}
 410              	.L19:
 411 00ee C046     		.align	2
 412              	.L18:
 413 00f0 F4000C40 		.word	1074528500
 414 00f4 B4020C40 		.word	1074528948
 415 00f8 C0020C40 		.word	1074528960
 416 00fc 20030C40 		.word	1074529056
 417 0100 84010C40 		.word	1074528644
 418 0104 88020C40 		.word	1074528904
 419 0108 80020C40 		.word	1074528896
 420 010c 84020C40 		.word	1074528900
 421 0110 80010C40 		.word	1074528640
 422 0114 00050240 		.word	1073874176
 423 0118 FFF0FFFF 		.word	-3841
 424 011c 94020C40 		.word	1074528916
 425 0120 A0020C40 		.word	1074528928
 426 0124 A8020C40 		.word	1074528936
ARM GAS  C:\Users\CHRIST~1\AppData\Local\Temp\ccGy5PUQ.s 			page 23


 427 0128 01000010 		.word	268435457
 428 012c A4020C40 		.word	1074528932
 429 0130 88010C40 		.word	1074528648
 430 0134 41110000 		.word	4417
 431 0138 90020C40 		.word	1074528912
 432 013c 00000301 		.word	16973824
 433 0140 00000000 		.word	CSD_dsRam
 434 0144 00000C40 		.word	1074528256
 435 0148 00000000 		.word	CSD_configCsd
 436 014c 00100080 		.word	-2147479552
 437 0150 00030C40 		.word	1074529024
 438 0154 F0010C40 		.word	1074528752
 439 0158 10030C40 		.word	1074529040
 440 015c 04020C40 		.word	1074528772
 441              		.cfi_endproc
 442              	.LFE4:
 443              		.size	CSD_SsCSDInitialize, .-CSD_SsCSDInitialize
 444              		.section	.text.CSD_SsCSDElectrodeCheck,"ax",%progbits
 445              		.align	2
 446              		.global	CSD_SsCSDElectrodeCheck
 447              		.code	16
 448              		.thumb_func
 449              		.type	CSD_SsCSDElectrodeCheck, %function
 450              	CSD_SsCSDElectrodeCheck:
 451              	.LFB5:
 824:Generated_Source\PSoC4/CSD_SensingCSD_LL.c **** 
 825:Generated_Source\PSoC4/CSD_SensingCSD_LL.c **** 
 826:Generated_Source\PSoC4/CSD_SensingCSD_LL.c **** /*******************************************************************************
 827:Generated_Source\PSoC4/CSD_SensingCSD_LL.c **** * Function Name: CSD_SsCSDElectrodeCheck
 828:Generated_Source\PSoC4/CSD_SensingCSD_LL.c **** ****************************************************************************//**
 829:Generated_Source\PSoC4/CSD_SensingCSD_LL.c **** *
 830:Generated_Source\PSoC4/CSD_SensingCSD_LL.c **** * \brief
 831:Generated_Source\PSoC4/CSD_SensingCSD_LL.c **** *   Checks if electrodes were previously connected using
 832:Generated_Source\PSoC4/CSD_SensingCSD_LL.c ****  * CSD_CSDSetupWidgetExt() API and if yes disconnects them.
 833:Generated_Source\PSoC4/CSD_SensingCSD_LL.c **** *
 834:Generated_Source\PSoC4/CSD_SensingCSD_LL.c **** * \details
 835:Generated_Source\PSoC4/CSD_SensingCSD_LL.c **** *   This function checks if CSD_eleCsdDisconnectFlag is set.
 836:Generated_Source\PSoC4/CSD_SensingCSD_LL.c **** *   If it set, the function disconnects the previously connected electrode.
 837:Generated_Source\PSoC4/CSD_SensingCSD_LL.c **** *   The previous IO is contained in CSD_curSnsIOPtr and
 838:Generated_Source\PSoC4/CSD_SensingCSD_LL.c **** *   CSD_curFlashSnsPtr contains the previous data for Ganged
 839:Generated_Source\PSoC4/CSD_SensingCSD_LL.c **** *   sensors.
 840:Generated_Source\PSoC4/CSD_SensingCSD_LL.c **** *
 841:Generated_Source\PSoC4/CSD_SensingCSD_LL.c **** *******************************************************************************/
 842:Generated_Source\PSoC4/CSD_SensingCSD_LL.c **** void CSD_SsCSDElectrodeCheck(void)
 843:Generated_Source\PSoC4/CSD_SensingCSD_LL.c **** {
 452              		.loc 1 843 0
 453              		.cfi_startproc
 454 0000 80B5     		push	{r7, lr}
 455              		.cfi_def_cfa_offset 8
 456              		.cfi_offset 7, -8
 457              		.cfi_offset 14, -4
 458 0002 00AF     		add	r7, sp, #0
 459              		.cfi_def_cfa_register 7
 844:Generated_Source\PSoC4/CSD_SensingCSD_LL.c ****     #if (CSD_ENABLE == CSD_CSD_GANGED_SNS_EN)
 845:Generated_Source\PSoC4/CSD_SensingCSD_LL.c ****         uint32 tempVal;
 846:Generated_Source\PSoC4/CSD_SensingCSD_LL.c ****     #endif /* (CSD_ENABLE == CSD_CSD_GANGED_SNS_EN) */
 847:Generated_Source\PSoC4/CSD_SensingCSD_LL.c **** 
ARM GAS  C:\Users\CHRIST~1\AppData\Local\Temp\ccGy5PUQ.s 			page 24


 848:Generated_Source\PSoC4/CSD_SensingCSD_LL.c ****     if (CSD_ENABLE == CSD_eleCsdDisconnectFlag)
 460              		.loc 1 848 0
 461 0004 064B     		ldr	r3, .L22
 462 0006 1B78     		ldrb	r3, [r3]
 463 0008 012B     		cmp	r3, #1
 464 000a 07D1     		bne	.L20
 849:Generated_Source\PSoC4/CSD_SensingCSD_LL.c ****     {
 850:Generated_Source\PSoC4/CSD_SensingCSD_LL.c ****         /* Disconnect if electrodes were previous connected by CSDSetupWidgetExt() API */
 851:Generated_Source\PSoC4/CSD_SensingCSD_LL.c ****         #if (CSD_ENABLE == CSD_CSD_GANGED_SNS_EN)
 852:Generated_Source\PSoC4/CSD_SensingCSD_LL.c ****             /* Check ganged sns flag  */
 853:Generated_Source\PSoC4/CSD_SensingCSD_LL.c ****             if (CSD_GANGED_SNS_MASK == (CSD_curFlashWdgtPtr->staticConfig & CSD_GANGED_SNS_MASK))
 854:Generated_Source\PSoC4/CSD_SensingCSD_LL.c ****             {
 855:Generated_Source\PSoC4/CSD_SensingCSD_LL.c ****                 /* Get number of ganged pins */
 856:Generated_Source\PSoC4/CSD_SensingCSD_LL.c ****                 tempVal = CSD_curFlashSnsPtr->numPins;
 857:Generated_Source\PSoC4/CSD_SensingCSD_LL.c **** 
 858:Generated_Source\PSoC4/CSD_SensingCSD_LL.c ****                 /* Get IO pointer  */
 859:Generated_Source\PSoC4/CSD_SensingCSD_LL.c ****                 CSD_curSnsIOPtr = &CSD_ioList[CSD_curFlashSnsPtr->firstPinId];
 860:Generated_Source\PSoC4/CSD_SensingCSD_LL.c **** 
 861:Generated_Source\PSoC4/CSD_SensingCSD_LL.c ****                 /* Disconnect all ganged sensors */
 862:Generated_Source\PSoC4/CSD_SensingCSD_LL.c ****                 do
 863:Generated_Source\PSoC4/CSD_SensingCSD_LL.c ****                 {
 864:Generated_Source\PSoC4/CSD_SensingCSD_LL.c ****                     CSD_CSDDisconnectSns(CSD_curSnsIOPtr);
 865:Generated_Source\PSoC4/CSD_SensingCSD_LL.c ****                     CSD_curSnsIOPtr++;
 866:Generated_Source\PSoC4/CSD_SensingCSD_LL.c ****                     tempVal--;
 867:Generated_Source\PSoC4/CSD_SensingCSD_LL.c ****                 } while (0u != tempVal);
 868:Generated_Source\PSoC4/CSD_SensingCSD_LL.c ****             }
 869:Generated_Source\PSoC4/CSD_SensingCSD_LL.c ****             else
 870:Generated_Source\PSoC4/CSD_SensingCSD_LL.c ****             {
 871:Generated_Source\PSoC4/CSD_SensingCSD_LL.c ****                 /* Disconnect ganged sensor */
 872:Generated_Source\PSoC4/CSD_SensingCSD_LL.c ****                 CSD_CSDDisconnectSns(CSD_curSnsIOPtr);
 873:Generated_Source\PSoC4/CSD_SensingCSD_LL.c ****             }
 874:Generated_Source\PSoC4/CSD_SensingCSD_LL.c ****         #else
 875:Generated_Source\PSoC4/CSD_SensingCSD_LL.c ****             /* Disable sensor */
 876:Generated_Source\PSoC4/CSD_SensingCSD_LL.c ****             CSD_CSDDisconnectSns(CSD_curSnsIOPtr);
 465              		.loc 1 876 0
 466 000c 054B     		ldr	r3, .L22+4
 467 000e 1B68     		ldr	r3, [r3]
 468 0010 181C     		mov	r0, r3
 469 0012 FFF7FEFF 		bl	CSD_CSDDisconnectSns
 877:Generated_Source\PSoC4/CSD_SensingCSD_LL.c ****         #endif /* (CSD_ENABLE == CSD_CSD_GANGED_SNS_EN)  */
 878:Generated_Source\PSoC4/CSD_SensingCSD_LL.c **** 
 879:Generated_Source\PSoC4/CSD_SensingCSD_LL.c ****         CSD_eleCsdDisconnectFlag = 0u;
 470              		.loc 1 879 0
 471 0016 024B     		ldr	r3, .L22
 472 0018 0022     		mov	r2, #0
 473 001a 1A70     		strb	r2, [r3]
 474              	.L20:
 880:Generated_Source\PSoC4/CSD_SensingCSD_LL.c ****     }
 881:Generated_Source\PSoC4/CSD_SensingCSD_LL.c **** }
 475              		.loc 1 881 0
 476 001c BD46     		mov	sp, r7
 477              		@ sp needed
 478 001e 80BD     		pop	{r7, pc}
 479              	.L23:
 480              		.align	2
 481              	.L22:
 482 0020 04000000 		.word	CSD_eleCsdDisconnectFlag
ARM GAS  C:\Users\CHRIST~1\AppData\Local\Temp\ccGy5PUQ.s 			page 25


 483 0024 00000000 		.word	CSD_curSnsIOPtr
 484              		.cfi_endproc
 485              	.LFE5:
 486              		.size	CSD_SsCSDElectrodeCheck, .-CSD_SsCSDElectrodeCheck
 487              		.section	.text.CSD_SsCSDSetUpIdacs,"ax",%progbits
 488              		.align	2
 489              		.global	CSD_SsCSDSetUpIdacs
 490              		.code	16
 491              		.thumb_func
 492              		.type	CSD_SsCSDSetUpIdacs, %function
 493              	CSD_SsCSDSetUpIdacs:
 494              	.LFB6:
 882:Generated_Source\PSoC4/CSD_SensingCSD_LL.c **** 
 883:Generated_Source\PSoC4/CSD_SensingCSD_LL.c **** 
 884:Generated_Source\PSoC4/CSD_SensingCSD_LL.c **** /*******************************************************************************
 885:Generated_Source\PSoC4/CSD_SensingCSD_LL.c **** * Function Name: CSD_SsCSDSetUpIdacs
 886:Generated_Source\PSoC4/CSD_SensingCSD_LL.c **** ****************************************************************************//**
 887:Generated_Source\PSoC4/CSD_SensingCSD_LL.c **** *
 888:Generated_Source\PSoC4/CSD_SensingCSD_LL.c **** * \brief
 889:Generated_Source\PSoC4/CSD_SensingCSD_LL.c **** *  This internal function changes the IDACs values.
 890:Generated_Source\PSoC4/CSD_SensingCSD_LL.c **** *
 891:Generated_Source\PSoC4/CSD_SensingCSD_LL.c **** * \details
 892:Generated_Source\PSoC4/CSD_SensingCSD_LL.c **** *  If Compensation IDAC is enabled, it updates two IDACs.
 893:Generated_Source\PSoC4/CSD_SensingCSD_LL.c **** *  The Modulator IDAC is common for all the sensors of the widget.
 894:Generated_Source\PSoC4/CSD_SensingCSD_LL.c **** *  The Compensation IDAC is updated for the sensor of the widget which
 895:Generated_Source\PSoC4/CSD_SensingCSD_LL.c **** *  is available in the RAM_SNS_STRUCT structure.
 896:Generated_Source\PSoC4/CSD_SensingCSD_LL.c **** *  If the Compensation IDAC is disabled, the function updates the Modulator IDAC
 897:Generated_Source\PSoC4/CSD_SensingCSD_LL.c **** *  value only in the RAM_WD_BASE_STRUCT structure.
 898:Generated_Source\PSoC4/CSD_SensingCSD_LL.c **** *
 899:Generated_Source\PSoC4/CSD_SensingCSD_LL.c **** * \param
 900:Generated_Source\PSoC4/CSD_SensingCSD_LL.c **** *  ptrWdgt The pointer to the RAM_WD_BASE_STRUCT structure.
 901:Generated_Source\PSoC4/CSD_SensingCSD_LL.c **** *
 902:Generated_Source\PSoC4/CSD_SensingCSD_LL.c **** *******************************************************************************/
 903:Generated_Source\PSoC4/CSD_SensingCSD_LL.c **** void CSD_SsCSDSetUpIdacs(CSD_RAM_WD_BASE_STRUCT const *ptrWdgt)
 904:Generated_Source\PSoC4/CSD_SensingCSD_LL.c **** {
 495              		.loc 1 904 0
 496              		.cfi_startproc
 497 0000 90B5     		push	{r4, r7, lr}
 498              		.cfi_def_cfa_offset 12
 499              		.cfi_offset 4, -12
 500              		.cfi_offset 7, -8
 501              		.cfi_offset 14, -4
 502 0002 87B0     		sub	sp, sp, #28
 503              		.cfi_def_cfa_offset 40
 504 0004 00AF     		add	r7, sp, #0
 505              		.cfi_def_cfa_register 7
 506 0006 7860     		str	r0, [r7, #4]
 905:Generated_Source\PSoC4/CSD_SensingCSD_LL.c **** 
 906:Generated_Source\PSoC4/CSD_SensingCSD_LL.c ****     uint8 interruptState;
 907:Generated_Source\PSoC4/CSD_SensingCSD_LL.c **** 
 908:Generated_Source\PSoC4/CSD_SensingCSD_LL.c **** #if (CSD_ENABLE == CSD_CSDV2)
 909:Generated_Source\PSoC4/CSD_SensingCSD_LL.c ****     uint32 idacARegValue;
 910:Generated_Source\PSoC4/CSD_SensingCSD_LL.c ****     #if ((CSD_ENABLE == CSD_CSD_IDAC_COMP_EN) && \
 911:Generated_Source\PSoC4/CSD_SensingCSD_LL.c ****          (CSD_ENABLE == CSD_CSD_DEDICATED_IDAC_COMP_EN))
 912:Generated_Source\PSoC4/CSD_SensingCSD_LL.c ****         uint32 idacBRegValue;
 913:Generated_Source\PSoC4/CSD_SensingCSD_LL.c ****     #endif /* ((CSD_ENABLE == CSD_CSD_IDAC_COMP_EN) && \
 914:Generated_Source\PSoC4/CSD_SensingCSD_LL.c ****                (CSD_ENABLE == CSD_CSD_DEDICATED_IDAC_COMP_EN)) */
ARM GAS  C:\Users\CHRIST~1\AppData\Local\Temp\ccGy5PUQ.s 			page 26


 915:Generated_Source\PSoC4/CSD_SensingCSD_LL.c **** 
 916:Generated_Source\PSoC4/CSD_SensingCSD_LL.c ****     interruptState = CyEnterCriticalSection();
 507              		.loc 1 916 0
 508 0008 1723     		mov	r3, #23
 509 000a FC18     		add	r4, r7, r3
 510 000c FFF7FEFF 		bl	CyEnterCriticalSection
 511 0010 031C     		mov	r3, r0
 512 0012 2370     		strb	r3, [r4]
 917:Generated_Source\PSoC4/CSD_SensingCSD_LL.c **** 
 918:Generated_Source\PSoC4/CSD_SensingCSD_LL.c ****     /* Get IDACA Value */
 919:Generated_Source\PSoC4/CSD_SensingCSD_LL.c ****     idacARegValue = CY_GET_REG32(CSD_IDAC_MOD_PTR);
 513              		.loc 1 919 0
 514 0014 184B     		ldr	r3, .L25
 515 0016 1B68     		ldr	r3, [r3]
 516 0018 3B61     		str	r3, [r7, #16]
 920:Generated_Source\PSoC4/CSD_SensingCSD_LL.c **** 
 921:Generated_Source\PSoC4/CSD_SensingCSD_LL.c ****     /* Set IDACA Value mask */
 922:Generated_Source\PSoC4/CSD_SensingCSD_LL.c ****     idacARegValue &= ~(CSD_IDAC_MOD_VAL_MASK);
 517              		.loc 1 922 0
 518 001a 3B69     		ldr	r3, [r7, #16]
 519 001c 7F22     		mov	r2, #127
 520 001e 9343     		bic	r3, r2
 521 0020 3B61     		str	r3, [r7, #16]
 923:Generated_Source\PSoC4/CSD_SensingCSD_LL.c **** 
 924:Generated_Source\PSoC4/CSD_SensingCSD_LL.c ****     /* Set IDACA value */
 925:Generated_Source\PSoC4/CSD_SensingCSD_LL.c ****     #if (CSD_CSD_MATRIX_WIDGET_EN | CSD_CSD_TOUCHPAD_WIDGET_EN)
 926:Generated_Source\PSoC4/CSD_SensingCSD_LL.c ****         if (CSD_dsFlash.wdgtArray[(CSD_widgetIndex)].numCols <= CSD_sensorIndex)
 927:Generated_Source\PSoC4/CSD_SensingCSD_LL.c ****         {
 928:Generated_Source\PSoC4/CSD_SensingCSD_LL.c ****             idacARegValue |= (uint32)ptrWdgt->rowIdacMod[CSD_scanFreqIndex];
 929:Generated_Source\PSoC4/CSD_SensingCSD_LL.c ****         }
 930:Generated_Source\PSoC4/CSD_SensingCSD_LL.c ****         else
 931:Generated_Source\PSoC4/CSD_SensingCSD_LL.c ****         {
 932:Generated_Source\PSoC4/CSD_SensingCSD_LL.c ****             idacARegValue |= (uint32)ptrWdgt->idacMod[CSD_scanFreqIndex];
 933:Generated_Source\PSoC4/CSD_SensingCSD_LL.c ****         }
 934:Generated_Source\PSoC4/CSD_SensingCSD_LL.c ****     #else
 935:Generated_Source\PSoC4/CSD_SensingCSD_LL.c ****         idacARegValue |= (uint32)ptrWdgt->idacMod[CSD_scanFreqIndex];
 522              		.loc 1 935 0
 523 0022 164B     		ldr	r3, .L25+4
 524 0024 1B78     		ldrb	r3, [r3]
 525 0026 1A1C     		mov	r2, r3
 526 0028 7B68     		ldr	r3, [r7, #4]
 527 002a 9B18     		add	r3, r3, r2
 528 002c 9B7A     		ldrb	r3, [r3, #10]
 529 002e 1A1C     		mov	r2, r3
 530 0030 3B69     		ldr	r3, [r7, #16]
 531 0032 1343     		orr	r3, r2
 532 0034 3B61     		str	r3, [r7, #16]
 936:Generated_Source\PSoC4/CSD_SensingCSD_LL.c ****     #endif /* (CSD_CSD_MATRIX_WIDGET_EN | CSD_CSD_TOUCHPAD_WIDGET_EN) */
 937:Generated_Source\PSoC4/CSD_SensingCSD_LL.c **** 
 938:Generated_Source\PSoC4/CSD_SensingCSD_LL.c ****     /* Update IDACA register with new value */
 939:Generated_Source\PSoC4/CSD_SensingCSD_LL.c ****     CY_SET_REG32(CSD_IDAC_MOD_PTR, idacARegValue);
 533              		.loc 1 939 0
 534 0036 104B     		ldr	r3, .L25
 535 0038 3A69     		ldr	r2, [r7, #16]
 536 003a 1A60     		str	r2, [r3]
 940:Generated_Source\PSoC4/CSD_SensingCSD_LL.c **** 
 941:Generated_Source\PSoC4/CSD_SensingCSD_LL.c ****     #if ((CSD_ENABLE == CSD_CSD_IDAC_COMP_EN) && \
ARM GAS  C:\Users\CHRIST~1\AppData\Local\Temp\ccGy5PUQ.s 			page 27


 942:Generated_Source\PSoC4/CSD_SensingCSD_LL.c ****          (CSD_ENABLE == CSD_CSD_DEDICATED_IDAC_COMP_EN))
 943:Generated_Source\PSoC4/CSD_SensingCSD_LL.c ****         /* Get IDACB Value */
 944:Generated_Source\PSoC4/CSD_SensingCSD_LL.c ****         idacBRegValue = CY_GET_REG32(CSD_IDAC_COMP_PTR);
 537              		.loc 1 944 0
 538 003c 104B     		ldr	r3, .L25+8
 539 003e 1B68     		ldr	r3, [r3]
 540 0040 FB60     		str	r3, [r7, #12]
 945:Generated_Source\PSoC4/CSD_SensingCSD_LL.c **** 
 946:Generated_Source\PSoC4/CSD_SensingCSD_LL.c ****         /* Set IDACB Value mask */
 947:Generated_Source\PSoC4/CSD_SensingCSD_LL.c ****         idacBRegValue &= ~(CSD_IDAC_COMP_VAL_MASK);
 541              		.loc 1 947 0
 542 0042 FB68     		ldr	r3, [r7, #12]
 543 0044 7F22     		mov	r2, #127
 544 0046 9343     		bic	r3, r2
 545 0048 FB60     		str	r3, [r7, #12]
 948:Generated_Source\PSoC4/CSD_SensingCSD_LL.c **** 
 949:Generated_Source\PSoC4/CSD_SensingCSD_LL.c ****         /* Set IDACB value */
 950:Generated_Source\PSoC4/CSD_SensingCSD_LL.c ****         idacBRegValue |= (uint32)CSD_curRamSnsPtr->idacComp[CSD_scanFreqIndex];
 546              		.loc 1 950 0
 547 004a 0E4B     		ldr	r3, .L25+12
 548 004c 1B68     		ldr	r3, [r3]
 549 004e 0B4A     		ldr	r2, .L25+4
 550 0050 1278     		ldrb	r2, [r2]
 551 0052 9B18     		add	r3, r3, r2
 552 0054 5B79     		ldrb	r3, [r3, #5]
 553 0056 1A1C     		mov	r2, r3
 554 0058 FB68     		ldr	r3, [r7, #12]
 555 005a 1343     		orr	r3, r2
 556 005c FB60     		str	r3, [r7, #12]
 951:Generated_Source\PSoC4/CSD_SensingCSD_LL.c **** 
 952:Generated_Source\PSoC4/CSD_SensingCSD_LL.c ****         /* Update IDACA register with new value */
 953:Generated_Source\PSoC4/CSD_SensingCSD_LL.c ****         CY_SET_REG32(CSD_IDAC_COMP_PTR, idacBRegValue);
 557              		.loc 1 953 0
 558 005e 084B     		ldr	r3, .L25+8
 559 0060 FA68     		ldr	r2, [r7, #12]
 560 0062 1A60     		str	r2, [r3]
 954:Generated_Source\PSoC4/CSD_SensingCSD_LL.c ****     #endif /* ((CSD_ENABLE == CSD_CSD_IDAC_COMP_EN) && \
 955:Generated_Source\PSoC4/CSD_SensingCSD_LL.c ****                (CSD_ENABLE == CSD_CSD_DEDICATED_IDAC_COMP_EN)) */
 956:Generated_Source\PSoC4/CSD_SensingCSD_LL.c **** 
 957:Generated_Source\PSoC4/CSD_SensingCSD_LL.c ****     CyExitCriticalSection(interruptState);
 561              		.loc 1 957 0
 562 0064 1723     		mov	r3, #23
 563 0066 FB18     		add	r3, r7, r3
 564 0068 1B78     		ldrb	r3, [r3]
 565 006a 181C     		mov	r0, r3
 566 006c FFF7FEFF 		bl	CyExitCriticalSection
 958:Generated_Source\PSoC4/CSD_SensingCSD_LL.c **** 
 959:Generated_Source\PSoC4/CSD_SensingCSD_LL.c **** #else
 960:Generated_Source\PSoC4/CSD_SensingCSD_LL.c **** 
 961:Generated_Source\PSoC4/CSD_SensingCSD_LL.c ****     uint32 newRegValue;
 962:Generated_Source\PSoC4/CSD_SensingCSD_LL.c ****     uint8 const *ptrIdacMod = ptrWdgt->idacMod;
 963:Generated_Source\PSoC4/CSD_SensingCSD_LL.c **** 
 964:Generated_Source\PSoC4/CSD_SensingCSD_LL.c ****     #if (CSD_CSD_MATRIX_WIDGET_EN  | CSD_CSD_TOUCHPAD_WIDGET_EN)
 965:Generated_Source\PSoC4/CSD_SensingCSD_LL.c ****         if (CSD_dsFlash.wdgtArray[(CSD_widgetIndex)].numCols <= CSD_sensorIndex)
 966:Generated_Source\PSoC4/CSD_SensingCSD_LL.c ****         {
 967:Generated_Source\PSoC4/CSD_SensingCSD_LL.c ****             ptrIdacMod = &ptrWdgt->rowIdacMod[0u];
 968:Generated_Source\PSoC4/CSD_SensingCSD_LL.c ****         }
ARM GAS  C:\Users\CHRIST~1\AppData\Local\Temp\ccGy5PUQ.s 			page 28


 969:Generated_Source\PSoC4/CSD_SensingCSD_LL.c ****     #endif /* (CSD_CSD_MATRIX_WIDGET_EN  | CSD_CSD_TOUCHPAD_WIDGET_EN) */
 970:Generated_Source\PSoC4/CSD_SensingCSD_LL.c **** 
 971:Generated_Source\PSoC4/CSD_SensingCSD_LL.c ****     interruptState = CyEnterCriticalSection();
 972:Generated_Source\PSoC4/CSD_SensingCSD_LL.c **** 
 973:Generated_Source\PSoC4/CSD_SensingCSD_LL.c ****     /* Get Idac Value */
 974:Generated_Source\PSoC4/CSD_SensingCSD_LL.c ****     newRegValue = CY_GET_REG32(CSD_IDAC_PTR);
 975:Generated_Source\PSoC4/CSD_SensingCSD_LL.c **** 
 976:Generated_Source\PSoC4/CSD_SensingCSD_LL.c ****     /* Set Idac Value mask */
 977:Generated_Source\PSoC4/CSD_SensingCSD_LL.c ****     #if (CSD_ENABLE == CSD_CSD_IDAC_COMP_EN)
 978:Generated_Source\PSoC4/CSD_SensingCSD_LL.c ****         newRegValue &= ~(CSD_IDAC_MOD_MASK | CSD_IDAC_COMP_MASK);
 979:Generated_Source\PSoC4/CSD_SensingCSD_LL.c ****     #else
 980:Generated_Source\PSoC4/CSD_SensingCSD_LL.c ****         newRegValue &= ~(CSD_IDAC_MOD_MASK);
 981:Generated_Source\PSoC4/CSD_SensingCSD_LL.c ****     #endif /* (CSD_ENABLE == CSD_CSD_IDAC_COMP_EN) */
 982:Generated_Source\PSoC4/CSD_SensingCSD_LL.c **** 
 983:Generated_Source\PSoC4/CSD_SensingCSD_LL.c ****     /* Set Idac value */
 984:Generated_Source\PSoC4/CSD_SensingCSD_LL.c ****     #if (CSD_ENABLE == CSD_CSD_IDAC_COMP_EN)
 985:Generated_Source\PSoC4/CSD_SensingCSD_LL.c ****         newRegValue |= (ptrIdacMod[CSD_scanFreqIndex] |
 986:Generated_Source\PSoC4/CSD_SensingCSD_LL.c ****                        (uint32)((uint32)CSD_curRamSnsPtr->idacComp[CSD_scanFreqIndex] <<
 987:Generated_Source\PSoC4/CSD_SensingCSD_LL.c ****                        CSD_IDAC_COMP_DATA_OFFSET));
 988:Generated_Source\PSoC4/CSD_SensingCSD_LL.c ****     #else
 989:Generated_Source\PSoC4/CSD_SensingCSD_LL.c ****         newRegValue |= ptrIdacMod[CSD_scanFreqIndex];
 990:Generated_Source\PSoC4/CSD_SensingCSD_LL.c ****     #endif /* (CSD_ENABLE == CSD_CSD_IDAC_COMP_EN) */
 991:Generated_Source\PSoC4/CSD_SensingCSD_LL.c ****     CY_SET_REG32(CSD_IDAC_PTR, newRegValue);
 992:Generated_Source\PSoC4/CSD_SensingCSD_LL.c **** 
 993:Generated_Source\PSoC4/CSD_SensingCSD_LL.c ****     CyExitCriticalSection(interruptState);
 994:Generated_Source\PSoC4/CSD_SensingCSD_LL.c **** 
 995:Generated_Source\PSoC4/CSD_SensingCSD_LL.c **** #endif /* (CSD_ENABLE == CSD_CSDV2) */
 996:Generated_Source\PSoC4/CSD_SensingCSD_LL.c **** }
 567              		.loc 1 996 0
 568 0070 BD46     		mov	sp, r7
 569 0072 07B0     		add	sp, sp, #28
 570              		@ sp needed
 571 0074 90BD     		pop	{r4, r7, pc}
 572              	.L26:
 573 0076 C046     		.align	2
 574              	.L25:
 575 0078 C0010C40 		.word	1074528704
 576 007c 00000000 		.word	CSD_scanFreqIndex
 577 0080 C4010C40 		.word	1074528708
 578 0084 00000000 		.word	CSD_curRamSnsPtr
 579              		.cfi_endproc
 580              	.LFE6:
 581              		.size	CSD_SsCSDSetUpIdacs, .-CSD_SsCSDSetUpIdacs
 582              		.section	.text.CSD_SsCSDGetNumberOfConversions,"ax",%progbits
 583              		.align	2
 584              		.global	CSD_SsCSDGetNumberOfConversions
 585              		.code	16
 586              		.thumb_func
 587              		.type	CSD_SsCSDGetNumberOfConversions, %function
 588              	CSD_SsCSDGetNumberOfConversions:
 589              	.LFB7:
 997:Generated_Source\PSoC4/CSD_SensingCSD_LL.c **** 
 998:Generated_Source\PSoC4/CSD_SensingCSD_LL.c **** 
 999:Generated_Source\PSoC4/CSD_SensingCSD_LL.c **** #if (CSD_ENABLE == CSD_CSDV2)
1000:Generated_Source\PSoC4/CSD_SensingCSD_LL.c ****     /*******************************************************************************
1001:Generated_Source\PSoC4/CSD_SensingCSD_LL.c ****     * Function Name: CSD_SsCSDGetNumberOfConversions
1002:Generated_Source\PSoC4/CSD_SensingCSD_LL.c ****     ****************************************************************************//**
ARM GAS  C:\Users\CHRIST~1\AppData\Local\Temp\ccGy5PUQ.s 			page 29


1003:Generated_Source\PSoC4/CSD_SensingCSD_LL.c ****     *
1004:Generated_Source\PSoC4/CSD_SensingCSD_LL.c ****     * \brief
1005:Generated_Source\PSoC4/CSD_SensingCSD_LL.c ****     *  This function gets Number of conversions.
1006:Generated_Source\PSoC4/CSD_SensingCSD_LL.c ****     *
1007:Generated_Source\PSoC4/CSD_SensingCSD_LL.c ****     * \details
1008:Generated_Source\PSoC4/CSD_SensingCSD_LL.c ****     *  This function gets Number of conversions using foll.owing equation:
1009:Generated_Source\PSoC4/CSD_SensingCSD_LL.c ****     *   conversionsNum = (2^resolution - 1) / snsClkDivider.
1010:Generated_Source\PSoC4/CSD_SensingCSD_LL.c ****     *
1011:Generated_Source\PSoC4/CSD_SensingCSD_LL.c ****     * \param
1012:Generated_Source\PSoC4/CSD_SensingCSD_LL.c ****     *  snsClkDivider The divider value for the sense clock.
1013:Generated_Source\PSoC4/CSD_SensingCSD_LL.c ****     *  resolution The widget resolution.
1014:Generated_Source\PSoC4/CSD_SensingCSD_LL.c ****     *
1015:Generated_Source\PSoC4/CSD_SensingCSD_LL.c ****     * \return Returns the Number of conversions.
1016:Generated_Source\PSoC4/CSD_SensingCSD_LL.c ****     *
1017:Generated_Source\PSoC4/CSD_SensingCSD_LL.c ****     *******************************************************************************/
1018:Generated_Source\PSoC4/CSD_SensingCSD_LL.c ****     uint32 CSD_SsCSDGetNumberOfConversions(uint32 snsClkDivider, uint32 resolution)
1019:Generated_Source\PSoC4/CSD_SensingCSD_LL.c ****     {
 590              		.loc 1 1019 0
 591              		.cfi_startproc
 592 0000 80B5     		push	{r7, lr}
 593              		.cfi_def_cfa_offset 8
 594              		.cfi_offset 7, -8
 595              		.cfi_offset 14, -4
 596 0002 84B0     		sub	sp, sp, #16
 597              		.cfi_def_cfa_offset 24
 598 0004 00AF     		add	r7, sp, #0
 599              		.cfi_def_cfa_register 7
 600 0006 7860     		str	r0, [r7, #4]
 601 0008 3960     		str	r1, [r7]
1020:Generated_Source\PSoC4/CSD_SensingCSD_LL.c ****         uint32 conversionsNum;
1021:Generated_Source\PSoC4/CSD_SensingCSD_LL.c ****         #if ((CSD_MOD_CSD_CLK_12MHZ < CYDEV_BCLK__HFCLK__HZ) && (CSD_ENABLE != CSD_CSDV2_REF9P6UA_E
1022:Generated_Source\PSoC4/CSD_SensingCSD_LL.c ****             uint32 sampleClkFreqHz;
1023:Generated_Source\PSoC4/CSD_SensingCSD_LL.c ****         #endif /* ((CSD_MOD_CSD_CLK_12MHZ < CYDEV_BCLK__HFCLK__HZ) && (CSD_ENABLE != CSD_CSDV2_REF9
1024:Generated_Source\PSoC4/CSD_SensingCSD_LL.c ****         #if (CSD_CLK_SOURCE_PRSAUTO == CSD_CSD_SNS_CLK_SOURCE)
1025:Generated_Source\PSoC4/CSD_SensingCSD_LL.c ****             uint32 sourceSenseClk;
1026:Generated_Source\PSoC4/CSD_SensingCSD_LL.c ****         #endif /* (CSD_CLK_SOURCE_PRSAUTO == CSD_CSD_SNS_CLK_SOURCE) */
1027:Generated_Source\PSoC4/CSD_SensingCSD_LL.c **** 
1028:Generated_Source\PSoC4/CSD_SensingCSD_LL.c ****         #if (CSD_CLK_SOURCE_PRSAUTO == CSD_CSD_SNS_CLK_SOURCE)
1029:Generated_Source\PSoC4/CSD_SensingCSD_LL.c ****             CSD_RAM_WD_BASE_STRUCT *ptrWdgt = (CSD_RAM_WD_BASE_STRUCT *)
1030:Generated_Source\PSoC4/CSD_SensingCSD_LL.c ****                                                         CSD_dsFlash.wdgtArray[CSD_widgetIndex].ptr2
1031:Generated_Source\PSoC4/CSD_SensingCSD_LL.c ****         #endif /* (CSD_CLK_SOURCE_PRSAUTO == CSD_CSD_SNS_CLK_SOURCE) */
1032:Generated_Source\PSoC4/CSD_SensingCSD_LL.c **** 
1033:Generated_Source\PSoC4/CSD_SensingCSD_LL.c ****         /* Calculate scanning resolution value in register */
1034:Generated_Source\PSoC4/CSD_SensingCSD_LL.c ****         conversionsNum = (uint32)((1uL << resolution) - 1uL);
 602              		.loc 1 1034 0
 603 000a 3B68     		ldr	r3, [r7]
 604 000c 0122     		mov	r2, #1
 605 000e 9A40     		lsl	r2, r2, r3
 606 0010 131C     		mov	r3, r2
 607 0012 013B     		sub	r3, r3, #1
 608 0014 FB60     		str	r3, [r7, #12]
1035:Generated_Source\PSoC4/CSD_SensingCSD_LL.c **** 
1036:Generated_Source\PSoC4/CSD_SensingCSD_LL.c ****         #if(CSD_ENABLE != CSD_CSDV2_REF9P6UA_EN)
1037:Generated_Source\PSoC4/CSD_SensingCSD_LL.c ****             /* Apply correction to oveflow for 16 bit resolution */
1038:Generated_Source\PSoC4/CSD_SensingCSD_LL.c ****             if (CSD_RES16BIT == resolution)
 609              		.loc 1 1038 0
 610 0016 3B68     		ldr	r3, [r7]
ARM GAS  C:\Users\CHRIST~1\AppData\Local\Temp\ccGy5PUQ.s 			page 30


 611 0018 102B     		cmp	r3, #16
 612 001a 20D1     		bne	.L28
1039:Generated_Source\PSoC4/CSD_SensingCSD_LL.c ****             {
1040:Generated_Source\PSoC4/CSD_SensingCSD_LL.c ****                 conversionsNum -= ((snsClkDivider + 1u) >> 1u);
 613              		.loc 1 1040 0
 614 001c 7B68     		ldr	r3, [r7, #4]
 615 001e 0133     		add	r3, r3, #1
 616 0020 5B08     		lsr	r3, r3, #1
 617 0022 FA68     		ldr	r2, [r7, #12]
 618 0024 D31A     		sub	r3, r2, r3
 619 0026 FB60     		str	r3, [r7, #12]
1041:Generated_Source\PSoC4/CSD_SensingCSD_LL.c **** 
1042:Generated_Source\PSoC4/CSD_SensingCSD_LL.c ****                 #if (CSD_MOD_CSD_CLK_12MHZ < CYDEV_BCLK__HFCLK__HZ)
1043:Generated_Source\PSoC4/CSD_SensingCSD_LL.c ****                     sampleClkFreqHz = CYDEV_BCLK__HFCLK__HZ / (uint32)CSD_dsRam.modCsdClk;
 620              		.loc 1 1043 0
 621 0028 144B     		ldr	r3, .L33
 622 002a 1B7E     		ldrb	r3, [r3, #24]
 623 002c 1448     		ldr	r0, .L33+4
 624 002e 191C     		mov	r1, r3
 625 0030 FFF7FEFF 		bl	__aeabi_uidiv
 626 0034 031C     		mov	r3, r0
 627 0036 BB60     		str	r3, [r7, #8]
1044:Generated_Source\PSoC4/CSD_SensingCSD_LL.c **** 
1045:Generated_Source\PSoC4/CSD_SensingCSD_LL.c ****                     if (sampleClkFreqHz <= CSD_MOD_CSD_CLK_12MHZ)
 628              		.loc 1 1045 0
 629 0038 BB68     		ldr	r3, [r7, #8]
 630 003a 124A     		ldr	r2, .L33+8
 631 003c 9342     		cmp	r3, r2
 632 003e 03D8     		bhi	.L29
1046:Generated_Source\PSoC4/CSD_SensingCSD_LL.c ****                     {
1047:Generated_Source\PSoC4/CSD_SensingCSD_LL.c ****                         conversionsNum -= CSD_CONFIG_FILTER_DELAY_2_CYCLES;
 633              		.loc 1 1047 0
 634 0040 FB68     		ldr	r3, [r7, #12]
 635 0042 023B     		sub	r3, r3, #2
 636 0044 FB60     		str	r3, [r7, #12]
 637 0046 0AE0     		b	.L28
 638              	.L29:
1048:Generated_Source\PSoC4/CSD_SensingCSD_LL.c ****                     }
1049:Generated_Source\PSoC4/CSD_SensingCSD_LL.c ****                     else if (sampleClkFreqHz <= CSD_MOD_CSD_CLK_24MHZ)
 639              		.loc 1 1049 0
 640 0048 BB68     		ldr	r3, [r7, #8]
 641 004a 0F4A     		ldr	r2, .L33+12
 642 004c 9342     		cmp	r3, r2
 643 004e 03D8     		bhi	.L30
1050:Generated_Source\PSoC4/CSD_SensingCSD_LL.c ****                     {
1051:Generated_Source\PSoC4/CSD_SensingCSD_LL.c ****                         conversionsNum -= CSD_CONFIG_FILTER_DELAY_3_CYCLES;
 644              		.loc 1 1051 0
 645 0050 FB68     		ldr	r3, [r7, #12]
 646 0052 033B     		sub	r3, r3, #3
 647 0054 FB60     		str	r3, [r7, #12]
 648 0056 02E0     		b	.L28
 649              	.L30:
1052:Generated_Source\PSoC4/CSD_SensingCSD_LL.c ****                     }
1053:Generated_Source\PSoC4/CSD_SensingCSD_LL.c ****                     else
1054:Generated_Source\PSoC4/CSD_SensingCSD_LL.c ****                     {
1055:Generated_Source\PSoC4/CSD_SensingCSD_LL.c ****                         conversionsNum -= CSD_CONFIG_FILTER_DELAY_4_CYCLES;
 650              		.loc 1 1055 0
ARM GAS  C:\Users\CHRIST~1\AppData\Local\Temp\ccGy5PUQ.s 			page 31


 651 0058 FB68     		ldr	r3, [r7, #12]
 652 005a 043B     		sub	r3, r3, #4
 653 005c FB60     		str	r3, [r7, #12]
 654              	.L28:
1056:Generated_Source\PSoC4/CSD_SensingCSD_LL.c ****                     }
1057:Generated_Source\PSoC4/CSD_SensingCSD_LL.c ****                 #else
1058:Generated_Source\PSoC4/CSD_SensingCSD_LL.c ****                     conversionsNum -= CSD_CONFIG_FILTER_DELAY_2_CYCLES;
1059:Generated_Source\PSoC4/CSD_SensingCSD_LL.c ****                 #endif /* (INSTANCE_NAME`_MOD_CSD_CLK_12MHZ < CYDEV_BCLK__HFCLK__HZ) */
1060:Generated_Source\PSoC4/CSD_SensingCSD_LL.c ****             }
1061:Generated_Source\PSoC4/CSD_SensingCSD_LL.c ****         #endif /* (CSD_ENABLE != CSD_CSDV2_REF9P6UA_EN) */
1062:Generated_Source\PSoC4/CSD_SensingCSD_LL.c **** 
1063:Generated_Source\PSoC4/CSD_SensingCSD_LL.c ****         if (0u < snsClkDivider)
 655              		.loc 1 1063 0
 656 005e 7B68     		ldr	r3, [r7, #4]
 657 0060 002B     		cmp	r3, #0
 658 0062 05D0     		beq	.L31
1064:Generated_Source\PSoC4/CSD_SensingCSD_LL.c ****         {
1065:Generated_Source\PSoC4/CSD_SensingCSD_LL.c ****             conversionsNum /= snsClkDivider;
 659              		.loc 1 1065 0
 660 0064 F868     		ldr	r0, [r7, #12]
 661 0066 7968     		ldr	r1, [r7, #4]
 662 0068 FFF7FEFF 		bl	__aeabi_uidiv
 663 006c 031C     		mov	r3, r0
 664 006e FB60     		str	r3, [r7, #12]
 665              	.L31:
1066:Generated_Source\PSoC4/CSD_SensingCSD_LL.c ****         }
1067:Generated_Source\PSoC4/CSD_SensingCSD_LL.c **** 
1068:Generated_Source\PSoC4/CSD_SensingCSD_LL.c ****         #if (CSD_CSD_SS_DIS != CSD_CSD_AUTOTUNE)
1069:Generated_Source\PSoC4/CSD_SensingCSD_LL.c ****             /* Use direct clock if pre-scalers have not been tuned */
1070:Generated_Source\PSoC4/CSD_SensingCSD_LL.c ****             if (CSD_ENABLE == CSD_prescalersTuningDone)
1071:Generated_Source\PSoC4/CSD_SensingCSD_LL.c ****             {
1072:Generated_Source\PSoC4/CSD_SensingCSD_LL.c ****         #endif /* (CSD_CSD_SS_DIS != CSD_CSD_AUTOTUNE) */
1073:Generated_Source\PSoC4/CSD_SensingCSD_LL.c ****             #if ((CSD_CLK_SOURCE_PRS12 == CSD_CSD_SNS_CLK_SOURCE) || \
1074:Generated_Source\PSoC4/CSD_SensingCSD_LL.c ****                  (CSD_CLK_SOURCE_PRS8 == CSD_CSD_SNS_CLK_SOURCE))
1075:Generated_Source\PSoC4/CSD_SensingCSD_LL.c ****                  /* Divide by 4 for PRS8/PRS12 mode */
1076:Generated_Source\PSoC4/CSD_SensingCSD_LL.c ****                  conversionsNum >>= 2u;
1077:Generated_Source\PSoC4/CSD_SensingCSD_LL.c ****             #elif (CSD_CLK_SOURCE_PRSAUTO == CSD_CSD_SNS_CLK_SOURCE)
1078:Generated_Source\PSoC4/CSD_SensingCSD_LL.c ****                  snsClkDivider = snsClkDivider * (uint32)CSD_dsRam.modCsdClk;
1079:Generated_Source\PSoC4/CSD_SensingCSD_LL.c **** 
1080:Generated_Source\PSoC4/CSD_SensingCSD_LL.c ****                  /* Get sense clk source calculated in CSD_SsCSDInitialize() before */
1081:Generated_Source\PSoC4/CSD_SensingCSD_LL.c ****                  sourceSenseClk = ptrWdgt->snsClkSource;
1082:Generated_Source\PSoC4/CSD_SensingCSD_LL.c **** 
1083:Generated_Source\PSoC4/CSD_SensingCSD_LL.c ****                  /* Check if PRS8/12 mode was set */
1084:Generated_Source\PSoC4/CSD_SensingCSD_LL.c ****                  if (((CSD_CLK_SOURCE_PRS8 == sourceSenseClk) ||
1085:Generated_Source\PSoC4/CSD_SensingCSD_LL.c ****                       (CSD_CLK_SOURCE_PRS12 == sourceSenseClk)) &&
1086:Generated_Source\PSoC4/CSD_SensingCSD_LL.c ****                      (CSD_HFCLK_SNSCLK_FACTOR >= snsClkDivider))
1087:Generated_Source\PSoC4/CSD_SensingCSD_LL.c ****                  {
1088:Generated_Source\PSoC4/CSD_SensingCSD_LL.c ****                      /* Divide by 4 for PRS8/PRS12 mode */
1089:Generated_Source\PSoC4/CSD_SensingCSD_LL.c ****                      conversionsNum >>= 2u;
1090:Generated_Source\PSoC4/CSD_SensingCSD_LL.c ****                  }
1091:Generated_Source\PSoC4/CSD_SensingCSD_LL.c ****             #else
1092:Generated_Source\PSoC4/CSD_SensingCSD_LL.c ****                  /* SSC or Direct Clock mode  */
1093:Generated_Source\PSoC4/CSD_SensingCSD_LL.c ****             #endif /* ((CSD_CLK_SOURCE_PRS12 == CSD_CSD_SNS_CLK_SOURCE) || \
1094:Generated_Source\PSoC4/CSD_SensingCSD_LL.c ****                        (CSD_CLK_SOURCE_PRS8 == CSD_CSD_SNS_CLK_SOURCE)) */
1095:Generated_Source\PSoC4/CSD_SensingCSD_LL.c ****         #if (CSD_CSD_SS_DIS != CSD_CSD_AUTOTUNE)
1096:Generated_Source\PSoC4/CSD_SensingCSD_LL.c ****             }
1097:Generated_Source\PSoC4/CSD_SensingCSD_LL.c ****         #endif /* (CSD_CSD_SS_DIS != CSD_CSD_AUTOTUNE) */
ARM GAS  C:\Users\CHRIST~1\AppData\Local\Temp\ccGy5PUQ.s 			page 32


1098:Generated_Source\PSoC4/CSD_SensingCSD_LL.c **** 
1099:Generated_Source\PSoC4/CSD_SensingCSD_LL.c ****         return conversionsNum;
 666              		.loc 1 1099 0
 667 0070 FB68     		ldr	r3, [r7, #12]
1100:Generated_Source\PSoC4/CSD_SensingCSD_LL.c ****     }
 668              		.loc 1 1100 0
 669 0072 181C     		mov	r0, r3
 670 0074 BD46     		mov	sp, r7
 671 0076 04B0     		add	sp, sp, #16
 672              		@ sp needed
 673 0078 80BD     		pop	{r7, pc}
 674              	.L34:
 675 007a C046     		.align	2
 676              	.L33:
 677 007c 00000000 		.word	CSD_dsRam
 678 0080 006CDC02 		.word	48000000
 679 0084 001BB700 		.word	12000000
 680 0088 00366E01 		.word	24000000
 681              		.cfi_endproc
 682              	.LFE7:
 683              		.size	CSD_SsCSDGetNumberOfConversions, .-CSD_SsCSDGetNumberOfConversions
 684              		.section	.text.CSD_SsCSDGetColSnsClkDivider,"ax",%progbits
 685              		.align	2
 686              		.global	CSD_SsCSDGetColSnsClkDivider
 687              		.code	16
 688              		.thumb_func
 689              		.type	CSD_SsCSDGetColSnsClkDivider, %function
 690              	CSD_SsCSDGetColSnsClkDivider:
 691              	.LFB8:
1101:Generated_Source\PSoC4/CSD_SensingCSD_LL.c **** #endif /* (CSD_ENABLE == CSD_CSDV2) */
1102:Generated_Source\PSoC4/CSD_SensingCSD_LL.c **** 
1103:Generated_Source\PSoC4/CSD_SensingCSD_LL.c **** 
1104:Generated_Source\PSoC4/CSD_SensingCSD_LL.c **** 
1105:Generated_Source\PSoC4/CSD_SensingCSD_LL.c **** /*******************************************************************************
1106:Generated_Source\PSoC4/CSD_SensingCSD_LL.c **** * Function Name: CSD_SsCSDGetColSnsClkDivider
1107:Generated_Source\PSoC4/CSD_SensingCSD_LL.c **** ****************************************************************************//**
1108:Generated_Source\PSoC4/CSD_SensingCSD_LL.c **** *
1109:Generated_Source\PSoC4/CSD_SensingCSD_LL.c **** * \brief
1110:Generated_Source\PSoC4/CSD_SensingCSD_LL.c **** *  This function gets the Sense Clock Divider value for one-dimension widgets
1111:Generated_Source\PSoC4/CSD_SensingCSD_LL.c **** *  and Column Sense Clock divider value for two-dimension widgets.
1112:Generated_Source\PSoC4/CSD_SensingCSD_LL.c **** *
1113:Generated_Source\PSoC4/CSD_SensingCSD_LL.c **** * \details
1114:Generated_Source\PSoC4/CSD_SensingCSD_LL.c **** *  This function gets the Sense Clock Divider value based on the component
1115:Generated_Source\PSoC4/CSD_SensingCSD_LL.c **** *  configuration. The function is applicable for one-dimension widgets and for
1116:Generated_Source\PSoC4/CSD_SensingCSD_LL.c **** *  two-dimension widgets.
1117:Generated_Source\PSoC4/CSD_SensingCSD_LL.c **** *
1118:Generated_Source\PSoC4/CSD_SensingCSD_LL.c **** * \param
1119:Generated_Source\PSoC4/CSD_SensingCSD_LL.c **** *  wdgtIndex Specifies the ID of the widget.
1120:Generated_Source\PSoC4/CSD_SensingCSD_LL.c **** *
1121:Generated_Source\PSoC4/CSD_SensingCSD_LL.c **** * \return The Sense Clock Divider value for one-dimension widgets
1122:Generated_Source\PSoC4/CSD_SensingCSD_LL.c **** *         and the Column Sense Clock divider value for two-dimension widgets.
1123:Generated_Source\PSoC4/CSD_SensingCSD_LL.c **** *
1124:Generated_Source\PSoC4/CSD_SensingCSD_LL.c **** *******************************************************************************/
1125:Generated_Source\PSoC4/CSD_SensingCSD_LL.c **** uint32 CSD_SsCSDGetColSnsClkDivider(uint32 wdgtIndex)
1126:Generated_Source\PSoC4/CSD_SensingCSD_LL.c **** {
 692              		.loc 1 1126 0
 693              		.cfi_startproc
ARM GAS  C:\Users\CHRIST~1\AppData\Local\Temp\ccGy5PUQ.s 			page 33


 694 0000 80B5     		push	{r7, lr}
 695              		.cfi_def_cfa_offset 8
 696              		.cfi_offset 7, -8
 697              		.cfi_offset 14, -4
 698 0002 84B0     		sub	sp, sp, #16
 699              		.cfi_def_cfa_offset 24
 700 0004 00AF     		add	r7, sp, #0
 701              		.cfi_def_cfa_register 7
 702 0006 7860     		str	r0, [r7, #4]
1127:Generated_Source\PSoC4/CSD_SensingCSD_LL.c ****     uint32 retVal;
1128:Generated_Source\PSoC4/CSD_SensingCSD_LL.c **** 
1129:Generated_Source\PSoC4/CSD_SensingCSD_LL.c ****     /* Get sense divider based on configuration */
1130:Generated_Source\PSoC4/CSD_SensingCSD_LL.c ****     #if (CSD_ENABLE != CSD_CSD_COMMON_SNS_CLK_EN)
1131:Generated_Source\PSoC4/CSD_SensingCSD_LL.c ****         CSD_RAM_WD_BASE_STRUCT *ptrWdgt;
1132:Generated_Source\PSoC4/CSD_SensingCSD_LL.c **** 
1133:Generated_Source\PSoC4/CSD_SensingCSD_LL.c ****         ptrWdgt = (CSD_RAM_WD_BASE_STRUCT *)
 703              		.loc 1 1133 0
 704 0008 0849     		ldr	r1, .L37
 705 000a 7A68     		ldr	r2, [r7, #4]
 706 000c 131C     		mov	r3, r2
 707 000e DB00     		lsl	r3, r3, #3
 708 0010 9B1A     		sub	r3, r3, r2
 709 0012 9B00     		lsl	r3, r3, #2
 710 0014 CB18     		add	r3, r1, r3
 711 0016 5B68     		ldr	r3, [r3, #4]
 712 0018 FB60     		str	r3, [r7, #12]
1134:Generated_Source\PSoC4/CSD_SensingCSD_LL.c ****         CSD_dsFlash.wdgtArray[wdgtIndex].ptr2WdgtRam;
1135:Generated_Source\PSoC4/CSD_SensingCSD_LL.c **** 
1136:Generated_Source\PSoC4/CSD_SensingCSD_LL.c ****         retVal = (uint32)(ptrWdgt->snsClk);
 713              		.loc 1 1136 0
 714 001a FB68     		ldr	r3, [r7, #12]
 715 001c DB7A     		ldrb	r3, [r3, #11]
 716 001e BB60     		str	r3, [r7, #8]
1137:Generated_Source\PSoC4/CSD_SensingCSD_LL.c ****     #else
1138:Generated_Source\PSoC4/CSD_SensingCSD_LL.c ****         retVal = (uint32)CSD_dsRam.snsCsdClk;
1139:Generated_Source\PSoC4/CSD_SensingCSD_LL.c ****     #endif /* (CSD_ENABLE == CSD_CSD_COMMON_SNS_CLK_EN) */
1140:Generated_Source\PSoC4/CSD_SensingCSD_LL.c **** 
1141:Generated_Source\PSoC4/CSD_SensingCSD_LL.c ****     if(wdgtIndex == 0uL)
1142:Generated_Source\PSoC4/CSD_SensingCSD_LL.c ****     {
1143:Generated_Source\PSoC4/CSD_SensingCSD_LL.c ****         ;
1144:Generated_Source\PSoC4/CSD_SensingCSD_LL.c ****     }
1145:Generated_Source\PSoC4/CSD_SensingCSD_LL.c **** 
1146:Generated_Source\PSoC4/CSD_SensingCSD_LL.c ****     return (retVal);
 717              		.loc 1 1146 0
 718 0020 BB68     		ldr	r3, [r7, #8]
1147:Generated_Source\PSoC4/CSD_SensingCSD_LL.c **** }
 719              		.loc 1 1147 0
 720 0022 181C     		mov	r0, r3
 721 0024 BD46     		mov	sp, r7
 722 0026 04B0     		add	sp, sp, #16
 723              		@ sp needed
 724 0028 80BD     		pop	{r7, pc}
 725              	.L38:
 726 002a C046     		.align	2
 727              	.L37:
 728 002c 00000000 		.word	CSD_dsFlash
 729              		.cfi_endproc
ARM GAS  C:\Users\CHRIST~1\AppData\Local\Temp\ccGy5PUQ.s 			page 34


 730              	.LFE8:
 731              		.size	CSD_SsCSDGetColSnsClkDivider, .-CSD_SsCSDGetColSnsClkDivider
 732              		.section	.text.CSD_SsCSDConfigClock,"ax",%progbits
 733              		.align	2
 734              		.global	CSD_SsCSDConfigClock
 735              		.code	16
 736              		.thumb_func
 737              		.type	CSD_SsCSDConfigClock, %function
 738              	CSD_SsCSDConfigClock:
 739              	.LFB9:
1148:Generated_Source\PSoC4/CSD_SensingCSD_LL.c **** 
1149:Generated_Source\PSoC4/CSD_SensingCSD_LL.c **** 
1150:Generated_Source\PSoC4/CSD_SensingCSD_LL.c **** #if (CSD_ENABLE == (CSD_CSD_MATRIX_WIDGET_EN | CSD_CSD_TOUCHPAD_WIDGET_EN))
1151:Generated_Source\PSoC4/CSD_SensingCSD_LL.c ****     /*******************************************************************************
1152:Generated_Source\PSoC4/CSD_SensingCSD_LL.c ****     * Function Name: CSD_SsCSDGetRowSnsClkDivider
1153:Generated_Source\PSoC4/CSD_SensingCSD_LL.c ****     ****************************************************************************//**
1154:Generated_Source\PSoC4/CSD_SensingCSD_LL.c ****     *
1155:Generated_Source\PSoC4/CSD_SensingCSD_LL.c ****     * \brief
1156:Generated_Source\PSoC4/CSD_SensingCSD_LL.c ****     *  This function gets the Sense Clock Divider value for one-dimension widgets
1157:Generated_Source\PSoC4/CSD_SensingCSD_LL.c ****     *  and the Column Sense Clock divider value for two-dimension widgets.
1158:Generated_Source\PSoC4/CSD_SensingCSD_LL.c ****     *
1159:Generated_Source\PSoC4/CSD_SensingCSD_LL.c ****     * \details
1160:Generated_Source\PSoC4/CSD_SensingCSD_LL.c ****     *  This function gets the Sense Clock Divider value based on the component
1161:Generated_Source\PSoC4/CSD_SensingCSD_LL.c ****     *  configuration. The function is applicable for one-dimension widgets and for
1162:Generated_Source\PSoC4/CSD_SensingCSD_LL.c ****     *  two-dimension widgets.
1163:Generated_Source\PSoC4/CSD_SensingCSD_LL.c ****     *
1164:Generated_Source\PSoC4/CSD_SensingCSD_LL.c ****     * \param
1165:Generated_Source\PSoC4/CSD_SensingCSD_LL.c ****     *  wdgtIndex Specifies the ID of the widget.
1166:Generated_Source\PSoC4/CSD_SensingCSD_LL.c ****     *
1167:Generated_Source\PSoC4/CSD_SensingCSD_LL.c ****     * \return The Sense Clock Divider value for one-dimension widgets
1168:Generated_Source\PSoC4/CSD_SensingCSD_LL.c ****     *         and Column Sense Clock divider value for two-dimension widgets.
1169:Generated_Source\PSoC4/CSD_SensingCSD_LL.c ****     *
1170:Generated_Source\PSoC4/CSD_SensingCSD_LL.c ****     *******************************************************************************/
1171:Generated_Source\PSoC4/CSD_SensingCSD_LL.c ****     uint32 CSD_SsCSDGetRowSnsClkDivider(uint32 wdgtIndex)
1172:Generated_Source\PSoC4/CSD_SensingCSD_LL.c ****     {
1173:Generated_Source\PSoC4/CSD_SensingCSD_LL.c ****         uint32 retVal;
1174:Generated_Source\PSoC4/CSD_SensingCSD_LL.c **** 
1175:Generated_Source\PSoC4/CSD_SensingCSD_LL.c ****         /* Get sense divider based on configuration */
1176:Generated_Source\PSoC4/CSD_SensingCSD_LL.c ****         #if (CSD_ENABLE != CSD_CSD_COMMON_SNS_CLK_EN)
1177:Generated_Source\PSoC4/CSD_SensingCSD_LL.c ****             CSD_RAM_WD_BASE_STRUCT *ptrWdgt;
1178:Generated_Source\PSoC4/CSD_SensingCSD_LL.c **** 
1179:Generated_Source\PSoC4/CSD_SensingCSD_LL.c ****             ptrWdgt = (CSD_RAM_WD_BASE_STRUCT *)
1180:Generated_Source\PSoC4/CSD_SensingCSD_LL.c ****             CSD_dsFlash.wdgtArray[wdgtIndex].ptr2WdgtRam;
1181:Generated_Source\PSoC4/CSD_SensingCSD_LL.c **** 
1182:Generated_Source\PSoC4/CSD_SensingCSD_LL.c ****             retVal = ptrWdgt->rowSnsClk;
1183:Generated_Source\PSoC4/CSD_SensingCSD_LL.c ****         #else
1184:Generated_Source\PSoC4/CSD_SensingCSD_LL.c ****             retVal = (uint32)CSD_dsRam.snsCsdClk;
1185:Generated_Source\PSoC4/CSD_SensingCSD_LL.c ****         #endif /* (CSD_ENABLE == CSD_CSD_COMMON_SNS_CLK_EN) */
1186:Generated_Source\PSoC4/CSD_SensingCSD_LL.c **** 
1187:Generated_Source\PSoC4/CSD_SensingCSD_LL.c ****         if(wdgtIndex == 0uL)
1188:Generated_Source\PSoC4/CSD_SensingCSD_LL.c ****         {
1189:Generated_Source\PSoC4/CSD_SensingCSD_LL.c ****             ;
1190:Generated_Source\PSoC4/CSD_SensingCSD_LL.c ****         }
1191:Generated_Source\PSoC4/CSD_SensingCSD_LL.c **** 
1192:Generated_Source\PSoC4/CSD_SensingCSD_LL.c ****         return (retVal);
1193:Generated_Source\PSoC4/CSD_SensingCSD_LL.c ****     }
1194:Generated_Source\PSoC4/CSD_SensingCSD_LL.c **** #endif /* (CSD_ENABLE == (CSD_CSD_MATRIX_WIDGET_EN | CSD_CSD_TOUCHPAD_WIDGET_EN)) */
ARM GAS  C:\Users\CHRIST~1\AppData\Local\Temp\ccGy5PUQ.s 			page 35


1195:Generated_Source\PSoC4/CSD_SensingCSD_LL.c **** 
1196:Generated_Source\PSoC4/CSD_SensingCSD_LL.c **** 
1197:Generated_Source\PSoC4/CSD_SensingCSD_LL.c **** /*******************************************************************************
1198:Generated_Source\PSoC4/CSD_SensingCSD_LL.c **** * Function Name: CSD_SsCSDConfigClock
1199:Generated_Source\PSoC4/CSD_SensingCSD_LL.c **** ****************************************************************************//**
1200:Generated_Source\PSoC4/CSD_SensingCSD_LL.c **** *
1201:Generated_Source\PSoC4/CSD_SensingCSD_LL.c **** * \brief
1202:Generated_Source\PSoC4/CSD_SensingCSD_LL.c **** *  This function configure sense clock for different modes.
1203:Generated_Source\PSoC4/CSD_SensingCSD_LL.c **** *
1204:Generated_Source\PSoC4/CSD_SensingCSD_LL.c **** * \details
1205:Generated_Source\PSoC4/CSD_SensingCSD_LL.c **** *  Function sets the clock divider and configures the mode based on configuration.
1206:Generated_Source\PSoC4/CSD_SensingCSD_LL.c **** *
1207:Generated_Source\PSoC4/CSD_SensingCSD_LL.c **** *******************************************************************************/
1208:Generated_Source\PSoC4/CSD_SensingCSD_LL.c **** void CSD_SsCSDConfigClock(void)
1209:Generated_Source\PSoC4/CSD_SensingCSD_LL.c **** {
 740              		.loc 1 1209 0
 741              		.cfi_startproc
 742 0000 80B5     		push	{r7, lr}
 743              		.cfi_def_cfa_offset 8
 744              		.cfi_offset 7, -8
 745              		.cfi_offset 14, -4
 746 0002 84B0     		sub	sp, sp, #16
 747              		.cfi_def_cfa_offset 24
 748 0004 00AF     		add	r7, sp, #0
 749              		.cfi_def_cfa_register 7
1210:Generated_Source\PSoC4/CSD_SensingCSD_LL.c ****     uint32 snsClkDivider;
1211:Generated_Source\PSoC4/CSD_SensingCSD_LL.c ****     uint32 newRegValue;
1212:Generated_Source\PSoC4/CSD_SensingCSD_LL.c **** 
1213:Generated_Source\PSoC4/CSD_SensingCSD_LL.c ****     #if ((CSD_DISABLE == CSD_CSD_COMMON_SNS_CLK_EN) || \
1214:Generated_Source\PSoC4/CSD_SensingCSD_LL.c ****          (CSD_CLK_SOURCE_PRSAUTO == CSD_CSD_SNS_CLK_SOURCE))
1215:Generated_Source\PSoC4/CSD_SensingCSD_LL.c ****         CSD_RAM_WD_BASE_STRUCT const *ptrWdgt = (CSD_RAM_WD_BASE_STRUCT *)
1216:Generated_Source\PSoC4/CSD_SensingCSD_LL.c ****                  CSD_dsFlash.wdgtArray[CSD_widgetIndex].ptr2WdgtRam;
 750              		.loc 1 1216 0
 751 0006 154B     		ldr	r3, .L43
 752 0008 1B78     		ldrb	r3, [r3]
 753 000a DBB2     		uxtb	r3, r3
 754 000c 191C     		mov	r1, r3
1215:Generated_Source\PSoC4/CSD_SensingCSD_LL.c ****                  CSD_dsFlash.wdgtArray[CSD_widgetIndex].ptr2WdgtRam;
 755              		.loc 1 1215 0
 756 000e 144A     		ldr	r2, .L43+4
 757 0010 0B1C     		mov	r3, r1
 758 0012 DB00     		lsl	r3, r3, #3
 759 0014 5B1A     		sub	r3, r3, r1
 760 0016 9B00     		lsl	r3, r3, #2
 761 0018 D318     		add	r3, r2, r3
 762 001a 5B68     		ldr	r3, [r3, #4]
 763 001c BB60     		str	r3, [r7, #8]
1217:Generated_Source\PSoC4/CSD_SensingCSD_LL.c ****     #endif /* ((CSD_DISABLE == CSD_CSD_COMMON_SNS_CLK_EN) || \
1218:Generated_Source\PSoC4/CSD_SensingCSD_LL.c ****                (CSD_CLK_SOURCE_PRSAUTO == CSD_CSD_SNS_CLK_SOURCE)) */
1219:Generated_Source\PSoC4/CSD_SensingCSD_LL.c **** 
1220:Generated_Source\PSoC4/CSD_SensingCSD_LL.c ****     /* Get sense divider based on configuration */
1221:Generated_Source\PSoC4/CSD_SensingCSD_LL.c ****     #if (CSD_ENABLE == CSD_CSD_COMMON_SNS_CLK_EN)
1222:Generated_Source\PSoC4/CSD_SensingCSD_LL.c ****         snsClkDivider = (uint32)CSD_dsRam.snsCsdClk;
1223:Generated_Source\PSoC4/CSD_SensingCSD_LL.c ****     #else
1224:Generated_Source\PSoC4/CSD_SensingCSD_LL.c ****         #if (CSD_ENABLE == (CSD_CSD_MATRIX_WIDGET_EN | \
1225:Generated_Source\PSoC4/CSD_SensingCSD_LL.c ****                                          CSD_CSD_TOUCHPAD_WIDGET_EN))
1226:Generated_Source\PSoC4/CSD_SensingCSD_LL.c ****             /*  Get SnsClck divider for rows or columns */
ARM GAS  C:\Users\CHRIST~1\AppData\Local\Temp\ccGy5PUQ.s 			page 36


1227:Generated_Source\PSoC4/CSD_SensingCSD_LL.c ****             if (CSD_dsFlash.wdgtArray[CSD_widgetIndex].numCols <= CSD_sensorIndex)
1228:Generated_Source\PSoC4/CSD_SensingCSD_LL.c ****             {
1229:Generated_Source\PSoC4/CSD_SensingCSD_LL.c ****                 snsClkDivider = (uint32)(ptrWdgt->rowSnsClk);
1230:Generated_Source\PSoC4/CSD_SensingCSD_LL.c ****             }
1231:Generated_Source\PSoC4/CSD_SensingCSD_LL.c ****             else
1232:Generated_Source\PSoC4/CSD_SensingCSD_LL.c ****             {
1233:Generated_Source\PSoC4/CSD_SensingCSD_LL.c ****                 snsClkDivider = (uint32)(ptrWdgt->snsClk);
1234:Generated_Source\PSoC4/CSD_SensingCSD_LL.c ****             }
1235:Generated_Source\PSoC4/CSD_SensingCSD_LL.c ****         #else
1236:Generated_Source\PSoC4/CSD_SensingCSD_LL.c ****             snsClkDivider = (uint32)(ptrWdgt->snsClk);
 764              		.loc 1 1236 0
 765 001e BB68     		ldr	r3, [r7, #8]
 766 0020 DB7A     		ldrb	r3, [r3, #11]
 767 0022 7B60     		str	r3, [r7, #4]
1237:Generated_Source\PSoC4/CSD_SensingCSD_LL.c ****         #endif /*  (CSD_ENABLE == (CSD_CSD_MATRIX_WIDGET_EN | \
1238:Generated_Source\PSoC4/CSD_SensingCSD_LL.c ****                                                 CSD_CSD_TOUCHPAD_WIDGET_EN)) */
1239:Generated_Source\PSoC4/CSD_SensingCSD_LL.c ****     #endif /* (CSD_ENABLE == CSD_CSD_COMMON_SNS_CLK_EN) */
1240:Generated_Source\PSoC4/CSD_SensingCSD_LL.c **** 
1241:Generated_Source\PSoC4/CSD_SensingCSD_LL.c ****     #if (CSD_CLK_SOURCE_PRSAUTO == CSD_CSD_SNS_CLK_SOURCE)
1242:Generated_Source\PSoC4/CSD_SensingCSD_LL.c ****         /* Get sense clk source calculated in CSD_SsCSDInitialize() before */
1243:Generated_Source\PSoC4/CSD_SensingCSD_LL.c ****         #if (CSD_ENABLE == (CSD_CSD_MATRIX_WIDGET_EN | \
1244:Generated_Source\PSoC4/CSD_SensingCSD_LL.c ****                                          CSD_CSD_TOUCHPAD_WIDGET_EN))
1245:Generated_Source\PSoC4/CSD_SensingCSD_LL.c ****             /*  Get SnsClc Source for rows or columns */
1246:Generated_Source\PSoC4/CSD_SensingCSD_LL.c ****             if (CSD_dsFlash.wdgtArray[CSD_widgetIndex].numCols <= CSD_sensorIndex)
1247:Generated_Source\PSoC4/CSD_SensingCSD_LL.c ****             {
1248:Generated_Source\PSoC4/CSD_SensingCSD_LL.c ****                 newRegValue = (uint32)ptrWdgt->rowSnsClkSource;
1249:Generated_Source\PSoC4/CSD_SensingCSD_LL.c ****             }
1250:Generated_Source\PSoC4/CSD_SensingCSD_LL.c ****             else
1251:Generated_Source\PSoC4/CSD_SensingCSD_LL.c ****             {
1252:Generated_Source\PSoC4/CSD_SensingCSD_LL.c ****                 newRegValue = (uint32)ptrWdgt->snsClkSource;
1253:Generated_Source\PSoC4/CSD_SensingCSD_LL.c ****             }
1254:Generated_Source\PSoC4/CSD_SensingCSD_LL.c ****         #else
1255:Generated_Source\PSoC4/CSD_SensingCSD_LL.c ****             newRegValue = (uint32)ptrWdgt->snsClkSource;
1256:Generated_Source\PSoC4/CSD_SensingCSD_LL.c ****         #endif /*  (CSD_ENABLE == (CSD_CSD_MATRIX_WIDGET_EN | \
1257:Generated_Source\PSoC4/CSD_SensingCSD_LL.c ****                                                 CSD_CSD_TOUCHPAD_WIDGET_EN)) */
1258:Generated_Source\PSoC4/CSD_SensingCSD_LL.c ****     #else
1259:Generated_Source\PSoC4/CSD_SensingCSD_LL.c ****         newRegValue = CSD_DEFAULT_MODULATION_MODE;
 768              		.loc 1 1259 0
 769 0024 0023     		mov	r3, #0
 770 0026 FB60     		str	r3, [r7, #12]
1260:Generated_Source\PSoC4/CSD_SensingCSD_LL.c ****     #endif /* (CSD_CLK_SOURCE_DIRECT == CSD_CSD_SNS_CLK_SOURCE) */
1261:Generated_Source\PSoC4/CSD_SensingCSD_LL.c **** 
1262:Generated_Source\PSoC4/CSD_SensingCSD_LL.c ****     #if (CSD_ENABLE == CSD_CSDV2)
1263:Generated_Source\PSoC4/CSD_SensingCSD_LL.c ****         if ((CSD_CLK_SOURCE_PRS8 == newRegValue) ||
 771              		.loc 1 1263 0
 772 0028 FB68     		ldr	r3, [r7, #12]
 773 002a 052B     		cmp	r3, #5
 774 002c 02D0     		beq	.L40
 775              		.loc 1 1263 0 is_stmt 0 discriminator 1
 776 002e FB68     		ldr	r3, [r7, #12]
 777 0030 062B     		cmp	r3, #6
 778 0032 06D1     		bne	.L41
 779              	.L40:
1264:Generated_Source\PSoC4/CSD_SensingCSD_LL.c ****             (CSD_CLK_SOURCE_PRS12 == newRegValue))
1265:Generated_Source\PSoC4/CSD_SensingCSD_LL.c ****         {
1266:Generated_Source\PSoC4/CSD_SensingCSD_LL.c ****             newRegValue = (newRegValue << CSD_SENSE_PERIOD_LFSR_SIZE_SHIFT) |
 780              		.loc 1 1266 0 is_stmt 1
ARM GAS  C:\Users\CHRIST~1\AppData\Local\Temp\ccGy5PUQ.s 			page 37


 781 0034 FB68     		ldr	r3, [r7, #12]
 782 0036 1B04     		lsl	r3, r3, #16
 783 0038 8022     		mov	r2, #128
 784 003a 9204     		lsl	r2, r2, #18
 785 003c 1343     		orr	r3, r2
 786 003e FB60     		str	r3, [r7, #12]
 787 0040 02E0     		b	.L42
 788              	.L41:
1267:Generated_Source\PSoC4/CSD_SensingCSD_LL.c ****                            CSD_SENSE_PERIOD_SEL_LFSR_MSB_MASK;
1268:Generated_Source\PSoC4/CSD_SensingCSD_LL.c ****         }
1269:Generated_Source\PSoC4/CSD_SensingCSD_LL.c ****         else
1270:Generated_Source\PSoC4/CSD_SensingCSD_LL.c ****         {
1271:Generated_Source\PSoC4/CSD_SensingCSD_LL.c ****             newRegValue = (newRegValue << CSD_SENSE_PERIOD_LFSR_SIZE_SHIFT);
 789              		.loc 1 1271 0
 790 0042 FB68     		ldr	r3, [r7, #12]
 791 0044 1B04     		lsl	r3, r3, #16
 792 0046 FB60     		str	r3, [r7, #12]
 793              	.L42:
1272:Generated_Source\PSoC4/CSD_SensingCSD_LL.c ****         }
1273:Generated_Source\PSoC4/CSD_SensingCSD_LL.c ****     #endif /* (CSD_CLK_SOURCE_DIRECT == CSD_CSD_SNS_CLK_SOURCE) */
1274:Generated_Source\PSoC4/CSD_SensingCSD_LL.c **** 
1275:Generated_Source\PSoC4/CSD_SensingCSD_LL.c ****     #if (CSD_CSD_SS_DIS != CSD_CSD_AUTOTUNE)
1276:Generated_Source\PSoC4/CSD_SensingCSD_LL.c ****         /* Use direct clock if pre-scalers have not been tuned */
1277:Generated_Source\PSoC4/CSD_SensingCSD_LL.c ****         if (CSD_ENABLE == CSD_prescalersTuningDone)
1278:Generated_Source\PSoC4/CSD_SensingCSD_LL.c ****         {
1279:Generated_Source\PSoC4/CSD_SensingCSD_LL.c ****             CSD_SsCSDSetModeSnsClockDivider(newRegValue, snsClkDivider);
1280:Generated_Source\PSoC4/CSD_SensingCSD_LL.c ****         }
1281:Generated_Source\PSoC4/CSD_SensingCSD_LL.c ****         else
1282:Generated_Source\PSoC4/CSD_SensingCSD_LL.c ****         {
1283:Generated_Source\PSoC4/CSD_SensingCSD_LL.c ****             CSD_SsSetSnsClockDivider(snsClkDivider);
1284:Generated_Source\PSoC4/CSD_SensingCSD_LL.c ****         }
1285:Generated_Source\PSoC4/CSD_SensingCSD_LL.c ****     #else
1286:Generated_Source\PSoC4/CSD_SensingCSD_LL.c ****         CSD_SsCSDSetModeSnsClockDivider(newRegValue, snsClkDivider);
 794              		.loc 1 1286 0
 795 0048 FA68     		ldr	r2, [r7, #12]
 796 004a 7B68     		ldr	r3, [r7, #4]
 797 004c 101C     		mov	r0, r2
 798 004e 191C     		mov	r1, r3
 799 0050 FFF7FEFF 		bl	CSD_SsCSDSetModeSnsClockDivider
1287:Generated_Source\PSoC4/CSD_SensingCSD_LL.c ****     #endif /* (CSD_CSD_SS_DIS != CSD_CSD_AUTOTUNE) */
1288:Generated_Source\PSoC4/CSD_SensingCSD_LL.c **** }
 800              		.loc 1 1288 0
 801 0054 BD46     		mov	sp, r7
 802 0056 04B0     		add	sp, sp, #16
 803              		@ sp needed
 804 0058 80BD     		pop	{r7, pc}
 805              	.L44:
 806 005a C046     		.align	2
 807              	.L43:
 808 005c 00000000 		.word	CSD_widgetIndex
 809 0060 00000000 		.word	CSD_dsFlash
 810              		.cfi_endproc
 811              	.LFE9:
 812              		.size	CSD_SsCSDConfigClock, .-CSD_SsCSDConfigClock
 813              		.section	.text.CSD_SsCSDSetModeSnsClockDivider,"ax",%progbits
 814              		.align	2
 815              		.code	16
ARM GAS  C:\Users\CHRIST~1\AppData\Local\Temp\ccGy5PUQ.s 			page 38


 816              		.thumb_func
 817              		.type	CSD_SsCSDSetModeSnsClockDivider, %function
 818              	CSD_SsCSDSetModeSnsClockDivider:
 819              	.LFB10:
1289:Generated_Source\PSoC4/CSD_SensingCSD_LL.c **** 
1290:Generated_Source\PSoC4/CSD_SensingCSD_LL.c **** 
1291:Generated_Source\PSoC4/CSD_SensingCSD_LL.c **** /*******************************************************************************
1292:Generated_Source\PSoC4/CSD_SensingCSD_LL.c **** * Function Name: CSD_SsCSDSetModeSnsClockDivider
1293:Generated_Source\PSoC4/CSD_SensingCSD_LL.c **** ****************************************************************************//**
1294:Generated_Source\PSoC4/CSD_SensingCSD_LL.c **** *
1295:Generated_Source\PSoC4/CSD_SensingCSD_LL.c **** * \brief
1296:Generated_Source\PSoC4/CSD_SensingCSD_LL.c **** *   Sets sense source and Sense Clock Divider
1297:Generated_Source\PSoC4/CSD_SensingCSD_LL.c **** *
1298:Generated_Source\PSoC4/CSD_SensingCSD_LL.c **** * \details
1299:Generated_Source\PSoC4/CSD_SensingCSD_LL.c **** *   For CSDv2: Updates CSD_SENSE_PERIOD register with
1300:Generated_Source\PSoC4/CSD_SensingCSD_LL.c **** *   sense source and Sense Clock Divider.
1301:Generated_Source\PSoC4/CSD_SensingCSD_LL.c **** *   For CSDv1: Updates CSD_configCsd variable with
1302:Generated_Source\PSoC4/CSD_SensingCSD_LL.c **** *   sense source and sets sense clock divider.
1303:Generated_Source\PSoC4/CSD_SensingCSD_LL.c **** *
1304:Generated_Source\PSoC4/CSD_SensingCSD_LL.c **** * \param
1305:Generated_Source\PSoC4/CSD_SensingCSD_LL.c **** *   snsClkSource The sense source for the sense clock.
1306:Generated_Source\PSoC4/CSD_SensingCSD_LL.c **** * \param
1307:Generated_Source\PSoC4/CSD_SensingCSD_LL.c **** *   snsClkDivider The divider value for the sense clock.
1308:Generated_Source\PSoC4/CSD_SensingCSD_LL.c **** *
1309:Generated_Source\PSoC4/CSD_SensingCSD_LL.c **** *******************************************************************************/
1310:Generated_Source\PSoC4/CSD_SensingCSD_LL.c **** static void CSD_SsCSDSetModeSnsClockDivider(uint32 snsClkSource, uint32 snsClkDivider)
1311:Generated_Source\PSoC4/CSD_SensingCSD_LL.c **** {
 820              		.loc 1 1311 0
 821              		.cfi_startproc
 822 0000 80B5     		push	{r7, lr}
 823              		.cfi_def_cfa_offset 8
 824              		.cfi_offset 7, -8
 825              		.cfi_offset 14, -4
 826 0002 82B0     		sub	sp, sp, #8
 827              		.cfi_def_cfa_offset 16
 828 0004 00AF     		add	r7, sp, #0
 829              		.cfi_def_cfa_register 7
 830 0006 7860     		str	r0, [r7, #4]
 831 0008 3960     		str	r1, [r7]
1312:Generated_Source\PSoC4/CSD_SensingCSD_LL.c ****     #if (CSD_ENABLE == CSD_CSDV2)
1313:Generated_Source\PSoC4/CSD_SensingCSD_LL.c ****         /* Update reg value with divider and configuration */
1314:Generated_Source\PSoC4/CSD_SensingCSD_LL.c ****         CY_SET_REG32(CSD_SENSE_PERIOD_PTR, snsClkSource | (snsClkDivider - 1u));
 832              		.loc 1 1314 0
 833 000a 044B     		ldr	r3, .L46
 834 000c 3A68     		ldr	r2, [r7]
 835 000e 511E     		sub	r1, r2, #1
 836 0010 7A68     		ldr	r2, [r7, #4]
 837 0012 0A43     		orr	r2, r1
 838 0014 1A60     		str	r2, [r3]
1315:Generated_Source\PSoC4/CSD_SensingCSD_LL.c ****     #else
1316:Generated_Source\PSoC4/CSD_SensingCSD_LL.c ****         /* Set configuration */
1317:Generated_Source\PSoC4/CSD_SensingCSD_LL.c ****         CSD_configCsd &= ~(CSD_CONFIG_PRS_SELECT_MASK | CSD_CSD_PRS_12_BIT);
1318:Generated_Source\PSoC4/CSD_SensingCSD_LL.c ****         CSD_configCsd |= snsClkSource;
1319:Generated_Source\PSoC4/CSD_SensingCSD_LL.c **** 
1320:Generated_Source\PSoC4/CSD_SensingCSD_LL.c ****         /* Set sense clock divider */
1321:Generated_Source\PSoC4/CSD_SensingCSD_LL.c ****         CSD_SsSetSnsClockDivider(snsClkDivider);
1322:Generated_Source\PSoC4/CSD_SensingCSD_LL.c ****     #endif /* (CSD_ENABLE == CSD_CSDV2) */
ARM GAS  C:\Users\CHRIST~1\AppData\Local\Temp\ccGy5PUQ.s 			page 39


1323:Generated_Source\PSoC4/CSD_SensingCSD_LL.c **** }
 839              		.loc 1 1323 0
 840 0016 BD46     		mov	sp, r7
 841 0018 02B0     		add	sp, sp, #8
 842              		@ sp needed
 843 001a 80BD     		pop	{r7, pc}
 844              	.L47:
 845              		.align	2
 846              	.L46:
 847 001c 00020C40 		.word	1074528768
 848              		.cfi_endproc
 849              	.LFE10:
 850              		.size	CSD_SsCSDSetModeSnsClockDivider, .-CSD_SsCSDSetModeSnsClockDivider
 851              		.section	.text.CSD_SsCSDCalculateScanDuration,"ax",%progbits
 852              		.align	2
 853              		.global	CSD_SsCSDCalculateScanDuration
 854              		.code	16
 855              		.thumb_func
 856              		.type	CSD_SsCSDCalculateScanDuration, %function
 857              	CSD_SsCSDCalculateScanDuration:
 858              	.LFB11:
1324:Generated_Source\PSoC4/CSD_SensingCSD_LL.c **** 
1325:Generated_Source\PSoC4/CSD_SensingCSD_LL.c **** 
1326:Generated_Source\PSoC4/CSD_SensingCSD_LL.c **** /*******************************************************************************
1327:Generated_Source\PSoC4/CSD_SensingCSD_LL.c **** * Function Name: CSD_SsCSDCalculateScanDuration
1328:Generated_Source\PSoC4/CSD_SensingCSD_LL.c **** ****************************************************************************//**
1329:Generated_Source\PSoC4/CSD_SensingCSD_LL.c **** *
1330:Generated_Source\PSoC4/CSD_SensingCSD_LL.c **** * \brief
1331:Generated_Source\PSoC4/CSD_SensingCSD_LL.c **** *   Calculates Scan Duration which is defined by scan resolution
1332:Generated_Source\PSoC4/CSD_SensingCSD_LL.c **** *
1333:Generated_Source\PSoC4/CSD_SensingCSD_LL.c **** * \details
1334:Generated_Source\PSoC4/CSD_SensingCSD_LL.c **** *   For CSDv2: The function calculates the number of conversions and updates
1335:Generated_Source\PSoC4/CSD_SensingCSD_LL.c **** *   SEQ_NORM_CNT register. The number of conversions depends on resolution and
1336:Generated_Source\PSoC4/CSD_SensingCSD_LL.c **** *   snsClk divider.
1337:Generated_Source\PSoC4/CSD_SensingCSD_LL.c **** *   For CSDv1: The function recalculate the resolution using following equation:
1338:Generated_Source\PSoC4/CSD_SensingCSD_LL.c **** *   2^resolution - 1. The calculated value is contained in
1339:Generated_Source\PSoC4/CSD_SensingCSD_LL.c **** *   CSD_counterResolution global variable and used in
1340:Generated_Source\PSoC4/CSD_SensingCSD_LL.c **** *   CSD_SsCSDStartSample() function to trigger the scan process.
1341:Generated_Source\PSoC4/CSD_SensingCSD_LL.c **** *
1342:Generated_Source\PSoC4/CSD_SensingCSD_LL.c **** * \param  wdgtIndex
1343:Generated_Source\PSoC4/CSD_SensingCSD_LL.c **** *  ptrWdgt The pointer to the RAM_WD_BASE_STRUCT structure.
1344:Generated_Source\PSoC4/CSD_SensingCSD_LL.c **** *
1345:Generated_Source\PSoC4/CSD_SensingCSD_LL.c **** *******************************************************************************/
1346:Generated_Source\PSoC4/CSD_SensingCSD_LL.c **** void CSD_SsCSDCalculateScanDuration(CSD_RAM_WD_BASE_STRUCT const *ptrWdgt)
1347:Generated_Source\PSoC4/CSD_SensingCSD_LL.c **** {
 859              		.loc 1 1347 0
 860              		.cfi_startproc
 861 0000 80B5     		push	{r7, lr}
 862              		.cfi_def_cfa_offset 8
 863              		.cfi_offset 7, -8
 864              		.cfi_offset 14, -4
 865 0002 84B0     		sub	sp, sp, #16
 866              		.cfi_def_cfa_offset 24
 867 0004 00AF     		add	r7, sp, #0
 868              		.cfi_def_cfa_register 7
 869 0006 7860     		str	r0, [r7, #4]
1348:Generated_Source\PSoC4/CSD_SensingCSD_LL.c ****     #if (CSD_ENABLE == CSD_CSDV2)
ARM GAS  C:\Users\CHRIST~1\AppData\Local\Temp\ccGy5PUQ.s 			page 40


1349:Generated_Source\PSoC4/CSD_SensingCSD_LL.c ****         uint32 conversionsNum;
1350:Generated_Source\PSoC4/CSD_SensingCSD_LL.c ****         uint32 snsClkDivider;
1351:Generated_Source\PSoC4/CSD_SensingCSD_LL.c **** 
1352:Generated_Source\PSoC4/CSD_SensingCSD_LL.c ****         /* Get Number Of Conversions */
1353:Generated_Source\PSoC4/CSD_SensingCSD_LL.c ****         #if (CSD_ENABLE == CSD_CSD_COMMON_SNS_CLK_EN)
1354:Generated_Source\PSoC4/CSD_SensingCSD_LL.c ****             snsClkDivider = CSD_dsRam.snsCsdClk;
1355:Generated_Source\PSoC4/CSD_SensingCSD_LL.c ****         #else
1356:Generated_Source\PSoC4/CSD_SensingCSD_LL.c ****             #if (CSD_ENABLE == (CSD_CSD_MATRIX_WIDGET_EN | CSD_CSD_TOUCHPAD_WIDGET_EN))
1357:Generated_Source\PSoC4/CSD_SensingCSD_LL.c ****                 /*  Get SnsClck divider for rows or columns */
1358:Generated_Source\PSoC4/CSD_SensingCSD_LL.c ****                 if (CSD_dsFlash.wdgtArray[CSD_widgetIndex].numCols <= CSD_sensorIndex)
1359:Generated_Source\PSoC4/CSD_SensingCSD_LL.c ****                 {
1360:Generated_Source\PSoC4/CSD_SensingCSD_LL.c ****                     snsClkDivider = (uint32)(ptrWdgt->rowSnsClk);
1361:Generated_Source\PSoC4/CSD_SensingCSD_LL.c ****                 }
1362:Generated_Source\PSoC4/CSD_SensingCSD_LL.c ****                 else
1363:Generated_Source\PSoC4/CSD_SensingCSD_LL.c ****                 {
1364:Generated_Source\PSoC4/CSD_SensingCSD_LL.c ****                     snsClkDivider = (uint32)(ptrWdgt->snsClk);
1365:Generated_Source\PSoC4/CSD_SensingCSD_LL.c ****                 }
1366:Generated_Source\PSoC4/CSD_SensingCSD_LL.c ****             #else
1367:Generated_Source\PSoC4/CSD_SensingCSD_LL.c ****                 snsClkDivider = (uint32)(ptrWdgt->snsClk);
 870              		.loc 1 1367 0
 871 0008 7B68     		ldr	r3, [r7, #4]
 872 000a DB7A     		ldrb	r3, [r3, #11]
 873 000c FB60     		str	r3, [r7, #12]
1368:Generated_Source\PSoC4/CSD_SensingCSD_LL.c ****             #endif /*  (CSD_ENABLE == (CSD_CSD_MATRIX_WIDGET_EN | CSD_CSD_TOUCHPAD_WIDGET_EN)) */
1369:Generated_Source\PSoC4/CSD_SensingCSD_LL.c ****         #endif /* (CSD_ENABLE == CSD_CSDV2) */
1370:Generated_Source\PSoC4/CSD_SensingCSD_LL.c **** 
1371:Generated_Source\PSoC4/CSD_SensingCSD_LL.c ****         conversionsNum = CSD_SsCSDGetNumberOfConversions(snsClkDivider, (uint32)ptrWdgt->resolution
 874              		.loc 1 1371 0
 875 000e 7B68     		ldr	r3, [r7, #4]
 876 0010 1B88     		ldrh	r3, [r3]
 877 0012 1A1C     		mov	r2, r3
 878 0014 FB68     		ldr	r3, [r7, #12]
 879 0016 181C     		mov	r0, r3
 880 0018 111C     		mov	r1, r2
 881 001a FFF7FEFF 		bl	CSD_SsCSDGetNumberOfConversions
 882 001e 031C     		mov	r3, r0
 883 0020 BB60     		str	r3, [r7, #8]
1372:Generated_Source\PSoC4/CSD_SensingCSD_LL.c **** 
1373:Generated_Source\PSoC4/CSD_SensingCSD_LL.c ****         /* Set Number Of Conversions based on scanning resolution */
1374:Generated_Source\PSoC4/CSD_SensingCSD_LL.c ****         CY_SET_REG32(CSD_SEQ_NORM_CNT_PTR, (conversionsNum & CSD_SEQ_NORM_CNT_CONV_CNT_MASK));
 884              		.loc 1 1374 0
 885 0022 044B     		ldr	r3, .L49
 886 0024 BA68     		ldr	r2, [r7, #8]
 887 0026 1204     		lsl	r2, r2, #16
 888 0028 120C     		lsr	r2, r2, #16
 889 002a 1A60     		str	r2, [r3]
1375:Generated_Source\PSoC4/CSD_SensingCSD_LL.c ****     #else
1376:Generated_Source\PSoC4/CSD_SensingCSD_LL.c ****         /*  Set up scanning resolution  */
1377:Generated_Source\PSoC4/CSD_SensingCSD_LL.c ****         CSD_counterResolution = (uint32)((0x00000001Lu << ptrWdgt->resolution) - 1u) << CSD_RESOLUT
1378:Generated_Source\PSoC4/CSD_SensingCSD_LL.c ****     #endif /* (CSD_ENABLE == CSD_CSDV2) */
1379:Generated_Source\PSoC4/CSD_SensingCSD_LL.c **** }
 890              		.loc 1 1379 0
 891 002c BD46     		mov	sp, r7
 892 002e 04B0     		add	sp, sp, #16
 893              		@ sp needed
 894 0030 80BD     		pop	{r7, pc}
 895              	.L50:
ARM GAS  C:\Users\CHRIST~1\AppData\Local\Temp\ccGy5PUQ.s 			page 41


 896 0032 C046     		.align	2
 897              	.L49:
 898 0034 14030C40 		.word	1074529044
 899              		.cfi_endproc
 900              	.LFE11:
 901              		.size	CSD_SsCSDCalculateScanDuration, .-CSD_SsCSDCalculateScanDuration
 902              		.section	.text.CSD_CSDSetupWidget,"ax",%progbits
 903              		.align	2
 904              		.global	CSD_CSDSetupWidget
 905              		.code	16
 906              		.thumb_func
 907              		.type	CSD_CSDSetupWidget, %function
 908              	CSD_CSDSetupWidget:
 909              	.LFB12:
1380:Generated_Source\PSoC4/CSD_SensingCSD_LL.c **** 
1381:Generated_Source\PSoC4/CSD_SensingCSD_LL.c **** 
1382:Generated_Source\PSoC4/CSD_SensingCSD_LL.c **** /*******************************************************************************
1383:Generated_Source\PSoC4/CSD_SensingCSD_LL.c **** * Function Name: CSD_CSDSetupWidget
1384:Generated_Source\PSoC4/CSD_SensingCSD_LL.c **** ****************************************************************************//**
1385:Generated_Source\PSoC4/CSD_SensingCSD_LL.c **** *
1386:Generated_Source\PSoC4/CSD_SensingCSD_LL.c **** * \brief
1387:Generated_Source\PSoC4/CSD_SensingCSD_LL.c **** *  Performs hardware and firmware initialization required for scanning sensors
1388:Generated_Source\PSoC4/CSD_SensingCSD_LL.c **** *  in a specific widget using the CSD sensing method. The
1389:Generated_Source\PSoC4/CSD_SensingCSD_LL.c **** *  CSD_CSDScan() function should be used to start scanning when
1390:Generated_Source\PSoC4/CSD_SensingCSD_LL.c **** *  using this function.
1391:Generated_Source\PSoC4/CSD_SensingCSD_LL.c **** *
1392:Generated_Source\PSoC4/CSD_SensingCSD_LL.c **** * \details
1393:Generated_Source\PSoC4/CSD_SensingCSD_LL.c **** *  This function initializes the specific widget common parameters to perform
1394:Generated_Source\PSoC4/CSD_SensingCSD_LL.c **** *  the CSD scanning. The initialization includes setting up a Modulator and
1395:Generated_Source\PSoC4/CSD_SensingCSD_LL.c **** *  Sense clock frequency and scanning resolution.
1396:Generated_Source\PSoC4/CSD_SensingCSD_LL.c **** *
1397:Generated_Source\PSoC4/CSD_SensingCSD_LL.c **** *  This function does not connect any specific sensors to the scanning hardware
1398:Generated_Source\PSoC4/CSD_SensingCSD_LL.c **** *  and also does not start a scanning process. The CSD_CSDScan()
1399:Generated_Source\PSoC4/CSD_SensingCSD_LL.c **** *  API must be called after initializing the widget to start scanning.
1400:Generated_Source\PSoC4/CSD_SensingCSD_LL.c **** *
1401:Generated_Source\PSoC4/CSD_SensingCSD_LL.c **** *  This function should be called when no scanning in progress. I.e.
1402:Generated_Source\PSoC4/CSD_SensingCSD_LL.c **** *  CSD_IsBusy() returns a non-busy status.
1403:Generated_Source\PSoC4/CSD_SensingCSD_LL.c **** *
1404:Generated_Source\PSoC4/CSD_SensingCSD_LL.c **** *  This function is called by the CSD_SetupWidget() API if the
1405:Generated_Source\PSoC4/CSD_SensingCSD_LL.c **** *  given widget uses the CSD sensing method.
1406:Generated_Source\PSoC4/CSD_SensingCSD_LL.c **** *
1407:Generated_Source\PSoC4/CSD_SensingCSD_LL.c **** *  It is not recommended to call this function directly from the application
1408:Generated_Source\PSoC4/CSD_SensingCSD_LL.c **** *  layer. This function should be used to implement only the users specific
1409:Generated_Source\PSoC4/CSD_SensingCSD_LL.c **** *  use cases (for faster execution time or pipeline scanning for example).
1410:Generated_Source\PSoC4/CSD_SensingCSD_LL.c **** *
1411:Generated_Source\PSoC4/CSD_SensingCSD_LL.c **** * \param  wdgtIndex
1412:Generated_Source\PSoC4/CSD_SensingCSD_LL.c **** *  Specify the ID number of the widget to perform hardware and firmware
1413:Generated_Source\PSoC4/CSD_SensingCSD_LL.c **** *  initialization required for scanning sensors in the specific widget.
1414:Generated_Source\PSoC4/CSD_SensingCSD_LL.c **** *  A macro for the widget ID can be found in CSD_Configuration.h
1415:Generated_Source\PSoC4/CSD_SensingCSD_LL.c **** *  file defined as CSD_<WidgetName>_WDGT_ID.
1416:Generated_Source\PSoC4/CSD_SensingCSD_LL.c **** *
1417:Generated_Source\PSoC4/CSD_SensingCSD_LL.c **** *******************************************************************************/
1418:Generated_Source\PSoC4/CSD_SensingCSD_LL.c **** void CSD_CSDSetupWidget(uint32 wdgtIndex)
1419:Generated_Source\PSoC4/CSD_SensingCSD_LL.c **** {
 910              		.loc 1 1419 0
 911              		.cfi_startproc
 912 0000 80B5     		push	{r7, lr}
ARM GAS  C:\Users\CHRIST~1\AppData\Local\Temp\ccGy5PUQ.s 			page 42


 913              		.cfi_def_cfa_offset 8
 914              		.cfi_offset 7, -8
 915              		.cfi_offset 14, -4
 916 0002 84B0     		sub	sp, sp, #16
 917              		.cfi_def_cfa_offset 24
 918 0004 00AF     		add	r7, sp, #0
 919              		.cfi_def_cfa_register 7
 920 0006 7860     		str	r0, [r7, #4]
1420:Generated_Source\PSoC4/CSD_SensingCSD_LL.c **** 
1421:Generated_Source\PSoC4/CSD_SensingCSD_LL.c ****     CSD_RAM_WD_BASE_STRUCT const *ptrWdgt = (CSD_RAM_WD_BASE_STRUCT *)
 921              		.loc 1 1421 0
 922 0008 1949     		ldr	r1, .L52
 923 000a 7A68     		ldr	r2, [r7, #4]
 924 000c 131C     		mov	r3, r2
 925 000e DB00     		lsl	r3, r3, #3
 926 0010 9B1A     		sub	r3, r3, r2
 927 0012 9B00     		lsl	r3, r3, #2
 928 0014 CB18     		add	r3, r1, r3
 929 0016 5B68     		ldr	r3, [r3, #4]
 930 0018 FB60     		str	r3, [r7, #12]
1422:Generated_Source\PSoC4/CSD_SensingCSD_LL.c ****                                                     CSD_dsFlash.wdgtArray[wdgtIndex].ptr2WdgtRam;
1423:Generated_Source\PSoC4/CSD_SensingCSD_LL.c **** 
1424:Generated_Source\PSoC4/CSD_SensingCSD_LL.c ****     #if ((CSD_ENABLE == CSD_CSD_CSX_EN) || \
1425:Generated_Source\PSoC4/CSD_SensingCSD_LL.c ****         (CSD_ENABLE == CSD_ADC_EN))
1426:Generated_Source\PSoC4/CSD_SensingCSD_LL.c ****          CSD_SsSwitchSensingMode(CSD_SENSE_METHOD_CSD_E);
1427:Generated_Source\PSoC4/CSD_SensingCSD_LL.c ****     #endif /* ((CSD_ENABLE == CSD_CSD_CSX_EN) || \
1428:Generated_Source\PSoC4/CSD_SensingCSD_LL.c ****                (CSD_ENABLE == CSD_ADC_EN)) */
1429:Generated_Source\PSoC4/CSD_SensingCSD_LL.c **** 
1430:Generated_Source\PSoC4/CSD_SensingCSD_LL.c ****     /* Disconnect previous electrode if it has been connected */
1431:Generated_Source\PSoC4/CSD_SensingCSD_LL.c ****     CSD_SsCSDElectrodeCheck();
 931              		.loc 1 1431 0
 932 001a FFF7FEFF 		bl	CSD_SsCSDElectrodeCheck
1432:Generated_Source\PSoC4/CSD_SensingCSD_LL.c **** 
1433:Generated_Source\PSoC4/CSD_SensingCSD_LL.c ****     /* Save widget Id to have assess to it after scanning  */
1434:Generated_Source\PSoC4/CSD_SensingCSD_LL.c ****     CSD_widgetIndex = (uint8)wdgtIndex;
 933              		.loc 1 1434 0
 934 001e 7B68     		ldr	r3, [r7, #4]
 935 0020 DAB2     		uxtb	r2, r3
 936 0022 144B     		ldr	r3, .L52+4
 937 0024 1A70     		strb	r2, [r3]
1435:Generated_Source\PSoC4/CSD_SensingCSD_LL.c **** 
1436:Generated_Source\PSoC4/CSD_SensingCSD_LL.c ****     /* Initialize IO Sns electrode structure pointer to current widget */
1437:Generated_Source\PSoC4/CSD_SensingCSD_LL.c ****     CSD_curSnsIOPtr = (CSD_FLASH_IO_STRUCT const *)
1438:Generated_Source\PSoC4/CSD_SensingCSD_LL.c ****                                     CSD_dsFlash.wdgtArray[CSD_widgetIndex].ptr2SnsFlash;
 938              		.loc 1 1438 0
 939 0026 134B     		ldr	r3, .L52+4
 940 0028 1B78     		ldrb	r3, [r3]
 941 002a DBB2     		uxtb	r3, r3
 942 002c 191C     		mov	r1, r3
 943 002e 104A     		ldr	r2, .L52
 944 0030 0B1C     		mov	r3, r1
 945 0032 DB00     		lsl	r3, r3, #3
 946 0034 5B1A     		sub	r3, r3, r1
 947 0036 9B00     		lsl	r3, r3, #2
 948 0038 9A58     		ldr	r2, [r3, r2]
1437:Generated_Source\PSoC4/CSD_SensingCSD_LL.c ****                                     CSD_dsFlash.wdgtArray[CSD_widgetIndex].ptr2SnsFlash;
 949              		.loc 1 1437 0
ARM GAS  C:\Users\CHRIST~1\AppData\Local\Temp\ccGy5PUQ.s 			page 43


 950 003a 0F4B     		ldr	r3, .L52+8
 951 003c 1A60     		str	r2, [r3]
1439:Generated_Source\PSoC4/CSD_SensingCSD_LL.c **** 
1440:Generated_Source\PSoC4/CSD_SensingCSD_LL.c ****     /* Update status register in Data structure */
1441:Generated_Source\PSoC4/CSD_SensingCSD_LL.c ****     CSD_dsRam.status &= ~CSD_STATUS_WDGT0_MASK;
 952              		.loc 1 1441 0
 953 003e 0F4B     		ldr	r3, .L52+12
 954 0040 9B68     		ldr	r3, [r3, #8]
 955 0042 7F22     		mov	r2, #127
 956 0044 9343     		bic	r3, r2
 957 0046 1A1C     		mov	r2, r3
 958 0048 0C4B     		ldr	r3, .L52+12
 959 004a 9A60     		str	r2, [r3, #8]
1442:Generated_Source\PSoC4/CSD_SensingCSD_LL.c ****     CSD_dsRam.status |= CSD_widgetIndex;
 960              		.loc 1 1442 0
 961 004c 094B     		ldr	r3, .L52+4
 962 004e 1B78     		ldrb	r3, [r3]
 963 0050 DAB2     		uxtb	r2, r3
 964 0052 0A4B     		ldr	r3, .L52+12
 965 0054 9B68     		ldr	r3, [r3, #8]
 966 0056 1A43     		orr	r2, r3
 967 0058 084B     		ldr	r3, .L52+12
 968 005a 9A60     		str	r2, [r3, #8]
1443:Generated_Source\PSoC4/CSD_SensingCSD_LL.c **** 
1444:Generated_Source\PSoC4/CSD_SensingCSD_LL.c ****     /* Set up scanning resolution (Number ofconversion for CSDv2) */
1445:Generated_Source\PSoC4/CSD_SensingCSD_LL.c ****     CSD_SsCSDCalculateScanDuration(ptrWdgt);
 969              		.loc 1 1445 0
 970 005c FB68     		ldr	r3, [r7, #12]
 971 005e 181C     		mov	r0, r3
 972 0060 FFF7FEFF 		bl	CSD_SsCSDCalculateScanDuration
1446:Generated_Source\PSoC4/CSD_SensingCSD_LL.c **** 
1447:Generated_Source\PSoC4/CSD_SensingCSD_LL.c ****     #if ((CSD_DISABLE == CSD_CSD_COMMON_SNS_CLK_EN) ||\
1448:Generated_Source\PSoC4/CSD_SensingCSD_LL.c ****          (CSD_CLK_SOURCE_DIRECT != CSD_CSD_SNS_CLK_SOURCE))
1449:Generated_Source\PSoC4/CSD_SensingCSD_LL.c ****         CSD_SsCSDConfigClock();
 973              		.loc 1 1449 0
 974 0064 FFF7FEFF 		bl	CSD_SsCSDConfigClock
1450:Generated_Source\PSoC4/CSD_SensingCSD_LL.c ****     #endif /* ((CSD_DISABLE == CSD_CSD_COMMON_SNS_CLK_EN) ||\
1451:Generated_Source\PSoC4/CSD_SensingCSD_LL.c ****                (CSD_CLK_SOURCE_DIRECT != CSD_CSD_SNS_CLK_SOURCE)) */
1452:Generated_Source\PSoC4/CSD_SensingCSD_LL.c **** }
 975              		.loc 1 1452 0
 976 0068 BD46     		mov	sp, r7
 977 006a 04B0     		add	sp, sp, #16
 978              		@ sp needed
 979 006c 80BD     		pop	{r7, pc}
 980              	.L53:
 981 006e C046     		.align	2
 982              	.L52:
 983 0070 00000000 		.word	CSD_dsFlash
 984 0074 00000000 		.word	CSD_widgetIndex
 985 0078 00000000 		.word	CSD_curSnsIOPtr
 986 007c 00000000 		.word	CSD_dsRam
 987              		.cfi_endproc
 988              	.LFE12:
 989              		.size	CSD_CSDSetupWidget, .-CSD_CSDSetupWidget
 990              		.section	.text.CSD_CSDSetupWidgetExt,"ax",%progbits
 991              		.align	2
 992              		.global	CSD_CSDSetupWidgetExt
ARM GAS  C:\Users\CHRIST~1\AppData\Local\Temp\ccGy5PUQ.s 			page 44


 993              		.code	16
 994              		.thumb_func
 995              		.type	CSD_CSDSetupWidgetExt, %function
 996              	CSD_CSDSetupWidgetExt:
 997              	.LFB13:
1453:Generated_Source\PSoC4/CSD_SensingCSD_LL.c **** 
1454:Generated_Source\PSoC4/CSD_SensingCSD_LL.c **** 
1455:Generated_Source\PSoC4/CSD_SensingCSD_LL.c **** /*******************************************************************************
1456:Generated_Source\PSoC4/CSD_SensingCSD_LL.c **** * Function Name: CSD_CSDSetupWidgetExt
1457:Generated_Source\PSoC4/CSD_SensingCSD_LL.c **** ****************************************************************************//**
1458:Generated_Source\PSoC4/CSD_SensingCSD_LL.c **** *
1459:Generated_Source\PSoC4/CSD_SensingCSD_LL.c **** * \brief
1460:Generated_Source\PSoC4/CSD_SensingCSD_LL.c **** *  Performs extended initialization for the CSD widget and also performs
1461:Generated_Source\PSoC4/CSD_SensingCSD_LL.c **** *  initialization required for a specific sensor in the widget. The
1462:Generated_Source\PSoC4/CSD_SensingCSD_LL.c **** *  CSD_CSXScanExt() function should be called to initiate a scan
1463:Generated_Source\PSoC4/CSD_SensingCSD_LL.c **** *  when using this function.
1464:Generated_Source\PSoC4/CSD_SensingCSD_LL.c **** *
1465:Generated_Source\PSoC4/CSD_SensingCSD_LL.c **** * \details
1466:Generated_Source\PSoC4/CSD_SensingCSD_LL.c **** *  This function does the same as CSD_CSDSetupWidget() and also
1467:Generated_Source\PSoC4/CSD_SensingCSD_LL.c **** *  the following tasks:
1468:Generated_Source\PSoC4/CSD_SensingCSD_LL.c **** *    1. Connects the first sensor of the widget.
1469:Generated_Source\PSoC4/CSD_SensingCSD_LL.c **** *    2. Configures the IDAC value.
1470:Generated_Source\PSoC4/CSD_SensingCSD_LL.c **** *    3. Initializes an interrupt callback function to initialize a scan of the
1471:Generated_Source\PSoC4/CSD_SensingCSD_LL.c **** *  next sensors in a widget.
1472:Generated_Source\PSoC4/CSD_SensingCSD_LL.c **** *
1473:Generated_Source\PSoC4/CSD_SensingCSD_LL.c **** *  Once this function is called to initialize a widget and a sensor, the
1474:Generated_Source\PSoC4/CSD_SensingCSD_LL.c **** *  CSD_CSDScanExt() function should be called to scan the sensor.
1475:Generated_Source\PSoC4/CSD_SensingCSD_LL.c **** *
1476:Generated_Source\PSoC4/CSD_SensingCSD_LL.c **** *  This function should be called when no scanning in progress. I.e.
1477:Generated_Source\PSoC4/CSD_SensingCSD_LL.c **** *  CSD_IsBusy() returns a non-busy status.
1478:Generated_Source\PSoC4/CSD_SensingCSD_LL.c **** *
1479:Generated_Source\PSoC4/CSD_SensingCSD_LL.c **** *  It is not recommended to call this function directly from the application
1480:Generated_Source\PSoC4/CSD_SensingCSD_LL.c **** *  layer. This function should be used to implement only the users specific
1481:Generated_Source\PSoC4/CSD_SensingCSD_LL.c **** *  use cases (for faster execution time or pipeline scanning for example).
1482:Generated_Source\PSoC4/CSD_SensingCSD_LL.c **** *
1483:Generated_Source\PSoC4/CSD_SensingCSD_LL.c **** * \param  wdgtIndex
1484:Generated_Source\PSoC4/CSD_SensingCSD_LL.c **** *  Specify the ID number of the widget to perform hardware and firmware
1485:Generated_Source\PSoC4/CSD_SensingCSD_LL.c **** *  initialization required for scanning the specific sensor in the specific
1486:Generated_Source\PSoC4/CSD_SensingCSD_LL.c **** *  widget.
1487:Generated_Source\PSoC4/CSD_SensingCSD_LL.c **** *  A macro for the widget ID can be found in CSD_Configuration.h
1488:Generated_Source\PSoC4/CSD_SensingCSD_LL.c **** *  file defined as CSD_<WidgetName>_WDGT_ID.
1489:Generated_Source\PSoC4/CSD_SensingCSD_LL.c **** *
1490:Generated_Source\PSoC4/CSD_SensingCSD_LL.c **** * \param snsIndex
1491:Generated_Source\PSoC4/CSD_SensingCSD_LL.c **** *  Specify the ID number of the sensor within the widget to perform hardware
1492:Generated_Source\PSoC4/CSD_SensingCSD_LL.c **** *  and firmware initialization required for scanning a specific sensor in a
1493:Generated_Source\PSoC4/CSD_SensingCSD_LL.c **** *  specific widget.
1494:Generated_Source\PSoC4/CSD_SensingCSD_LL.c **** *  A macro for the sensor ID within a specified widget can be found in the
1495:Generated_Source\PSoC4/CSD_SensingCSD_LL.c **** *  CSD_Configuration.h file defined as
1496:Generated_Source\PSoC4/CSD_SensingCSD_LL.c **** *  CSD_<WidgetName>_SNS<SensorNumber>_ID
1497:Generated_Source\PSoC4/CSD_SensingCSD_LL.c **** *
1498:Generated_Source\PSoC4/CSD_SensingCSD_LL.c **** *******************************************************************************/
1499:Generated_Source\PSoC4/CSD_SensingCSD_LL.c **** void CSD_CSDSetupWidgetExt(uint32 wdgtIndex, uint32 snsIndex)
1500:Generated_Source\PSoC4/CSD_SensingCSD_LL.c **** {
 998              		.loc 1 1500 0
 999              		.cfi_startproc
 1000 0000 80B5     		push	{r7, lr}
 1001              		.cfi_def_cfa_offset 8
ARM GAS  C:\Users\CHRIST~1\AppData\Local\Temp\ccGy5PUQ.s 			page 45


 1002              		.cfi_offset 7, -8
 1003              		.cfi_offset 14, -4
 1004 0002 84B0     		sub	sp, sp, #16
 1005              		.cfi_def_cfa_offset 24
 1006 0004 00AF     		add	r7, sp, #0
 1007              		.cfi_def_cfa_register 7
 1008 0006 7860     		str	r0, [r7, #4]
 1009 0008 3960     		str	r1, [r7]
1501:Generated_Source\PSoC4/CSD_SensingCSD_LL.c ****     CSD_RAM_WD_BASE_STRUCT const *ptrWdgt = (CSD_RAM_WD_BASE_STRUCT *)
 1010              		.loc 1 1501 0
 1011 000a 2249     		ldr	r1, .L55
 1012 000c 7A68     		ldr	r2, [r7, #4]
 1013 000e 131C     		mov	r3, r2
 1014 0010 DB00     		lsl	r3, r3, #3
 1015 0012 9B1A     		sub	r3, r3, r2
 1016 0014 9B00     		lsl	r3, r3, #2
 1017 0016 CB18     		add	r3, r1, r3
 1018 0018 5B68     		ldr	r3, [r3, #4]
 1019 001a FB60     		str	r3, [r7, #12]
1502:Generated_Source\PSoC4/CSD_SensingCSD_LL.c ****                                                     CSD_dsFlash.wdgtArray[wdgtIndex].ptr2WdgtRam;
1503:Generated_Source\PSoC4/CSD_SensingCSD_LL.c **** 
1504:Generated_Source\PSoC4/CSD_SensingCSD_LL.c ****     /* Save widget and sensor Ids to have access to it after scanning  */
1505:Generated_Source\PSoC4/CSD_SensingCSD_LL.c ****     CSD_sensorIndex = (uint8)snsIndex;
 1020              		.loc 1 1505 0
 1021 001c 3B68     		ldr	r3, [r7]
 1022 001e DAB2     		uxtb	r2, r3
 1023 0020 1D4B     		ldr	r3, .L55+4
 1024 0022 1A70     		strb	r2, [r3]
1506:Generated_Source\PSoC4/CSD_SensingCSD_LL.c **** 
1507:Generated_Source\PSoC4/CSD_SensingCSD_LL.c ****     /*  Update global pointer to CSD_RAM_SNS_STRUCT to current sensor  */
1508:Generated_Source\PSoC4/CSD_SensingCSD_LL.c ****     CSD_curRamSnsPtr = (CSD_RAM_SNS_STRUCT *)
1509:Generated_Source\PSoC4/CSD_SensingCSD_LL.c ****                                               CSD_dsFlash.wdgtArray[wdgtIndex].ptr2SnsRam
 1025              		.loc 1 1509 0
 1026 0024 1B49     		ldr	r1, .L55
 1027 0026 7A68     		ldr	r2, [r7, #4]
 1028 0028 131C     		mov	r3, r2
 1029 002a DB00     		lsl	r3, r3, #3
 1030 002c 9B1A     		sub	r3, r3, r2
 1031 002e 9B00     		lsl	r3, r3, #2
 1032 0030 CB18     		add	r3, r1, r3
 1033 0032 0833     		add	r3, r3, #8
 1034 0034 1A68     		ldr	r2, [r3]
1510:Generated_Source\PSoC4/CSD_SensingCSD_LL.c ****                                               + CSD_sensorIndex;
 1035              		.loc 1 1510 0
 1036 0036 184B     		ldr	r3, .L55+4
 1037 0038 1B78     		ldrb	r3, [r3]
 1038 003a DBB2     		uxtb	r3, r3
 1039 003c 191C     		mov	r1, r3
 1040 003e 0B1C     		mov	r3, r1
 1041 0040 9B00     		lsl	r3, r3, #2
 1042 0042 5B18     		add	r3, r3, r1
 1043 0044 5B00     		lsl	r3, r3, #1
 1044 0046 D218     		add	r2, r2, r3
1508:Generated_Source\PSoC4/CSD_SensingCSD_LL.c ****                                               CSD_dsFlash.wdgtArray[wdgtIndex].ptr2SnsRam
 1045              		.loc 1 1508 0
 1046 0048 144B     		ldr	r3, .L55+8
 1047 004a 1A60     		str	r2, [r3]
ARM GAS  C:\Users\CHRIST~1\AppData\Local\Temp\ccGy5PUQ.s 			page 46


1511:Generated_Source\PSoC4/CSD_SensingCSD_LL.c **** 
1512:Generated_Source\PSoC4/CSD_SensingCSD_LL.c ****     CSD_CSDSetupWidget(wdgtIndex);
 1048              		.loc 1 1512 0
 1049 004c 7B68     		ldr	r3, [r7, #4]
 1050 004e 181C     		mov	r0, r3
 1051 0050 FFF7FEFF 		bl	CSD_CSDSetupWidget
1513:Generated_Source\PSoC4/CSD_SensingCSD_LL.c **** 
1514:Generated_Source\PSoC4/CSD_SensingCSD_LL.c ****      /* Setup Idac Value */
1515:Generated_Source\PSoC4/CSD_SensingCSD_LL.c ****     CSD_SsCSDSetUpIdacs(ptrWdgt);
 1052              		.loc 1 1515 0
 1053 0054 FB68     		ldr	r3, [r7, #12]
 1054 0056 181C     		mov	r0, r3
 1055 0058 FFF7FEFF 		bl	CSD_SsCSDSetUpIdacs
1516:Generated_Source\PSoC4/CSD_SensingCSD_LL.c **** 
1517:Generated_Source\PSoC4/CSD_SensingCSD_LL.c ****     #if (CSD_ENABLE == CSD_CSD_GANGED_SNS_EN)
1518:Generated_Source\PSoC4/CSD_SensingCSD_LL.c ****         /*  Initialise access pointers for current pointer to widget configuration in Flash */
1519:Generated_Source\PSoC4/CSD_SensingCSD_LL.c ****         CSD_curFlashWdgtPtr = &CSD_dsFlash.wdgtArray[wdgtIndex];
1520:Generated_Source\PSoC4/CSD_SensingCSD_LL.c ****     #endif /* (CSD_ENABLE == CSD_CSD_GANGED_SNS_EN)  */
1521:Generated_Source\PSoC4/CSD_SensingCSD_LL.c **** 
1522:Generated_Source\PSoC4/CSD_SensingCSD_LL.c ****     #if (CSD_ENABLE == CSD_CSD_GANGED_SNS_EN)
1523:Generated_Source\PSoC4/CSD_SensingCSD_LL.c ****         CSD_SsCSDConnectSensorExt(wdgtIndex, snsIndex);
1524:Generated_Source\PSoC4/CSD_SensingCSD_LL.c ****     #else
1525:Generated_Source\PSoC4/CSD_SensingCSD_LL.c ****         /* Enable sensor */
1526:Generated_Source\PSoC4/CSD_SensingCSD_LL.c ****         CSD_curSnsIOPtr += CSD_sensorIndex;
 1056              		.loc 1 1526 0
 1057 005c 0E4B     		ldr	r3, .L55+4
 1058 005e 1B78     		ldrb	r3, [r3]
 1059 0060 D9B2     		uxtb	r1, r3
 1060 0062 0F4B     		ldr	r3, .L55+12
 1061 0064 1A68     		ldr	r2, [r3]
 1062 0066 0B1C     		mov	r3, r1
 1063 0068 DB00     		lsl	r3, r3, #3
 1064 006a 5B1A     		sub	r3, r3, r1
 1065 006c 9B00     		lsl	r3, r3, #2
 1066 006e D218     		add	r2, r2, r3
 1067 0070 0B4B     		ldr	r3, .L55+12
 1068 0072 1A60     		str	r2, [r3]
1527:Generated_Source\PSoC4/CSD_SensingCSD_LL.c ****         CSD_CSDConnectSns(CSD_curSnsIOPtr);
 1069              		.loc 1 1527 0
 1070 0074 0A4B     		ldr	r3, .L55+12
 1071 0076 1B68     		ldr	r3, [r3]
 1072 0078 181C     		mov	r0, r3
 1073 007a FFF7FEFF 		bl	CSD_CSDConnectSns
1528:Generated_Source\PSoC4/CSD_SensingCSD_LL.c ****     #endif /* (CSD_ENABLE == CSD_CSD_GANGED_SNS_EN)  */
1529:Generated_Source\PSoC4/CSD_SensingCSD_LL.c **** 
1530:Generated_Source\PSoC4/CSD_SensingCSD_LL.c ****     #if (CSD_ENABLE == CSD_CSD_GANGED_SNS_EN)
1531:Generated_Source\PSoC4/CSD_SensingCSD_LL.c ****         /* Save sns pointer */
1532:Generated_Source\PSoC4/CSD_SensingCSD_LL.c ****         CSD_curFlashSnsPtr = (CSD_FLASH_SNS_STRUCT const *)
1533:Generated_Source\PSoC4/CSD_SensingCSD_LL.c ****                                            CSD_dsFlash.wdgtArray[CSD_widgetIndex].ptr2SnsFlash +
1534:Generated_Source\PSoC4/CSD_SensingCSD_LL.c ****                                            CSD_sensorIndex;
1535:Generated_Source\PSoC4/CSD_SensingCSD_LL.c ****     #endif /* (CSD_ENABLE == CSD_CSD_GANGED_SNS_EN) */
1536:Generated_Source\PSoC4/CSD_SensingCSD_LL.c **** 
1537:Generated_Source\PSoC4/CSD_SensingCSD_LL.c ****     CSD_eleCsdDisconnectFlag = CSD_DISCONNECT_IO_FLAG;
 1074              		.loc 1 1537 0
 1075 007e 094B     		ldr	r3, .L55+16
 1076 0080 0122     		mov	r2, #1
 1077 0082 1A70     		strb	r2, [r3]
ARM GAS  C:\Users\CHRIST~1\AppData\Local\Temp\ccGy5PUQ.s 			page 47


1538:Generated_Source\PSoC4/CSD_SensingCSD_LL.c **** 
1539:Generated_Source\PSoC4/CSD_SensingCSD_LL.c ****     /*  Setup ISR handler to single-sensor scan function */
1540:Generated_Source\PSoC4/CSD_SensingCSD_LL.c ****     CSD_ISR_StartEx(&CSD_CSDPostSingleScan);
 1078              		.loc 1 1540 0
 1079 0084 084B     		ldr	r3, .L55+20
 1080 0086 181C     		mov	r0, r3
 1081 0088 FFF7FEFF 		bl	CSD_ISR_StartEx
1541:Generated_Source\PSoC4/CSD_SensingCSD_LL.c **** }
 1082              		.loc 1 1541 0
 1083 008c BD46     		mov	sp, r7
 1084 008e 04B0     		add	sp, sp, #16
 1085              		@ sp needed
 1086 0090 80BD     		pop	{r7, pc}
 1087              	.L56:
 1088 0092 C046     		.align	2
 1089              	.L55:
 1090 0094 00000000 		.word	CSD_dsFlash
 1091 0098 00000000 		.word	CSD_sensorIndex
 1092 009c 00000000 		.word	CSD_curRamSnsPtr
 1093 00a0 00000000 		.word	CSD_curSnsIOPtr
 1094 00a4 04000000 		.word	CSD_eleCsdDisconnectFlag
 1095 00a8 00000000 		.word	CSD_CSDPostSingleScan
 1096              		.cfi_endproc
 1097              	.LFE13:
 1098              		.size	CSD_CSDSetupWidgetExt, .-CSD_CSDSetupWidgetExt
 1099              		.section	.text.CSD_SsCSDStartSample,"ax",%progbits
 1100              		.align	2
 1101              		.global	CSD_SsCSDStartSample
 1102              		.code	16
 1103              		.thumb_func
 1104              		.type	CSD_SsCSDStartSample, %function
 1105              	CSD_SsCSDStartSample:
 1106              	.LFB14:
1542:Generated_Source\PSoC4/CSD_SensingCSD_LL.c **** 
1543:Generated_Source\PSoC4/CSD_SensingCSD_LL.c **** 
1544:Generated_Source\PSoC4/CSD_SensingCSD_LL.c **** /*******************************************************************************
1545:Generated_Source\PSoC4/CSD_SensingCSD_LL.c **** * Function Name: CSD_SsCSDStartSample
1546:Generated_Source\PSoC4/CSD_SensingCSD_LL.c **** ****************************************************************************//**
1547:Generated_Source\PSoC4/CSD_SensingCSD_LL.c **** *
1548:Generated_Source\PSoC4/CSD_SensingCSD_LL.c **** * \brief
1549:Generated_Source\PSoC4/CSD_SensingCSD_LL.c **** *   Starts the CSD conversion.
1550:Generated_Source\PSoC4/CSD_SensingCSD_LL.c **** *
1551:Generated_Source\PSoC4/CSD_SensingCSD_LL.c **** * \details
1552:Generated_Source\PSoC4/CSD_SensingCSD_LL.c **** *   This function assumes that the CSD block is already set up using
1553:Generated_Source\PSoC4/CSD_SensingCSD_LL.c **** *   the CSD_CSDSetupWidget API and the sensor port-pin is connected to the CSD
1554:Generated_Source\PSoC4/CSD_SensingCSD_LL.c **** *   block using CSD_CSDConnectSns.
1555:Generated_Source\PSoC4/CSD_SensingCSD_LL.c **** *   For CSDv1 the function performs the following tasks:
1556:Generated_Source\PSoC4/CSD_SensingCSD_LL.c **** *   1. Disconnects the Vref buffer from AMUX;
1557:Generated_Source\PSoC4/CSD_SensingCSD_LL.c **** *   2. Precharges Cmod;
1558:Generated_Source\PSoC4/CSD_SensingCSD_LL.c **** *   3. Makes the PreSettling delay to have a stable Vref voltage;
1559:Generated_Source\PSoC4/CSD_SensingCSD_LL.c **** *   4. Sets the resolution to the Counter register to start scanning.
1560:Generated_Source\PSoC4/CSD_SensingCSD_LL.c **** *
1561:Generated_Source\PSoC4/CSD_SensingCSD_LL.c **** *******************************************************************************/
1562:Generated_Source\PSoC4/CSD_SensingCSD_LL.c **** void CSD_SsCSDStartSample(void)
1563:Generated_Source\PSoC4/CSD_SensingCSD_LL.c **** {
 1107              		.loc 1 1563 0
 1108              		.cfi_startproc
ARM GAS  C:\Users\CHRIST~1\AppData\Local\Temp\ccGy5PUQ.s 			page 48


 1109 0000 80B5     		push	{r7, lr}
 1110              		.cfi_def_cfa_offset 8
 1111              		.cfi_offset 7, -8
 1112              		.cfi_offset 14, -4
 1113 0002 00AF     		add	r7, sp, #0
 1114              		.cfi_def_cfa_register 7
1564:Generated_Source\PSoC4/CSD_SensingCSD_LL.c **** #if (CSD_ENABLE == CSD_CSDV2)
1565:Generated_Source\PSoC4/CSD_SensingCSD_LL.c ****     /* CSDv2 HW IP block section */
1566:Generated_Source\PSoC4/CSD_SensingCSD_LL.c **** 
1567:Generated_Source\PSoC4/CSD_SensingCSD_LL.c ****     /* Disable CSD interrupt to prevent it during coarse initialization */
1568:Generated_Source\PSoC4/CSD_SensingCSD_LL.c ****     CyIntDisable(CSD_ISR_NUMBER);
 1115              		.loc 1 1568 0
 1116 0004 0E20     		mov	r0, #14
 1117 0006 FFF7FEFF 		bl	CyIntDisable
1569:Generated_Source\PSoC4/CSD_SensingCSD_LL.c **** 
1570:Generated_Source\PSoC4/CSD_SensingCSD_LL.c ****     /* Enable power to sub-blocks */
1571:Generated_Source\PSoC4/CSD_SensingCSD_LL.c ****     CY_SET_REG32(CSD_HSCMP_PTR, CSD_HSCMP_INIT_MASK);
 1118              		.loc 1 1571 0
 1119 000a 064B     		ldr	r3, .L58
 1120 000c 0122     		mov	r2, #1
 1121 000e 1A60     		str	r2, [r3]
1572:Generated_Source\PSoC4/CSD_SensingCSD_LL.c **** 
1573:Generated_Source\PSoC4/CSD_SensingCSD_LL.c ****     #if (CSD_ENABLE == CSD_BLOCK_OFF_AFTER_SCAN_EN)
1574:Generated_Source\PSoC4/CSD_SensingCSD_LL.c ****         CY_SET_REG32(CSD_CONFIG_PTR, CSD_configCsd |
1575:Generated_Source\PSoC4/CSD_SensingCSD_LL.c ****                                                   CSD_CONFIG_SENSE_EN_MASK |
1576:Generated_Source\PSoC4/CSD_SensingCSD_LL.c ****                                                   CSD_CONFIG_ENABLE_MASK);
1577:Generated_Source\PSoC4/CSD_SensingCSD_LL.c **** 
1578:Generated_Source\PSoC4/CSD_SensingCSD_LL.c ****         /*  Wait until CSD block powers ON */
1579:Generated_Source\PSoC4/CSD_SensingCSD_LL.c ****         CyDelayCycles(CSD_CSD_ON_DELAY);
1580:Generated_Source\PSoC4/CSD_SensingCSD_LL.c ****     #else
1581:Generated_Source\PSoC4/CSD_SensingCSD_LL.c ****         /*  Wait until HSCMP powers ON */
1582:Generated_Source\PSoC4/CSD_SensingCSD_LL.c ****         CyDelayCycles(CSD_HSCMP_ON_DELAY);
 1122              		.loc 1 1582 0
 1123 0010 3020     		mov	r0, #48
 1124 0012 FFF7FEFF 		bl	CyDelayCycles
1583:Generated_Source\PSoC4/CSD_SensingCSD_LL.c ****     #endif /* (CSD_ENABLE == CSD_BLOCK_OFF_AFTER_SCAN_EN) */
1584:Generated_Source\PSoC4/CSD_SensingCSD_LL.c **** 
1585:Generated_Source\PSoC4/CSD_SensingCSD_LL.c ****     /* Precharging Cmod and Csh */
1586:Generated_Source\PSoC4/CSD_SensingCSD_LL.c ****     CSD_SsCSDCmodPrecharge();
 1125              		.loc 1 1586 0
 1126 0016 FFF7FEFF 		bl	CSD_SsCSDCmodPrecharge
1587:Generated_Source\PSoC4/CSD_SensingCSD_LL.c **** 
1588:Generated_Source\PSoC4/CSD_SensingCSD_LL.c ****     /* Trigger Scan */
1589:Generated_Source\PSoC4/CSD_SensingCSD_LL.c ****     CSD_SsCSDTriggerScan();
 1127              		.loc 1 1589 0
 1128 001a FFF7FEFF 		bl	CSD_SsCSDTriggerScan
1590:Generated_Source\PSoC4/CSD_SensingCSD_LL.c **** 
1591:Generated_Source\PSoC4/CSD_SensingCSD_LL.c **** #else
1592:Generated_Source\PSoC4/CSD_SensingCSD_LL.c ****     /* CSDv1 HW IP block section */
1593:Generated_Source\PSoC4/CSD_SensingCSD_LL.c **** 
1594:Generated_Source\PSoC4/CSD_SensingCSD_LL.c ****     uint8 interruptState;
1595:Generated_Source\PSoC4/CSD_SensingCSD_LL.c **** 
1596:Generated_Source\PSoC4/CSD_SensingCSD_LL.c ****     interruptState = CyEnterCriticalSection();
1597:Generated_Source\PSoC4/CSD_SensingCSD_LL.c **** 
1598:Generated_Source\PSoC4/CSD_SensingCSD_LL.c ****     /*  Enable CSD block. Disconnect Vref Buffer from AMUX */
1599:Generated_Source\PSoC4/CSD_SensingCSD_LL.c ****     #if ((CSD_CSH_PRECHARGE_IO_BUF == CSD_CSD_CSH_PRECHARGE_SRC) &&\
1600:Generated_Source\PSoC4/CSD_SensingCSD_LL.c ****          (CSD_ENABLE == CSD_CSD_SHIELD_TANK_EN))
ARM GAS  C:\Users\CHRIST~1\AppData\Local\Temp\ccGy5PUQ.s 			page 49


1601:Generated_Source\PSoC4/CSD_SensingCSD_LL.c ****         CY_SET_REG32(CSD_CONFIG_PTR, CSD_configCsd | CSD_CMOD_PRECHARGE_CONFIG_CSD_EN);
1602:Generated_Source\PSoC4/CSD_SensingCSD_LL.c ****     #else
1603:Generated_Source\PSoC4/CSD_SensingCSD_LL.c ****         CY_SET_REG32(CSD_CONFIG_PTR, CSD_configCsd | CSD_CTANK_PRECHARGE_CONFIG_CSD_EN);
1604:Generated_Source\PSoC4/CSD_SensingCSD_LL.c ****     #endif /* ((CSD_CSH_PRECHARGE_IO_BUF == CSD_CSD_CSH_PRECHARGE_SRC) &&\
1605:Generated_Source\PSoC4/CSD_SensingCSD_LL.c ****                (CSD_ENABLE == CSD_CSD_SHIELD_TANK_EN)) */
1606:Generated_Source\PSoC4/CSD_SensingCSD_LL.c **** 
1607:Generated_Source\PSoC4/CSD_SensingCSD_LL.c ****     /* Restart the clocks. Scan one cycle to reset the flip-flop for Direct clock mode */
1608:Generated_Source\PSoC4/CSD_SensingCSD_LL.c ****     CSD_SsCSDClockRestart();
1609:Generated_Source\PSoC4/CSD_SensingCSD_LL.c **** 
1610:Generated_Source\PSoC4/CSD_SensingCSD_LL.c ****     /* Precharging Cmod to Vref */
1611:Generated_Source\PSoC4/CSD_SensingCSD_LL.c ****     CSD_SsCSDCmodPrecharge();
1612:Generated_Source\PSoC4/CSD_SensingCSD_LL.c **** 
1613:Generated_Source\PSoC4/CSD_SensingCSD_LL.c ****     #if (CSD_CLK_SOURCE_DIRECT != CSD_CSD_SNS_CLK_SOURCE)
1614:Generated_Source\PSoC4/CSD_SensingCSD_LL.c ****         /* Set PreSettling delay to skip IDAC glitch before scanning */
1615:Generated_Source\PSoC4/CSD_SensingCSD_LL.c ****         CyDelayCycles(CSD_GLITCH_ELIMINATION_CYCLES);
1616:Generated_Source\PSoC4/CSD_SensingCSD_LL.c ****     #endif /* (CSD_CSD_SNS_CLK_SOURCE != CSD_CLK_SOURCE_DIRECT) */
1617:Generated_Source\PSoC4/CSD_SensingCSD_LL.c **** 
1618:Generated_Source\PSoC4/CSD_SensingCSD_LL.c ****     /* Trigger Scan */
1619:Generated_Source\PSoC4/CSD_SensingCSD_LL.c ****     CSD_SsCSDTriggerScan();
1620:Generated_Source\PSoC4/CSD_SensingCSD_LL.c **** 
1621:Generated_Source\PSoC4/CSD_SensingCSD_LL.c ****     CyExitCriticalSection(interruptState);
1622:Generated_Source\PSoC4/CSD_SensingCSD_LL.c **** #endif /* (CSD_ENABLE == CSD_CSDV2) */
1623:Generated_Source\PSoC4/CSD_SensingCSD_LL.c **** }
 1129              		.loc 1 1623 0
 1130 001e BD46     		mov	sp, r7
 1131              		@ sp needed
 1132 0020 80BD     		pop	{r7, pc}
 1133              	.L59:
 1134 0022 C046     		.align	2
 1135              	.L58:
 1136 0024 80010C40 		.word	1074528640
 1137              		.cfi_endproc
 1138              	.LFE14:
 1139              		.size	CSD_SsCSDStartSample, .-CSD_SsCSDStartSample
 1140              		.section	.text.CSD_CSDScanExt,"ax",%progbits
 1141              		.align	2
 1142              		.global	CSD_CSDScanExt
 1143              		.code	16
 1144              		.thumb_func
 1145              		.type	CSD_CSDScanExt, %function
 1146              	CSD_CSDScanExt:
 1147              	.LFB15:
1624:Generated_Source\PSoC4/CSD_SensingCSD_LL.c **** 
1625:Generated_Source\PSoC4/CSD_SensingCSD_LL.c **** 
1626:Generated_Source\PSoC4/CSD_SensingCSD_LL.c **** /*******************************************************************************
1627:Generated_Source\PSoC4/CSD_SensingCSD_LL.c **** * Function Name: CSD_CSDScanExt
1628:Generated_Source\PSoC4/CSD_SensingCSD_LL.c **** ****************************************************************************//**
1629:Generated_Source\PSoC4/CSD_SensingCSD_LL.c **** *
1630:Generated_Source\PSoC4/CSD_SensingCSD_LL.c **** * \brief
1631:Generated_Source\PSoC4/CSD_SensingCSD_LL.c **** *  Starts the CSD conversion on the preconfigured sensor.
1632:Generated_Source\PSoC4/CSD_SensingCSD_LL.c **** *  CSD_CSXSetupWidgetExt() function should be used to setup the
1633:Generated_Source\PSoC4/CSD_SensingCSD_LL.c **** *  widget when using this function.
1634:Generated_Source\PSoC4/CSD_SensingCSD_LL.c **** *
1635:Generated_Source\PSoC4/CSD_SensingCSD_LL.c **** * \details
1636:Generated_Source\PSoC4/CSD_SensingCSD_LL.c **** *  This function performs single scanning of one sensor in the widget configured
1637:Generated_Source\PSoC4/CSD_SensingCSD_LL.c **** *  by the CSD_CSDSetupWidgetExt() function. It does the following
1638:Generated_Source\PSoC4/CSD_SensingCSD_LL.c **** *  tasks:
ARM GAS  C:\Users\CHRIST~1\AppData\Local\Temp\ccGy5PUQ.s 			page 50


1639:Generated_Source\PSoC4/CSD_SensingCSD_LL.c **** *    1. Sets the busy flag in the CSD_dsRam structure.
1640:Generated_Source\PSoC4/CSD_SensingCSD_LL.c **** *    2. Performs the clock-phase alignment of the sense and modulator clocks.
1641:Generated_Source\PSoC4/CSD_SensingCSD_LL.c **** *    3. Performs Cmod pre-charging.
1642:Generated_Source\PSoC4/CSD_SensingCSD_LL.c **** *    4. Starts single scanning.
1643:Generated_Source\PSoC4/CSD_SensingCSD_LL.c **** *
1644:Generated_Source\PSoC4/CSD_SensingCSD_LL.c **** *  It is not recommended to call this function directly from the application
1645:Generated_Source\PSoC4/CSD_SensingCSD_LL.c **** *  layer. This function should be used to implement only the users specific
1646:Generated_Source\PSoC4/CSD_SensingCSD_LL.c **** *  use cases (for faster execution time or pipeline scanning for example).
1647:Generated_Source\PSoC4/CSD_SensingCSD_LL.c **** *  This function should be called when no scanning in progress. I.e.
1648:Generated_Source\PSoC4/CSD_SensingCSD_LL.c **** *  CSD_IsBusy() returns a non-busy status.
1649:Generated_Source\PSoC4/CSD_SensingCSD_LL.c **** *
1650:Generated_Source\PSoC4/CSD_SensingCSD_LL.c **** *  The sensor must be preconfigured by using the
1651:Generated_Source\PSoC4/CSD_SensingCSD_LL.c **** *  CSD_CSDSetupWidgetExt() API prior to calling this function.
1652:Generated_Source\PSoC4/CSD_SensingCSD_LL.c **** *  The sensor remains ready for the next scan if a previous scan was triggered
1653:Generated_Source\PSoC4/CSD_SensingCSD_LL.c **** *  by using the CSD_CSDScanExt() function. In this case, calling
1654:Generated_Source\PSoC4/CSD_SensingCSD_LL.c **** *  CSD_CSDSetupWidgetExt() is not required every time before the
1655:Generated_Source\PSoC4/CSD_SensingCSD_LL.c **** *  CSD_CSDScanExt() function. If a previous scan was triggered in
1656:Generated_Source\PSoC4/CSD_SensingCSD_LL.c **** *  any other way: CSD_Scan(), CSD_ScanAllWidgets() or
1657:Generated_Source\PSoC4/CSD_SensingCSD_LL.c **** *  CSD_RunTuner() (see the CSD_RunTuner() function
1658:Generated_Source\PSoC4/CSD_SensingCSD_LL.c **** *  description for more details), the sensor must be preconfigured again by
1659:Generated_Source\PSoC4/CSD_SensingCSD_LL.c **** *  using the CSD_CSDSetupWidgetExt() API prior to calling the
1660:Generated_Source\PSoC4/CSD_SensingCSD_LL.c **** *  CSD_CSDScanExt() function.
1661:Generated_Source\PSoC4/CSD_SensingCSD_LL.c **** *
1662:Generated_Source\PSoC4/CSD_SensingCSD_LL.c **** *  If disconnection of the sensors is required after calling
1663:Generated_Source\PSoC4/CSD_SensingCSD_LL.c **** *  CSD_CSDScanExt(), the CSD_CSDDisconnectSns()
1664:Generated_Source\PSoC4/CSD_SensingCSD_LL.c **** *  function can be used.
1665:Generated_Source\PSoC4/CSD_SensingCSD_LL.c **** *
1666:Generated_Source\PSoC4/CSD_SensingCSD_LL.c **** *******************************************************************************/
1667:Generated_Source\PSoC4/CSD_SensingCSD_LL.c **** void CSD_CSDScanExt(void)
1668:Generated_Source\PSoC4/CSD_SensingCSD_LL.c **** {
 1148              		.loc 1 1668 0
 1149              		.cfi_startproc
 1150 0000 80B5     		push	{r7, lr}
 1151              		.cfi_def_cfa_offset 8
 1152              		.cfi_offset 7, -8
 1153              		.cfi_offset 14, -4
 1154 0002 00AF     		add	r7, sp, #0
 1155              		.cfi_def_cfa_register 7
1669:Generated_Source\PSoC4/CSD_SensingCSD_LL.c ****     /* Set Start of sensor scan flag */
1670:Generated_Source\PSoC4/CSD_SensingCSD_LL.c ****     CSD_dsRam.status |= (CSD_SW_STS_BUSY | CSD_WDGT_SW_STS_BUSY);
 1156              		.loc 1 1670 0
 1157 0004 044B     		ldr	r3, .L61
 1158 0006 9B68     		ldr	r3, [r3, #8]
 1159 0008 044A     		ldr	r2, .L61+4
 1160 000a 1A43     		orr	r2, r3
 1161 000c 024B     		ldr	r3, .L61
 1162 000e 9A60     		str	r2, [r3, #8]
1671:Generated_Source\PSoC4/CSD_SensingCSD_LL.c **** 
1672:Generated_Source\PSoC4/CSD_SensingCSD_LL.c ****     CSD_SsCSDStartSample();
 1163              		.loc 1 1672 0
 1164 0010 FFF7FEFF 		bl	CSD_SsCSDStartSample
1673:Generated_Source\PSoC4/CSD_SensingCSD_LL.c **** }
 1165              		.loc 1 1673 0
 1166 0014 BD46     		mov	sp, r7
 1167              		@ sp needed
 1168 0016 80BD     		pop	{r7, pc}
 1169              	.L62:
ARM GAS  C:\Users\CHRIST~1\AppData\Local\Temp\ccGy5PUQ.s 			page 51


 1170              		.align	2
 1171              	.L61:
 1172 0018 00000000 		.word	CSD_dsRam
 1173 001c 80000100 		.word	65664
 1174              		.cfi_endproc
 1175              	.LFE15:
 1176              		.size	CSD_CSDScanExt, .-CSD_CSDScanExt
 1177              		.section	.text.CSD_CSDScan,"ax",%progbits
 1178              		.align	2
 1179              		.global	CSD_CSDScan
 1180              		.code	16
 1181              		.thumb_func
 1182              		.type	CSD_CSDScan, %function
 1183              	CSD_CSDScan:
 1184              	.LFB16:
1674:Generated_Source\PSoC4/CSD_SensingCSD_LL.c **** 
1675:Generated_Source\PSoC4/CSD_SensingCSD_LL.c **** 
1676:Generated_Source\PSoC4/CSD_SensingCSD_LL.c **** /*******************************************************************************
1677:Generated_Source\PSoC4/CSD_SensingCSD_LL.c **** * Function Name: CSD_CSDScan
1678:Generated_Source\PSoC4/CSD_SensingCSD_LL.c **** ****************************************************************************//**
1679:Generated_Source\PSoC4/CSD_SensingCSD_LL.c **** *
1680:Generated_Source\PSoC4/CSD_SensingCSD_LL.c **** * \brief
1681:Generated_Source\PSoC4/CSD_SensingCSD_LL.c **** *  This function initiates the scan for sensors of the widget initialized by the
1682:Generated_Source\PSoC4/CSD_SensingCSD_LL.c **** *  CSD_CSDSetupWidget() function.
1683:Generated_Source\PSoC4/CSD_SensingCSD_LL.c **** *
1684:Generated_Source\PSoC4/CSD_SensingCSD_LL.c **** * \details
1685:Generated_Source\PSoC4/CSD_SensingCSD_LL.c **** *  This function performs scanning of all sensors in the widget configured by
1686:Generated_Source\PSoC4/CSD_SensingCSD_LL.c **** *  the CSD_CSDSetupWidget() function. It does the following tasks:
1687:Generated_Source\PSoC4/CSD_SensingCSD_LL.c **** *    1. Connects the first sensor of the widget.
1688:Generated_Source\PSoC4/CSD_SensingCSD_LL.c **** *    2. Configures the IDAC value.
1689:Generated_Source\PSoC4/CSD_SensingCSD_LL.c **** *    3. Initializes the interrupt callback function to initialize a scan of
1690:Generated_Source\PSoC4/CSD_SensingCSD_LL.c **** *       the next sensors in a widget.
1691:Generated_Source\PSoC4/CSD_SensingCSD_LL.c **** *    4. Starts scanning for the first sensor in the widget.
1692:Generated_Source\PSoC4/CSD_SensingCSD_LL.c **** *
1693:Generated_Source\PSoC4/CSD_SensingCSD_LL.c **** *  This function is called by the CSD_Scan() API if the given
1694:Generated_Source\PSoC4/CSD_SensingCSD_LL.c **** *  widget uses the CSD sensing method.
1695:Generated_Source\PSoC4/CSD_SensingCSD_LL.c **** *
1696:Generated_Source\PSoC4/CSD_SensingCSD_LL.c **** *  It is not recommended to call this function directly from the application
1697:Generated_Source\PSoC4/CSD_SensingCSD_LL.c **** *  layer. This function should be used to implement only the users specific
1698:Generated_Source\PSoC4/CSD_SensingCSD_LL.c **** *  use cases (for faster execution time or pipeline scanning for example).
1699:Generated_Source\PSoC4/CSD_SensingCSD_LL.c **** *
1700:Generated_Source\PSoC4/CSD_SensingCSD_LL.c **** *  This function should be called when no scanning in progress. I.e.
1701:Generated_Source\PSoC4/CSD_SensingCSD_LL.c **** *  CSD_IsBusy() returns a non-busy status. The widget must be
1702:Generated_Source\PSoC4/CSD_SensingCSD_LL.c **** *  preconfigured by the CSD_CSDSetupWidget() function if other
1703:Generated_Source\PSoC4/CSD_SensingCSD_LL.c **** *  widget was previously scanned or other type of scan functions were used.
1704:Generated_Source\PSoC4/CSD_SensingCSD_LL.c **** *
1705:Generated_Source\PSoC4/CSD_SensingCSD_LL.c **** *******************************************************************************/
1706:Generated_Source\PSoC4/CSD_SensingCSD_LL.c **** void CSD_CSDScan(void)
1707:Generated_Source\PSoC4/CSD_SensingCSD_LL.c **** {
 1185              		.loc 1 1707 0
 1186              		.cfi_startproc
 1187 0000 80B5     		push	{r7, lr}
 1188              		.cfi_def_cfa_offset 8
 1189              		.cfi_offset 7, -8
 1190              		.cfi_offset 14, -4
 1191 0002 82B0     		sub	sp, sp, #8
 1192              		.cfi_def_cfa_offset 16
ARM GAS  C:\Users\CHRIST~1\AppData\Local\Temp\ccGy5PUQ.s 			page 52


 1193 0004 00AF     		add	r7, sp, #0
 1194              		.cfi_def_cfa_register 7
1708:Generated_Source\PSoC4/CSD_SensingCSD_LL.c ****     CSD_RAM_WD_BASE_STRUCT const *ptrWdgt = (CSD_RAM_WD_BASE_STRUCT *)
1709:Generated_Source\PSoC4/CSD_SensingCSD_LL.c ****                                                     CSD_dsFlash.wdgtArray[CSD_widgetIndex].ptr2Wdgt
 1195              		.loc 1 1709 0
 1196 0006 264B     		ldr	r3, .L64
 1197 0008 1B78     		ldrb	r3, [r3]
 1198 000a DBB2     		uxtb	r3, r3
 1199 000c 191C     		mov	r1, r3
1708:Generated_Source\PSoC4/CSD_SensingCSD_LL.c ****     CSD_RAM_WD_BASE_STRUCT const *ptrWdgt = (CSD_RAM_WD_BASE_STRUCT *)
 1200              		.loc 1 1708 0
 1201 000e 254A     		ldr	r2, .L64+4
 1202 0010 0B1C     		mov	r3, r1
 1203 0012 DB00     		lsl	r3, r3, #3
 1204 0014 5B1A     		sub	r3, r3, r1
 1205 0016 9B00     		lsl	r3, r3, #2
 1206 0018 D318     		add	r3, r2, r3
 1207 001a 5B68     		ldr	r3, [r3, #4]
 1208 001c 7B60     		str	r3, [r7, #4]
1710:Generated_Source\PSoC4/CSD_SensingCSD_LL.c **** 
1711:Generated_Source\PSoC4/CSD_SensingCSD_LL.c ****      /*
1712:Generated_Source\PSoC4/CSD_SensingCSD_LL.c ****       * Update CSD_sensorIndex with the first sensor in
1713:Generated_Source\PSoC4/CSD_SensingCSD_LL.c ****       * widget to use it in ISR handler to configure the next sensor
1714:Generated_Source\PSoC4/CSD_SensingCSD_LL.c ****       */
1715:Generated_Source\PSoC4/CSD_SensingCSD_LL.c ****     CSD_sensorIndex = 0u;
 1209              		.loc 1 1715 0
 1210 001e 224B     		ldr	r3, .L64+8
 1211 0020 0022     		mov	r2, #0
 1212 0022 1A70     		strb	r2, [r3]
1716:Generated_Source\PSoC4/CSD_SensingCSD_LL.c **** 
1717:Generated_Source\PSoC4/CSD_SensingCSD_LL.c ****     /*  Update global pointer to CSD_RAM_SNS_STRUCT to current sensor  */
1718:Generated_Source\PSoC4/CSD_SensingCSD_LL.c ****     CSD_curRamSnsPtr = (CSD_RAM_SNS_STRUCT *)
1719:Generated_Source\PSoC4/CSD_SensingCSD_LL.c ****                                               CSD_dsFlash.wdgtArray[CSD_widgetIndex].ptr2SnsRam
 1213              		.loc 1 1719 0
 1214 0024 1E4B     		ldr	r3, .L64
 1215 0026 1B78     		ldrb	r3, [r3]
 1216 0028 DBB2     		uxtb	r3, r3
 1217 002a 191C     		mov	r1, r3
 1218 002c 1D4A     		ldr	r2, .L64+4
 1219 002e 0B1C     		mov	r3, r1
 1220 0030 DB00     		lsl	r3, r3, #3
 1221 0032 5B1A     		sub	r3, r3, r1
 1222 0034 9B00     		lsl	r3, r3, #2
 1223 0036 D318     		add	r3, r2, r3
 1224 0038 0833     		add	r3, r3, #8
 1225 003a 1A68     		ldr	r2, [r3]
1720:Generated_Source\PSoC4/CSD_SensingCSD_LL.c ****                                               + CSD_sensorIndex;
 1226              		.loc 1 1720 0
 1227 003c 1A4B     		ldr	r3, .L64+8
 1228 003e 1B78     		ldrb	r3, [r3]
 1229 0040 DBB2     		uxtb	r3, r3
 1230 0042 191C     		mov	r1, r3
 1231 0044 0B1C     		mov	r3, r1
 1232 0046 9B00     		lsl	r3, r3, #2
 1233 0048 5B18     		add	r3, r3, r1
 1234 004a 5B00     		lsl	r3, r3, #1
 1235 004c D218     		add	r2, r2, r3
ARM GAS  C:\Users\CHRIST~1\AppData\Local\Temp\ccGy5PUQ.s 			page 53


1718:Generated_Source\PSoC4/CSD_SensingCSD_LL.c ****                                               CSD_dsFlash.wdgtArray[CSD_widgetIndex].ptr2SnsRam
 1236              		.loc 1 1718 0
 1237 004e 174B     		ldr	r3, .L64+12
 1238 0050 1A60     		str	r2, [r3]
1721:Generated_Source\PSoC4/CSD_SensingCSD_LL.c **** 
1722:Generated_Source\PSoC4/CSD_SensingCSD_LL.c ****     /* Setup Idac Value */
1723:Generated_Source\PSoC4/CSD_SensingCSD_LL.c ****    CSD_SsCSDSetUpIdacs(ptrWdgt);
 1239              		.loc 1 1723 0
 1240 0052 7B68     		ldr	r3, [r7, #4]
 1241 0054 181C     		mov	r0, r3
 1242 0056 FFF7FEFF 		bl	CSD_SsCSDSetUpIdacs
1724:Generated_Source\PSoC4/CSD_SensingCSD_LL.c **** 
1725:Generated_Source\PSoC4/CSD_SensingCSD_LL.c ****     #if (CSD_ENABLE == CSD_CSD_GANGED_SNS_EN)
1726:Generated_Source\PSoC4/CSD_SensingCSD_LL.c ****         /* Check ganged sns flag  */
1727:Generated_Source\PSoC4/CSD_SensingCSD_LL.c ****         if (CSD_GANGED_SNS_MASK == (CSD_dsFlash.wdgtArray[CSD_widgetIndex].staticConfig &
1728:Generated_Source\PSoC4/CSD_SensingCSD_LL.c ****             CSD_GANGED_SNS_MASK))
1729:Generated_Source\PSoC4/CSD_SensingCSD_LL.c ****         {
1730:Generated_Source\PSoC4/CSD_SensingCSD_LL.c ****             /*  Setup ISR handler to multiple sensor scan function with ganged sensors */
1731:Generated_Source\PSoC4/CSD_SensingCSD_LL.c ****             CSD_ISR_StartEx(&CSD_CSDPostMultiScanGanged);
1732:Generated_Source\PSoC4/CSD_SensingCSD_LL.c ****         }
1733:Generated_Source\PSoC4/CSD_SensingCSD_LL.c ****         else
1734:Generated_Source\PSoC4/CSD_SensingCSD_LL.c ****         {
1735:Generated_Source\PSoC4/CSD_SensingCSD_LL.c ****             /*  Set up ISR handler to multiple sensor scan function without ganged sensors */
1736:Generated_Source\PSoC4/CSD_SensingCSD_LL.c ****             CSD_ISR_StartEx(&CSD_CSDPostMultiScan);
1737:Generated_Source\PSoC4/CSD_SensingCSD_LL.c ****         }
1738:Generated_Source\PSoC4/CSD_SensingCSD_LL.c **** 
1739:Generated_Source\PSoC4/CSD_SensingCSD_LL.c ****         CSD_SsCSDConnectSensorExt((uint32)CSD_widgetIndex, (uint32)CSD_sensorIndex);
1740:Generated_Source\PSoC4/CSD_SensingCSD_LL.c ****     #else
1741:Generated_Source\PSoC4/CSD_SensingCSD_LL.c ****         /* Initialise ptr to sensor IO structure to appropriate address */
1742:Generated_Source\PSoC4/CSD_SensingCSD_LL.c ****         CSD_curSnsIOPtr = (CSD_FLASH_IO_STRUCT const *)
 1243              		.loc 1 1742 0
 1244 005a 114B     		ldr	r3, .L64
 1245 005c 1B78     		ldrb	r3, [r3]
 1246 005e DBB2     		uxtb	r3, r3
 1247 0060 191C     		mov	r1, r3
1743:Generated_Source\PSoC4/CSD_SensingCSD_LL.c ****                                         CSD_dsFlash.wdgtArray[CSD_widgetIndex].ptr2SnsFlash
 1248              		.loc 1 1743 0
 1249 0062 104A     		ldr	r2, .L64+4
 1250 0064 0B1C     		mov	r3, r1
 1251 0066 DB00     		lsl	r3, r3, #3
 1252 0068 5B1A     		sub	r3, r3, r1
 1253 006a 9B00     		lsl	r3, r3, #2
 1254 006c 9A58     		ldr	r2, [r3, r2]
1744:Generated_Source\PSoC4/CSD_SensingCSD_LL.c ****                                         + CSD_sensorIndex;
 1255              		.loc 1 1744 0
 1256 006e 0E4B     		ldr	r3, .L64+8
 1257 0070 1B78     		ldrb	r3, [r3]
 1258 0072 DBB2     		uxtb	r3, r3
 1259 0074 191C     		mov	r1, r3
 1260 0076 0B1C     		mov	r3, r1
 1261 0078 DB00     		lsl	r3, r3, #3
 1262 007a 5B1A     		sub	r3, r3, r1
 1263 007c 9B00     		lsl	r3, r3, #2
 1264 007e D218     		add	r2, r2, r3
1742:Generated_Source\PSoC4/CSD_SensingCSD_LL.c ****                                         CSD_dsFlash.wdgtArray[CSD_widgetIndex].ptr2SnsFlash
 1265              		.loc 1 1742 0
 1266 0080 0B4B     		ldr	r3, .L64+16
ARM GAS  C:\Users\CHRIST~1\AppData\Local\Temp\ccGy5PUQ.s 			page 54


 1267 0082 1A60     		str	r2, [r3]
1745:Generated_Source\PSoC4/CSD_SensingCSD_LL.c **** 
1746:Generated_Source\PSoC4/CSD_SensingCSD_LL.c ****         /* Enable sensor */
1747:Generated_Source\PSoC4/CSD_SensingCSD_LL.c ****         CSD_CSDConnectSns(CSD_curSnsIOPtr);
 1268              		.loc 1 1747 0
 1269 0084 0A4B     		ldr	r3, .L64+16
 1270 0086 1B68     		ldr	r3, [r3]
 1271 0088 181C     		mov	r0, r3
 1272 008a FFF7FEFF 		bl	CSD_CSDConnectSns
1748:Generated_Source\PSoC4/CSD_SensingCSD_LL.c **** 
1749:Generated_Source\PSoC4/CSD_SensingCSD_LL.c ****         /*  Set-up ISR handler to multiple sensor scan function without ganged sensors */
1750:Generated_Source\PSoC4/CSD_SensingCSD_LL.c ****         CSD_ISR_StartEx(&CSD_CSDPostMultiScan);
 1273              		.loc 1 1750 0
 1274 008e 094B     		ldr	r3, .L64+20
 1275 0090 181C     		mov	r0, r3
 1276 0092 FFF7FEFF 		bl	CSD_ISR_StartEx
1751:Generated_Source\PSoC4/CSD_SensingCSD_LL.c ****     #endif /* (CSD_ENABLE == CSD_CSD_GANGED_SNS_EN)  */
1752:Generated_Source\PSoC4/CSD_SensingCSD_LL.c **** 
1753:Generated_Source\PSoC4/CSD_SensingCSD_LL.c ****     /* Start scanning */
1754:Generated_Source\PSoC4/CSD_SensingCSD_LL.c ****     CSD_CSDScanExt();
 1277              		.loc 1 1754 0
 1278 0096 FFF7FEFF 		bl	CSD_CSDScanExt
1755:Generated_Source\PSoC4/CSD_SensingCSD_LL.c **** }
 1279              		.loc 1 1755 0
 1280 009a BD46     		mov	sp, r7
 1281 009c 02B0     		add	sp, sp, #8
 1282              		@ sp needed
 1283 009e 80BD     		pop	{r7, pc}
 1284              	.L65:
 1285              		.align	2
 1286              	.L64:
 1287 00a0 00000000 		.word	CSD_widgetIndex
 1288 00a4 00000000 		.word	CSD_dsFlash
 1289 00a8 00000000 		.word	CSD_sensorIndex
 1290 00ac 00000000 		.word	CSD_curRamSnsPtr
 1291 00b0 00000000 		.word	CSD_curSnsIOPtr
 1292 00b4 00000000 		.word	CSD_CSDPostMultiScan
 1293              		.cfi_endproc
 1294              	.LFE16:
 1295              		.size	CSD_CSDScan, .-CSD_CSDScan
 1296              		.section	.text.CSD_SsCSDConnectSensorExt,"ax",%progbits
 1297              		.align	2
 1298              		.global	CSD_SsCSDConnectSensorExt
 1299              		.code	16
 1300              		.thumb_func
 1301              		.type	CSD_SsCSDConnectSensorExt, %function
 1302              	CSD_SsCSDConnectSensorExt:
 1303              	.LFB17:
1756:Generated_Source\PSoC4/CSD_SensingCSD_LL.c **** 
1757:Generated_Source\PSoC4/CSD_SensingCSD_LL.c **** 
1758:Generated_Source\PSoC4/CSD_SensingCSD_LL.c **** /*******************************************************************************
1759:Generated_Source\PSoC4/CSD_SensingCSD_LL.c **** * Function Name: CSD_SsCSDConnectSensorExt
1760:Generated_Source\PSoC4/CSD_SensingCSD_LL.c **** ****************************************************************************//**
1761:Generated_Source\PSoC4/CSD_SensingCSD_LL.c **** *
1762:Generated_Source\PSoC4/CSD_SensingCSD_LL.c **** * \brief
1763:Generated_Source\PSoC4/CSD_SensingCSD_LL.c **** *  Connects a ganged sensor port-pin to the CapSense block via the AMUX bus.
1764:Generated_Source\PSoC4/CSD_SensingCSD_LL.c **** *
ARM GAS  C:\Users\CHRIST~1\AppData\Local\Temp\ccGy5PUQ.s 			page 55


1765:Generated_Source\PSoC4/CSD_SensingCSD_LL.c **** * \details
1766:Generated_Source\PSoC4/CSD_SensingCSD_LL.c **** *   The function gets the IO configuration registers addresses, their shifts and
1767:Generated_Source\PSoC4/CSD_SensingCSD_LL.c **** *   masks from the FLASH_IO_STRUCT object. Basing on this data, it updates the HSIOM and
1768:Generated_Source\PSoC4/CSD_SensingCSD_LL.c **** *   PC registers.
1769:Generated_Source\PSoC4/CSD_SensingCSD_LL.c **** *
1770:Generated_Source\PSoC4/CSD_SensingCSD_LL.c **** * \param
1771:Generated_Source\PSoC4/CSD_SensingCSD_LL.c **** *   wdgtIndex Specifies ID of the widget.
1772:Generated_Source\PSoC4/CSD_SensingCSD_LL.c **** *   sensorIndex Specifies ID of the sensor in the widget.
1773:Generated_Source\PSoC4/CSD_SensingCSD_LL.c **** *
1774:Generated_Source\PSoC4/CSD_SensingCSD_LL.c **** *******************************************************************************/
1775:Generated_Source\PSoC4/CSD_SensingCSD_LL.c **** void CSD_SsCSDConnectSensorExt(uint32 wdgtIndex, uint32 sensorIndex)
1776:Generated_Source\PSoC4/CSD_SensingCSD_LL.c **** {
 1304              		.loc 1 1776 0
 1305              		.cfi_startproc
 1306 0000 80B5     		push	{r7, lr}
 1307              		.cfi_def_cfa_offset 8
 1308              		.cfi_offset 7, -8
 1309              		.cfi_offset 14, -4
 1310 0002 82B0     		sub	sp, sp, #8
 1311              		.cfi_def_cfa_offset 16
 1312 0004 00AF     		add	r7, sp, #0
 1313              		.cfi_def_cfa_register 7
 1314 0006 7860     		str	r0, [r7, #4]
 1315 0008 3960     		str	r1, [r7]
1777:Generated_Source\PSoC4/CSD_SensingCSD_LL.c ****     #if (CSD_ENABLE == CSD_CSD_GANGED_SNS_EN)
1778:Generated_Source\PSoC4/CSD_SensingCSD_LL.c ****         uint32 tempVal;
1779:Generated_Source\PSoC4/CSD_SensingCSD_LL.c ****     #endif /* (CSD_ENABLE == CSD_CSD_GANGED_SNS_EN) */
1780:Generated_Source\PSoC4/CSD_SensingCSD_LL.c **** 
1781:Generated_Source\PSoC4/CSD_SensingCSD_LL.c ****     /*  Initialise ptr to sensor IO structure to appropriate address */
1782:Generated_Source\PSoC4/CSD_SensingCSD_LL.c ****     CSD_curSnsIOPtr = (CSD_FLASH_IO_STRUCT const *)
1783:Generated_Source\PSoC4/CSD_SensingCSD_LL.c ****                                                       CSD_dsFlash.wdgtArray[wdgtIndex].ptr2SnsFlash
 1316              		.loc 1 1783 0
 1317 000a 0B49     		ldr	r1, .L67
 1318 000c 7A68     		ldr	r2, [r7, #4]
 1319 000e 131C     		mov	r3, r2
 1320 0010 DB00     		lsl	r3, r3, #3
 1321 0012 9B1A     		sub	r3, r3, r2
 1322 0014 9B00     		lsl	r3, r3, #2
 1323 0016 5958     		ldr	r1, [r3, r1]
1784:Generated_Source\PSoC4/CSD_SensingCSD_LL.c ****                                                       + sensorIndex;
 1324              		.loc 1 1784 0
 1325 0018 3A68     		ldr	r2, [r7]
 1326 001a 131C     		mov	r3, r2
 1327 001c DB00     		lsl	r3, r3, #3
 1328 001e 9B1A     		sub	r3, r3, r2
 1329 0020 9B00     		lsl	r3, r3, #2
 1330 0022 CA18     		add	r2, r1, r3
1782:Generated_Source\PSoC4/CSD_SensingCSD_LL.c ****                                                       CSD_dsFlash.wdgtArray[wdgtIndex].ptr2SnsFlash
 1331              		.loc 1 1782 0
 1332 0024 054B     		ldr	r3, .L67+4
 1333 0026 1A60     		str	r2, [r3]
1785:Generated_Source\PSoC4/CSD_SensingCSD_LL.c **** 
1786:Generated_Source\PSoC4/CSD_SensingCSD_LL.c ****     #if (CSD_ENABLE == CSD_CSD_GANGED_SNS_EN)
1787:Generated_Source\PSoC4/CSD_SensingCSD_LL.c ****         /* Check ganged sns flag  */
1788:Generated_Source\PSoC4/CSD_SensingCSD_LL.c ****         if (CSD_GANGED_SNS_MASK ==
1789:Generated_Source\PSoC4/CSD_SensingCSD_LL.c ****            (CSD_dsFlash.wdgtArray[wdgtIndex].staticConfig &
1790:Generated_Source\PSoC4/CSD_SensingCSD_LL.c ****             CSD_GANGED_SNS_MASK))
ARM GAS  C:\Users\CHRIST~1\AppData\Local\Temp\ccGy5PUQ.s 			page 56


1791:Generated_Source\PSoC4/CSD_SensingCSD_LL.c ****         {
1792:Generated_Source\PSoC4/CSD_SensingCSD_LL.c ****             /* Get sns pointer */
1793:Generated_Source\PSoC4/CSD_SensingCSD_LL.c ****             CSD_curFlashSnsPtr = (CSD_FLASH_SNS_STRUCT const *)
1794:Generated_Source\PSoC4/CSD_SensingCSD_LL.c ****                                                CSD_dsFlash.wdgtArray[wdgtIndex].ptr2SnsFlash +
1795:Generated_Source\PSoC4/CSD_SensingCSD_LL.c ****                                                sensorIndex;
1796:Generated_Source\PSoC4/CSD_SensingCSD_LL.c **** 
1797:Generated_Source\PSoC4/CSD_SensingCSD_LL.c ****             /* Get number of ganged pins */
1798:Generated_Source\PSoC4/CSD_SensingCSD_LL.c ****             tempVal = CSD_curFlashSnsPtr->numPins;
1799:Generated_Source\PSoC4/CSD_SensingCSD_LL.c **** 
1800:Generated_Source\PSoC4/CSD_SensingCSD_LL.c ****             /* Get IO pointer  */
1801:Generated_Source\PSoC4/CSD_SensingCSD_LL.c ****             CSD_curSnsIOPtr = &CSD_ioList[CSD_curFlashSnsPtr->firstPinId];
1802:Generated_Source\PSoC4/CSD_SensingCSD_LL.c **** 
1803:Generated_Source\PSoC4/CSD_SensingCSD_LL.c ****             /* Connect all ganged sensors  */
1804:Generated_Source\PSoC4/CSD_SensingCSD_LL.c ****             do
1805:Generated_Source\PSoC4/CSD_SensingCSD_LL.c ****             {
1806:Generated_Source\PSoC4/CSD_SensingCSD_LL.c ****                 CSD_CSDConnectSns(CSD_curSnsIOPtr);
1807:Generated_Source\PSoC4/CSD_SensingCSD_LL.c ****                 CSD_curSnsIOPtr++;
1808:Generated_Source\PSoC4/CSD_SensingCSD_LL.c ****                 tempVal--;
1809:Generated_Source\PSoC4/CSD_SensingCSD_LL.c ****             } while (0u != tempVal);
1810:Generated_Source\PSoC4/CSD_SensingCSD_LL.c ****         }
1811:Generated_Source\PSoC4/CSD_SensingCSD_LL.c ****         else
1812:Generated_Source\PSoC4/CSD_SensingCSD_LL.c ****         {
1813:Generated_Source\PSoC4/CSD_SensingCSD_LL.c ****             /* Connect sensor */
1814:Generated_Source\PSoC4/CSD_SensingCSD_LL.c ****             CSD_CSDConnectSns(CSD_curSnsIOPtr);
1815:Generated_Source\PSoC4/CSD_SensingCSD_LL.c ****         }
1816:Generated_Source\PSoC4/CSD_SensingCSD_LL.c ****     #else
1817:Generated_Source\PSoC4/CSD_SensingCSD_LL.c ****         /* Connect sensor */
1818:Generated_Source\PSoC4/CSD_SensingCSD_LL.c ****         CSD_CSDConnectSns(CSD_curSnsIOPtr);
 1334              		.loc 1 1818 0
 1335 0028 044B     		ldr	r3, .L67+4
 1336 002a 1B68     		ldr	r3, [r3]
 1337 002c 181C     		mov	r0, r3
 1338 002e FFF7FEFF 		bl	CSD_CSDConnectSns
1819:Generated_Source\PSoC4/CSD_SensingCSD_LL.c ****     #endif /* (CSD_ENABLE == CSD_CSD_GANGED_SNS_EN) */
1820:Generated_Source\PSoC4/CSD_SensingCSD_LL.c **** }
 1339              		.loc 1 1820 0
 1340 0032 BD46     		mov	sp, r7
 1341 0034 02B0     		add	sp, sp, #8
 1342              		@ sp needed
 1343 0036 80BD     		pop	{r7, pc}
 1344              	.L68:
 1345              		.align	2
 1346              	.L67:
 1347 0038 00000000 		.word	CSD_dsFlash
 1348 003c 00000000 		.word	CSD_curSnsIOPtr
 1349              		.cfi_endproc
 1350              	.LFE17:
 1351              		.size	CSD_SsCSDConnectSensorExt, .-CSD_SsCSDConnectSensorExt
 1352              		.section	.text.CSD_SsCSDDisconnectSnsExt,"ax",%progbits
 1353              		.align	2
 1354              		.global	CSD_SsCSDDisconnectSnsExt
 1355              		.code	16
 1356              		.thumb_func
 1357              		.type	CSD_SsCSDDisconnectSnsExt, %function
 1358              	CSD_SsCSDDisconnectSnsExt:
 1359              	.LFB18:
1821:Generated_Source\PSoC4/CSD_SensingCSD_LL.c **** 
ARM GAS  C:\Users\CHRIST~1\AppData\Local\Temp\ccGy5PUQ.s 			page 57


1822:Generated_Source\PSoC4/CSD_SensingCSD_LL.c **** 
1823:Generated_Source\PSoC4/CSD_SensingCSD_LL.c **** /*******************************************************************************
1824:Generated_Source\PSoC4/CSD_SensingCSD_LL.c **** * Function Name: CSD_SsCSDDisconnectSnsExt
1825:Generated_Source\PSoC4/CSD_SensingCSD_LL.c **** ****************************************************************************//**
1826:Generated_Source\PSoC4/CSD_SensingCSD_LL.c **** *
1827:Generated_Source\PSoC4/CSD_SensingCSD_LL.c **** * \brief
1828:Generated_Source\PSoC4/CSD_SensingCSD_LL.c **** *  Disconnects a ganged sensor port-pin from the CapSense block and AMUX bus.
1829:Generated_Source\PSoC4/CSD_SensingCSD_LL.c **** *  Sets the default state of the un-scanned sensor.
1830:Generated_Source\PSoC4/CSD_SensingCSD_LL.c **** *
1831:Generated_Source\PSoC4/CSD_SensingCSD_LL.c **** * \details
1832:Generated_Source\PSoC4/CSD_SensingCSD_LL.c **** *   The function gets the IO configuration registers addresses, their shifts and
1833:Generated_Source\PSoC4/CSD_SensingCSD_LL.c **** *   masks from the FLASH_IO_STRUCT object. Basing on this data and Inactive sensor
1834:Generated_Source\PSoC4/CSD_SensingCSD_LL.c **** *   connection parameter, it updates the HSIOM, PC and DR registers.
1835:Generated_Source\PSoC4/CSD_SensingCSD_LL.c **** *   The HSIOM register is updated only when the Inactive sensor connection parameter
1836:Generated_Source\PSoC4/CSD_SensingCSD_LL.c **** *   is set to Shield.
1837:Generated_Source\PSoC4/CSD_SensingCSD_LL.c **** *
1838:Generated_Source\PSoC4/CSD_SensingCSD_LL.c **** * \param  snsAddrPtr
1839:Generated_Source\PSoC4/CSD_SensingCSD_LL.c **** *   wdgtIndex Specifies ID of the widget.
1840:Generated_Source\PSoC4/CSD_SensingCSD_LL.c **** *   sensorIndex Specifies ID of the sensor in the widget.
1841:Generated_Source\PSoC4/CSD_SensingCSD_LL.c **** *
1842:Generated_Source\PSoC4/CSD_SensingCSD_LL.c **** *******************************************************************************/
1843:Generated_Source\PSoC4/CSD_SensingCSD_LL.c **** void CSD_SsCSDDisconnectSnsExt(uint32 wdgtIndex, uint32 sensorIndex)
1844:Generated_Source\PSoC4/CSD_SensingCSD_LL.c **** {
 1360              		.loc 1 1844 0
 1361              		.cfi_startproc
 1362 0000 80B5     		push	{r7, lr}
 1363              		.cfi_def_cfa_offset 8
 1364              		.cfi_offset 7, -8
 1365              		.cfi_offset 14, -4
 1366 0002 82B0     		sub	sp, sp, #8
 1367              		.cfi_def_cfa_offset 16
 1368 0004 00AF     		add	r7, sp, #0
 1369              		.cfi_def_cfa_register 7
 1370 0006 7860     		str	r0, [r7, #4]
 1371 0008 3960     		str	r1, [r7]
1845:Generated_Source\PSoC4/CSD_SensingCSD_LL.c ****     #if (CSD_ENABLE == CSD_CSD_GANGED_SNS_EN)
1846:Generated_Source\PSoC4/CSD_SensingCSD_LL.c ****         uint32 tempVal;
1847:Generated_Source\PSoC4/CSD_SensingCSD_LL.c ****     #endif /* (CSD_ENABLE == CSD_CSD_GANGED_SNS_EN) */
1848:Generated_Source\PSoC4/CSD_SensingCSD_LL.c **** 
1849:Generated_Source\PSoC4/CSD_SensingCSD_LL.c ****     /*  Initialise ptr to sensor IO structure to appropriate address        */
1850:Generated_Source\PSoC4/CSD_SensingCSD_LL.c ****     CSD_curSnsIOPtr = (CSD_FLASH_IO_STRUCT const *)
1851:Generated_Source\PSoC4/CSD_SensingCSD_LL.c ****                                                       CSD_dsFlash.wdgtArray[wdgtIndex].ptr2SnsFlash
 1372              		.loc 1 1851 0
 1373 000a 0B49     		ldr	r1, .L70
 1374 000c 7A68     		ldr	r2, [r7, #4]
 1375 000e 131C     		mov	r3, r2
 1376 0010 DB00     		lsl	r3, r3, #3
 1377 0012 9B1A     		sub	r3, r3, r2
 1378 0014 9B00     		lsl	r3, r3, #2
 1379 0016 5958     		ldr	r1, [r3, r1]
1852:Generated_Source\PSoC4/CSD_SensingCSD_LL.c ****                                                       + sensorIndex;
 1380              		.loc 1 1852 0
 1381 0018 3A68     		ldr	r2, [r7]
 1382 001a 131C     		mov	r3, r2
 1383 001c DB00     		lsl	r3, r3, #3
 1384 001e 9B1A     		sub	r3, r3, r2
 1385 0020 9B00     		lsl	r3, r3, #2
ARM GAS  C:\Users\CHRIST~1\AppData\Local\Temp\ccGy5PUQ.s 			page 58


 1386 0022 CA18     		add	r2, r1, r3
1850:Generated_Source\PSoC4/CSD_SensingCSD_LL.c ****                                                       CSD_dsFlash.wdgtArray[wdgtIndex].ptr2SnsFlash
 1387              		.loc 1 1850 0
 1388 0024 054B     		ldr	r3, .L70+4
 1389 0026 1A60     		str	r2, [r3]
1853:Generated_Source\PSoC4/CSD_SensingCSD_LL.c **** 
1854:Generated_Source\PSoC4/CSD_SensingCSD_LL.c ****     #if (CSD_ENABLE == CSD_CSD_GANGED_SNS_EN)
1855:Generated_Source\PSoC4/CSD_SensingCSD_LL.c ****         /* Check ganged sns flag  */
1856:Generated_Source\PSoC4/CSD_SensingCSD_LL.c ****         if ((CSD_dsFlash.wdgtArray[wdgtIndex].staticConfig &
1857:Generated_Source\PSoC4/CSD_SensingCSD_LL.c ****             CSD_GANGED_SNS_MASK) == CSD_GANGED_SNS_MASK)
1858:Generated_Source\PSoC4/CSD_SensingCSD_LL.c ****         {
1859:Generated_Source\PSoC4/CSD_SensingCSD_LL.c ****             /* Get sns pointer */
1860:Generated_Source\PSoC4/CSD_SensingCSD_LL.c ****             CSD_curFlashSnsPtr = (CSD_FLASH_SNS_STRUCT const *)
1861:Generated_Source\PSoC4/CSD_SensingCSD_LL.c ****                                                CSD_dsFlash.wdgtArray[wdgtIndex].ptr2SnsFlash +
1862:Generated_Source\PSoC4/CSD_SensingCSD_LL.c ****                                                sensorIndex;
1863:Generated_Source\PSoC4/CSD_SensingCSD_LL.c **** 
1864:Generated_Source\PSoC4/CSD_SensingCSD_LL.c ****             /* Get number of ganged pins */
1865:Generated_Source\PSoC4/CSD_SensingCSD_LL.c ****             tempVal = CSD_curFlashSnsPtr->numPins;
1866:Generated_Source\PSoC4/CSD_SensingCSD_LL.c **** 
1867:Generated_Source\PSoC4/CSD_SensingCSD_LL.c ****             /* Get IO pointer  */
1868:Generated_Source\PSoC4/CSD_SensingCSD_LL.c ****             CSD_curSnsIOPtr = &CSD_ioList[CSD_curFlashSnsPtr->firstPinId];
1869:Generated_Source\PSoC4/CSD_SensingCSD_LL.c **** 
1870:Generated_Source\PSoC4/CSD_SensingCSD_LL.c ****             /* Disconnect all ganged sensors */
1871:Generated_Source\PSoC4/CSD_SensingCSD_LL.c ****             do
1872:Generated_Source\PSoC4/CSD_SensingCSD_LL.c ****             {
1873:Generated_Source\PSoC4/CSD_SensingCSD_LL.c ****                 CSD_CSDDisconnectSns(CSD_curSnsIOPtr);
1874:Generated_Source\PSoC4/CSD_SensingCSD_LL.c ****                 CSD_curSnsIOPtr++;
1875:Generated_Source\PSoC4/CSD_SensingCSD_LL.c ****                 tempVal--;
1876:Generated_Source\PSoC4/CSD_SensingCSD_LL.c ****             } while (0u != tempVal);
1877:Generated_Source\PSoC4/CSD_SensingCSD_LL.c ****         }
1878:Generated_Source\PSoC4/CSD_SensingCSD_LL.c ****         else
1879:Generated_Source\PSoC4/CSD_SensingCSD_LL.c ****         {
1880:Generated_Source\PSoC4/CSD_SensingCSD_LL.c ****             /* Disconnect ganged sensor */
1881:Generated_Source\PSoC4/CSD_SensingCSD_LL.c ****             CSD_CSDDisconnectSns(CSD_curSnsIOPtr);
1882:Generated_Source\PSoC4/CSD_SensingCSD_LL.c ****         }
1883:Generated_Source\PSoC4/CSD_SensingCSD_LL.c ****     #else
1884:Generated_Source\PSoC4/CSD_SensingCSD_LL.c ****         /* Disconnect ganged sensor */
1885:Generated_Source\PSoC4/CSD_SensingCSD_LL.c ****         CSD_CSDDisconnectSns(CSD_curSnsIOPtr);
 1390              		.loc 1 1885 0
 1391 0028 044B     		ldr	r3, .L70+4
 1392 002a 1B68     		ldr	r3, [r3]
 1393 002c 181C     		mov	r0, r3
 1394 002e FFF7FEFF 		bl	CSD_CSDDisconnectSns
1886:Generated_Source\PSoC4/CSD_SensingCSD_LL.c ****     #endif /* (CSD_ENABLE == CSD_CSD_GANGED_SNS_EN) */
1887:Generated_Source\PSoC4/CSD_SensingCSD_LL.c **** }
 1395              		.loc 1 1887 0
 1396 0032 BD46     		mov	sp, r7
 1397 0034 02B0     		add	sp, sp, #8
 1398              		@ sp needed
 1399 0036 80BD     		pop	{r7, pc}
 1400              	.L71:
 1401              		.align	2
 1402              	.L70:
 1403 0038 00000000 		.word	CSD_dsFlash
 1404 003c 00000000 		.word	CSD_curSnsIOPtr
 1405              		.cfi_endproc
 1406              	.LFE18:
ARM GAS  C:\Users\CHRIST~1\AppData\Local\Temp\ccGy5PUQ.s 			page 59


 1407              		.size	CSD_SsCSDDisconnectSnsExt, .-CSD_SsCSDDisconnectSnsExt
 1408              		.section	.text.CSD_CSDConnectSns,"ax",%progbits
 1409              		.align	2
 1410              		.global	CSD_CSDConnectSns
 1411              		.code	16
 1412              		.thumb_func
 1413              		.type	CSD_CSDConnectSns, %function
 1414              	CSD_CSDConnectSns:
 1415              	.LFB19:
1888:Generated_Source\PSoC4/CSD_SensingCSD_LL.c **** 
1889:Generated_Source\PSoC4/CSD_SensingCSD_LL.c **** 
1890:Generated_Source\PSoC4/CSD_SensingCSD_LL.c **** /*******************************************************************************
1891:Generated_Source\PSoC4/CSD_SensingCSD_LL.c **** * Function Name: CSD_CSDConnectSns
1892:Generated_Source\PSoC4/CSD_SensingCSD_LL.c **** ****************************************************************************//**
1893:Generated_Source\PSoC4/CSD_SensingCSD_LL.c **** *
1894:Generated_Source\PSoC4/CSD_SensingCSD_LL.c **** * \brief
1895:Generated_Source\PSoC4/CSD_SensingCSD_LL.c **** *  Connects a port-pin used by the sensor to AMUX bus of CapSense block.
1896:Generated_Source\PSoC4/CSD_SensingCSD_LL.c **** *
1897:Generated_Source\PSoC4/CSD_SensingCSD_LL.c **** * \details
1898:Generated_Source\PSoC4/CSD_SensingCSD_LL.c **** *  Connects a port-pin used by the sensor to the AMUX bus of the CapSense block
1899:Generated_Source\PSoC4/CSD_SensingCSD_LL.c **** *  while a sensor is being scanned. The function does not take into account if
1900:Generated_Source\PSoC4/CSD_SensingCSD_LL.c **** *  the sensor is a ganged sensor and connects only a specified pin.
1901:Generated_Source\PSoC4/CSD_SensingCSD_LL.c **** *
1902:Generated_Source\PSoC4/CSD_SensingCSD_LL.c **** *  Scanning should be completed before calling this API.
1903:Generated_Source\PSoC4/CSD_SensingCSD_LL.c **** *
1904:Generated_Source\PSoC4/CSD_SensingCSD_LL.c **** *  It is not recommended to call this function directly from the application
1905:Generated_Source\PSoC4/CSD_SensingCSD_LL.c **** *  layer. This function should be used to implement only the users specific
1906:Generated_Source\PSoC4/CSD_SensingCSD_LL.c **** *  use cases. Functions that perform a setup and scan of sensor/widget
1907:Generated_Source\PSoC4/CSD_SensingCSD_LL.c **** *  automatically set the needed pin states and perform the sensor connection.
1908:Generated_Source\PSoC4/CSD_SensingCSD_LL.c **** *  They do not take into account changes in the design made by the
1909:Generated_Source\PSoC4/CSD_SensingCSD_LL.c **** *  CSD_CSDConnectSns() function.
1910:Generated_Source\PSoC4/CSD_SensingCSD_LL.c **** *
1911:Generated_Source\PSoC4/CSD_SensingCSD_LL.c **** * \param  snsAddrPtr
1912:Generated_Source\PSoC4/CSD_SensingCSD_LL.c **** *  Specify the pointer to the FLASH_IO_STRUCT object belonging to a sensor
1913:Generated_Source\PSoC4/CSD_SensingCSD_LL.c **** *  which should be connected to the CapSense block.
1914:Generated_Source\PSoC4/CSD_SensingCSD_LL.c **** *
1915:Generated_Source\PSoC4/CSD_SensingCSD_LL.c **** *******************************************************************************/
1916:Generated_Source\PSoC4/CSD_SensingCSD_LL.c **** void CSD_CSDConnectSns(CSD_FLASH_IO_STRUCT const *snsAddrPtr)
1917:Generated_Source\PSoC4/CSD_SensingCSD_LL.c **** {
 1416              		.loc 1 1917 0
 1417              		.cfi_startproc
 1418 0000 90B5     		push	{r4, r7, lr}
 1419              		.cfi_def_cfa_offset 12
 1420              		.cfi_offset 4, -12
 1421              		.cfi_offset 7, -8
 1422              		.cfi_offset 14, -4
 1423 0002 87B0     		sub	sp, sp, #28
 1424              		.cfi_def_cfa_offset 40
 1425 0004 00AF     		add	r7, sp, #0
 1426              		.cfi_def_cfa_register 7
 1427 0006 7860     		str	r0, [r7, #4]
1918:Generated_Source\PSoC4/CSD_SensingCSD_LL.c ****     uint32 newRegisterValue;
1919:Generated_Source\PSoC4/CSD_SensingCSD_LL.c ****     uint8  interruptState;
1920:Generated_Source\PSoC4/CSD_SensingCSD_LL.c ****     uint32 pinModeShift;
1921:Generated_Source\PSoC4/CSD_SensingCSD_LL.c ****     uint32 pinHSIOMShift;
1922:Generated_Source\PSoC4/CSD_SensingCSD_LL.c **** 
1923:Generated_Source\PSoC4/CSD_SensingCSD_LL.c ****     /* Get offsets for sensor */
ARM GAS  C:\Users\CHRIST~1\AppData\Local\Temp\ccGy5PUQ.s 			page 60


1924:Generated_Source\PSoC4/CSD_SensingCSD_LL.c ****     pinModeShift = (uint32)snsAddrPtr->shift;
 1428              		.loc 1 1924 0
 1429 0008 7B68     		ldr	r3, [r7, #4]
 1430 000a 9B7E     		ldrb	r3, [r3, #26]
 1431 000c 7B61     		str	r3, [r7, #20]
1925:Generated_Source\PSoC4/CSD_SensingCSD_LL.c ****     pinHSIOMShift = (uint32)snsAddrPtr->hsiomShift;
 1432              		.loc 1 1925 0
 1433 000e 7B68     		ldr	r3, [r7, #4]
 1434 0010 1B7E     		ldrb	r3, [r3, #24]
 1435 0012 3B61     		str	r3, [r7, #16]
1926:Generated_Source\PSoC4/CSD_SensingCSD_LL.c **** 
1927:Generated_Source\PSoC4/CSD_SensingCSD_LL.c ****     interruptState = CyEnterCriticalSection();
 1436              		.loc 1 1927 0
 1437 0014 0F23     		mov	r3, #15
 1438 0016 FC18     		add	r4, r7, r3
 1439 0018 FFF7FEFF 		bl	CyEnterCriticalSection
 1440 001c 031C     		mov	r3, r0
 1441 001e 2370     		strb	r3, [r4]
1928:Generated_Source\PSoC4/CSD_SensingCSD_LL.c **** 
1929:Generated_Source\PSoC4/CSD_SensingCSD_LL.c ****     /* Use temporary variable to update registers without multiple writings to them */
1930:Generated_Source\PSoC4/CSD_SensingCSD_LL.c ****     newRegisterValue = CY_GET_REG32(snsAddrPtr->hsiomPtr);
 1442              		.loc 1 1930 0
 1443 0020 7B68     		ldr	r3, [r7, #4]
 1444 0022 1B68     		ldr	r3, [r3]
 1445 0024 1B68     		ldr	r3, [r3]
 1446 0026 BB60     		str	r3, [r7, #8]
1931:Generated_Source\PSoC4/CSD_SensingCSD_LL.c ****     newRegisterValue &= ~(CSD_HSIOM_SEL_MASK << pinHSIOMShift);
 1447              		.loc 1 1931 0
 1448 0028 3B69     		ldr	r3, [r7, #16]
 1449 002a 0F22     		mov	r2, #15
 1450 002c 9A40     		lsl	r2, r2, r3
 1451 002e 131C     		mov	r3, r2
 1452 0030 DA43     		mvn	r2, r3
 1453 0032 BB68     		ldr	r3, [r7, #8]
 1454 0034 1340     		and	r3, r2
 1455 0036 BB60     		str	r3, [r7, #8]
1932:Generated_Source\PSoC4/CSD_SensingCSD_LL.c ****     newRegisterValue |= (uint32)((uint32)CSD_HSIOM_SEL_CSD_SENSE << pinHSIOMShift);
 1456              		.loc 1 1932 0
 1457 0038 3B69     		ldr	r3, [r7, #16]
 1458 003a 0422     		mov	r2, #4
 1459 003c 9A40     		lsl	r2, r2, r3
 1460 003e 131C     		mov	r3, r2
 1461 0040 BA68     		ldr	r2, [r7, #8]
 1462 0042 1343     		orr	r3, r2
 1463 0044 BB60     		str	r3, [r7, #8]
1933:Generated_Source\PSoC4/CSD_SensingCSD_LL.c **** 
1934:Generated_Source\PSoC4/CSD_SensingCSD_LL.c ****     /* Update port configuration register (drive mode) for sensor */
1935:Generated_Source\PSoC4/CSD_SensingCSD_LL.c ****     CY_SET_REG32(snsAddrPtr->pcPtr, CY_GET_REG32(snsAddrPtr->pcPtr) & (uint32)~((uint32)CSD_GPIO_PC
 1464              		.loc 1 1935 0
 1465 0046 7B68     		ldr	r3, [r7, #4]
 1466 0048 5B68     		ldr	r3, [r3, #4]
 1467 004a 7A68     		ldr	r2, [r7, #4]
 1468 004c 5268     		ldr	r2, [r2, #4]
 1469 004e 1268     		ldr	r2, [r2]
 1470 0050 7969     		ldr	r1, [r7, #20]
 1471 0052 0720     		mov	r0, #7
 1472 0054 8840     		lsl	r0, r0, r1
ARM GAS  C:\Users\CHRIST~1\AppData\Local\Temp\ccGy5PUQ.s 			page 61


 1473 0056 011C     		mov	r1, r0
 1474 0058 C943     		mvn	r1, r1
 1475 005a 0A40     		and	r2, r1
 1476 005c 1A60     		str	r2, [r3]
1936:Generated_Source\PSoC4/CSD_SensingCSD_LL.c **** 
1937:Generated_Source\PSoC4/CSD_SensingCSD_LL.c ****     /* Update HSIOM register for sensor */
1938:Generated_Source\PSoC4/CSD_SensingCSD_LL.c ****     CY_SET_REG32(snsAddrPtr->hsiomPtr, newRegisterValue);
 1477              		.loc 1 1938 0
 1478 005e 7B68     		ldr	r3, [r7, #4]
 1479 0060 1B68     		ldr	r3, [r3]
 1480 0062 BA68     		ldr	r2, [r7, #8]
 1481 0064 1A60     		str	r2, [r3]
1939:Generated_Source\PSoC4/CSD_SensingCSD_LL.c **** 
1940:Generated_Source\PSoC4/CSD_SensingCSD_LL.c ****     CyExitCriticalSection(interruptState);
 1482              		.loc 1 1940 0
 1483 0066 0F23     		mov	r3, #15
 1484 0068 FB18     		add	r3, r7, r3
 1485 006a 1B78     		ldrb	r3, [r3]
 1486 006c 181C     		mov	r0, r3
 1487 006e FFF7FEFF 		bl	CyExitCriticalSection
1941:Generated_Source\PSoC4/CSD_SensingCSD_LL.c **** }
 1488              		.loc 1 1941 0
 1489 0072 BD46     		mov	sp, r7
 1490 0074 07B0     		add	sp, sp, #28
 1491              		@ sp needed
 1492 0076 90BD     		pop	{r4, r7, pc}
 1493              		.cfi_endproc
 1494              	.LFE19:
 1495              		.size	CSD_CSDConnectSns, .-CSD_CSDConnectSns
 1496              		.section	.text.CSD_CSDDisconnectSns,"ax",%progbits
 1497              		.align	2
 1498              		.global	CSD_CSDDisconnectSns
 1499              		.code	16
 1500              		.thumb_func
 1501              		.type	CSD_CSDDisconnectSns, %function
 1502              	CSD_CSDDisconnectSns:
 1503              	.LFB20:
1942:Generated_Source\PSoC4/CSD_SensingCSD_LL.c **** 
1943:Generated_Source\PSoC4/CSD_SensingCSD_LL.c **** 
1944:Generated_Source\PSoC4/CSD_SensingCSD_LL.c **** /*******************************************************************************
1945:Generated_Source\PSoC4/CSD_SensingCSD_LL.c **** * Function Name: CSD_CSDDisconnectSns
1946:Generated_Source\PSoC4/CSD_SensingCSD_LL.c **** ****************************************************************************//**
1947:Generated_Source\PSoC4/CSD_SensingCSD_LL.c **** *
1948:Generated_Source\PSoC4/CSD_SensingCSD_LL.c **** * \brief
1949:Generated_Source\PSoC4/CSD_SensingCSD_LL.c **** *  Disconnects a sensor port-pin from the CapSense block and AMUX bus. Sets
1950:Generated_Source\PSoC4/CSD_SensingCSD_LL.c **** *  the default state of the un-scanned sensor.
1951:Generated_Source\PSoC4/CSD_SensingCSD_LL.c **** *
1952:Generated_Source\PSoC4/CSD_SensingCSD_LL.c **** * \details
1953:Generated_Source\PSoC4/CSD_SensingCSD_LL.c **** *  This function works identically to CSD_CSDConnectSns() except
1954:Generated_Source\PSoC4/CSD_SensingCSD_LL.c **** *  it disconnects the specified port-pin used by the sensor.
1955:Generated_Source\PSoC4/CSD_SensingCSD_LL.c **** *
1956:Generated_Source\PSoC4/CSD_SensingCSD_LL.c **** *  It is not recommended to call this function directly from the application
1957:Generated_Source\PSoC4/CSD_SensingCSD_LL.c **** *  layer. This function should be used to implement only the users specific
1958:Generated_Source\PSoC4/CSD_SensingCSD_LL.c **** *  use cases. Functions that perform a setup and scan of sensor/widget
1959:Generated_Source\PSoC4/CSD_SensingCSD_LL.c **** *  automatically set the needed pin states and perform the sensor connection.
1960:Generated_Source\PSoC4/CSD_SensingCSD_LL.c **** *  They do not take into account changes in the design made by the
1961:Generated_Source\PSoC4/CSD_SensingCSD_LL.c **** *  CSD_CSDDisconnectSns() function.
ARM GAS  C:\Users\CHRIST~1\AppData\Local\Temp\ccGy5PUQ.s 			page 62


1962:Generated_Source\PSoC4/CSD_SensingCSD_LL.c **** *
1963:Generated_Source\PSoC4/CSD_SensingCSD_LL.c **** * \param  snsAddrPtr
1964:Generated_Source\PSoC4/CSD_SensingCSD_LL.c **** *  Specify the pointer to the FLASH_IO_STRUCT object belonging to a sensor
1965:Generated_Source\PSoC4/CSD_SensingCSD_LL.c **** *  which should be disconnected from the CapSense block.
1966:Generated_Source\PSoC4/CSD_SensingCSD_LL.c **** *
1967:Generated_Source\PSoC4/CSD_SensingCSD_LL.c **** *******************************************************************************/
1968:Generated_Source\PSoC4/CSD_SensingCSD_LL.c **** void CSD_CSDDisconnectSns(CSD_FLASH_IO_STRUCT const *snsAddrPtr)
1969:Generated_Source\PSoC4/CSD_SensingCSD_LL.c **** {
 1504              		.loc 1 1969 0
 1505              		.cfi_startproc
 1506 0000 90B5     		push	{r4, r7, lr}
 1507              		.cfi_def_cfa_offset 12
 1508              		.cfi_offset 4, -12
 1509              		.cfi_offset 7, -8
 1510              		.cfi_offset 14, -4
 1511 0002 87B0     		sub	sp, sp, #28
 1512              		.cfi_def_cfa_offset 40
 1513 0004 00AF     		add	r7, sp, #0
 1514              		.cfi_def_cfa_register 7
 1515 0006 7860     		str	r0, [r7, #4]
1970:Generated_Source\PSoC4/CSD_SensingCSD_LL.c ****     uint32 pinHSIOMShift;
1971:Generated_Source\PSoC4/CSD_SensingCSD_LL.c ****     uint32 newRegisterValue;
1972:Generated_Source\PSoC4/CSD_SensingCSD_LL.c ****     uint32 pinModeShift;
1973:Generated_Source\PSoC4/CSD_SensingCSD_LL.c **** 
1974:Generated_Source\PSoC4/CSD_SensingCSD_LL.c ****     #if ((CSD_DISABLE == CSD_CSD_SHIELD_EN) || \
1975:Generated_Source\PSoC4/CSD_SensingCSD_LL.c ****         (CSD_SNS_CONNECTION_SHIELD != CSD_CSD_INACTIVE_SNS_CONNECTION))
1976:Generated_Source\PSoC4/CSD_SensingCSD_LL.c ****         uint8  interruptState;
1977:Generated_Source\PSoC4/CSD_SensingCSD_LL.c ****     #endif /* ((CSD_DISABLE == CSD_CSD_SHIELD_EN) && \
1978:Generated_Source\PSoC4/CSD_SensingCSD_LL.c ****                 (CSD_SNS_CONNECTION_SHIELD != CSD_CSD_INACTIVE_SNS_CONNECTION))) */
1979:Generated_Source\PSoC4/CSD_SensingCSD_LL.c **** 
1980:Generated_Source\PSoC4/CSD_SensingCSD_LL.c ****     pinHSIOMShift = (uint32)snsAddrPtr->hsiomShift;
 1516              		.loc 1 1980 0
 1517 0008 7B68     		ldr	r3, [r7, #4]
 1518 000a 1B7E     		ldrb	r3, [r3, #24]
 1519 000c 7B61     		str	r3, [r7, #20]
1981:Generated_Source\PSoC4/CSD_SensingCSD_LL.c ****     pinModeShift = (uint32)snsAddrPtr->shift;
 1520              		.loc 1 1981 0
 1521 000e 7B68     		ldr	r3, [r7, #4]
 1522 0010 9B7E     		ldrb	r3, [r3, #26]
 1523 0012 3B61     		str	r3, [r7, #16]
1982:Generated_Source\PSoC4/CSD_SensingCSD_LL.c **** 
1983:Generated_Source\PSoC4/CSD_SensingCSD_LL.c ****     #if ((CSD_DISABLE == CSD_CSD_SHIELD_EN) ||  \
1984:Generated_Source\PSoC4/CSD_SensingCSD_LL.c ****         (CSD_SNS_CONNECTION_SHIELD != CSD_CSD_INACTIVE_SNS_CONNECTION))
1985:Generated_Source\PSoC4/CSD_SensingCSD_LL.c ****         /* Update HSIOM register to disconnect sensor */
1986:Generated_Source\PSoC4/CSD_SensingCSD_LL.c ****         CY_SET_REG32(snsAddrPtr->hsiomPtr, CY_GET_REG32(snsAddrPtr->hsiomPtr) & ~(CSD_HSIOM_SEL_MAS
 1524              		.loc 1 1986 0
 1525 0014 7B68     		ldr	r3, [r7, #4]
 1526 0016 1B68     		ldr	r3, [r3]
 1527 0018 7A68     		ldr	r2, [r7, #4]
 1528 001a 1268     		ldr	r2, [r2]
 1529 001c 1268     		ldr	r2, [r2]
 1530 001e 7969     		ldr	r1, [r7, #20]
 1531 0020 0F20     		mov	r0, #15
 1532 0022 8840     		lsl	r0, r0, r1
 1533 0024 011C     		mov	r1, r0
 1534 0026 C943     		mvn	r1, r1
 1535 0028 0A40     		and	r2, r1
ARM GAS  C:\Users\CHRIST~1\AppData\Local\Temp\ccGy5PUQ.s 			page 63


 1536 002a 1A60     		str	r2, [r3]
1987:Generated_Source\PSoC4/CSD_SensingCSD_LL.c **** 
1988:Generated_Source\PSoC4/CSD_SensingCSD_LL.c ****         interruptState = CyEnterCriticalSection();
 1537              		.loc 1 1988 0
 1538 002c 0F23     		mov	r3, #15
 1539 002e FC18     		add	r4, r7, r3
 1540 0030 FFF7FEFF 		bl	CyEnterCriticalSection
 1541 0034 031C     		mov	r3, r0
 1542 0036 2370     		strb	r3, [r4]
1989:Generated_Source\PSoC4/CSD_SensingCSD_LL.c **** 
1990:Generated_Source\PSoC4/CSD_SensingCSD_LL.c ****         /* Update port configuration register (drive mode) for sensor */
1991:Generated_Source\PSoC4/CSD_SensingCSD_LL.c ****         newRegisterValue = CY_GET_REG32(snsAddrPtr->pcPtr);
 1543              		.loc 1 1991 0
 1544 0038 7B68     		ldr	r3, [r7, #4]
 1545 003a 5B68     		ldr	r3, [r3, #4]
 1546 003c 1B68     		ldr	r3, [r3]
 1547 003e BB60     		str	r3, [r7, #8]
1992:Generated_Source\PSoC4/CSD_SensingCSD_LL.c ****         newRegisterValue &= ~(CSD_GPIO_PC_MASK << pinModeShift);
 1548              		.loc 1 1992 0
 1549 0040 3B69     		ldr	r3, [r7, #16]
 1550 0042 0722     		mov	r2, #7
 1551 0044 9A40     		lsl	r2, r2, r3
 1552 0046 131C     		mov	r3, r2
 1553 0048 DA43     		mvn	r2, r3
 1554 004a BB68     		ldr	r3, [r7, #8]
 1555 004c 1340     		and	r3, r2
 1556 004e BB60     		str	r3, [r7, #8]
1993:Generated_Source\PSoC4/CSD_SensingCSD_LL.c ****         newRegisterValue |= CSD_CSD_INACTIVE_SNS_CONNECTION << pinModeShift;
 1557              		.loc 1 1993 0
 1558 0050 3B69     		ldr	r3, [r7, #16]
 1559 0052 0622     		mov	r2, #6
 1560 0054 9A40     		lsl	r2, r2, r3
 1561 0056 131C     		mov	r3, r2
 1562 0058 BA68     		ldr	r2, [r7, #8]
 1563 005a 1343     		orr	r3, r2
 1564 005c BB60     		str	r3, [r7, #8]
1994:Generated_Source\PSoC4/CSD_SensingCSD_LL.c ****         CY_SET_REG32(snsAddrPtr->pcPtr, newRegisterValue);
 1565              		.loc 1 1994 0
 1566 005e 7B68     		ldr	r3, [r7, #4]
 1567 0060 5B68     		ldr	r3, [r3, #4]
 1568 0062 BA68     		ldr	r2, [r7, #8]
 1569 0064 1A60     		str	r2, [r3]
1995:Generated_Source\PSoC4/CSD_SensingCSD_LL.c **** 
1996:Generated_Source\PSoC4/CSD_SensingCSD_LL.c ****         CyExitCriticalSection(interruptState);
 1570              		.loc 1 1996 0
 1571 0066 0F23     		mov	r3, #15
 1572 0068 FB18     		add	r3, r7, r3
 1573 006a 1B78     		ldrb	r3, [r3]
 1574 006c 181C     		mov	r0, r3
 1575 006e FFF7FEFF 		bl	CyExitCriticalSection
1997:Generated_Source\PSoC4/CSD_SensingCSD_LL.c **** 
1998:Generated_Source\PSoC4/CSD_SensingCSD_LL.c ****         /* Set logic 0 to port data register */
1999:Generated_Source\PSoC4/CSD_SensingCSD_LL.c ****         CY_SET_REG32(snsAddrPtr->drPtr, CY_GET_REG32(snsAddrPtr->drPtr) & (uint32)~(uint32)((uint32
 1576              		.loc 1 1999 0
 1577 0072 7B68     		ldr	r3, [r7, #4]
 1578 0074 9B68     		ldr	r3, [r3, #8]
 1579 0076 7A68     		ldr	r2, [r7, #4]
ARM GAS  C:\Users\CHRIST~1\AppData\Local\Temp\ccGy5PUQ.s 			page 64


 1580 0078 9268     		ldr	r2, [r2, #8]
 1581 007a 1268     		ldr	r2, [r2]
 1582 007c 7968     		ldr	r1, [r7, #4]
 1583 007e 497E     		ldrb	r1, [r1, #25]
 1584 0080 081C     		mov	r0, r1
 1585 0082 0121     		mov	r1, #1
 1586 0084 8140     		lsl	r1, r1, r0
 1587 0086 C943     		mvn	r1, r1
 1588 0088 0A40     		and	r2, r1
 1589 008a 1A60     		str	r2, [r3]
2000:Generated_Source\PSoC4/CSD_SensingCSD_LL.c ****     #else
2001:Generated_Source\PSoC4/CSD_SensingCSD_LL.c ****         /* Update port configuration register (drive mode to HiZ Analog) for sensor */
2002:Generated_Source\PSoC4/CSD_SensingCSD_LL.c ****         CY_SET_REG32(snsAddrPtr->pcPtr, CY_GET_REG32(snsAddrPtr->pcPtr) & (uint32)~((uint32)CSD_GPI
2003:Generated_Source\PSoC4/CSD_SensingCSD_LL.c **** 
2004:Generated_Source\PSoC4/CSD_SensingCSD_LL.c ****         /* Connect to Shield */
2005:Generated_Source\PSoC4/CSD_SensingCSD_LL.c ****         newRegisterValue = CY_GET_REG32(snsAddrPtr->hsiomPtr) & ~(CSD_HSIOM_SEL_MASK << pinHSIOMShi
2006:Generated_Source\PSoC4/CSD_SensingCSD_LL.c ****         newRegisterValue |= (CSD_HSIOM_SEL_CSD_SHIELD << pinHSIOMShift);
2007:Generated_Source\PSoC4/CSD_SensingCSD_LL.c ****         CY_SET_REG32(snsAddrPtr->hsiomPtr, newRegisterValue);
2008:Generated_Source\PSoC4/CSD_SensingCSD_LL.c ****     #endif /* ((CSD_DISABLE == CSD_CSD_SHIELD_EN) && \
2009:Generated_Source\PSoC4/CSD_SensingCSD_LL.c ****                 (CSD_SNS_CONNECTION_SHIELD != CSD_CSD_INACTIVE_SNS_CONNECTION)) */
2010:Generated_Source\PSoC4/CSD_SensingCSD_LL.c **** }
 1590              		.loc 1 2010 0
 1591 008c BD46     		mov	sp, r7
 1592 008e 07B0     		add	sp, sp, #28
 1593              		@ sp needed
 1594 0090 90BD     		pop	{r4, r7, pc}
 1595              		.cfi_endproc
 1596              	.LFE20:
 1597              		.size	CSD_CSDDisconnectSns, .-CSD_CSDDisconnectSns
 1598 0092 C046     		.section	.text.CSD_SsCSDCalibrateCheck,"ax",%progbits
 1599              		.align	2
 1600              		.code	16
 1601              		.thumb_func
 1602              		.type	CSD_SsCSDCalibrateCheck, %function
 1603              	CSD_SsCSDCalibrateCheck:
 1604              	.LFB21:
2011:Generated_Source\PSoC4/CSD_SensingCSD_LL.c **** 
2012:Generated_Source\PSoC4/CSD_SensingCSD_LL.c **** 
2013:Generated_Source\PSoC4/CSD_SensingCSD_LL.c **** #if ((CSD_CSD_SS_DIS != CSD_CSD_AUTOTUNE) || \
2014:Generated_Source\PSoC4/CSD_SensingCSD_LL.c ****      (CSD_ENABLE == CSD_CSD_IDAC_AUTOCAL_EN))
2015:Generated_Source\PSoC4/CSD_SensingCSD_LL.c ****     /*******************************************************************************
2016:Generated_Source\PSoC4/CSD_SensingCSD_LL.c ****     * Function Name: CSD_SsCSDCalibrateCheck
2017:Generated_Source\PSoC4/CSD_SensingCSD_LL.c ****     ****************************************************************************//**
2018:Generated_Source\PSoC4/CSD_SensingCSD_LL.c ****     *
2019:Generated_Source\PSoC4/CSD_SensingCSD_LL.c ****     * \brief
2020:Generated_Source\PSoC4/CSD_SensingCSD_LL.c ****     *  This internal function checks if the calibration is performed successfully.
2021:Generated_Source\PSoC4/CSD_SensingCSD_LL.c ****     *
2022:Generated_Source\PSoC4/CSD_SensingCSD_LL.c ****     * \details
2023:Generated_Source\PSoC4/CSD_SensingCSD_LL.c ****     *   The function verifies calibration error based on maximum raw count level.
2024:Generated_Source\PSoC4/CSD_SensingCSD_LL.c ****     *
2025:Generated_Source\PSoC4/CSD_SensingCSD_LL.c ****     * \param rawLevel The raw data level which should be reached during the
2026:Generated_Source\PSoC4/CSD_SensingCSD_LL.c ****     *   calibration procedure.
2027:Generated_Source\PSoC4/CSD_SensingCSD_LL.c ****     * \param rawData  Calibrated raw counts.
2028:Generated_Source\PSoC4/CSD_SensingCSD_LL.c ****     *
2029:Generated_Source\PSoC4/CSD_SensingCSD_LL.c ****     * \return Returns the status of operation:
2030:Generated_Source\PSoC4/CSD_SensingCSD_LL.c ****     *   - Zero     - All the sensors in the widget are calibrated successfully.
2031:Generated_Source\PSoC4/CSD_SensingCSD_LL.c ****     *   - Non-Zero - Calibration failed for any sensor in the widget.
ARM GAS  C:\Users\CHRIST~1\AppData\Local\Temp\ccGy5PUQ.s 			page 65


2032:Generated_Source\PSoC4/CSD_SensingCSD_LL.c ****     *
2033:Generated_Source\PSoC4/CSD_SensingCSD_LL.c ****     *******************************************************************************/
2034:Generated_Source\PSoC4/CSD_SensingCSD_LL.c ****     static cystatus CSD_SsCSDCalibrateCheck(CSD_RAM_WD_BASE_STRUCT const *ptrWdgt, uint32 rawLevel,
2035:Generated_Source\PSoC4/CSD_SensingCSD_LL.c ****     {
 1605              		.loc 1 2035 0
 1606              		.cfi_startproc
 1607 0000 80B5     		push	{r7, lr}
 1608              		.cfi_def_cfa_offset 8
 1609              		.cfi_offset 7, -8
 1610              		.cfi_offset 14, -4
 1611 0002 88B0     		sub	sp, sp, #32
 1612              		.cfi_def_cfa_offset 40
 1613 0004 00AF     		add	r7, sp, #0
 1614              		.cfi_def_cfa_register 7
 1615 0006 F860     		str	r0, [r7, #12]
 1616 0008 B960     		str	r1, [r7, #8]
 1617 000a 7A60     		str	r2, [r7, #4]
2036:Generated_Source\PSoC4/CSD_SensingCSD_LL.c ****         cystatus calibrateStatus;
2037:Generated_Source\PSoC4/CSD_SensingCSD_LL.c ****         uint32 rawCountsError;
2038:Generated_Source\PSoC4/CSD_SensingCSD_LL.c ****         uint32 minRawLevel = 0u;
 1618              		.loc 1 2038 0
 1619 000c 0023     		mov	r3, #0
 1620 000e BB61     		str	r3, [r7, #24]
2039:Generated_Source\PSoC4/CSD_SensingCSD_LL.c ****         uint32 maxRawLevel = (0x00000001Lu << ptrWdgt->resolution) - 1u;
 1621              		.loc 1 2039 0
 1622 0010 FB68     		ldr	r3, [r7, #12]
 1623 0012 1B88     		ldrh	r3, [r3]
 1624 0014 1A1C     		mov	r2, r3
 1625 0016 0123     		mov	r3, #1
 1626 0018 9340     		lsl	r3, r3, r2
 1627 001a 013B     		sub	r3, r3, #1
 1628 001c 7B61     		str	r3, [r7, #20]
2040:Generated_Source\PSoC4/CSD_SensingCSD_LL.c **** 
2041:Generated_Source\PSoC4/CSD_SensingCSD_LL.c ****         /* Calculate the error in rawcounts for given resolution (round to floor) */
2042:Generated_Source\PSoC4/CSD_SensingCSD_LL.c ****         rawCountsError = (maxRawLevel * CSD_IDAC_MOD_MAX_CALIB_ERROR_NEG) /
 1629              		.loc 1 2042 0
 1630 001e 7A69     		ldr	r2, [r7, #20]
 1631 0020 131C     		mov	r3, r2
 1632 0022 9B00     		lsl	r3, r3, #2
 1633 0024 9B18     		add	r3, r3, r2
 1634 0026 5B00     		lsl	r3, r3, #1
 1635 0028 181C     		mov	r0, r3
 1636 002a 6421     		mov	r1, #100
 1637 002c FFF7FEFF 		bl	__aeabi_uidiv
 1638 0030 031C     		mov	r3, r0
 1639 0032 0133     		add	r3, r3, #1
 1640 0034 3B61     		str	r3, [r7, #16]
2043:Generated_Source\PSoC4/CSD_SensingCSD_LL.c ****                           CSD_PERCENTAGE_100 + 1u;
2044:Generated_Source\PSoC4/CSD_SensingCSD_LL.c **** 
2045:Generated_Source\PSoC4/CSD_SensingCSD_LL.c ****         /* Get minimum and maximum range values */
2046:Generated_Source\PSoC4/CSD_SensingCSD_LL.c ****         if ((rawLevel + rawCountsError) <= maxRawLevel)
 1641              		.loc 1 2046 0
 1642 0036 BA68     		ldr	r2, [r7, #8]
 1643 0038 3B69     		ldr	r3, [r7, #16]
 1644 003a D218     		add	r2, r2, r3
 1645 003c 7B69     		ldr	r3, [r7, #20]
 1646 003e 9A42     		cmp	r2, r3
ARM GAS  C:\Users\CHRIST~1\AppData\Local\Temp\ccGy5PUQ.s 			page 66


 1647 0040 03D8     		bhi	.L75
2047:Generated_Source\PSoC4/CSD_SensingCSD_LL.c ****         {
2048:Generated_Source\PSoC4/CSD_SensingCSD_LL.c ****             maxRawLevel = rawLevel + rawCountsError;
 1648              		.loc 1 2048 0
 1649 0042 BA68     		ldr	r2, [r7, #8]
 1650 0044 3B69     		ldr	r3, [r7, #16]
 1651 0046 D318     		add	r3, r2, r3
 1652 0048 7B61     		str	r3, [r7, #20]
 1653              	.L75:
2049:Generated_Source\PSoC4/CSD_SensingCSD_LL.c ****         }
2050:Generated_Source\PSoC4/CSD_SensingCSD_LL.c ****         if (rawLevel >= rawCountsError)
 1654              		.loc 1 2050 0
 1655 004a BA68     		ldr	r2, [r7, #8]
 1656 004c 3B69     		ldr	r3, [r7, #16]
 1657 004e 9A42     		cmp	r2, r3
 1658 0050 03D3     		bcc	.L76
2051:Generated_Source\PSoC4/CSD_SensingCSD_LL.c ****         {
2052:Generated_Source\PSoC4/CSD_SensingCSD_LL.c ****             minRawLevel = rawLevel - rawCountsError;
 1659              		.loc 1 2052 0
 1660 0052 BA68     		ldr	r2, [r7, #8]
 1661 0054 3B69     		ldr	r3, [r7, #16]
 1662 0056 D31A     		sub	r3, r2, r3
 1663 0058 BB61     		str	r3, [r7, #24]
 1664              	.L76:
2053:Generated_Source\PSoC4/CSD_SensingCSD_LL.c ****         }
2054:Generated_Source\PSoC4/CSD_SensingCSD_LL.c **** 
2055:Generated_Source\PSoC4/CSD_SensingCSD_LL.c ****         /* Check if calibration is in valid range */
2056:Generated_Source\PSoC4/CSD_SensingCSD_LL.c ****         if ((rawData < minRawLevel) || (rawData > maxRawLevel))
 1665              		.loc 1 2056 0
 1666 005a 7A68     		ldr	r2, [r7, #4]
 1667 005c BB69     		ldr	r3, [r7, #24]
 1668 005e 9A42     		cmp	r2, r3
 1669 0060 03D3     		bcc	.L77
 1670              		.loc 1 2056 0 is_stmt 0 discriminator 1
 1671 0062 7A68     		ldr	r2, [r7, #4]
 1672 0064 7B69     		ldr	r3, [r7, #20]
 1673 0066 9A42     		cmp	r2, r3
 1674 0068 02D9     		bls	.L78
 1675              	.L77:
2057:Generated_Source\PSoC4/CSD_SensingCSD_LL.c ****         {
2058:Generated_Source\PSoC4/CSD_SensingCSD_LL.c ****             calibrateStatus = CYRET_BAD_DATA;
 1676              		.loc 1 2058 0 is_stmt 1
 1677 006a 0623     		mov	r3, #6
 1678 006c FB61     		str	r3, [r7, #28]
 1679 006e 01E0     		b	.L79
 1680              	.L78:
2059:Generated_Source\PSoC4/CSD_SensingCSD_LL.c ****         }
2060:Generated_Source\PSoC4/CSD_SensingCSD_LL.c ****         else
2061:Generated_Source\PSoC4/CSD_SensingCSD_LL.c ****         {
2062:Generated_Source\PSoC4/CSD_SensingCSD_LL.c ****             calibrateStatus = CYRET_SUCCESS;
 1681              		.loc 1 2062 0
 1682 0070 0023     		mov	r3, #0
 1683 0072 FB61     		str	r3, [r7, #28]
 1684              	.L79:
2063:Generated_Source\PSoC4/CSD_SensingCSD_LL.c ****         }
2064:Generated_Source\PSoC4/CSD_SensingCSD_LL.c **** 
2065:Generated_Source\PSoC4/CSD_SensingCSD_LL.c ****         return (calibrateStatus);
ARM GAS  C:\Users\CHRIST~1\AppData\Local\Temp\ccGy5PUQ.s 			page 67


 1685              		.loc 1 2065 0
 1686 0074 FB69     		ldr	r3, [r7, #28]
2066:Generated_Source\PSoC4/CSD_SensingCSD_LL.c ****     }
 1687              		.loc 1 2066 0
 1688 0076 181C     		mov	r0, r3
 1689 0078 BD46     		mov	sp, r7
 1690 007a 08B0     		add	sp, sp, #32
 1691              		@ sp needed
 1692 007c 80BD     		pop	{r7, pc}
 1693              		.cfi_endproc
 1694              	.LFE21:
 1695              		.size	CSD_SsCSDCalibrateCheck, .-CSD_SsCSDCalibrateCheck
 1696 007e C046     		.section	.text.CSD_SsCSDSetSingleIdacMode,"ax",%progbits
 1697              		.align	2
 1698              		.code	16
 1699              		.thumb_func
 1700              		.type	CSD_SsCSDSetSingleIdacMode, %function
 1701              	CSD_SsCSDSetSingleIdacMode:
 1702              	.LFB22:
2067:Generated_Source\PSoC4/CSD_SensingCSD_LL.c **** 
2068:Generated_Source\PSoC4/CSD_SensingCSD_LL.c **** 
2069:Generated_Source\PSoC4/CSD_SensingCSD_LL.c ****     #if (CSD_ENABLE == CSD_CSD_IDAC_COMP_EN)
2070:Generated_Source\PSoC4/CSD_SensingCSD_LL.c ****         /*******************************************************************************
2071:Generated_Source\PSoC4/CSD_SensingCSD_LL.c ****         * Function Name: CSD_SsCSDSetSingleIdacMode
2072:Generated_Source\PSoC4/CSD_SensingCSD_LL.c ****         ****************************************************************************//**
2073:Generated_Source\PSoC4/CSD_SensingCSD_LL.c ****         *
2074:Generated_Source\PSoC4/CSD_SensingCSD_LL.c ****         * \brief
2075:Generated_Source\PSoC4/CSD_SensingCSD_LL.c ****         *  This function set single IDAC mode.
2076:Generated_Source\PSoC4/CSD_SensingCSD_LL.c ****         *
2077:Generated_Source\PSoC4/CSD_SensingCSD_LL.c ****         * \details
2078:Generated_Source\PSoC4/CSD_SensingCSD_LL.c ****         *   For CSDv1: The function enables Modulator IDAC only in variable mode.
2079:Generated_Source\PSoC4/CSD_SensingCSD_LL.c ****         *   For CSDv2: The function enables IDACA LEG1 in CSD mode, IDACA LEG2 in GP mode.
2080:Generated_Source\PSoC4/CSD_SensingCSD_LL.c ****         *
2081:Generated_Source\PSoC4/CSD_SensingCSD_LL.c ****         *******************************************************************************/
2082:Generated_Source\PSoC4/CSD_SensingCSD_LL.c ****         static void CSD_SsCSDSetSingleIdacMode(void)
2083:Generated_Source\PSoC4/CSD_SensingCSD_LL.c ****         {
 1703              		.loc 1 2083 0
 1704              		.cfi_startproc
 1705 0000 80B5     		push	{r7, lr}
 1706              		.cfi_def_cfa_offset 8
 1707              		.cfi_offset 7, -8
 1708              		.cfi_offset 14, -4
 1709 0002 82B0     		sub	sp, sp, #8
 1710              		.cfi_def_cfa_offset 16
 1711 0004 00AF     		add	r7, sp, #0
 1712              		.cfi_def_cfa_register 7
2084:Generated_Source\PSoC4/CSD_SensingCSD_LL.c ****             uint32 newRegValue;
2085:Generated_Source\PSoC4/CSD_SensingCSD_LL.c **** 
2086:Generated_Source\PSoC4/CSD_SensingCSD_LL.c ****             #if (CSD_ENABLE == CSD_CSDV2)
2087:Generated_Source\PSoC4/CSD_SensingCSD_LL.c ****                 /* Enable IDACA LEG1 in CSD mode, IDACA LEG2 in GP mode */
2088:Generated_Source\PSoC4/CSD_SensingCSD_LL.c ****                 newRegValue = CY_GET_REG32(CSD_IDAC_MOD_PTR) &
 1713              		.loc 1 2088 0
 1714 0006 0E4B     		ldr	r3, .L82
 1715 0008 1B68     		ldr	r3, [r3]
 1716 000a 7F22     		mov	r2, #127
 1717 000c 1340     		and	r3, r2
 1718 000e 7B60     		str	r3, [r7, #4]
ARM GAS  C:\Users\CHRIST~1\AppData\Local\Temp\ccGy5PUQ.s 			page 68


2089:Generated_Source\PSoC4/CSD_SensingCSD_LL.c ****                               CSD_IDAC_MOD_VAL_MASK;
2090:Generated_Source\PSoC4/CSD_SensingCSD_LL.c ****                 newRegValue |= CSD_CALIBRATE_IDAC_MOD;
 1719              		.loc 1 2090 0
 1720 0010 7B68     		ldr	r3, [r7, #4]
 1721 0012 0C4A     		ldr	r2, .L82+4
 1722 0014 1343     		orr	r3, r2
 1723 0016 7B60     		str	r3, [r7, #4]
2091:Generated_Source\PSoC4/CSD_SensingCSD_LL.c ****                 CY_SET_REG32(CSD_IDAC_MOD_PTR, newRegValue);
 1724              		.loc 1 2091 0
 1725 0018 094B     		ldr	r3, .L82
 1726 001a 7A68     		ldr	r2, [r7, #4]
 1727 001c 1A60     		str	r2, [r3]
2092:Generated_Source\PSoC4/CSD_SensingCSD_LL.c ****                 #if (CSD_ENABLE == CSD_CSD_IDAC_COMP_EN) && \
2093:Generated_Source\PSoC4/CSD_SensingCSD_LL.c ****                     (CSD_ENABLE == CSD_CSD_DEDICATED_IDAC_COMP_EN)
2094:Generated_Source\PSoC4/CSD_SensingCSD_LL.c ****                     newRegValue = CY_GET_REG32(CSD_IDAC_COMP_PTR) &
 1728              		.loc 1 2094 0
 1729 001e 0A4B     		ldr	r3, .L82+8
 1730 0020 1B68     		ldr	r3, [r3]
 1731 0022 7F22     		mov	r2, #127
 1732 0024 1340     		and	r3, r2
 1733 0026 7B60     		str	r3, [r7, #4]
2095:Generated_Source\PSoC4/CSD_SensingCSD_LL.c ****                                   CSD_IDAC_COMP_VAL_MASK;
2096:Generated_Source\PSoC4/CSD_SensingCSD_LL.c ****                     newRegValue |= CSD_CALIBRATE_IDAC_COMP;
 1734              		.loc 1 2096 0
 1735 0028 7B68     		ldr	r3, [r7, #4]
 1736 002a 8022     		mov	r2, #128
 1737 002c 1204     		lsl	r2, r2, #16
 1738 002e 1343     		orr	r3, r2
 1739 0030 7B60     		str	r3, [r7, #4]
2097:Generated_Source\PSoC4/CSD_SensingCSD_LL.c ****                     CY_SET_REG32(CSD_IDAC_COMP_PTR, newRegValue);
 1740              		.loc 1 2097 0
 1741 0032 054B     		ldr	r3, .L82+8
 1742 0034 7A68     		ldr	r2, [r7, #4]
 1743 0036 1A60     		str	r2, [r3]
2098:Generated_Source\PSoC4/CSD_SensingCSD_LL.c ****                 #endif /* (CSD_ENABLE == CSD_CSD_IDAC_COMP_EN) && \
2099:Generated_Source\PSoC4/CSD_SensingCSD_LL.c ****                           (CSD_ENABLE == CSD_CSD_DEDICATED_IDAC_COMP_EN */
2100:Generated_Source\PSoC4/CSD_SensingCSD_LL.c ****             #else
2101:Generated_Source\PSoC4/CSD_SensingCSD_LL.c ****                 /* Enable Modulator IDAC only in variable mode */
2102:Generated_Source\PSoC4/CSD_SensingCSD_LL.c ****                 newRegValue = CY_GET_REG32(CSD_IDAC_PTR) &
2103:Generated_Source\PSoC4/CSD_SensingCSD_LL.c ****                               ~(CSD_IDAC_MOD_MODE_MASK | CSD_IDAC_COMP_MODE_MASK);
2104:Generated_Source\PSoC4/CSD_SensingCSD_LL.c ****                 newRegValue |= CSD_IDAC_MOD_MODE_VARIABLE;
2105:Generated_Source\PSoC4/CSD_SensingCSD_LL.c ****                 CY_SET_REG32(CSD_IDAC_PTR, newRegValue);
2106:Generated_Source\PSoC4/CSD_SensingCSD_LL.c ****             #endif /* (CSD_ENABLE == CSD_CSDV2) */
2107:Generated_Source\PSoC4/CSD_SensingCSD_LL.c ****         }
 1744              		.loc 1 2107 0
 1745 0038 BD46     		mov	sp, r7
 1746 003a 02B0     		add	sp, sp, #8
 1747              		@ sp needed
 1748 003c 80BD     		pop	{r7, pc}
 1749              	.L83:
 1750 003e C046     		.align	2
 1751              	.L82:
 1752 0040 C0010C40 		.word	1074528704
 1753 0044 00008301 		.word	25362432
 1754 0048 C4010C40 		.word	1074528708
 1755              		.cfi_endproc
 1756              	.LFE22:
ARM GAS  C:\Users\CHRIST~1\AppData\Local\Temp\ccGy5PUQ.s 			page 69


 1757              		.size	CSD_SsCSDSetSingleIdacMode, .-CSD_SsCSDSetSingleIdacMode
 1758              		.section	.text.CSD_SsCSDRestoreIdacMode,"ax",%progbits
 1759              		.align	2
 1760              		.code	16
 1761              		.thumb_func
 1762              		.type	CSD_SsCSDRestoreIdacMode, %function
 1763              	CSD_SsCSDRestoreIdacMode:
 1764              	.LFB23:
2108:Generated_Source\PSoC4/CSD_SensingCSD_LL.c **** 
2109:Generated_Source\PSoC4/CSD_SensingCSD_LL.c **** 
2110:Generated_Source\PSoC4/CSD_SensingCSD_LL.c ****         /*******************************************************************************
2111:Generated_Source\PSoC4/CSD_SensingCSD_LL.c ****         * Function Name: CSD_SsCSDRestoreIdacMode
2112:Generated_Source\PSoC4/CSD_SensingCSD_LL.c ****         ****************************************************************************//**
2113:Generated_Source\PSoC4/CSD_SensingCSD_LL.c ****         *
2114:Generated_Source\PSoC4/CSD_SensingCSD_LL.c ****         * \brief
2115:Generated_Source\PSoC4/CSD_SensingCSD_LL.c ****         *  This function restores IDAC configuration.
2116:Generated_Source\PSoC4/CSD_SensingCSD_LL.c ****         *
2117:Generated_Source\PSoC4/CSD_SensingCSD_LL.c ****         * \details
2118:Generated_Source\PSoC4/CSD_SensingCSD_LL.c ****         *   The function restores Compensation IDAC if it is enabled.
2119:Generated_Source\PSoC4/CSD_SensingCSD_LL.c ****         *
2120:Generated_Source\PSoC4/CSD_SensingCSD_LL.c ****         *******************************************************************************/
2121:Generated_Source\PSoC4/CSD_SensingCSD_LL.c ****         static void CSD_SsCSDRestoreIdacMode(void)
2122:Generated_Source\PSoC4/CSD_SensingCSD_LL.c ****         {
 1765              		.loc 1 2122 0
 1766              		.cfi_startproc
 1767 0000 80B5     		push	{r7, lr}
 1768              		.cfi_def_cfa_offset 8
 1769              		.cfi_offset 7, -8
 1770              		.cfi_offset 14, -4
 1771 0002 82B0     		sub	sp, sp, #8
 1772              		.cfi_def_cfa_offset 16
 1773 0004 00AF     		add	r7, sp, #0
 1774              		.cfi_def_cfa_register 7
2123:Generated_Source\PSoC4/CSD_SensingCSD_LL.c ****             /* Restore IDAC configuration */
2124:Generated_Source\PSoC4/CSD_SensingCSD_LL.c ****             #if (CSD_ENABLE == CSD_CSDV2)
2125:Generated_Source\PSoC4/CSD_SensingCSD_LL.c ****                 uint32 newRegValue;
2126:Generated_Source\PSoC4/CSD_SensingCSD_LL.c **** 
2127:Generated_Source\PSoC4/CSD_SensingCSD_LL.c ****                 newRegValue = CY_GET_REG32(CSD_SW_REFGEN_SEL_PTR);
 1775              		.loc 1 2127 0
 1776 0006 0A4B     		ldr	r3, .L85
 1777 0008 1B68     		ldr	r3, [r3]
 1778 000a 7B60     		str	r3, [r7, #4]
2128:Generated_Source\PSoC4/CSD_SensingCSD_LL.c ****                 newRegValue |= CSD_DEFAULT_SW_REFGEN_SEL;
 1779              		.loc 1 2128 0
 1780 000c 7B68     		ldr	r3, [r7, #4]
 1781 000e 094A     		ldr	r2, .L85+4
 1782 0010 1343     		orr	r3, r2
 1783 0012 7B60     		str	r3, [r7, #4]
2129:Generated_Source\PSoC4/CSD_SensingCSD_LL.c ****                 CY_SET_REG32(CSD_SW_REFGEN_SEL_PTR, newRegValue);
 1784              		.loc 1 2129 0
 1785 0014 064B     		ldr	r3, .L85
 1786 0016 7A68     		ldr	r2, [r7, #4]
 1787 0018 1A60     		str	r2, [r3]
2130:Generated_Source\PSoC4/CSD_SensingCSD_LL.c ****                 CY_SET_REG32(CSD_IDAC_MOD_PTR, CSD_DEFAULT_IDAC_MOD);
 1788              		.loc 1 2130 0
 1789 001a 074B     		ldr	r3, .L85+8
 1790 001c 074A     		ldr	r2, .L85+12
ARM GAS  C:\Users\CHRIST~1\AppData\Local\Temp\ccGy5PUQ.s 			page 70


 1791 001e 1A60     		str	r2, [r3]
2131:Generated_Source\PSoC4/CSD_SensingCSD_LL.c ****                 #if (CSD_ENABLE == CSD_CSD_IDAC_COMP_EN) && \
2132:Generated_Source\PSoC4/CSD_SensingCSD_LL.c ****                     (CSD_ENABLE == CSD_CSD_DEDICATED_IDAC_COMP_EN)
2133:Generated_Source\PSoC4/CSD_SensingCSD_LL.c ****                     CY_SET_REG32(CSD_IDAC_COMP_PTR, CSD_DEFAULT_IDAC_COMP);
 1792              		.loc 1 2133 0
 1793 0020 074B     		ldr	r3, .L85+16
 1794 0022 C122     		mov	r2, #193
 1795 0024 5204     		lsl	r2, r2, #17
 1796 0026 1A60     		str	r2, [r3]
2134:Generated_Source\PSoC4/CSD_SensingCSD_LL.c ****                 #endif /* (CSD_ENABLE == CSD_CSD_IDAC_COMP_EN) && \
2135:Generated_Source\PSoC4/CSD_SensingCSD_LL.c ****                           (CSD_ENABLE == CSD_CSD_DEDICATED_IDAC_COMP_EN */
2136:Generated_Source\PSoC4/CSD_SensingCSD_LL.c ****             #else
2137:Generated_Source\PSoC4/CSD_SensingCSD_LL.c ****                 #if (CSD_ENABLE == CSD_CSD_IDAC_COMP_EN)
2138:Generated_Source\PSoC4/CSD_SensingCSD_LL.c ****                     CY_SET_REG32(CSD_IDAC_PTR, CSD_DEFAULT_CSD_IDAC_CONFIG);
2139:Generated_Source\PSoC4/CSD_SensingCSD_LL.c ****                 #else
2140:Generated_Source\PSoC4/CSD_SensingCSD_LL.c ****                     CY_SET_REG32(CSD_IDAC_PTR, CY_GET_REG32(CSD_IDAC_PTR) &
2141:Generated_Source\PSoC4/CSD_SensingCSD_LL.c ****                                                                         ~(CSD_IDAC_MOD_MODE_MASK | 
2142:Generated_Source\PSoC4/CSD_SensingCSD_LL.c ****                     CY_SET_REG32(CSD_IDAC_PTR, CY_GET_REG32(CSD_IDAC_PTR) | CSD_DEFAULT_CSD_IDAC_CO
2143:Generated_Source\PSoC4/CSD_SensingCSD_LL.c ****                 #endif /* (CSD_ENABLE == CSD_CSD_IDAC_COMP_EN) */
2144:Generated_Source\PSoC4/CSD_SensingCSD_LL.c ****             #endif /* (CSD_ENABLE == CSD_CSDV2) */
2145:Generated_Source\PSoC4/CSD_SensingCSD_LL.c ****         }
 1797              		.loc 1 2145 0
 1798 0028 BD46     		mov	sp, r7
 1799 002a 02B0     		add	sp, sp, #8
 1800              		@ sp needed
 1801 002c 80BD     		pop	{r7, pc}
 1802              	.L86:
 1803 002e C046     		.align	2
 1804              	.L85:
 1805 0030 A8020C40 		.word	1074528936
 1806 0034 01000010 		.word	268435457
 1807 0038 C0010C40 		.word	1074528704
 1808 003c 00008301 		.word	25362432
 1809 0040 C4010C40 		.word	1074528708
 1810              		.cfi_endproc
 1811              	.LFE23:
 1812              		.size	CSD_SsCSDRestoreIdacMode, .-CSD_SsCSDRestoreIdacMode
 1813              		.section	.text.CSD_SsCSDCalibrateOneSensor,"ax",%progbits
 1814              		.align	2
 1815              		.code	16
 1816              		.thumb_func
 1817              		.type	CSD_SsCSDCalibrateOneSensor, %function
 1818              	CSD_SsCSDCalibrateOneSensor:
 1819              	.LFB24:
2146:Generated_Source\PSoC4/CSD_SensingCSD_LL.c ****     #endif /* (CSD_ENABLE == CSD_CSD_IDAC_COMP_EN) */
2147:Generated_Source\PSoC4/CSD_SensingCSD_LL.c **** 
2148:Generated_Source\PSoC4/CSD_SensingCSD_LL.c **** 
2149:Generated_Source\PSoC4/CSD_SensingCSD_LL.c ****     /*******************************************************************************
2150:Generated_Source\PSoC4/CSD_SensingCSD_LL.c ****     * Function Name: CSD_SsCSDCalibrateOneSensor
2151:Generated_Source\PSoC4/CSD_SensingCSD_LL.c ****     ****************************************************************************//**
2152:Generated_Source\PSoC4/CSD_SensingCSD_LL.c ****     *
2153:Generated_Source\PSoC4/CSD_SensingCSD_LL.c ****     * \brief
2154:Generated_Source\PSoC4/CSD_SensingCSD_LL.c ****     *  Computes the Modulator IDAC value for one sensor that provides raw signal at
2155:Generated_Source\PSoC4/CSD_SensingCSD_LL.c ****     *  the specified level.
2156:Generated_Source\PSoC4/CSD_SensingCSD_LL.c ****     *
2157:Generated_Source\PSoC4/CSD_SensingCSD_LL.c ****     * \details
2158:Generated_Source\PSoC4/CSD_SensingCSD_LL.c ****     *   The function performs the following tasks:
ARM GAS  C:\Users\CHRIST~1\AppData\Local\Temp\ccGy5PUQ.s 			page 71


2159:Generated_Source\PSoC4/CSD_SensingCSD_LL.c ****     *   1. Initialises The Compensation IDAC to zero
2160:Generated_Source\PSoC4/CSD_SensingCSD_LL.c ****     *   2. Enables the calibrated sensor
2161:Generated_Source\PSoC4/CSD_SensingCSD_LL.c ****     *   3. Performs eight iteration steps to get the target = rawLevel
2162:Generated_Source\PSoC4/CSD_SensingCSD_LL.c ****     *      setting and resetting the IDAC value bits beginning from the
2163:Generated_Source\PSoC4/CSD_SensingCSD_LL.c ****     *      MSB bit to an MSB bit.
2164:Generated_Source\PSoC4/CSD_SensingCSD_LL.c ****     *   4. Disables the calibrated sensor
2165:Generated_Source\PSoC4/CSD_SensingCSD_LL.c ****     *   5. Checks if the IDAC is in the correct range
2166:Generated_Source\PSoC4/CSD_SensingCSD_LL.c ****     *   6. Updates the maximum IDAC value in the widget
2167:Generated_Source\PSoC4/CSD_SensingCSD_LL.c ****     *   7. Stores the temporary ModIDAC8 value (in the single-IDAC mode).
2168:Generated_Source\PSoC4/CSD_SensingCSD_LL.c ****     *
2169:Generated_Source\PSoC4/CSD_SensingCSD_LL.c ****     *  The CSD block should be initialized with the CSD_SsCSDInitialize()
2170:Generated_Source\PSoC4/CSD_SensingCSD_LL.c ****     *  API before using this function.
2171:Generated_Source\PSoC4/CSD_SensingCSD_LL.c ****     *
2172:Generated_Source\PSoC4/CSD_SensingCSD_LL.c ****     * \param  rawLevel
2173:Generated_Source\PSoC4/CSD_SensingCSD_LL.c ****     *   The raw data level which should be reached during the calibration procedure.
2174:Generated_Source\PSoC4/CSD_SensingCSD_LL.c ****     * \param  ptrIdac  The pointer to IDAC.
2175:Generated_Source\PSoC4/CSD_SensingCSD_LL.c ****     * \param  iDAC8Max The pointer to the maximum IDAC value in the widget.
2176:Generated_Source\PSoC4/CSD_SensingCSD_LL.c ****     *
2177:Generated_Source\PSoC4/CSD_SensingCSD_LL.c ****     * \return Returns the status of operation:
2178:Generated_Source\PSoC4/CSD_SensingCSD_LL.c ****     *  - Zero     - All the sensors in the widget are calibrated successfully.
2179:Generated_Source\PSoC4/CSD_SensingCSD_LL.c ****     *  - Non-Zero - Calibration failed for any sensor in the widget.
2180:Generated_Source\PSoC4/CSD_SensingCSD_LL.c ****     *
2181:Generated_Source\PSoC4/CSD_SensingCSD_LL.c ****     *******************************************************************************/
2182:Generated_Source\PSoC4/CSD_SensingCSD_LL.c ****     static cystatus CSD_SsCSDCalibrateOneSensor(uint32 rawLevel,
2183:Generated_Source\PSoC4/CSD_SensingCSD_LL.c ****                                                            uint8 *ptrIdac,
2184:Generated_Source\PSoC4/CSD_SensingCSD_LL.c ****                                                            uint8 *iDAC8Max)
2185:Generated_Source\PSoC4/CSD_SensingCSD_LL.c ****     {
 1820              		.loc 1 2185 0
 1821              		.cfi_startproc
 1822 0000 80B5     		push	{r7, lr}
 1823              		.cfi_def_cfa_offset 8
 1824              		.cfi_offset 7, -8
 1825              		.cfi_offset 14, -4
 1826 0002 8AB0     		sub	sp, sp, #40
 1827              		.cfi_def_cfa_offset 48
 1828 0004 00AF     		add	r7, sp, #0
 1829              		.cfi_def_cfa_register 7
 1830 0006 F860     		str	r0, [r7, #12]
 1831 0008 B960     		str	r1, [r7, #8]
 1832 000a 7A60     		str	r2, [r7, #4]
2186:Generated_Source\PSoC4/CSD_SensingCSD_LL.c ****         cystatus calibrateStatus;
2187:Generated_Source\PSoC4/CSD_SensingCSD_LL.c ****         uint32 rawData0;
2188:Generated_Source\PSoC4/CSD_SensingCSD_LL.c ****         uint8 calMask = CSD_CAL_MIDDLE_BIT;
 1833              		.loc 1 2188 0
 1834 000c 2723     		mov	r3, #39
 1835 000e FB18     		add	r3, r7, r3
 1836 0010 4022     		mov	r2, #64
 1837 0012 1A70     		strb	r2, [r3]
2189:Generated_Source\PSoC4/CSD_SensingCSD_LL.c ****         uint32 watchdogCounter;
2190:Generated_Source\PSoC4/CSD_SensingCSD_LL.c ****         #if (CSD_ENABLE == CSD_MULTI_FREQ_SCAN_EN)
2191:Generated_Source\PSoC4/CSD_SensingCSD_LL.c ****             uint32 rawData1;
2192:Generated_Source\PSoC4/CSD_SensingCSD_LL.c ****             uint32 rawData2;
2193:Generated_Source\PSoC4/CSD_SensingCSD_LL.c ****         #endif /* (CSD_ENABLE == CSD_MULTI_FREQ_SCAN_EN) */
2194:Generated_Source\PSoC4/CSD_SensingCSD_LL.c **** 
2195:Generated_Source\PSoC4/CSD_SensingCSD_LL.c ****         /*  Declare and initialise ptr to widget and sensor structures to appropriate address      
2196:Generated_Source\PSoC4/CSD_SensingCSD_LL.c ****         CSD_RAM_WD_BASE_STRUCT *ptrWdgt = (CSD_RAM_WD_BASE_STRUCT *)
2197:Generated_Source\PSoC4/CSD_SensingCSD_LL.c ****                                                         CSD_dsFlash.wdgtArray[CSD_widgetIndex].ptr2
ARM GAS  C:\Users\CHRIST~1\AppData\Local\Temp\ccGy5PUQ.s 			page 72


 1838              		.loc 1 2197 0
 1839 0014 4C4B     		ldr	r3, .L95
 1840 0016 1B78     		ldrb	r3, [r3]
 1841 0018 DBB2     		uxtb	r3, r3
 1842 001a 191C     		mov	r1, r3
2196:Generated_Source\PSoC4/CSD_SensingCSD_LL.c ****                                                         CSD_dsFlash.wdgtArray[CSD_widgetIndex].ptr2
 1843              		.loc 1 2196 0
 1844 001c 4B4A     		ldr	r2, .L95+4
 1845 001e 0B1C     		mov	r3, r1
 1846 0020 DB00     		lsl	r3, r3, #3
 1847 0022 5B1A     		sub	r3, r3, r1
 1848 0024 9B00     		lsl	r3, r3, #2
 1849 0026 D318     		add	r3, r2, r3
 1850 0028 5B68     		ldr	r3, [r3, #4]
 1851 002a FB61     		str	r3, [r7, #28]
2198:Generated_Source\PSoC4/CSD_SensingCSD_LL.c **** 
2199:Generated_Source\PSoC4/CSD_SensingCSD_LL.c ****         /* Init compensation IDAC */
2200:Generated_Source\PSoC4/CSD_SensingCSD_LL.c ****         ptrIdac[0u] = calMask;
 1852              		.loc 1 2200 0
 1853 002c BB68     		ldr	r3, [r7, #8]
 1854 002e 2722     		mov	r2, #39
 1855 0030 BA18     		add	r2, r7, r2
 1856 0032 1278     		ldrb	r2, [r2]
 1857 0034 1A70     		strb	r2, [r3]
2201:Generated_Source\PSoC4/CSD_SensingCSD_LL.c ****         #if (CSD_ENABLE == CSD_MULTI_FREQ_SCAN_EN)
2202:Generated_Source\PSoC4/CSD_SensingCSD_LL.c ****             ptrIdac[CSD_FREQ_CHANNEL_1] = calMask;
2203:Generated_Source\PSoC4/CSD_SensingCSD_LL.c ****             ptrIdac[CSD_FREQ_CHANNEL_2] = calMask;
2204:Generated_Source\PSoC4/CSD_SensingCSD_LL.c ****         #endif /* (CSD_ENABLE == CSD_MULTI_FREQ_SCAN_EN) */
2205:Generated_Source\PSoC4/CSD_SensingCSD_LL.c **** 
2206:Generated_Source\PSoC4/CSD_SensingCSD_LL.c ****         /* Setup the calibrated sensor of the widget (Set IDAC = calMask and connect the sensor) */
2207:Generated_Source\PSoC4/CSD_SensingCSD_LL.c ****         CSD_CSDSetupWidgetExt((uint32)CSD_widgetIndex, (uint32)CSD_sensorIndex);
 1858              		.loc 1 2207 0
 1859 0036 444B     		ldr	r3, .L95
 1860 0038 1B78     		ldrb	r3, [r3]
 1861 003a DBB2     		uxtb	r3, r3
 1862 003c 1A1C     		mov	r2, r3
 1863 003e 444B     		ldr	r3, .L95+8
 1864 0040 1B78     		ldrb	r3, [r3]
 1865 0042 DBB2     		uxtb	r3, r3
 1866 0044 101C     		mov	r0, r2
 1867 0046 191C     		mov	r1, r3
 1868 0048 FFF7FEFF 		bl	CSD_CSDSetupWidgetExt
2208:Generated_Source\PSoC4/CSD_SensingCSD_LL.c **** 
2209:Generated_Source\PSoC4/CSD_SensingCSD_LL.c ****         #if (CSD_ENABLE == CSD_CSD_IDAC_COMP_EN)
2210:Generated_Source\PSoC4/CSD_SensingCSD_LL.c ****             /* Set single IDAC mode */
2211:Generated_Source\PSoC4/CSD_SensingCSD_LL.c ****             CSD_SsCSDSetSingleIdacMode();
 1869              		.loc 1 2211 0
 1870 004c FFF7FEFF 		bl	CSD_SsCSDSetSingleIdacMode
 1871              	.L92:
2212:Generated_Source\PSoC4/CSD_SensingCSD_LL.c ****         #endif /* (CSD_ENABLE == CSD_MULTI_FREQ_SCAN_EN) */
2213:Generated_Source\PSoC4/CSD_SensingCSD_LL.c **** 
2214:Generated_Source\PSoC4/CSD_SensingCSD_LL.c ****         /*
2215:Generated_Source\PSoC4/CSD_SensingCSD_LL.c ****          * Perform the iteration steps to get target = rawLevel.
2216:Generated_Source\PSoC4/CSD_SensingCSD_LL.c ****          * The number of iteration steps is defined by calMask and depend on IDAC resolution.
2217:Generated_Source\PSoC4/CSD_SensingCSD_LL.c ****          */
2218:Generated_Source\PSoC4/CSD_SensingCSD_LL.c ****         do
2219:Generated_Source\PSoC4/CSD_SensingCSD_LL.c ****         {
ARM GAS  C:\Users\CHRIST~1\AppData\Local\Temp\ccGy5PUQ.s 			page 73


2220:Generated_Source\PSoC4/CSD_SensingCSD_LL.c ****             /* Scan sensor */
2221:Generated_Source\PSoC4/CSD_SensingCSD_LL.c ****             CSD_CSDScanExt();
 1872              		.loc 1 2221 0
 1873 0050 FFF7FEFF 		bl	CSD_CSDScanExt
2222:Generated_Source\PSoC4/CSD_SensingCSD_LL.c **** 
2223:Generated_Source\PSoC4/CSD_SensingCSD_LL.c ****             /* Initialize Watchdog Counter with time interval which is enough to charge 100 nF capa
2224:Generated_Source\PSoC4/CSD_SensingCSD_LL.c ****             watchdogCounter = CSD_CALIBR_WATCHDOG_CYCLES_NUM;
 1874              		.loc 1 2224 0
 1875 0054 3F4B     		ldr	r3, .L95+12
 1876 0056 3B62     		str	r3, [r7, #32]
2225:Generated_Source\PSoC4/CSD_SensingCSD_LL.c ****             while (((*(volatile uint8 *)&CSD_dsRam.status & CSD_SW_STS_BUSY) != 0u) &&
 1877              		.loc 1 2225 0
 1878 0058 02E0     		b	.L88
 1879              	.L90:
2226:Generated_Source\PSoC4/CSD_SensingCSD_LL.c ****                    (0u != watchdogCounter))
2227:Generated_Source\PSoC4/CSD_SensingCSD_LL.c ****             {
2228:Generated_Source\PSoC4/CSD_SensingCSD_LL.c ****                 /* Wait until scan complete and decrement Watchdog Counter to prevent unending loop
2229:Generated_Source\PSoC4/CSD_SensingCSD_LL.c ****                 watchdogCounter--;
 1880              		.loc 1 2229 0
 1881 005a 3B6A     		ldr	r3, [r7, #32]
 1882 005c 013B     		sub	r3, r3, #1
 1883 005e 3B62     		str	r3, [r7, #32]
 1884              	.L88:
2225:Generated_Source\PSoC4/CSD_SensingCSD_LL.c ****             while (((*(volatile uint8 *)&CSD_dsRam.status & CSD_SW_STS_BUSY) != 0u) &&
 1885              		.loc 1 2225 0
 1886 0060 3D4B     		ldr	r3, .L95+16
 1887 0062 1B78     		ldrb	r3, [r3]
 1888 0064 DBB2     		uxtb	r3, r3
 1889 0066 DBB2     		uxtb	r3, r3
 1890 0068 5BB2     		sxtb	r3, r3
 1891 006a 002B     		cmp	r3, #0
 1892 006c 02DA     		bge	.L89
2225:Generated_Source\PSoC4/CSD_SensingCSD_LL.c ****             while (((*(volatile uint8 *)&CSD_dsRam.status & CSD_SW_STS_BUSY) != 0u) &&
 1893              		.loc 1 2225 0 is_stmt 0 discriminator 1
 1894 006e 3B6A     		ldr	r3, [r7, #32]
 1895 0070 002B     		cmp	r3, #0
 1896 0072 F2D1     		bne	.L90
 1897              	.L89:
2230:Generated_Source\PSoC4/CSD_SensingCSD_LL.c ****             }
2231:Generated_Source\PSoC4/CSD_SensingCSD_LL.c **** 
2232:Generated_Source\PSoC4/CSD_SensingCSD_LL.c ****             /* Read rawData */
2233:Generated_Source\PSoC4/CSD_SensingCSD_LL.c ****             rawData0 = CSD_curRamSnsPtr->raw[0u];
 1898              		.loc 1 2233 0 is_stmt 1
 1899 0074 394B     		ldr	r3, .L95+20
 1900 0076 1B68     		ldr	r3, [r3]
 1901 0078 1B88     		ldrh	r3, [r3]
 1902 007a BB61     		str	r3, [r7, #24]
2234:Generated_Source\PSoC4/CSD_SensingCSD_LL.c ****             #if(CSD_ENABLE == CSD_MULTI_FREQ_SCAN_EN)
2235:Generated_Source\PSoC4/CSD_SensingCSD_LL.c ****                 rawData1 = CSD_curRamSnsPtr->raw[CSD_FREQ_CHANNEL_1];
2236:Generated_Source\PSoC4/CSD_SensingCSD_LL.c ****                 rawData2 = CSD_curRamSnsPtr->raw[CSD_FREQ_CHANNEL_2];
2237:Generated_Source\PSoC4/CSD_SensingCSD_LL.c ****             #endif /* (CSD_ENABLE == CSD_MULTI_FREQ_SCAN_EN) */
2238:Generated_Source\PSoC4/CSD_SensingCSD_LL.c **** 
2239:Generated_Source\PSoC4/CSD_SensingCSD_LL.c ****             /* Decrease IDAC until rawData reaches rawLevel */
2240:Generated_Source\PSoC4/CSD_SensingCSD_LL.c ****             if (rawData0 < rawLevel)
 1903              		.loc 1 2240 0
 1904 007c BA69     		ldr	r2, [r7, #24]
 1905 007e FB68     		ldr	r3, [r7, #12]
ARM GAS  C:\Users\CHRIST~1\AppData\Local\Temp\ccGy5PUQ.s 			page 74


 1906 0080 9A42     		cmp	r2, r3
 1907 0082 0AD2     		bcs	.L91
2241:Generated_Source\PSoC4/CSD_SensingCSD_LL.c ****             {
2242:Generated_Source\PSoC4/CSD_SensingCSD_LL.c ****                 /* Reset bit for null channel (decrease IDAC -> will increase rawData) */
2243:Generated_Source\PSoC4/CSD_SensingCSD_LL.c ****                 ptrIdac[0u] &= (uint8)(~calMask);
 1908              		.loc 1 2243 0
 1909 0084 BB68     		ldr	r3, [r7, #8]
 1910 0086 1B78     		ldrb	r3, [r3]
 1911 0088 2722     		mov	r2, #39
 1912 008a BA18     		add	r2, r7, r2
 1913 008c 1278     		ldrb	r2, [r2]
 1914 008e D243     		mvn	r2, r2
 1915 0090 D2B2     		uxtb	r2, r2
 1916 0092 1340     		and	r3, r2
 1917 0094 DAB2     		uxtb	r2, r3
 1918 0096 BB68     		ldr	r3, [r7, #8]
 1919 0098 1A70     		strb	r2, [r3]
 1920              	.L91:
2244:Generated_Source\PSoC4/CSD_SensingCSD_LL.c ****             }
2245:Generated_Source\PSoC4/CSD_SensingCSD_LL.c ****             #if (CSD_ENABLE == CSD_MULTI_FREQ_SCAN_EN)
2246:Generated_Source\PSoC4/CSD_SensingCSD_LL.c ****                 if (rawData1 < rawLevel)
2247:Generated_Source\PSoC4/CSD_SensingCSD_LL.c ****                 {
2248:Generated_Source\PSoC4/CSD_SensingCSD_LL.c ****                     /* Reset bit for null channel  */
2249:Generated_Source\PSoC4/CSD_SensingCSD_LL.c ****                     ptrIdac[CSD_FREQ_CHANNEL_1] &= (uint8)(~calMask);
2250:Generated_Source\PSoC4/CSD_SensingCSD_LL.c ****                 }
2251:Generated_Source\PSoC4/CSD_SensingCSD_LL.c ****                 if (rawData2 < rawLevel)
2252:Generated_Source\PSoC4/CSD_SensingCSD_LL.c ****                 {
2253:Generated_Source\PSoC4/CSD_SensingCSD_LL.c ****                     /* Reset bit for null channel  */
2254:Generated_Source\PSoC4/CSD_SensingCSD_LL.c ****                     ptrIdac[CSD_FREQ_CHANNEL_2] &= (uint8)(~calMask);
2255:Generated_Source\PSoC4/CSD_SensingCSD_LL.c ****                 }
2256:Generated_Source\PSoC4/CSD_SensingCSD_LL.c ****             #endif /* (CSD_ENABLE == CSD_MULTI_FREQ_SCAN_EN) */
2257:Generated_Source\PSoC4/CSD_SensingCSD_LL.c **** 
2258:Generated_Source\PSoC4/CSD_SensingCSD_LL.c ****             /* Shift calMask to set or reset next bit */
2259:Generated_Source\PSoC4/CSD_SensingCSD_LL.c ****             calMask >>= 1u;
 1921              		.loc 1 2259 0
 1922 009a 2723     		mov	r3, #39
 1923 009c FB18     		add	r3, r7, r3
 1924 009e 2722     		mov	r2, #39
 1925 00a0 BA18     		add	r2, r7, r2
 1926 00a2 1278     		ldrb	r2, [r2]
 1927 00a4 5208     		lsr	r2, r2, #1
 1928 00a6 1A70     		strb	r2, [r3]
2260:Generated_Source\PSoC4/CSD_SensingCSD_LL.c **** 
2261:Generated_Source\PSoC4/CSD_SensingCSD_LL.c ****             /* Set bit for null channel */
2262:Generated_Source\PSoC4/CSD_SensingCSD_LL.c ****             ptrIdac[0u] |= calMask;
 1929              		.loc 1 2262 0
 1930 00a8 BB68     		ldr	r3, [r7, #8]
 1931 00aa 1A78     		ldrb	r2, [r3]
 1932 00ac 2723     		mov	r3, #39
 1933 00ae FB18     		add	r3, r7, r3
 1934 00b0 1B78     		ldrb	r3, [r3]
 1935 00b2 1343     		orr	r3, r2
 1936 00b4 DAB2     		uxtb	r2, r3
 1937 00b6 BB68     		ldr	r3, [r7, #8]
 1938 00b8 1A70     		strb	r2, [r3]
2263:Generated_Source\PSoC4/CSD_SensingCSD_LL.c ****             #if (CSD_ENABLE == CSD_MULTI_FREQ_SCAN_EN)
2264:Generated_Source\PSoC4/CSD_SensingCSD_LL.c ****                 ptrIdac[CSD_FREQ_CHANNEL_1] |= calMask;
ARM GAS  C:\Users\CHRIST~1\AppData\Local\Temp\ccGy5PUQ.s 			page 75


2265:Generated_Source\PSoC4/CSD_SensingCSD_LL.c ****                 ptrIdac[CSD_FREQ_CHANNEL_2] |= calMask;
2266:Generated_Source\PSoC4/CSD_SensingCSD_LL.c ****             #endif /* (CSD_ENABLE == CSD_MULTI_FREQ_SCAN_EN) */
2267:Generated_Source\PSoC4/CSD_SensingCSD_LL.c **** 
2268:Generated_Source\PSoC4/CSD_SensingCSD_LL.c ****             /* Update IDAC */
2269:Generated_Source\PSoC4/CSD_SensingCSD_LL.c ****             CSD_SsCSDSetUpIdacs(ptrWdgt);
 1939              		.loc 1 2269 0
 1940 00ba FB69     		ldr	r3, [r7, #28]
 1941 00bc 181C     		mov	r0, r3
 1942 00be FFF7FEFF 		bl	CSD_SsCSDSetUpIdacs
2270:Generated_Source\PSoC4/CSD_SensingCSD_LL.c ****         }
2271:Generated_Source\PSoC4/CSD_SensingCSD_LL.c ****         while (calMask > 0u);
 1943              		.loc 1 2271 0
 1944 00c2 2723     		mov	r3, #39
 1945 00c4 FB18     		add	r3, r7, r3
 1946 00c6 1B78     		ldrb	r3, [r3]
 1947 00c8 002B     		cmp	r3, #0
 1948 00ca C1D1     		bne	.L92
2272:Generated_Source\PSoC4/CSD_SensingCSD_LL.c **** 
2273:Generated_Source\PSoC4/CSD_SensingCSD_LL.c ****         #if (CSD_ENABLE == CSD_CSD_GANGED_SNS_EN)
2274:Generated_Source\PSoC4/CSD_SensingCSD_LL.c ****             CSD_SsCSDDisconnectSnsExt((uint32)CSD_widgetIndex, (uint32)CSD_sensorIndex);
2275:Generated_Source\PSoC4/CSD_SensingCSD_LL.c ****         #else
2276:Generated_Source\PSoC4/CSD_SensingCSD_LL.c ****             /*  Initialise pointer to sensor IO structure    */
2277:Generated_Source\PSoC4/CSD_SensingCSD_LL.c ****             CSD_curSnsIOPtr = (CSD_FLASH_IO_STRUCT const *)
 1949              		.loc 1 2277 0
 1950 00cc 1E4B     		ldr	r3, .L95
 1951 00ce 1B78     		ldrb	r3, [r3]
 1952 00d0 DBB2     		uxtb	r3, r3
 1953 00d2 191C     		mov	r1, r3
2278:Generated_Source\PSoC4/CSD_SensingCSD_LL.c ****                                             CSD_dsFlash.wdgtArray[CSD_widgetIndex].ptr2SnsFlash
 1954              		.loc 1 2278 0
 1955 00d4 1D4A     		ldr	r2, .L95+4
 1956 00d6 0B1C     		mov	r3, r1
 1957 00d8 DB00     		lsl	r3, r3, #3
 1958 00da 5B1A     		sub	r3, r3, r1
 1959 00dc 9B00     		lsl	r3, r3, #2
 1960 00de 9A58     		ldr	r2, [r3, r2]
2279:Generated_Source\PSoC4/CSD_SensingCSD_LL.c ****                                             + CSD_sensorIndex;
 1961              		.loc 1 2279 0
 1962 00e0 1B4B     		ldr	r3, .L95+8
 1963 00e2 1B78     		ldrb	r3, [r3]
 1964 00e4 DBB2     		uxtb	r3, r3
 1965 00e6 191C     		mov	r1, r3
 1966 00e8 0B1C     		mov	r3, r1
 1967 00ea DB00     		lsl	r3, r3, #3
 1968 00ec 5B1A     		sub	r3, r3, r1
 1969 00ee 9B00     		lsl	r3, r3, #2
 1970 00f0 D218     		add	r2, r2, r3
2277:Generated_Source\PSoC4/CSD_SensingCSD_LL.c ****                                             CSD_dsFlash.wdgtArray[CSD_widgetIndex].ptr2SnsFlash
 1971              		.loc 1 2277 0
 1972 00f2 1B4B     		ldr	r3, .L95+24
 1973 00f4 1A60     		str	r2, [r3]
2280:Generated_Source\PSoC4/CSD_SensingCSD_LL.c **** 
2281:Generated_Source\PSoC4/CSD_SensingCSD_LL.c ****             /* Disable sensor */
2282:Generated_Source\PSoC4/CSD_SensingCSD_LL.c ****             CSD_CSDDisconnectSns(CSD_curSnsIOPtr);
 1974              		.loc 1 2282 0
 1975 00f6 1A4B     		ldr	r3, .L95+24
 1976 00f8 1B68     		ldr	r3, [r3]
ARM GAS  C:\Users\CHRIST~1\AppData\Local\Temp\ccGy5PUQ.s 			page 76


 1977 00fa 181C     		mov	r0, r3
 1978 00fc FFF7FEFF 		bl	CSD_CSDDisconnectSns
2283:Generated_Source\PSoC4/CSD_SensingCSD_LL.c ****         #endif /* (CSD_ENABLE == CSD_CSD_GANGED_SNS_EN)  */
2284:Generated_Source\PSoC4/CSD_SensingCSD_LL.c **** 
2285:Generated_Source\PSoC4/CSD_SensingCSD_LL.c ****         /* Set flag about disconnecting the electrode */
2286:Generated_Source\PSoC4/CSD_SensingCSD_LL.c ****         CSD_eleCsdDisconnectFlag = 0u;
 1979              		.loc 1 2286 0
 1980 0100 184B     		ldr	r3, .L95+28
 1981 0102 0022     		mov	r2, #0
 1982 0104 1A70     		strb	r2, [r3]
2287:Generated_Source\PSoC4/CSD_SensingCSD_LL.c **** 
2288:Generated_Source\PSoC4/CSD_SensingCSD_LL.c ****         #if (CSD_ENABLE == CSD_CSD_IDAC_COMP_EN)
2289:Generated_Source\PSoC4/CSD_SensingCSD_LL.c ****             /* Restore IDAC configuration to default state */
2290:Generated_Source\PSoC4/CSD_SensingCSD_LL.c ****             CSD_SsCSDRestoreIdacMode();
 1983              		.loc 1 2290 0
 1984 0106 FFF7FEFF 		bl	CSD_SsCSDRestoreIdacMode
2291:Generated_Source\PSoC4/CSD_SensingCSD_LL.c ****         #endif /* (CSD_ENABLE == CSD_MULTI_FREQ_SCAN_EN) */
2292:Generated_Source\PSoC4/CSD_SensingCSD_LL.c **** 
2293:Generated_Source\PSoC4/CSD_SensingCSD_LL.c ****         /* Check if IDAC is in correct range */
2294:Generated_Source\PSoC4/CSD_SensingCSD_LL.c ****         calibrateStatus = CSD_SsCSDCalibrateCheck(ptrWdgt, rawLevel, rawData0);
 1985              		.loc 1 2294 0
 1986 010a F969     		ldr	r1, [r7, #28]
 1987 010c FA68     		ldr	r2, [r7, #12]
 1988 010e BB69     		ldr	r3, [r7, #24]
 1989 0110 081C     		mov	r0, r1
 1990 0112 111C     		mov	r1, r2
 1991 0114 1A1C     		mov	r2, r3
 1992 0116 FFF7FEFF 		bl	CSD_SsCSDCalibrateCheck
 1993 011a 031C     		mov	r3, r0
 1994 011c 7B61     		str	r3, [r7, #20]
2295:Generated_Source\PSoC4/CSD_SensingCSD_LL.c ****         #if (CSD_ENABLE == CSD_MULTI_FREQ_SCAN_EN)
2296:Generated_Source\PSoC4/CSD_SensingCSD_LL.c ****             calibrateStatus |= CSD_SsCSDCalibrateCheck(ptrWdgt, rawLevel, rawData1);
2297:Generated_Source\PSoC4/CSD_SensingCSD_LL.c ****             calibrateStatus |= CSD_SsCSDCalibrateCheck(ptrWdgt, rawLevel, rawData2);
2298:Generated_Source\PSoC4/CSD_SensingCSD_LL.c ****         #endif /* (CSD_ENABLE == CSD_MULTI_FREQ_SCAN_EN) */
2299:Generated_Source\PSoC4/CSD_SensingCSD_LL.c **** 
2300:Generated_Source\PSoC4/CSD_SensingCSD_LL.c ****         /*
2301:Generated_Source\PSoC4/CSD_SensingCSD_LL.c ****          * Update maximum IDAC value in widget. iDAC8Max variable will contain
2302:Generated_Source\PSoC4/CSD_SensingCSD_LL.c ****          * maximum IDAC value after all sensors in widget have been scanned.
2303:Generated_Source\PSoC4/CSD_SensingCSD_LL.c ****          */
2304:Generated_Source\PSoC4/CSD_SensingCSD_LL.c ****         #if (CSD_ENABLE == CSD_MULTI_FREQ_SCAN_EN)
2305:Generated_Source\PSoC4/CSD_SensingCSD_LL.c ****             if (iDAC8Max[CSD_FREQ_CHANNEL_0] < ptrIdac[CSD_FREQ_CHANNEL_0])
2306:Generated_Source\PSoC4/CSD_SensingCSD_LL.c ****             {
2307:Generated_Source\PSoC4/CSD_SensingCSD_LL.c ****                 iDAC8Max[CSD_FREQ_CHANNEL_0] = ptrIdac[CSD_FREQ_CHANNEL_0];
2308:Generated_Source\PSoC4/CSD_SensingCSD_LL.c ****             }
2309:Generated_Source\PSoC4/CSD_SensingCSD_LL.c ****             if (iDAC8Max[CSD_FREQ_CHANNEL_1] < ptrIdac[CSD_FREQ_CHANNEL_1])
2310:Generated_Source\PSoC4/CSD_SensingCSD_LL.c ****             {
2311:Generated_Source\PSoC4/CSD_SensingCSD_LL.c ****                 iDAC8Max[CSD_FREQ_CHANNEL_1] = ptrIdac[CSD_FREQ_CHANNEL_1];
2312:Generated_Source\PSoC4/CSD_SensingCSD_LL.c ****             }
2313:Generated_Source\PSoC4/CSD_SensingCSD_LL.c ****             if (iDAC8Max[CSD_FREQ_CHANNEL_2] < ptrIdac[CSD_FREQ_CHANNEL_2])
2314:Generated_Source\PSoC4/CSD_SensingCSD_LL.c ****             {
2315:Generated_Source\PSoC4/CSD_SensingCSD_LL.c ****                 iDAC8Max[CSD_FREQ_CHANNEL_2] = ptrIdac[CSD_FREQ_CHANNEL_2];
2316:Generated_Source\PSoC4/CSD_SensingCSD_LL.c ****             }
2317:Generated_Source\PSoC4/CSD_SensingCSD_LL.c ****         #else
2318:Generated_Source\PSoC4/CSD_SensingCSD_LL.c ****             if (*iDAC8Max < ptrIdac[0u])
 1995              		.loc 1 2318 0
 1996 011e 7B68     		ldr	r3, [r7, #4]
 1997 0120 1A78     		ldrb	r2, [r3]
ARM GAS  C:\Users\CHRIST~1\AppData\Local\Temp\ccGy5PUQ.s 			page 77


 1998 0122 BB68     		ldr	r3, [r7, #8]
 1999 0124 1B78     		ldrb	r3, [r3]
 2000 0126 9A42     		cmp	r2, r3
 2001 0128 03D2     		bcs	.L93
2319:Generated_Source\PSoC4/CSD_SensingCSD_LL.c ****             {
2320:Generated_Source\PSoC4/CSD_SensingCSD_LL.c ****                 *iDAC8Max = ptrIdac[0u];
 2002              		.loc 1 2320 0
 2003 012a BB68     		ldr	r3, [r7, #8]
 2004 012c 1A78     		ldrb	r2, [r3]
 2005 012e 7B68     		ldr	r3, [r7, #4]
 2006 0130 1A70     		strb	r2, [r3]
 2007              	.L93:
2321:Generated_Source\PSoC4/CSD_SensingCSD_LL.c ****             }
2322:Generated_Source\PSoC4/CSD_SensingCSD_LL.c ****         #endif /* (CSD_ENABLE == CSD_MULTI_FREQ_SCAN_EN) */
2323:Generated_Source\PSoC4/CSD_SensingCSD_LL.c **** 
2324:Generated_Source\PSoC4/CSD_SensingCSD_LL.c ****         #if (CSD_ENABLE == CSD_CSD_IDAC_COMP_EN)
2325:Generated_Source\PSoC4/CSD_SensingCSD_LL.c ****             /*
2326:Generated_Source\PSoC4/CSD_SensingCSD_LL.c ****              * Store temporary ModIDAC8 value (in single-IDAC mode) in idacComp variable.
2327:Generated_Source\PSoC4/CSD_SensingCSD_LL.c ****              * We need this value to calculate idacMod value the in the dual-IDAC mode.
2328:Generated_Source\PSoC4/CSD_SensingCSD_LL.c ****              */
2329:Generated_Source\PSoC4/CSD_SensingCSD_LL.c ****             CSD_curRamSnsPtr->idacComp[0u] = ptrIdac[0u];
 2008              		.loc 1 2329 0
 2009 0132 0A4B     		ldr	r3, .L95+20
 2010 0134 1B68     		ldr	r3, [r3]
 2011 0136 BA68     		ldr	r2, [r7, #8]
 2012 0138 1278     		ldrb	r2, [r2]
 2013 013a 5A71     		strb	r2, [r3, #5]
2330:Generated_Source\PSoC4/CSD_SensingCSD_LL.c ****             #if (CSD_ENABLE == CSD_MULTI_FREQ_SCAN_EN)
2331:Generated_Source\PSoC4/CSD_SensingCSD_LL.c ****                 CSD_curRamSnsPtr->idacComp[CSD_FREQ_CHANNEL_1] = ptrIdac[CSD_FREQ_CHANNEL_1];
2332:Generated_Source\PSoC4/CSD_SensingCSD_LL.c ****                 CSD_curRamSnsPtr->idacComp[CSD_FREQ_CHANNEL_2] = ptrIdac[CSD_FREQ_CHANNEL_2];
2333:Generated_Source\PSoC4/CSD_SensingCSD_LL.c ****             #endif /* (CSD_ENABLE == CSD_MULTI_FREQ_SCAN_EN) */
2334:Generated_Source\PSoC4/CSD_SensingCSD_LL.c ****         #endif /* (CSD_ENABLE == CSD_CSD_IDAC_COMP_EN) */
2335:Generated_Source\PSoC4/CSD_SensingCSD_LL.c **** 
2336:Generated_Source\PSoC4/CSD_SensingCSD_LL.c ****         return (calibrateStatus);
 2014              		.loc 1 2336 0
 2015 013c 7B69     		ldr	r3, [r7, #20]
2337:Generated_Source\PSoC4/CSD_SensingCSD_LL.c ****     }
 2016              		.loc 1 2337 0
 2017 013e 181C     		mov	r0, r3
 2018 0140 BD46     		mov	sp, r7
 2019 0142 0AB0     		add	sp, sp, #40
 2020              		@ sp needed
 2021 0144 80BD     		pop	{r7, pc}
 2022              	.L96:
 2023 0146 C046     		.align	2
 2024              	.L95:
 2025 0148 00000000 		.word	CSD_widgetIndex
 2026 014c 00000000 		.word	CSD_dsFlash
 2027 0150 00000000 		.word	CSD_sensorIndex
 2028 0154 66660000 		.word	26214
 2029 0158 08000000 		.word	CSD_dsRam+8
 2030 015c 00000000 		.word	CSD_curRamSnsPtr
 2031 0160 00000000 		.word	CSD_curSnsIOPtr
 2032 0164 04000000 		.word	CSD_eleCsdDisconnectFlag
 2033              		.cfi_endproc
 2034              	.LFE24:
 2035              		.size	CSD_SsCSDCalibrateOneSensor, .-CSD_SsCSDCalibrateOneSensor
ARM GAS  C:\Users\CHRIST~1\AppData\Local\Temp\ccGy5PUQ.s 			page 78


 2036              		.section	.text.CSD_CSDCalibrateWidget,"ax",%progbits
 2037              		.align	2
 2038              		.global	CSD_CSDCalibrateWidget
 2039              		.code	16
 2040              		.thumb_func
 2041              		.type	CSD_CSDCalibrateWidget, %function
 2042              	CSD_CSDCalibrateWidget:
 2043              	.LFB25:
2338:Generated_Source\PSoC4/CSD_SensingCSD_LL.c **** 
2339:Generated_Source\PSoC4/CSD_SensingCSD_LL.c **** 
2340:Generated_Source\PSoC4/CSD_SensingCSD_LL.c ****     /*******************************************************************************
2341:Generated_Source\PSoC4/CSD_SensingCSD_LL.c ****     * Function Name: CSD_CSDCalibrateWidget
2342:Generated_Source\PSoC4/CSD_SensingCSD_LL.c ****     ****************************************************************************//**
2343:Generated_Source\PSoC4/CSD_SensingCSD_LL.c ****     *
2344:Generated_Source\PSoC4/CSD_SensingCSD_LL.c ****     * \brief
2345:Generated_Source\PSoC4/CSD_SensingCSD_LL.c ****     *  Executes IDAC calibration for all sensors in the widget specified in an
2346:Generated_Source\PSoC4/CSD_SensingCSD_LL.c ****     *  input.
2347:Generated_Source\PSoC4/CSD_SensingCSD_LL.c ****     *
2348:Generated_Source\PSoC4/CSD_SensingCSD_LL.c ****     * \details
2349:Generated_Source\PSoC4/CSD_SensingCSD_LL.c ****     *  Performs a successive approximation search algorithm to find appropriate
2350:Generated_Source\PSoC4/CSD_SensingCSD_LL.c ****     *  IDAC values for sensors in the specified widget that provides the raw
2351:Generated_Source\PSoC4/CSD_SensingCSD_LL.c ****     *  count to the level specified by the target parameter.
2352:Generated_Source\PSoC4/CSD_SensingCSD_LL.c ****     *
2353:Generated_Source\PSoC4/CSD_SensingCSD_LL.c ****     *  Calibration is always performed in the single IDAC mode and if the dual
2354:Generated_Source\PSoC4/CSD_SensingCSD_LL.c ****     *  IDAC mode (Enable compensation IDAC is enabled) is configured, the IDAC
2355:Generated_Source\PSoC4/CSD_SensingCSD_LL.c ****     *  values are re-calculated to match the raw count target. If a widget
2356:Generated_Source\PSoC4/CSD_SensingCSD_LL.c ****     *  consists of two or more elements (buttons, slider segments, etc.), then
2357:Generated_Source\PSoC4/CSD_SensingCSD_LL.c ****     *  calibration is performed by the element with the highest sensor
2358:Generated_Source\PSoC4/CSD_SensingCSD_LL.c ****     *  capacitance.
2359:Generated_Source\PSoC4/CSD_SensingCSD_LL.c ****     *
2360:Generated_Source\PSoC4/CSD_SensingCSD_LL.c ****     *  Calibration fails if the achieved raw count is outside of the +/-10%
2361:Generated_Source\PSoC4/CSD_SensingCSD_LL.c ****     *  range of the target.
2362:Generated_Source\PSoC4/CSD_SensingCSD_LL.c ****     *
2363:Generated_Source\PSoC4/CSD_SensingCSD_LL.c ****     *  This function is available when the CSD Enable IDAC auto-calibration
2364:Generated_Source\PSoC4/CSD_SensingCSD_LL.c ****     *  parameter is enabled or the  SmartSense auto-tuning mode is configured.
2365:Generated_Source\PSoC4/CSD_SensingCSD_LL.c ****     *
2366:Generated_Source\PSoC4/CSD_SensingCSD_LL.c ****     * \param wdgtIndex
2367:Generated_Source\PSoC4/CSD_SensingCSD_LL.c ****     *  Specify the ID number of the CSD widget to calibrate its raw count.
2368:Generated_Source\PSoC4/CSD_SensingCSD_LL.c ****     *  A macro for the widget ID can be found in
2369:Generated_Source\PSoC4/CSD_SensingCSD_LL.c ****     *  CSD_Configuration.h file defined as
2370:Generated_Source\PSoC4/CSD_SensingCSD_LL.c ****     *  CSD_<WidgetName>_WDGT_ID.
2371:Generated_Source\PSoC4/CSD_SensingCSD_LL.c ****     *
2372:Generated_Source\PSoC4/CSD_SensingCSD_LL.c ****     * \param target
2373:Generated_Source\PSoC4/CSD_SensingCSD_LL.c ****     *  Specify the calibration target in percentages of the maximum raw count.
2374:Generated_Source\PSoC4/CSD_SensingCSD_LL.c ****     *
2375:Generated_Source\PSoC4/CSD_SensingCSD_LL.c ****     * \return
2376:Generated_Source\PSoC4/CSD_SensingCSD_LL.c ****     *  Returns the status of the specified widget calibration:
2377:Generated_Source\PSoC4/CSD_SensingCSD_LL.c ****     *    - CYRET_SUCCESS if the operation is successfully completed.
2378:Generated_Source\PSoC4/CSD_SensingCSD_LL.c ****     *    - CYRET_BAD_PARAM if the input parameter is invalid.
2379:Generated_Source\PSoC4/CSD_SensingCSD_LL.c ****     *    - CYRET_BAD_DATA if the calibration failed and the component may not operate as expected.
2380:Generated_Source\PSoC4/CSD_SensingCSD_LL.c ****     *
2381:Generated_Source\PSoC4/CSD_SensingCSD_LL.c ****     *******************************************************************************/
2382:Generated_Source\PSoC4/CSD_SensingCSD_LL.c ****     cystatus CSD_CSDCalibrateWidget(uint32 wdgtIndex, uint32 target)
2383:Generated_Source\PSoC4/CSD_SensingCSD_LL.c ****     {
 2044              		.loc 1 2383 0
 2045              		.cfi_startproc
 2046 0000 90B5     		push	{r4, r7, lr}
ARM GAS  C:\Users\CHRIST~1\AppData\Local\Temp\ccGy5PUQ.s 			page 79


 2047              		.cfi_def_cfa_offset 12
 2048              		.cfi_offset 4, -12
 2049              		.cfi_offset 7, -8
 2050              		.cfi_offset 14, -4
 2051 0002 89B0     		sub	sp, sp, #36
 2052              		.cfi_def_cfa_offset 48
 2053 0004 00AF     		add	r7, sp, #0
 2054              		.cfi_def_cfa_register 7
 2055 0006 7860     		str	r0, [r7, #4]
 2056 0008 3960     		str	r1, [r7]
2384:Generated_Source\PSoC4/CSD_SensingCSD_LL.c ****         uint32 rawLevel;
2385:Generated_Source\PSoC4/CSD_SensingCSD_LL.c ****         cystatus calibrateStatus = CYRET_SUCCESS;
 2057              		.loc 1 2385 0
 2058 000a 0023     		mov	r3, #0
 2059 000c FB61     		str	r3, [r7, #28]
2386:Generated_Source\PSoC4/CSD_SensingCSD_LL.c **** 
2387:Generated_Source\PSoC4/CSD_SensingCSD_LL.c ****         /*  Declare and initialise ptr to widget and sensor structures to appropriate address      
2388:Generated_Source\PSoC4/CSD_SensingCSD_LL.c ****         CSD_RAM_WD_BASE_STRUCT *ptrWdgt = (CSD_RAM_WD_BASE_STRUCT *)
 2060              		.loc 1 2388 0
 2061 000e 5849     		ldr	r1, .L105
 2062 0010 7A68     		ldr	r2, [r7, #4]
 2063 0012 131C     		mov	r3, r2
 2064 0014 DB00     		lsl	r3, r3, #3
 2065 0016 9B1A     		sub	r3, r3, r2
 2066 0018 9B00     		lsl	r3, r3, #2
 2067 001a CB18     		add	r3, r1, r3
 2068 001c 5B68     		ldr	r3, [r3, #4]
 2069 001e BB61     		str	r3, [r7, #24]
2389:Generated_Source\PSoC4/CSD_SensingCSD_LL.c ****                                               CSD_dsFlash.wdgtArray[wdgtIndex].ptr2WdgtRam;
2390:Generated_Source\PSoC4/CSD_SensingCSD_LL.c ****         uint8 iDAC8Max[CSD_NUM_SCAN_FREQS] = {1u};
 2070              		.loc 1 2390 0
 2071 0020 0C23     		mov	r3, #12
 2072 0022 FB18     		add	r3, r7, r3
 2073 0024 0122     		mov	r2, #1
 2074 0026 1A70     		strb	r2, [r3]
2391:Generated_Source\PSoC4/CSD_SensingCSD_LL.c ****         uint8 *ptrIdac;
2392:Generated_Source\PSoC4/CSD_SensingCSD_LL.c **** 
2393:Generated_Source\PSoC4/CSD_SensingCSD_LL.c ****         /* Calibrate maximum level for given resolution */
2394:Generated_Source\PSoC4/CSD_SensingCSD_LL.c ****         rawLevel = (0x00000001Lu << ptrWdgt->resolution) - 1u;
 2075              		.loc 1 2394 0
 2076 0028 BB69     		ldr	r3, [r7, #24]
 2077 002a 1B88     		ldrh	r3, [r3]
 2078 002c 1A1C     		mov	r2, r3
 2079 002e 0123     		mov	r3, #1
 2080 0030 9340     		lsl	r3, r3, r2
 2081 0032 013B     		sub	r3, r3, #1
 2082 0034 7B61     		str	r3, [r7, #20]
2395:Generated_Source\PSoC4/CSD_SensingCSD_LL.c **** 
2396:Generated_Source\PSoC4/CSD_SensingCSD_LL.c ****         /* Calculate percentage of maximum value */
2397:Generated_Source\PSoC4/CSD_SensingCSD_LL.c ****         rawLevel = (rawLevel * target) / CSD_PERCENTAGE_100;
 2083              		.loc 1 2397 0
 2084 0036 7B69     		ldr	r3, [r7, #20]
 2085 0038 3A68     		ldr	r2, [r7]
 2086 003a 5343     		mul	r3, r2
 2087 003c 181C     		mov	r0, r3
 2088 003e 6421     		mov	r1, #100
 2089 0040 FFF7FEFF 		bl	__aeabi_uidiv
ARM GAS  C:\Users\CHRIST~1\AppData\Local\Temp\ccGy5PUQ.s 			page 80


 2090 0044 031C     		mov	r3, r0
 2091 0046 7B61     		str	r3, [r7, #20]
2398:Generated_Source\PSoC4/CSD_SensingCSD_LL.c **** 
2399:Generated_Source\PSoC4/CSD_SensingCSD_LL.c ****         /* Update CSD_widgetIndex */
2400:Generated_Source\PSoC4/CSD_SensingCSD_LL.c ****         CSD_widgetIndex = (uint8)wdgtIndex;
 2092              		.loc 1 2400 0
 2093 0048 7B68     		ldr	r3, [r7, #4]
 2094 004a DAB2     		uxtb	r2, r3
 2095 004c 494B     		ldr	r3, .L105+4
 2096 004e 1A70     		strb	r2, [r3]
2401:Generated_Source\PSoC4/CSD_SensingCSD_LL.c **** 
2402:Generated_Source\PSoC4/CSD_SensingCSD_LL.c ****         /* Setup ISR handler to single-sensor scan function */
2403:Generated_Source\PSoC4/CSD_SensingCSD_LL.c ****         CSD_ISR_StartEx(&CSD_CSDPostSingleScan);
 2097              		.loc 1 2403 0
 2098 0050 494B     		ldr	r3, .L105+8
 2099 0052 181C     		mov	r0, r3
 2100 0054 FFF7FEFF 		bl	CSD_ISR_StartEx
2404:Generated_Source\PSoC4/CSD_SensingCSD_LL.c **** 
2405:Generated_Source\PSoC4/CSD_SensingCSD_LL.c ****         /* Init pointer to Modulator IDAC */
2406:Generated_Source\PSoC4/CSD_SensingCSD_LL.c ****         ptrIdac = &ptrWdgt->idacMod[0u];
 2101              		.loc 1 2406 0
 2102 0058 BB69     		ldr	r3, [r7, #24]
 2103 005a 0A33     		add	r3, r3, #10
 2104 005c 3B61     		str	r3, [r7, #16]
2407:Generated_Source\PSoC4/CSD_SensingCSD_LL.c **** 
2408:Generated_Source\PSoC4/CSD_SensingCSD_LL.c ****         /* Go through all sensors (or columns of touchpad) of widget to calibrate them */
2409:Generated_Source\PSoC4/CSD_SensingCSD_LL.c ****         for (CSD_sensorIndex = 0u;
 2105              		.loc 1 2409 0
 2106 005e 474B     		ldr	r3, .L105+12
 2107 0060 0022     		mov	r2, #0
 2108 0062 1A70     		strb	r2, [r3]
 2109 0064 13E0     		b	.L98
 2110              	.L99:
2410:Generated_Source\PSoC4/CSD_SensingCSD_LL.c ****              CSD_sensorIndex < CSD_dsFlash.wdgtArray[(wdgtIndex)].numCols;
2411:Generated_Source\PSoC4/CSD_SensingCSD_LL.c ****              CSD_sensorIndex++)
2412:Generated_Source\PSoC4/CSD_SensingCSD_LL.c ****         {
2413:Generated_Source\PSoC4/CSD_SensingCSD_LL.c ****             /* Calibrate current sensor in widget */
2414:Generated_Source\PSoC4/CSD_SensingCSD_LL.c ****             calibrateStatus |= CSD_SsCSDCalibrateOneSensor(rawLevel, ptrIdac, iDAC8Max);
 2111              		.loc 1 2414 0
 2112 0066 7969     		ldr	r1, [r7, #20]
 2113 0068 3A69     		ldr	r2, [r7, #16]
 2114 006a 0C23     		mov	r3, #12
 2115 006c FB18     		add	r3, r7, r3
 2116 006e 081C     		mov	r0, r1
 2117 0070 111C     		mov	r1, r2
 2118 0072 1A1C     		mov	r2, r3
 2119 0074 FFF7FEFF 		bl	CSD_SsCSDCalibrateOneSensor
 2120 0078 021C     		mov	r2, r0
 2121 007a FB69     		ldr	r3, [r7, #28]
 2122 007c 1343     		orr	r3, r2
 2123 007e FB61     		str	r3, [r7, #28]
2411:Generated_Source\PSoC4/CSD_SensingCSD_LL.c ****         {
 2124              		.loc 1 2411 0
 2125 0080 3E4B     		ldr	r3, .L105+12
 2126 0082 1B78     		ldrb	r3, [r3]
 2127 0084 DBB2     		uxtb	r3, r3
 2128 0086 0133     		add	r3, r3, #1
ARM GAS  C:\Users\CHRIST~1\AppData\Local\Temp\ccGy5PUQ.s 			page 81


 2129 0088 DAB2     		uxtb	r2, r3
 2130 008a 3C4B     		ldr	r3, .L105+12
 2131 008c 1A70     		strb	r2, [r3]
 2132              	.L98:
2410:Generated_Source\PSoC4/CSD_SensingCSD_LL.c ****              CSD_sensorIndex < CSD_dsFlash.wdgtArray[(wdgtIndex)].numCols;
 2133              		.loc 1 2410 0 discriminator 1
 2134 008e 3849     		ldr	r1, .L105
 2135 0090 7A68     		ldr	r2, [r7, #4]
 2136 0092 131C     		mov	r3, r2
 2137 0094 DB00     		lsl	r3, r3, #3
 2138 0096 9B1A     		sub	r3, r3, r2
 2139 0098 9B00     		lsl	r3, r3, #2
 2140 009a CB18     		add	r3, r1, r3
 2141 009c 1833     		add	r3, r3, #24
 2142 009e 5A78     		ldrb	r2, [r3, #1]
 2143 00a0 364B     		ldr	r3, .L105+12
 2144 00a2 1B78     		ldrb	r3, [r3]
 2145 00a4 DBB2     		uxtb	r3, r3
2409:Generated_Source\PSoC4/CSD_SensingCSD_LL.c ****              CSD_sensorIndex < CSD_dsFlash.wdgtArray[(wdgtIndex)].numCols;
 2146              		.loc 1 2409 0 discriminator 1
 2147 00a6 9A42     		cmp	r2, r3
 2148 00a8 DDD8     		bhi	.L99
2415:Generated_Source\PSoC4/CSD_SensingCSD_LL.c ****         }
2416:Generated_Source\PSoC4/CSD_SensingCSD_LL.c **** 
2417:Generated_Source\PSoC4/CSD_SensingCSD_LL.c ****         /* Normalize idacMod and idacComp values */
2418:Generated_Source\PSoC4/CSD_SensingCSD_LL.c ****         #if (CSD_ENABLE == CSD_CSD_IDAC_COMP_EN)
2419:Generated_Source\PSoC4/CSD_SensingCSD_LL.c ****             /* Calculate Modulator value: idacMod = (iDAC8Max + 1)/2  */
2420:Generated_Source\PSoC4/CSD_SensingCSD_LL.c ****             ptrIdac[0u] = (iDAC8Max[0u] + 1u) >> 1u;
 2149              		.loc 1 2420 0
 2150 00aa 0C23     		mov	r3, #12
 2151 00ac FB18     		add	r3, r7, r3
 2152 00ae 1B78     		ldrb	r3, [r3]
 2153 00b0 0133     		add	r3, r3, #1
 2154 00b2 5B08     		lsr	r3, r3, #1
 2155 00b4 DAB2     		uxtb	r2, r3
 2156 00b6 3B69     		ldr	r3, [r7, #16]
 2157 00b8 1A70     		strb	r2, [r3]
2421:Generated_Source\PSoC4/CSD_SensingCSD_LL.c **** 
2422:Generated_Source\PSoC4/CSD_SensingCSD_LL.c ****             #if (CSD_ENABLE == CSD_MULTI_FREQ_SCAN_EN)
2423:Generated_Source\PSoC4/CSD_SensingCSD_LL.c ****                 /* Do same for first frequency channel  */
2424:Generated_Source\PSoC4/CSD_SensingCSD_LL.c ****                 ptrIdac[CSD_FREQ_CHANNEL_1] =  (iDAC8Max[CSD_FREQ_CHANNEL_1] + 1u) >> 1u;
2425:Generated_Source\PSoC4/CSD_SensingCSD_LL.c **** 
2426:Generated_Source\PSoC4/CSD_SensingCSD_LL.c ****                 /* Do same for second frequency channel  */
2427:Generated_Source\PSoC4/CSD_SensingCSD_LL.c ****                 ptrIdac[CSD_FREQ_CHANNEL_2] = (iDAC8Max[CSD_FREQ_CHANNEL_2] + 1u) >> 1u;
2428:Generated_Source\PSoC4/CSD_SensingCSD_LL.c ****             #endif /* (CSD_ENABLE == CSD_MULTI_FREQ_SCAN_EN) */
2429:Generated_Source\PSoC4/CSD_SensingCSD_LL.c **** 
2430:Generated_Source\PSoC4/CSD_SensingCSD_LL.c ****             /* Go through all columns of touchpad (or all sensors in button) to normalize them */
2431:Generated_Source\PSoC4/CSD_SensingCSD_LL.c ****             for (CSD_sensorIndex = 0u;
 2158              		.loc 1 2431 0
 2159 00ba 304B     		ldr	r3, .L105+12
 2160 00bc 0022     		mov	r2, #0
 2161 00be 1A70     		strb	r2, [r3]
 2162 00c0 40E0     		b	.L100
 2163              	.L103:
2432:Generated_Source\PSoC4/CSD_SensingCSD_LL.c ****                  CSD_sensorIndex < CSD_dsFlash.wdgtArray[(wdgtIndex)].numCols;
2433:Generated_Source\PSoC4/CSD_SensingCSD_LL.c ****                  CSD_sensorIndex++)
2434:Generated_Source\PSoC4/CSD_SensingCSD_LL.c ****             {
ARM GAS  C:\Users\CHRIST~1\AppData\Local\Temp\ccGy5PUQ.s 			page 82


2435:Generated_Source\PSoC4/CSD_SensingCSD_LL.c ****                 CSD_curRamSnsPtr = (CSD_RAM_SNS_STRUCT *)
2436:Generated_Source\PSoC4/CSD_SensingCSD_LL.c ****                          CSD_dsFlash.wdgtArray[wdgtIndex].ptr2SnsRam + CSD_sensorIndex;
 2164              		.loc 1 2436 0
 2165 00c2 2B49     		ldr	r1, .L105
 2166 00c4 7A68     		ldr	r2, [r7, #4]
 2167 00c6 131C     		mov	r3, r2
 2168 00c8 DB00     		lsl	r3, r3, #3
 2169 00ca 9B1A     		sub	r3, r3, r2
 2170 00cc 9B00     		lsl	r3, r3, #2
 2171 00ce CB18     		add	r3, r1, r3
 2172 00d0 0833     		add	r3, r3, #8
 2173 00d2 1A68     		ldr	r2, [r3]
 2174 00d4 294B     		ldr	r3, .L105+12
 2175 00d6 1B78     		ldrb	r3, [r3]
 2176 00d8 DBB2     		uxtb	r3, r3
 2177 00da 191C     		mov	r1, r3
 2178 00dc 0B1C     		mov	r3, r1
 2179 00de 9B00     		lsl	r3, r3, #2
 2180 00e0 5B18     		add	r3, r3, r1
 2181 00e2 5B00     		lsl	r3, r3, #1
 2182 00e4 D218     		add	r2, r2, r3
2435:Generated_Source\PSoC4/CSD_SensingCSD_LL.c ****                          CSD_dsFlash.wdgtArray[wdgtIndex].ptr2SnsRam + CSD_sensorIndex;
 2183              		.loc 1 2435 0
 2184 00e6 264B     		ldr	r3, .L105+16
 2185 00e8 1A60     		str	r2, [r3]
2437:Generated_Source\PSoC4/CSD_SensingCSD_LL.c ****                 /* Calculate Compensation IDAC value: idacComp(i) = (iDAC8(i) - idacMod) * 85% */
2438:Generated_Source\PSoC4/CSD_SensingCSD_LL.c ****                 if (CSD_curRamSnsPtr->idacComp[0u] >= ptrIdac[0u])
 2186              		.loc 1 2438 0
 2187 00ea 254B     		ldr	r3, .L105+16
 2188 00ec 1B68     		ldr	r3, [r3]
 2189 00ee 5A79     		ldrb	r2, [r3, #5]
 2190 00f0 3B69     		ldr	r3, [r7, #16]
 2191 00f2 1B78     		ldrb	r3, [r3]
 2192 00f4 9A42     		cmp	r2, r3
 2193 00f6 1AD3     		bcc	.L101
2439:Generated_Source\PSoC4/CSD_SensingCSD_LL.c ****                 {
2440:Generated_Source\PSoC4/CSD_SensingCSD_LL.c ****                     CSD_curRamSnsPtr->idacComp[0u] -= ptrIdac[0u];
 2194              		.loc 1 2440 0
 2195 00f8 214B     		ldr	r3, .L105+16
 2196 00fa 1A68     		ldr	r2, [r3]
 2197 00fc 204B     		ldr	r3, .L105+16
 2198 00fe 1B68     		ldr	r3, [r3]
 2199 0100 5979     		ldrb	r1, [r3, #5]
 2200 0102 3B69     		ldr	r3, [r7, #16]
 2201 0104 1B78     		ldrb	r3, [r3]
 2202 0106 CB1A     		sub	r3, r1, r3
 2203 0108 DBB2     		uxtb	r3, r3
 2204 010a 5371     		strb	r3, [r2, #5]
2441:Generated_Source\PSoC4/CSD_SensingCSD_LL.c ****                     #if ((CSD_ENABLE == CSD_CSD_DEDICATED_IDAC_COMP_EN) ||\
2442:Generated_Source\PSoC4/CSD_SensingCSD_LL.c ****                          (CSD_DISABLE == CSD_CSDV2))
2443:Generated_Source\PSoC4/CSD_SensingCSD_LL.c ****                         CSD_curRamSnsPtr->idacComp[0u] =
 2205              		.loc 1 2443 0
 2206 010c 1C4B     		ldr	r3, .L105+16
 2207 010e 1C68     		ldr	r4, [r3]
2444:Generated_Source\PSoC4/CSD_SensingCSD_LL.c ****                             (uint8)((((target * CSD_curRamSnsPtr->idacComp[0u]) + CSD_PERCENTAGE_10
 2208              		.loc 1 2444 0
 2209 0110 1B4B     		ldr	r3, .L105+16
ARM GAS  C:\Users\CHRIST~1\AppData\Local\Temp\ccGy5PUQ.s 			page 83


 2210 0112 1B68     		ldr	r3, [r3]
 2211 0114 5B79     		ldrb	r3, [r3, #5]
 2212 0116 1A1C     		mov	r2, r3
 2213 0118 3B68     		ldr	r3, [r7]
 2214 011a 5343     		mul	r3, r2
 2215 011c 6333     		add	r3, r3, #99
 2216 011e 181C     		mov	r0, r3
 2217 0120 6421     		mov	r1, #100
 2218 0122 FFF7FEFF 		bl	__aeabi_uidiv
 2219 0126 031C     		mov	r3, r0
 2220 0128 DBB2     		uxtb	r3, r3
2443:Generated_Source\PSoC4/CSD_SensingCSD_LL.c ****                             (uint8)((((target * CSD_curRamSnsPtr->idacComp[0u]) + CSD_PERCENTAGE_10
 2221              		.loc 1 2443 0
 2222 012a 6371     		strb	r3, [r4, #5]
 2223 012c 03E0     		b	.L102
 2224              	.L101:
2445:Generated_Source\PSoC4/CSD_SensingCSD_LL.c ****                             CSD_PERCENTAGE_100);
2446:Generated_Source\PSoC4/CSD_SensingCSD_LL.c ****                     #endif /* ((CSD_ENABLE == CSD_CSD_DEDICATED_IDAC_COMP_EN) ||\
2447:Generated_Source\PSoC4/CSD_SensingCSD_LL.c ****                                (CSD_DISABLE == CSD_CSDV2)) */
2448:Generated_Source\PSoC4/CSD_SensingCSD_LL.c ****                 }
2449:Generated_Source\PSoC4/CSD_SensingCSD_LL.c ****                 else
2450:Generated_Source\PSoC4/CSD_SensingCSD_LL.c ****                 {
2451:Generated_Source\PSoC4/CSD_SensingCSD_LL.c ****                     CSD_curRamSnsPtr->idacComp[0u] = 0u;
 2225              		.loc 1 2451 0
 2226 012e 144B     		ldr	r3, .L105+16
 2227 0130 1B68     		ldr	r3, [r3]
 2228 0132 0022     		mov	r2, #0
 2229 0134 5A71     		strb	r2, [r3, #5]
 2230              	.L102:
2433:Generated_Source\PSoC4/CSD_SensingCSD_LL.c ****             {
 2231              		.loc 1 2433 0
 2232 0136 114B     		ldr	r3, .L105+12
 2233 0138 1B78     		ldrb	r3, [r3]
 2234 013a DBB2     		uxtb	r3, r3
 2235 013c 0133     		add	r3, r3, #1
 2236 013e DAB2     		uxtb	r2, r3
 2237 0140 0E4B     		ldr	r3, .L105+12
 2238 0142 1A70     		strb	r2, [r3]
 2239              	.L100:
2432:Generated_Source\PSoC4/CSD_SensingCSD_LL.c ****                  CSD_sensorIndex++)
 2240              		.loc 1 2432 0 discriminator 1
 2241 0144 0A49     		ldr	r1, .L105
 2242 0146 7A68     		ldr	r2, [r7, #4]
 2243 0148 131C     		mov	r3, r2
 2244 014a DB00     		lsl	r3, r3, #3
 2245 014c 9B1A     		sub	r3, r3, r2
 2246 014e 9B00     		lsl	r3, r3, #2
 2247 0150 CB18     		add	r3, r1, r3
 2248 0152 1833     		add	r3, r3, #24
 2249 0154 5A78     		ldrb	r2, [r3, #1]
 2250 0156 094B     		ldr	r3, .L105+12
 2251 0158 1B78     		ldrb	r3, [r3]
 2252 015a DBB2     		uxtb	r3, r3
2431:Generated_Source\PSoC4/CSD_SensingCSD_LL.c ****                  CSD_sensorIndex < CSD_dsFlash.wdgtArray[(wdgtIndex)].numCols;
 2253              		.loc 1 2431 0 discriminator 1
 2254 015c 9A42     		cmp	r2, r3
 2255 015e B0D8     		bhi	.L103
ARM GAS  C:\Users\CHRIST~1\AppData\Local\Temp\ccGy5PUQ.s 			page 84


2452:Generated_Source\PSoC4/CSD_SensingCSD_LL.c ****                 }
2453:Generated_Source\PSoC4/CSD_SensingCSD_LL.c ****                 #if (CSD_ENABLE == CSD_MULTI_FREQ_SCAN_EN)
2454:Generated_Source\PSoC4/CSD_SensingCSD_LL.c ****                     /* Do same for first frequency channel  */
2455:Generated_Source\PSoC4/CSD_SensingCSD_LL.c ****                     if (CSD_curRamSnsPtr->idacComp[CSD_FREQ_CHANNEL_1] >= ptrIdac[CSD_FREQ_CHANNEL_
2456:Generated_Source\PSoC4/CSD_SensingCSD_LL.c ****                     {
2457:Generated_Source\PSoC4/CSD_SensingCSD_LL.c ****                         CSD_curRamSnsPtr->idacComp[CSD_FREQ_CHANNEL_1] -= ptrIdac[CSD_FREQ_CHANNEL_
2458:Generated_Source\PSoC4/CSD_SensingCSD_LL.c ****                         #if ((CSD_ENABLE == CSD_CSD_DEDICATED_IDAC_COMP_EN) ||\
2459:Generated_Source\PSoC4/CSD_SensingCSD_LL.c ****                              (CSD_DISABLE == CSD_CSDV2))
2460:Generated_Source\PSoC4/CSD_SensingCSD_LL.c ****                             CSD_curRamSnsPtr->idacComp[CSD_FREQ_CHANNEL_1] =
2461:Generated_Source\PSoC4/CSD_SensingCSD_LL.c ****                                 (uint8)((((target * CSD_curRamSnsPtr->idacComp[CSD_FREQ_CHANNEL_1])
2462:Generated_Source\PSoC4/CSD_SensingCSD_LL.c ****                                 CSD_PERCENTAGE_100) - 1u) / CSD_PERCENTAGE_100);
2463:Generated_Source\PSoC4/CSD_SensingCSD_LL.c ****                         #endif /* ((CSD_ENABLE == CSD_CSD_DEDICATED_IDAC_COMP_EN) ||\
2464:Generated_Source\PSoC4/CSD_SensingCSD_LL.c ****                                    (CSD_DISABLE == CSD_CSDV2)) */
2465:Generated_Source\PSoC4/CSD_SensingCSD_LL.c ****                     }
2466:Generated_Source\PSoC4/CSD_SensingCSD_LL.c ****                     else
2467:Generated_Source\PSoC4/CSD_SensingCSD_LL.c ****                     {
2468:Generated_Source\PSoC4/CSD_SensingCSD_LL.c ****                        CSD_curRamSnsPtr->idacComp[CSD_FREQ_CHANNEL_1] = 0u;
2469:Generated_Source\PSoC4/CSD_SensingCSD_LL.c ****                     }
2470:Generated_Source\PSoC4/CSD_SensingCSD_LL.c ****                     /* Do same for second frequency channel  */
2471:Generated_Source\PSoC4/CSD_SensingCSD_LL.c ****                     if (CSD_curRamSnsPtr->idacComp[CSD_FREQ_CHANNEL_2] >= ptrIdac[CSD_FREQ_CHANNEL_
2472:Generated_Source\PSoC4/CSD_SensingCSD_LL.c ****                     {
2473:Generated_Source\PSoC4/CSD_SensingCSD_LL.c ****                         CSD_curRamSnsPtr->idacComp[CSD_FREQ_CHANNEL_2] -= ptrIdac[CSD_FREQ_CHANNEL_
2474:Generated_Source\PSoC4/CSD_SensingCSD_LL.c ****                         #if ((CSD_ENABLE == CSD_CSD_DEDICATED_IDAC_COMP_EN) ||\
2475:Generated_Source\PSoC4/CSD_SensingCSD_LL.c ****                              (CSD_DISABLE == CSD_CSDV2))
2476:Generated_Source\PSoC4/CSD_SensingCSD_LL.c ****                             CSD_curRamSnsPtr->idacComp[CSD_FREQ_CHANNEL_2] =
2477:Generated_Source\PSoC4/CSD_SensingCSD_LL.c ****                                 (uint8)((((target * CSD_curRamSnsPtr->idacComp[CSD_FREQ_CHANNEL_2])
2478:Generated_Source\PSoC4/CSD_SensingCSD_LL.c ****                                 CSD_PERCENTAGE_100) - 1u) / CSD_PERCENTAGE_100);
2479:Generated_Source\PSoC4/CSD_SensingCSD_LL.c ****                         #endif /* ((CSD_ENABLE == CSD_CSD_DEDICATED_IDAC_COMP_EN) ||\
2480:Generated_Source\PSoC4/CSD_SensingCSD_LL.c ****                                    (CSD_DISABLE == CSD_CSDV2)) */
2481:Generated_Source\PSoC4/CSD_SensingCSD_LL.c ****                     }
2482:Generated_Source\PSoC4/CSD_SensingCSD_LL.c ****                     else
2483:Generated_Source\PSoC4/CSD_SensingCSD_LL.c ****                     {
2484:Generated_Source\PSoC4/CSD_SensingCSD_LL.c ****                         CSD_curRamSnsPtr->idacComp[CSD_FREQ_CHANNEL_2] = 0u;
2485:Generated_Source\PSoC4/CSD_SensingCSD_LL.c ****                     }
2486:Generated_Source\PSoC4/CSD_SensingCSD_LL.c ****                 #endif /* (CSD_ENABLE == CSD_MULTI_FREQ_SCAN_EN) */
2487:Generated_Source\PSoC4/CSD_SensingCSD_LL.c ****             }
2488:Generated_Source\PSoC4/CSD_SensingCSD_LL.c ****         #else
2489:Generated_Source\PSoC4/CSD_SensingCSD_LL.c ****             /* Normalize widget for single-IDAC mode*/
2490:Generated_Source\PSoC4/CSD_SensingCSD_LL.c ****             ptrIdac[0u] = iDAC8Max[0u];
2491:Generated_Source\PSoC4/CSD_SensingCSD_LL.c ****             #if (CSD_ENABLE == CSD_MULTI_FREQ_SCAN_EN)
2492:Generated_Source\PSoC4/CSD_SensingCSD_LL.c ****                 ptrIdac[CSD_FREQ_CHANNEL_1] = iDAC8Max[CSD_FREQ_CHANNEL_1];
2493:Generated_Source\PSoC4/CSD_SensingCSD_LL.c ****                 ptrIdac[CSD_FREQ_CHANNEL_2] = iDAC8Max[CSD_FREQ_CHANNEL_2];
2494:Generated_Source\PSoC4/CSD_SensingCSD_LL.c ****             #endif /* (CSD_ENABLE == CSD_MULTI_FREQ_SCAN_EN) */
2495:Generated_Source\PSoC4/CSD_SensingCSD_LL.c ****         #endif /* (CSD_ENABLE == CSD_CSD_IDAC_COMP_EN) */
2496:Generated_Source\PSoC4/CSD_SensingCSD_LL.c **** 
2497:Generated_Source\PSoC4/CSD_SensingCSD_LL.c ****         #if (CSD_CSD_MATRIX_WIDGET_EN | CSD_CSD_TOUCHPAD_WIDGET_EN)
2498:Generated_Source\PSoC4/CSD_SensingCSD_LL.c ****             if ((CSD_WD_TOUCHPAD_E == (CSD_WD_TYPE_ENUM)CSD_dsFlash.wdgtArray[(wdgtIndex)].wdgtType
2499:Generated_Source\PSoC4/CSD_SensingCSD_LL.c ****                 (CSD_WD_MATRIX_BUTTON_E == (CSD_WD_TYPE_ENUM)CSD_dsFlash.wdgtArray[(wdgtIndex)].wdg
2500:Generated_Source\PSoC4/CSD_SensingCSD_LL.c ****             {
2501:Generated_Source\PSoC4/CSD_SensingCSD_LL.c ****                 /* Init pointer to Modulator IDAC for columns */
2502:Generated_Source\PSoC4/CSD_SensingCSD_LL.c ****                 ptrIdac = &ptrWdgt->rowIdacMod[0u];
2503:Generated_Source\PSoC4/CSD_SensingCSD_LL.c **** 
2504:Generated_Source\PSoC4/CSD_SensingCSD_LL.c ****                 /* Reset the maximum value for columns */
2505:Generated_Source\PSoC4/CSD_SensingCSD_LL.c ****                 iDAC8Max[0u] = 1u;
2506:Generated_Source\PSoC4/CSD_SensingCSD_LL.c ****                 #if (CSD_ENABLE == CSD_MULTI_FREQ_SCAN_EN)
2507:Generated_Source\PSoC4/CSD_SensingCSD_LL.c ****                     /* Do same for first frequency channel  */
2508:Generated_Source\PSoC4/CSD_SensingCSD_LL.c ****                     iDAC8Max[CSD_FREQ_CHANNEL_1] = 1u;
ARM GAS  C:\Users\CHRIST~1\AppData\Local\Temp\ccGy5PUQ.s 			page 85


2509:Generated_Source\PSoC4/CSD_SensingCSD_LL.c **** 
2510:Generated_Source\PSoC4/CSD_SensingCSD_LL.c ****                     /* Do same for second frequency channel  */
2511:Generated_Source\PSoC4/CSD_SensingCSD_LL.c ****                     iDAC8Max[CSD_FREQ_CHANNEL_2] = 1u;
2512:Generated_Source\PSoC4/CSD_SensingCSD_LL.c ****                 #endif /* (CSD_ENABLE == CSD_MULTI_FREQ_SCAN_EN) */
2513:Generated_Source\PSoC4/CSD_SensingCSD_LL.c **** 
2514:Generated_Source\PSoC4/CSD_SensingCSD_LL.c ****                 /* Go through all columns of touchpad to calibrate them */
2515:Generated_Source\PSoC4/CSD_SensingCSD_LL.c ****                 for (CSD_sensorIndex = CSD_dsFlash.wdgtArray[(wdgtIndex)].numCols;
2516:Generated_Source\PSoC4/CSD_SensingCSD_LL.c ****                      CSD_sensorIndex < (uint8)CSD_dsFlash.wdgtArray[(wdgtIndex)].totalNumSns;
2517:Generated_Source\PSoC4/CSD_SensingCSD_LL.c ****                      CSD_sensorIndex++)
2518:Generated_Source\PSoC4/CSD_SensingCSD_LL.c ****                 {
2519:Generated_Source\PSoC4/CSD_SensingCSD_LL.c ****                     /* Calibrate current sensor in widget */
2520:Generated_Source\PSoC4/CSD_SensingCSD_LL.c ****                     calibrateStatus |= CSD_SsCSDCalibrateOneSensor(rawLevel, ptrIdac, iDAC8Max);
2521:Generated_Source\PSoC4/CSD_SensingCSD_LL.c ****                 }
2522:Generated_Source\PSoC4/CSD_SensingCSD_LL.c **** 
2523:Generated_Source\PSoC4/CSD_SensingCSD_LL.c ****                 /* Normalize idacMod and idacComp values */
2524:Generated_Source\PSoC4/CSD_SensingCSD_LL.c ****                 #if (CSD_ENABLE == CSD_CSD_IDAC_COMP_EN)
2525:Generated_Source\PSoC4/CSD_SensingCSD_LL.c ****                     /* Calculate Modulator value: idacMod = (iDAC8Max + 1)/2  */
2526:Generated_Source\PSoC4/CSD_SensingCSD_LL.c ****                     ptrIdac[0u] = (iDAC8Max[0u] + 1u) >> 1u;
2527:Generated_Source\PSoC4/CSD_SensingCSD_LL.c ****                     #if (CSD_ENABLE == CSD_MULTI_FREQ_SCAN_EN)
2528:Generated_Source\PSoC4/CSD_SensingCSD_LL.c ****                         /* Do same for first frequency channel  */
2529:Generated_Source\PSoC4/CSD_SensingCSD_LL.c ****                         ptrIdac[CSD_FREQ_CHANNEL_1] =  (iDAC8Max[CSD_FREQ_CHANNEL_1] + 1u) >> 1u;
2530:Generated_Source\PSoC4/CSD_SensingCSD_LL.c **** 
2531:Generated_Source\PSoC4/CSD_SensingCSD_LL.c ****                         /* Do same for second frequency channel  */
2532:Generated_Source\PSoC4/CSD_SensingCSD_LL.c ****                         ptrIdac[CSD_FREQ_CHANNEL_2] = (iDAC8Max[CSD_FREQ_CHANNEL_2] + 1u) >> 1u;
2533:Generated_Source\PSoC4/CSD_SensingCSD_LL.c ****                     #endif /* (CSD_ENABLE == CSD_MULTI_FREQ_SCAN_EN) */
2534:Generated_Source\PSoC4/CSD_SensingCSD_LL.c **** 
2535:Generated_Source\PSoC4/CSD_SensingCSD_LL.c ****                     /* Go through all columns of touchpad to normalize them */
2536:Generated_Source\PSoC4/CSD_SensingCSD_LL.c ****                     for (CSD_sensorIndex = CSD_dsFlash.wdgtArray[(wdgtIndex)].numCols;
2537:Generated_Source\PSoC4/CSD_SensingCSD_LL.c ****                          CSD_sensorIndex < (uint8)CSD_dsFlash.wdgtArray[(wdgtIndex)].totalNumSns;
2538:Generated_Source\PSoC4/CSD_SensingCSD_LL.c ****                          CSD_sensorIndex++)
2539:Generated_Source\PSoC4/CSD_SensingCSD_LL.c ****                     {
2540:Generated_Source\PSoC4/CSD_SensingCSD_LL.c ****                         CSD_curRamSnsPtr = (CSD_RAM_SNS_STRUCT *)
2541:Generated_Source\PSoC4/CSD_SensingCSD_LL.c ****                                  CSD_dsFlash.wdgtArray[wdgtIndex].ptr2SnsRam + CSD_sensorIndex;
2542:Generated_Source\PSoC4/CSD_SensingCSD_LL.c **** 
2543:Generated_Source\PSoC4/CSD_SensingCSD_LL.c ****                         /* Calculate Compensation IDAC value: idacComp(i) = (iDAC8(i) - idacMod) * 
2544:Generated_Source\PSoC4/CSD_SensingCSD_LL.c ****                         if (CSD_curRamSnsPtr->idacComp[0u] >= ptrIdac[0u])
2545:Generated_Source\PSoC4/CSD_SensingCSD_LL.c ****                         {
2546:Generated_Source\PSoC4/CSD_SensingCSD_LL.c ****                             CSD_curRamSnsPtr->idacComp[0u] -= ptrIdac[0u];
2547:Generated_Source\PSoC4/CSD_SensingCSD_LL.c ****                             #if ((CSD_ENABLE == CSD_CSD_DEDICATED_IDAC_COMP_EN) ||\
2548:Generated_Source\PSoC4/CSD_SensingCSD_LL.c ****                                  (CSD_DISABLE == CSD_CSDV2))
2549:Generated_Source\PSoC4/CSD_SensingCSD_LL.c ****                                 CSD_curRamSnsPtr->idacComp[0u] =
2550:Generated_Source\PSoC4/CSD_SensingCSD_LL.c ****                                     (uint8)((((target * CSD_curRamSnsPtr->idacComp[0u]) +
2551:Generated_Source\PSoC4/CSD_SensingCSD_LL.c ****                                         CSD_PERCENTAGE_100) - 1u) / CSD_PERCENTAGE_100);
2552:Generated_Source\PSoC4/CSD_SensingCSD_LL.c ****                             #endif /* ((CSD_ENABLE == CSD_CSD_DEDICATED_IDAC_COMP_EN) ||\
2553:Generated_Source\PSoC4/CSD_SensingCSD_LL.c ****                                        (CSD_DISABLE == CSD_CSDV2)) */
2554:Generated_Source\PSoC4/CSD_SensingCSD_LL.c ****                         }
2555:Generated_Source\PSoC4/CSD_SensingCSD_LL.c ****                         #if (CSD_ENABLE == CSD_MULTI_FREQ_SCAN_EN)
2556:Generated_Source\PSoC4/CSD_SensingCSD_LL.c ****                             /* Do same for first frequency channel  */
2557:Generated_Source\PSoC4/CSD_SensingCSD_LL.c ****                             if (CSD_curRamSnsPtr->idacComp[CSD_FREQ_CHANNEL_1] >= ptrIdac[CSD_FREQ_
2558:Generated_Source\PSoC4/CSD_SensingCSD_LL.c ****                             {
2559:Generated_Source\PSoC4/CSD_SensingCSD_LL.c ****                                 CSD_curRamSnsPtr->idacComp[CSD_FREQ_CHANNEL_1] -= ptrIdac[CSD_FREQ_
2560:Generated_Source\PSoC4/CSD_SensingCSD_LL.c ****                                 #if ((CSD_ENABLE == CSD_CSD_DEDICATED_IDAC_COMP_EN) ||\
2561:Generated_Source\PSoC4/CSD_SensingCSD_LL.c ****                                      (CSD_DISABLE == CSD_CSDV2))
2562:Generated_Source\PSoC4/CSD_SensingCSD_LL.c ****                                     CSD_curRamSnsPtr->idacComp[CSD_FREQ_CHANNEL_1] =
2563:Generated_Source\PSoC4/CSD_SensingCSD_LL.c ****                                         (uint8)((((target * CSD_curRamSnsPtr->idacComp[CSD_FREQ_CHA
2564:Generated_Source\PSoC4/CSD_SensingCSD_LL.c ****                                         CSD_PERCENTAGE_100) - 1u) / CSD_PERCENTAGE_100);
2565:Generated_Source\PSoC4/CSD_SensingCSD_LL.c ****                                 #endif /* ((CSD_ENABLE == CSD_CSD_DEDICATED_IDAC_COMP_EN) ||\
ARM GAS  C:\Users\CHRIST~1\AppData\Local\Temp\ccGy5PUQ.s 			page 86


2566:Generated_Source\PSoC4/CSD_SensingCSD_LL.c ****                                            (CSD_DISABLE == CSD_CSDV2)) */
2567:Generated_Source\PSoC4/CSD_SensingCSD_LL.c ****                             }
2568:Generated_Source\PSoC4/CSD_SensingCSD_LL.c ****                             /* Do same for second frequency channel  */
2569:Generated_Source\PSoC4/CSD_SensingCSD_LL.c ****                             if (CSD_curRamSnsPtr->idacComp[CSD_FREQ_CHANNEL_2] >= ptrIdac[CSD_FREQ_
2570:Generated_Source\PSoC4/CSD_SensingCSD_LL.c ****                             {
2571:Generated_Source\PSoC4/CSD_SensingCSD_LL.c ****                                 CSD_curRamSnsPtr->idacComp[CSD_FREQ_CHANNEL_2] -= ptrIdac[CSD_FREQ_
2572:Generated_Source\PSoC4/CSD_SensingCSD_LL.c ****                                 #if ((CSD_ENABLE == CSD_CSD_DEDICATED_IDAC_COMP_EN) ||\
2573:Generated_Source\PSoC4/CSD_SensingCSD_LL.c ****                                      (CSD_DISABLE == CSD_CSDV2))
2574:Generated_Source\PSoC4/CSD_SensingCSD_LL.c ****                                     CSD_curRamSnsPtr->idacComp[CSD_FREQ_CHANNEL_2] =
2575:Generated_Source\PSoC4/CSD_SensingCSD_LL.c ****                                         (uint8)((((target * CSD_curRamSnsPtr->idacComp[CSD_FREQ_CHA
2576:Generated_Source\PSoC4/CSD_SensingCSD_LL.c ****                                         CSD_PERCENTAGE_100) - 1u) / CSD_PERCENTAGE_100);
2577:Generated_Source\PSoC4/CSD_SensingCSD_LL.c ****                                 #endif /* ((CSD_ENABLE == CSD_CSD_DEDICATED_IDAC_COMP_EN) ||\
2578:Generated_Source\PSoC4/CSD_SensingCSD_LL.c ****                                            (CSD_DISABLE == CSD_CSDV2)) */
2579:Generated_Source\PSoC4/CSD_SensingCSD_LL.c ****                             }
2580:Generated_Source\PSoC4/CSD_SensingCSD_LL.c ****                         #endif /* (CSD_ENABLE == CSD_MULTI_FREQ_SCAN_EN) */
2581:Generated_Source\PSoC4/CSD_SensingCSD_LL.c ****                     }
2582:Generated_Source\PSoC4/CSD_SensingCSD_LL.c ****                 #else
2583:Generated_Source\PSoC4/CSD_SensingCSD_LL.c ****                     /* Normalize widget for single-IDAC mode*/
2584:Generated_Source\PSoC4/CSD_SensingCSD_LL.c ****                     ptrIdac[0u] = iDAC8Max[0u];
2585:Generated_Source\PSoC4/CSD_SensingCSD_LL.c ****                     #if (CSD_ENABLE == CSD_MULTI_FREQ_SCAN_EN)
2586:Generated_Source\PSoC4/CSD_SensingCSD_LL.c ****                         ptrIdac[CSD_FREQ_CHANNEL_1] = iDAC8Max[CSD_FREQ_CHANNEL_1];
2587:Generated_Source\PSoC4/CSD_SensingCSD_LL.c ****                         ptrIdac[CSD_FREQ_CHANNEL_2] = iDAC8Max[CSD_FREQ_CHANNEL_2];
2588:Generated_Source\PSoC4/CSD_SensingCSD_LL.c ****                     #endif /* (CSD_ENABLE == CSD_MULTI_FREQ_SCAN_EN) */
2589:Generated_Source\PSoC4/CSD_SensingCSD_LL.c ****                 #endif /* (CSD_ENABLE == CSD_CSD_IDAC_COMP_EN) */
2590:Generated_Source\PSoC4/CSD_SensingCSD_LL.c ****             }
2591:Generated_Source\PSoC4/CSD_SensingCSD_LL.c ****         #endif /* (CSD_CSD_MATRIX_WIDGET_EN | CSD_CSD_TOUCHPAD_WIDGET_EN) */
2592:Generated_Source\PSoC4/CSD_SensingCSD_LL.c **** 
2593:Generated_Source\PSoC4/CSD_SensingCSD_LL.c ****         CSD_sensorIndex = 0u;
 2256              		.loc 1 2593 0
 2257 0160 064B     		ldr	r3, .L105+12
 2258 0162 0022     		mov	r2, #0
 2259 0164 1A70     		strb	r2, [r3]
2594:Generated_Source\PSoC4/CSD_SensingCSD_LL.c **** 
2595:Generated_Source\PSoC4/CSD_SensingCSD_LL.c ****         return calibrateStatus;
 2260              		.loc 1 2595 0
 2261 0166 FB69     		ldr	r3, [r7, #28]
2596:Generated_Source\PSoC4/CSD_SensingCSD_LL.c ****     }
 2262              		.loc 1 2596 0
 2263 0168 181C     		mov	r0, r3
 2264 016a BD46     		mov	sp, r7
 2265 016c 09B0     		add	sp, sp, #36
 2266              		@ sp needed
 2267 016e 90BD     		pop	{r4, r7, pc}
 2268              	.L106:
 2269              		.align	2
 2270              	.L105:
 2271 0170 00000000 		.word	CSD_dsFlash
 2272 0174 00000000 		.word	CSD_widgetIndex
 2273 0178 00000000 		.word	CSD_CSDPostSingleScan
 2274 017c 00000000 		.word	CSD_sensorIndex
 2275 0180 00000000 		.word	CSD_curRamSnsPtr
 2276              		.cfi_endproc
 2277              	.LFE25:
 2278              		.size	CSD_CSDCalibrateWidget, .-CSD_CSDCalibrateWidget
 2279              		.section	.text.CSD_SsCSDCmodPrecharge,"ax",%progbits
 2280              		.align	2
 2281              		.code	16
ARM GAS  C:\Users\CHRIST~1\AppData\Local\Temp\ccGy5PUQ.s 			page 87


 2282              		.thumb_func
 2283              		.type	CSD_SsCSDCmodPrecharge, %function
 2284              	CSD_SsCSDCmodPrecharge:
 2285              	.LFB26:
2597:Generated_Source\PSoC4/CSD_SensingCSD_LL.c **** #endif /* ((CSD_CSD_SS_DIS != CSD_CSD_AUTOTUNE)) || \
2598:Generated_Source\PSoC4/CSD_SensingCSD_LL.c ****             (CSD_ENABLE == CSD_CSD_IDAC_AUTOCAL_EN))  */
2599:Generated_Source\PSoC4/CSD_SensingCSD_LL.c **** 
2600:Generated_Source\PSoC4/CSD_SensingCSD_LL.c **** 
2601:Generated_Source\PSoC4/CSD_SensingCSD_LL.c **** #if (CSD_DISABLE == CSD_CSDV2)
2602:Generated_Source\PSoC4/CSD_SensingCSD_LL.c ****     /*******************************************************************************
2603:Generated_Source\PSoC4/CSD_SensingCSD_LL.c ****     * Function Name: CSD_SsCSDClockRestart
2604:Generated_Source\PSoC4/CSD_SensingCSD_LL.c ****     ****************************************************************************//**
2605:Generated_Source\PSoC4/CSD_SensingCSD_LL.c ****     *
2606:Generated_Source\PSoC4/CSD_SensingCSD_LL.c ****     * \brief
2607:Generated_Source\PSoC4/CSD_SensingCSD_LL.c ****     *  This function restarts the clocks.
2608:Generated_Source\PSoC4/CSD_SensingCSD_LL.c ****     *
2609:Generated_Source\PSoC4/CSD_SensingCSD_LL.c ****     * \details
2610:Generated_Source\PSoC4/CSD_SensingCSD_LL.c ****     *  The function performs following:
2611:Generated_Source\PSoC4/CSD_SensingCSD_LL.c ****     *  1) Stops, sets dividers and starts ModClk clock;
2612:Generated_Source\PSoC4/CSD_SensingCSD_LL.c ****     *  2) Stops and starts SnsClk clock;
2613:Generated_Source\PSoC4/CSD_SensingCSD_LL.c ****     *  3) Scan one cycle to reset the flip-flop for Direct clock mode.
2614:Generated_Source\PSoC4/CSD_SensingCSD_LL.c ****     *
2615:Generated_Source\PSoC4/CSD_SensingCSD_LL.c ****     *******************************************************************************/
2616:Generated_Source\PSoC4/CSD_SensingCSD_LL.c ****     CY_INLINE static void CSD_SsCSDClockRestart(void)
2617:Generated_Source\PSoC4/CSD_SensingCSD_LL.c ****     {
2618:Generated_Source\PSoC4/CSD_SensingCSD_LL.c ****         /*  Stop clocks, set dividers, and start clock to align clock phase */
2619:Generated_Source\PSoC4/CSD_SensingCSD_LL.c ****         CSD_SsSetModClkClockDivider((uint32)CSD_dsRam.modCsdClk);
2620:Generated_Source\PSoC4/CSD_SensingCSD_LL.c **** 
2621:Generated_Source\PSoC4/CSD_SensingCSD_LL.c ****         #if (CSD_ENABLE == CSD_IS_M0S8PERI_BLOCK)
2622:Generated_Source\PSoC4/CSD_SensingCSD_LL.c ****             /*  Stop sense clock clock   */
2623:Generated_Source\PSoC4/CSD_SensingCSD_LL.c ****             CY_SET_REG32(CSD_SNSCLK_CMD_PTR,
2624:Generated_Source\PSoC4/CSD_SensingCSD_LL.c ****                          ((uint32)CSD_SnsClk__DIV_ID <<
2625:Generated_Source\PSoC4/CSD_SensingCSD_LL.c ****                          CSD_SNSCLK_CMD_DIV_SHIFT)|
2626:Generated_Source\PSoC4/CSD_SensingCSD_LL.c ****                          ((uint32)CSD_SNSCLK_CMD_DISABLE_MASK));
2627:Generated_Source\PSoC4/CSD_SensingCSD_LL.c **** 
2628:Generated_Source\PSoC4/CSD_SensingCSD_LL.c ****             /*  Check whether previous sense clock start command has finished. */
2629:Generated_Source\PSoC4/CSD_SensingCSD_LL.c ****             while(0u != (CY_GET_REG32(CSD_SNSCLK_CMD_PTR) & CSD_SNSCLK_CMD_ENABLE_MASK))
2630:Generated_Source\PSoC4/CSD_SensingCSD_LL.c ****             {
2631:Generated_Source\PSoC4/CSD_SensingCSD_LL.c ****                 /*  Wait until previous sense clock start command has finished. */
2632:Generated_Source\PSoC4/CSD_SensingCSD_LL.c ****             }
2633:Generated_Source\PSoC4/CSD_SensingCSD_LL.c **** 
2634:Generated_Source\PSoC4/CSD_SensingCSD_LL.c ****             /* Start sense clock aligned to previously started modulator clock. */
2635:Generated_Source\PSoC4/CSD_SensingCSD_LL.c ****             CY_SET_REG32(CSD_SNSCLK_CMD_PTR,
2636:Generated_Source\PSoC4/CSD_SensingCSD_LL.c ****                          (uint32)(((uint32)CSD_SnsClk__DIV_ID << CSD_SNSCLK_CMD_DIV_SHIFT) |
2637:Generated_Source\PSoC4/CSD_SensingCSD_LL.c ****                           ((uint32)CSD_ModClk__PA_DIV_ID << CSD_SNSCLK_CMD_PA_DIV_SHIFT) |
2638:Generated_Source\PSoC4/CSD_SensingCSD_LL.c ****                           CSD_SNSCLK_CMD_ENABLE_MASK));
2639:Generated_Source\PSoC4/CSD_SensingCSD_LL.c ****         #else
2640:Generated_Source\PSoC4/CSD_SensingCSD_LL.c ****             /* Clear bit to disable SnsClk clock. */
2641:Generated_Source\PSoC4/CSD_SensingCSD_LL.c ****             CY_SET_REG32(CSD_SNSCLK_CMD_PTR,
2642:Generated_Source\PSoC4/CSD_SensingCSD_LL.c ****                          CY_GET_REG32(CSD_SNSCLK_CMD_PTR) &
2643:Generated_Source\PSoC4/CSD_SensingCSD_LL.c ****                          (uint32)(~(uint32)CSD_SnsClk__ENABLE_MASK));
2644:Generated_Source\PSoC4/CSD_SensingCSD_LL.c **** 
2645:Generated_Source\PSoC4/CSD_SensingCSD_LL.c ****             /* Set bit to enable SnsClk clock. */
2646:Generated_Source\PSoC4/CSD_SensingCSD_LL.c ****             CY_SET_REG32(CSD_SNSCLK_CMD_PTR,
2647:Generated_Source\PSoC4/CSD_SensingCSD_LL.c ****                          CY_GET_REG32(CSD_SNSCLK_CMD_PTR) |
2648:Generated_Source\PSoC4/CSD_SensingCSD_LL.c ****                         CSD_SnsClk__ENABLE_MASK);
2649:Generated_Source\PSoC4/CSD_SensingCSD_LL.c ****         #endif /* (CSD_ENABLE == CSD_IS_M0S8PERI_BLOCK) */
ARM GAS  C:\Users\CHRIST~1\AppData\Local\Temp\ccGy5PUQ.s 			page 88


2650:Generated_Source\PSoC4/CSD_SensingCSD_LL.c **** 
2651:Generated_Source\PSoC4/CSD_SensingCSD_LL.c ****         #if (CSD_CLK_SOURCE_DIRECT == CSD_CSD_SNS_CLK_SOURCE)
2652:Generated_Source\PSoC4/CSD_SensingCSD_LL.c ****             /*  Scan one cycle to reset the flip-flop for Direct clock mode */
2653:Generated_Source\PSoC4/CSD_SensingCSD_LL.c ****             CyIntDisable(CSD_ISR_NUMBER);
2654:Generated_Source\PSoC4/CSD_SensingCSD_LL.c ****             CY_SET_REG32(CSD_COUNTER_PTR, CSD_ONE_CYCLE);
2655:Generated_Source\PSoC4/CSD_SensingCSD_LL.c **** 
2656:Generated_Source\PSoC4/CSD_SensingCSD_LL.c ****             while(0u != (CY_GET_REG32(CSD_COUNTER_PTR) & CSD_RESOLUTION_16_BITS))
2657:Generated_Source\PSoC4/CSD_SensingCSD_LL.c ****             {
2658:Generated_Source\PSoC4/CSD_SensingCSD_LL.c ****                 /* Wait until scanning is complete */
2659:Generated_Source\PSoC4/CSD_SensingCSD_LL.c ****             }
2660:Generated_Source\PSoC4/CSD_SensingCSD_LL.c ****             CY_SET_REG32(CSD_INTR_PTR, CSD_INTR_SET_MASK);
2661:Generated_Source\PSoC4/CSD_SensingCSD_LL.c ****             CyIntClearPending(CSD_ISR_NUMBER);
2662:Generated_Source\PSoC4/CSD_SensingCSD_LL.c ****         #endif /* (CSD_CLK_SOURCE_DIRECT == CSD_CSD_SNS_CLK_SOURCE) */
2663:Generated_Source\PSoC4/CSD_SensingCSD_LL.c ****     }
2664:Generated_Source\PSoC4/CSD_SensingCSD_LL.c **** #endif /* (CSD_DISABLE == CSD_CSDV2) */
2665:Generated_Source\PSoC4/CSD_SensingCSD_LL.c **** 
2666:Generated_Source\PSoC4/CSD_SensingCSD_LL.c **** 
2667:Generated_Source\PSoC4/CSD_SensingCSD_LL.c **** /*******************************************************************************
2668:Generated_Source\PSoC4/CSD_SensingCSD_LL.c **** * Function Name: CSD_SsCSDCmodPrecharge
2669:Generated_Source\PSoC4/CSD_SensingCSD_LL.c **** ****************************************************************************//**
2670:Generated_Source\PSoC4/CSD_SensingCSD_LL.c **** *
2671:Generated_Source\PSoC4/CSD_SensingCSD_LL.c **** * \brief
2672:Generated_Source\PSoC4/CSD_SensingCSD_LL.c **** *  This function initializes the Cmod charging to Vref.
2673:Generated_Source\PSoC4/CSD_SensingCSD_LL.c **** *
2674:Generated_Source\PSoC4/CSD_SensingCSD_LL.c **** * \details
2675:Generated_Source\PSoC4/CSD_SensingCSD_LL.c **** *  For CSDv1:
2676:Generated_Source\PSoC4/CSD_SensingCSD_LL.c **** *  The function initializes the Cmod charging to Vref.
2677:Generated_Source\PSoC4/CSD_SensingCSD_LL.c **** *  Then it waits the even when Cmod is completely charged
2678:Generated_Source\PSoC4/CSD_SensingCSD_LL.c **** *  to Vref to have stable Rawcounts. Software Watchdog Counter is implemented to
2679:Generated_Source\PSoC4/CSD_SensingCSD_LL.c **** *  prevent the project hanging.
2680:Generated_Source\PSoC4/CSD_SensingCSD_LL.c **** *
2681:Generated_Source\PSoC4/CSD_SensingCSD_LL.c **** *  For CSDv2:
2682:Generated_Source\PSoC4/CSD_SensingCSD_LL.c **** *  Coarse initialization for CMOD and Cch.
2683:Generated_Source\PSoC4/CSD_SensingCSD_LL.c **** *  The coarse initialization is performed by HSCOMP.
2684:Generated_Source\PSoC4/CSD_SensingCSD_LL.c **** *  The HSCOMP monitors the Cmod voltage via Cmod sense path
2685:Generated_Source\PSoC4/CSD_SensingCSD_LL.c **** *  and charges the Cmod using HCAV switch via CSDBUS-A, AMUXBUS-A
2686:Generated_Source\PSoC4/CSD_SensingCSD_LL.c **** *  and static connection of Cmod to AMUXBUS-A.
2687:Generated_Source\PSoC4/CSD_SensingCSD_LL.c **** *
2688:Generated_Source\PSoC4/CSD_SensingCSD_LL.c **** *******************************************************************************/
2689:Generated_Source\PSoC4/CSD_SensingCSD_LL.c **** CY_INLINE static void CSD_SsCSDCmodPrecharge(void)
2690:Generated_Source\PSoC4/CSD_SensingCSD_LL.c **** {
 2286              		.loc 1 2690 0
 2287              		.cfi_startproc
 2288 0000 80B5     		push	{r7, lr}
 2289              		.cfi_def_cfa_offset 8
 2290              		.cfi_offset 7, -8
 2291              		.cfi_offset 14, -4
 2292 0002 82B0     		sub	sp, sp, #8
 2293              		.cfi_def_cfa_offset 16
 2294 0004 00AF     		add	r7, sp, #0
 2295              		.cfi_def_cfa_register 7
2691:Generated_Source\PSoC4/CSD_SensingCSD_LL.c ****     #if (CSD_ENABLE == CSD_CSDV2)
2692:Generated_Source\PSoC4/CSD_SensingCSD_LL.c **** 
2693:Generated_Source\PSoC4/CSD_SensingCSD_LL.c ****         /* CSDv2 HW IP block section */
2694:Generated_Source\PSoC4/CSD_SensingCSD_LL.c **** 
2695:Generated_Source\PSoC4/CSD_SensingCSD_LL.c ****         uint32 watchdogCounter;
2696:Generated_Source\PSoC4/CSD_SensingCSD_LL.c **** 
ARM GAS  C:\Users\CHRIST~1\AppData\Local\Temp\ccGy5PUQ.s 			page 89


2697:Generated_Source\PSoC4/CSD_SensingCSD_LL.c ****         #if ((CSD_ENABLE == CSD_CSD_SHIELD_EN) && \
2698:Generated_Source\PSoC4/CSD_SensingCSD_LL.c ****              (0u != CSD_CSD_SHIELD_TANK_EN))
2699:Generated_Source\PSoC4/CSD_SensingCSD_LL.c ****             uint32 tmpRegValue;
2700:Generated_Source\PSoC4/CSD_SensingCSD_LL.c ****         #endif /* ((CSD_ENABLE == CSD_CSD_SHIELD_EN) && \
2701:Generated_Source\PSoC4/CSD_SensingCSD_LL.c ****                    (0u != CSD_CSD_SHIELD_TANK_EN)) */
2702:Generated_Source\PSoC4/CSD_SensingCSD_LL.c **** 
2703:Generated_Source\PSoC4/CSD_SensingCSD_LL.c ****         CY_SET_REG32(CSD_SW_FW_MOD_SEL_PTR,  CSD_CSD_SW_FW_MOD_SEL_INIT);
 2296              		.loc 1 2703 0
 2297 0006 1D4B     		ldr	r3, .L112
 2298 0008 1D4A     		ldr	r2, .L112+4
 2299 000a 1A60     		str	r2, [r3]
2704:Generated_Source\PSoC4/CSD_SensingCSD_LL.c ****         CY_SET_REG32(CSD_SW_FW_TANK_SEL_PTR, CSD_CSD_SW_FW_TANK_SEL_INIT);
 2300              		.loc 1 2704 0
 2301 000c 1D4B     		ldr	r3, .L112+8
 2302 000e 0022     		mov	r2, #0
 2303 0010 1A60     		str	r2, [r3]
2705:Generated_Source\PSoC4/CSD_SensingCSD_LL.c ****         CY_SET_REG32(CSD_SW_SHIELD_SEL_PTR,  CSD_SW_SHIELD_SEL_SW_HCAV_HSCMP);
 2304              		.loc 1 2705 0
 2305 0012 1D4B     		ldr	r3, .L112+12
 2306 0014 0622     		mov	r2, #6
 2307 0016 1A60     		str	r2, [r3]
2706:Generated_Source\PSoC4/CSD_SensingCSD_LL.c ****         #if (CSD_ENABLE == CSD_CSD_SHIELD_EN)
2707:Generated_Source\PSoC4/CSD_SensingCSD_LL.c ****             /*
2708:Generated_Source\PSoC4/CSD_SensingCSD_LL.c ****              * Connect CMOD to (sense path) to HSCOMP: HMPM or HMPS or HMPT switches depend on Cmod
2709:Generated_Source\PSoC4/CSD_SensingCSD_LL.c ****              * Connect AMUXBUS-B to HSCMP positive input
2710:Generated_Source\PSoC4/CSD_SensingCSD_LL.c ****              */
2711:Generated_Source\PSoC4/CSD_SensingCSD_LL.c ****             CY_SET_REG32(CSD_SW_HS_P_SEL_PTR, CSD_SW_HS_P_SEL_COARSE);
2712:Generated_Source\PSoC4/CSD_SensingCSD_LL.c ****             CY_SET_REG32(CSD_SW_HS_N_SEL_PTR, CSD_SW_HS_N_SEL_SW_HCRH_STATIC_CLOSE);
2713:Generated_Source\PSoC4/CSD_SensingCSD_LL.c **** 
2714:Generated_Source\PSoC4/CSD_SensingCSD_LL.c ****             #if(0u != CSD_CSD_SHIELD_TANK_EN)
2715:Generated_Source\PSoC4/CSD_SensingCSD_LL.c ****                 /* Connect CTANK to AMUXBUS-A */
2716:Generated_Source\PSoC4/CSD_SensingCSD_LL.c ****                 tmpRegValue = CY_GET_REG32(CSD_CSH_HSIOM_PTR);
2717:Generated_Source\PSoC4/CSD_SensingCSD_LL.c ****                 tmpRegValue &= (uint32)(~(uint32)CSD_CSH_HSIOM_MASK);
2718:Generated_Source\PSoC4/CSD_SensingCSD_LL.c ****                 tmpRegValue |= (CSD_HSIOM_SEL_AMUXA << CSD_CSH_HSIOM_SHIFT);
2719:Generated_Source\PSoC4/CSD_SensingCSD_LL.c ****                 CY_SET_REG32(CSD_CSH_HSIOM_PTR, tmpRegValue);
2720:Generated_Source\PSoC4/CSD_SensingCSD_LL.c ****             #endif /* (0u != CSD_CSD_SHIELD_TANK_EN) */
2721:Generated_Source\PSoC4/CSD_SensingCSD_LL.c ****         #else
2722:Generated_Source\PSoC4/CSD_SensingCSD_LL.c ****             /* Connect CMOD to (sense path) to HSCOMP: HMPM or HMPS or HMPT switches depend on Cmod
2723:Generated_Source\PSoC4/CSD_SensingCSD_LL.c ****             CY_SET_REG32(CSD_SW_HS_P_SEL_PTR, CSD_SW_HS_P_SEL_COARSE);
 2308              		.loc 1 2723 0
 2309 0018 1C4B     		ldr	r3, .L112+16
 2310 001a 0122     		mov	r2, #1
 2311 001c 1A60     		str	r2, [r3]
2724:Generated_Source\PSoC4/CSD_SensingCSD_LL.c ****             CY_SET_REG32(CSD_SW_HS_N_SEL_PTR, CSD_SW_HS_N_SEL_SW_HCRH_STATIC_CLOSE);
 2312              		.loc 1 2724 0
 2313 001e 1C4B     		ldr	r3, .L112+20
 2314 0020 8022     		mov	r2, #128
 2315 0022 5204     		lsl	r2, r2, #17
 2316 0024 1A60     		str	r2, [r3]
2725:Generated_Source\PSoC4/CSD_SensingCSD_LL.c ****         #endif /* (CSD_ENABLE == CSD_CSD_SHIELD_EN) */
2726:Generated_Source\PSoC4/CSD_SensingCSD_LL.c **** 
2727:Generated_Source\PSoC4/CSD_SensingCSD_LL.c ****         CY_SET_REG32(CSD_SW_RES_PTR, CSD_CSD_SW_RES_INIT);
 2317              		.loc 1 2727 0
 2318 0026 1B4B     		ldr	r3, .L112+24
 2319 0028 0122     		mov	r2, #1
 2320 002a 1A60     		str	r2, [r3]
2728:Generated_Source\PSoC4/CSD_SensingCSD_LL.c **** 
ARM GAS  C:\Users\CHRIST~1\AppData\Local\Temp\ccGy5PUQ.s 			page 90


2729:Generated_Source\PSoC4/CSD_SensingCSD_LL.c ****         /* Clear all interrupt pending requests */
2730:Generated_Source\PSoC4/CSD_SensingCSD_LL.c ****         CY_SET_REG32(CSD_INTR_PTR, CSD_INTR_SET_SAMPLE_MASK |
 2321              		.loc 1 2730 0
 2322 002c 1A4B     		ldr	r3, .L112+28
 2323 002e 8322     		mov	r2, #131
 2324 0030 5200     		lsl	r2, r2, #1
 2325 0032 1A60     		str	r2, [r3]
2731:Generated_Source\PSoC4/CSD_SensingCSD_LL.c ****                                                 CSD_INTR_SET_INIT_MASK |
2732:Generated_Source\PSoC4/CSD_SensingCSD_LL.c ****                                                 CSD_INTR_SET_ADC_RES_MASK);
2733:Generated_Source\PSoC4/CSD_SensingCSD_LL.c **** 
2734:Generated_Source\PSoC4/CSD_SensingCSD_LL.c ****         /* Enable INIT interrupt */
2735:Generated_Source\PSoC4/CSD_SensingCSD_LL.c ****         CY_SET_REG32(CSD_INTR_MASK_PTR, CSD_INTR_MASK_INIT_MASK);
 2326              		.loc 1 2735 0
 2327 0034 194B     		ldr	r3, .L112+32
 2328 0036 0422     		mov	r2, #4
 2329 0038 1A60     		str	r2, [r3]
2736:Generated_Source\PSoC4/CSD_SensingCSD_LL.c **** 
2737:Generated_Source\PSoC4/CSD_SensingCSD_LL.c ****         /* Start SEQUENCER for coarse initialization for Cmod */
2738:Generated_Source\PSoC4/CSD_SensingCSD_LL.c ****         CY_SET_REG32(CSD_SEQ_START_PTR, CSD_SEQ_START_SEQ_MODE_MASK |
 2330              		.loc 1 2738 0
 2331 003a 194B     		ldr	r3, .L112+36
 2332 003c 0322     		mov	r2, #3
 2333 003e 1A60     		str	r2, [r3]
2739:Generated_Source\PSoC4/CSD_SensingCSD_LL.c ****                                                      CSD_SEQ_START_START_MASK);
2740:Generated_Source\PSoC4/CSD_SensingCSD_LL.c **** 
2741:Generated_Source\PSoC4/CSD_SensingCSD_LL.c ****         /* Init Watchdog Counter to prevent a hang */
2742:Generated_Source\PSoC4/CSD_SensingCSD_LL.c ****         watchdogCounter = CSD_SOFTWARE_WDT_CYCLES_NUM;
 2334              		.loc 1 2742 0
 2335 0040 F023     		mov	r3, #240
 2336 0042 9B00     		lsl	r3, r3, #2
 2337 0044 7B60     		str	r3, [r7, #4]
2743:Generated_Source\PSoC4/CSD_SensingCSD_LL.c **** 
2744:Generated_Source\PSoC4/CSD_SensingCSD_LL.c ****         /* Wait for INTR.INIT goes high */
2745:Generated_Source\PSoC4/CSD_SensingCSD_LL.c ****         while((0u == (CY_GET_REG32(CSD_INTR_PTR) & CSD_INTR_INIT_MASK)) && (0u != watchdogCounter))
 2338              		.loc 1 2745 0
 2339 0046 02E0     		b	.L108
 2340              	.L110:
2746:Generated_Source\PSoC4/CSD_SensingCSD_LL.c ****         {
2747:Generated_Source\PSoC4/CSD_SensingCSD_LL.c ****             watchdogCounter--;
 2341              		.loc 1 2747 0
 2342 0048 7B68     		ldr	r3, [r7, #4]
 2343 004a 013B     		sub	r3, r3, #1
 2344 004c 7B60     		str	r3, [r7, #4]
 2345              	.L108:
2745:Generated_Source\PSoC4/CSD_SensingCSD_LL.c ****         {
 2346              		.loc 1 2745 0
 2347 004e 124B     		ldr	r3, .L112+28
 2348 0050 1B68     		ldr	r3, [r3]
 2349 0052 0422     		mov	r2, #4
 2350 0054 1340     		and	r3, r2
 2351 0056 02D1     		bne	.L109
2745:Generated_Source\PSoC4/CSD_SensingCSD_LL.c ****         {
 2352              		.loc 1 2745 0 is_stmt 0 discriminator 1
 2353 0058 7B68     		ldr	r3, [r7, #4]
 2354 005a 002B     		cmp	r3, #0
 2355 005c F4D1     		bne	.L110
 2356              	.L109:
ARM GAS  C:\Users\CHRIST~1\AppData\Local\Temp\ccGy5PUQ.s 			page 91


2748:Generated_Source\PSoC4/CSD_SensingCSD_LL.c ****         }
2749:Generated_Source\PSoC4/CSD_SensingCSD_LL.c **** 
2750:Generated_Source\PSoC4/CSD_SensingCSD_LL.c ****         if (0u == watchdogCounter)
 2357              		.loc 1 2750 0 is_stmt 1
 2358 005e 7B68     		ldr	r3, [r7, #4]
 2359 0060 002B     		cmp	r3, #0
 2360 0062 02D1     		bne	.L111
2751:Generated_Source\PSoC4/CSD_SensingCSD_LL.c ****         {
2752:Generated_Source\PSoC4/CSD_SensingCSD_LL.c ****             /* Set sequencer to idle state if coarse initialization fails */
2753:Generated_Source\PSoC4/CSD_SensingCSD_LL.c ****             CY_SET_REG32(CSD_SEQ_START_PTR, CSD_SEQ_START_ABORT_MASK);
 2361              		.loc 1 2753 0
 2362 0064 0E4B     		ldr	r3, .L112+36
 2363 0066 0822     		mov	r2, #8
 2364 0068 1A60     		str	r2, [r3]
 2365              	.L111:
2754:Generated_Source\PSoC4/CSD_SensingCSD_LL.c ****         }
2755:Generated_Source\PSoC4/CSD_SensingCSD_LL.c **** 
2756:Generated_Source\PSoC4/CSD_SensingCSD_LL.c ****         /* Set scanning configuration for switches */
2757:Generated_Source\PSoC4/CSD_SensingCSD_LL.c ****         CY_SET_REG32(CSD_SW_FW_MOD_SEL_PTR, CSD_CSD_SW_FW_MOD_SEL_SCAN);
 2366              		.loc 1 2757 0
 2367 006a 044B     		ldr	r3, .L112
 2368 006c 0022     		mov	r2, #0
 2369 006e 1A60     		str	r2, [r3]
2758:Generated_Source\PSoC4/CSD_SensingCSD_LL.c ****         CY_SET_REG32(CSD_SW_FW_TANK_SEL_PTR,CSD_CSD_SW_FW_TANK_SEL_SCAN);
 2370              		.loc 1 2758 0
 2371 0070 044B     		ldr	r3, .L112+8
 2372 0072 0022     		mov	r2, #0
 2373 0074 1A60     		str	r2, [r3]
2759:Generated_Source\PSoC4/CSD_SensingCSD_LL.c **** 
2760:Generated_Source\PSoC4/CSD_SensingCSD_LL.c ****     #else
2761:Generated_Source\PSoC4/CSD_SensingCSD_LL.c **** 
2762:Generated_Source\PSoC4/CSD_SensingCSD_LL.c ****         uint32 newRegValue;
2763:Generated_Source\PSoC4/CSD_SensingCSD_LL.c ****         uint32 watchdogCounter;
2764:Generated_Source\PSoC4/CSD_SensingCSD_LL.c **** 
2765:Generated_Source\PSoC4/CSD_SensingCSD_LL.c ****         /*  Save the current IDAC configuration */
2766:Generated_Source\PSoC4/CSD_SensingCSD_LL.c ****         newRegValue = CY_GET_REG32(CSD_IDAC_PTR);
2767:Generated_Source\PSoC4/CSD_SensingCSD_LL.c **** 
2768:Generated_Source\PSoC4/CSD_SensingCSD_LL.c ****         /*  Wait until Cmod discharges below Vref */
2769:Generated_Source\PSoC4/CSD_SensingCSD_LL.c ****         CyDelayCycles(CSD_CMOD_DISCHARGE_CYCLES);
2770:Generated_Source\PSoC4/CSD_SensingCSD_LL.c **** 
2771:Generated_Source\PSoC4/CSD_SensingCSD_LL.c ****         /*  Set the IDAC configuration for fast Cmod precharge to Vref */
2772:Generated_Source\PSoC4/CSD_SensingCSD_LL.c ****         CY_SET_REG32(CSD_IDAC_PTR, CSD_CSD_IDAC_PRECHARGE_CONFIG);
2773:Generated_Source\PSoC4/CSD_SensingCSD_LL.c **** 
2774:Generated_Source\PSoC4/CSD_SensingCSD_LL.c ****         #if (CSD_IDAC_SINKING == CSD_CSD_IDAC_CONFIG)
2775:Generated_Source\PSoC4/CSD_SensingCSD_LL.c ****             CY_SET_REG32(CSD_CONFIG_PTR, CY_GET_REG32(CSD_CONFIG_PTR) & ~CSD_CONFIG_POLARITY_MASK);
2776:Generated_Source\PSoC4/CSD_SensingCSD_LL.c ****         #endif /* (CSD_IDAC_SINKING == CSD_CSD_IDAC_CONFIG) */
2777:Generated_Source\PSoC4/CSD_SensingCSD_LL.c **** 
2778:Generated_Source\PSoC4/CSD_SensingCSD_LL.c ****         /*  Init Watchdog Counter to prevent a hang */
2779:Generated_Source\PSoC4/CSD_SensingCSD_LL.c ****         watchdogCounter = CSD_SOFTWARE_WDT_CYCLES_NUM;
2780:Generated_Source\PSoC4/CSD_SensingCSD_LL.c **** 
2781:Generated_Source\PSoC4/CSD_SensingCSD_LL.c ****         /*  Wait until Cmod reaches to Vref */
2782:Generated_Source\PSoC4/CSD_SensingCSD_LL.c ****         while((0u == (CY_GET_REG32(CSD_STATUS_PTR) & CSD_STATUS_SAMPLE)) && (0u != watchdogCounter)
2783:Generated_Source\PSoC4/CSD_SensingCSD_LL.c ****         {
2784:Generated_Source\PSoC4/CSD_SensingCSD_LL.c ****             watchdogCounter--;
2785:Generated_Source\PSoC4/CSD_SensingCSD_LL.c ****         }
2786:Generated_Source\PSoC4/CSD_SensingCSD_LL.c **** 
2787:Generated_Source\PSoC4/CSD_SensingCSD_LL.c ****         #if (CSD_IDAC_SINKING == CSD_CSD_IDAC_CONFIG)
ARM GAS  C:\Users\CHRIST~1\AppData\Local\Temp\ccGy5PUQ.s 			page 92


2788:Generated_Source\PSoC4/CSD_SensingCSD_LL.c ****             CY_SET_REG32(CSD_CONFIG_PTR, CY_GET_REG32(CSD_CONFIG_PTR) | CSD_CONFIG_POLARITY_MASK);
2789:Generated_Source\PSoC4/CSD_SensingCSD_LL.c ****         #endif /* (CSD_IDAC_SINKING == CSD_CSD_IDAC_CONFIG) */
2790:Generated_Source\PSoC4/CSD_SensingCSD_LL.c **** 
2791:Generated_Source\PSoC4/CSD_SensingCSD_LL.c ****         /*  Restore the current IDAC configuration */
2792:Generated_Source\PSoC4/CSD_SensingCSD_LL.c ****         CY_SET_REG32(CSD_IDAC_PTR, newRegValue);
2793:Generated_Source\PSoC4/CSD_SensingCSD_LL.c **** 
2794:Generated_Source\PSoC4/CSD_SensingCSD_LL.c ****         /*  Enable the sense modulator output */
2795:Generated_Source\PSoC4/CSD_SensingCSD_LL.c ****         CY_SET_REG32(CSD_CONFIG_PTR, CSD_configCsd | CSD_CTANK_PRECHARGE_CONFIG_CSD_EN | CSD_CONFIG
2796:Generated_Source\PSoC4/CSD_SensingCSD_LL.c **** 
2797:Generated_Source\PSoC4/CSD_SensingCSD_LL.c ****         CyIntEnable(CSD_ISR_NUMBER);
2798:Generated_Source\PSoC4/CSD_SensingCSD_LL.c **** 
2799:Generated_Source\PSoC4/CSD_SensingCSD_LL.c ****     #endif /* (CSD_ENABLE == CSD_CSDV2) */
2800:Generated_Source\PSoC4/CSD_SensingCSD_LL.c **** }
 2374              		.loc 1 2800 0
 2375 0076 BD46     		mov	sp, r7
 2376 0078 02B0     		add	sp, sp, #8
 2377              		@ sp needed
 2378 007a 80BD     		pop	{r7, pc}
 2379              	.L113:
 2380              		.align	2
 2381              	.L112:
 2382 007c B0020C40 		.word	1074528944
 2383 0080 01010100 		.word	65793
 2384 0084 B4020C40 		.word	1074528948
 2385 0088 88020C40 		.word	1074528904
 2386 008c 80020C40 		.word	1074528896
 2387 0090 84020C40 		.word	1074528900
 2388 0094 F0010C40 		.word	1074528752
 2389 0098 F0000C40 		.word	1074528496
 2390 009c F8000C40 		.word	1074528504
 2391 00a0 40030C40 		.word	1074529088
 2392              		.cfi_endproc
 2393              	.LFE26:
 2394              		.size	CSD_SsCSDCmodPrecharge, .-CSD_SsCSDCmodPrecharge
 2395              		.section	.text.CSD_SsCSDTriggerScan,"ax",%progbits
 2396              		.align	2
 2397              		.code	16
 2398              		.thumb_func
 2399              		.type	CSD_SsCSDTriggerScan, %function
 2400              	CSD_SsCSDTriggerScan:
 2401              	.LFB27:
2801:Generated_Source\PSoC4/CSD_SensingCSD_LL.c **** 
2802:Generated_Source\PSoC4/CSD_SensingCSD_LL.c **** 
2803:Generated_Source\PSoC4/CSD_SensingCSD_LL.c **** /*******************************************************************************
2804:Generated_Source\PSoC4/CSD_SensingCSD_LL.c **** * Function Name: CSD_SsCSDTriggerScan
2805:Generated_Source\PSoC4/CSD_SensingCSD_LL.c **** ****************************************************************************//**
2806:Generated_Source\PSoC4/CSD_SensingCSD_LL.c **** *
2807:Generated_Source\PSoC4/CSD_SensingCSD_LL.c **** * \brief
2808:Generated_Source\PSoC4/CSD_SensingCSD_LL.c **** *  This function triggers the scanning.
2809:Generated_Source\PSoC4/CSD_SensingCSD_LL.c **** *
2810:Generated_Source\PSoC4/CSD_SensingCSD_LL.c **** * \details
2811:Generated_Source\PSoC4/CSD_SensingCSD_LL.c **** *  For CSDv1:
2812:Generated_Source\PSoC4/CSD_SensingCSD_LL.c **** *  Writes resolution to start the scanning.
2813:Generated_Source\PSoC4/CSD_SensingCSD_LL.c **** *
2814:Generated_Source\PSoC4/CSD_SensingCSD_LL.c **** *  For CSDv2:
2815:Generated_Source\PSoC4/CSD_SensingCSD_LL.c **** *  Trigger the fine initialization (scan some dummy cycles) and start sampling.
2816:Generated_Source\PSoC4/CSD_SensingCSD_LL.c **** *  Fine initialization for CMOD and Start scan.
ARM GAS  C:\Users\CHRIST~1\AppData\Local\Temp\ccGy5PUQ.s 			page 93


2817:Generated_Source\PSoC4/CSD_SensingCSD_LL.c **** *  For the fine initialization and sampling, Cmod is static connected to AMUXBUS-A
2818:Generated_Source\PSoC4/CSD_SensingCSD_LL.c **** *  and in every conversion (one cycle of SnsClk), the sensor capacitance is charged
2819:Generated_Source\PSoC4/CSD_SensingCSD_LL.c **** *  from Cmod and discharged to ground using the switches in GPIO cell.
2820:Generated_Source\PSoC4/CSD_SensingCSD_LL.c **** *  The CSDCOMP monitors voltage on Cmod using the sense path and charges Cmod back
2821:Generated_Source\PSoC4/CSD_SensingCSD_LL.c **** *  to Vref using IDACs by connecting IDAC to CSDBUS-A and then the AMUXBUS-A.
2822:Generated_Source\PSoC4/CSD_SensingCSD_LL.c **** *
2823:Generated_Source\PSoC4/CSD_SensingCSD_LL.c **** *******************************************************************************/
2824:Generated_Source\PSoC4/CSD_SensingCSD_LL.c **** CY_INLINE static void CSD_SsCSDTriggerScan(void)
2825:Generated_Source\PSoC4/CSD_SensingCSD_LL.c **** {
 2402              		.loc 1 2825 0
 2403              		.cfi_startproc
 2404 0000 80B5     		push	{r7, lr}
 2405              		.cfi_def_cfa_offset 8
 2406              		.cfi_offset 7, -8
 2407              		.cfi_offset 14, -4
 2408 0002 82B0     		sub	sp, sp, #8
 2409              		.cfi_def_cfa_offset 16
 2410 0004 00AF     		add	r7, sp, #0
 2411              		.cfi_def_cfa_register 7
2826:Generated_Source\PSoC4/CSD_SensingCSD_LL.c ****     #if (CSD_ENABLE == CSD_CSDV2)
2827:Generated_Source\PSoC4/CSD_SensingCSD_LL.c **** 
2828:Generated_Source\PSoC4/CSD_SensingCSD_LL.c ****         /* CSDv2 HW IP block section */
2829:Generated_Source\PSoC4/CSD_SensingCSD_LL.c **** 
2830:Generated_Source\PSoC4/CSD_SensingCSD_LL.c ****         uint32 watchdogCounter;
2831:Generated_Source\PSoC4/CSD_SensingCSD_LL.c **** 
2832:Generated_Source\PSoC4/CSD_SensingCSD_LL.c ****         /* Clear previous interrupts */
2833:Generated_Source\PSoC4/CSD_SensingCSD_LL.c ****         CY_SET_REG32(CSD_INTR_PTR, CSD_INTR_SET_SAMPLE_MASK |
 2412              		.loc 1 2833 0
 2413 0006 1A4B     		ldr	r3, .L118
 2414 0008 8322     		mov	r2, #131
 2415 000a 5200     		lsl	r2, r2, #1
 2416 000c 1A60     		str	r2, [r3]
2834:Generated_Source\PSoC4/CSD_SensingCSD_LL.c ****                                                 CSD_INTR_SET_INIT_MASK |
2835:Generated_Source\PSoC4/CSD_SensingCSD_LL.c ****                                                 CSD_INTR_SET_ADC_RES_MASK);
2836:Generated_Source\PSoC4/CSD_SensingCSD_LL.c **** 
2837:Generated_Source\PSoC4/CSD_SensingCSD_LL.c ****         /* Clear pending interrupts  */
2838:Generated_Source\PSoC4/CSD_SensingCSD_LL.c ****         CyIntClearPending(CSD_ISR_NUMBER);
 2417              		.loc 1 2838 0
 2418 000e 0E20     		mov	r0, #14
 2419 0010 FFF7FEFF 		bl	CyIntClearPending
2839:Generated_Source\PSoC4/CSD_SensingCSD_LL.c **** 
2840:Generated_Source\PSoC4/CSD_SensingCSD_LL.c ****         /* Enable CSD interrupt */
2841:Generated_Source\PSoC4/CSD_SensingCSD_LL.c ****         CyIntEnable(CSD_ISR_NUMBER);
 2420              		.loc 1 2841 0
 2421 0014 0E20     		mov	r0, #14
 2422 0016 FFF7FEFF 		bl	CyIntEnable
2842:Generated_Source\PSoC4/CSD_SensingCSD_LL.c **** 
2843:Generated_Source\PSoC4/CSD_SensingCSD_LL.c ****         #if (CSD_ENABLE == CSD_CSD_SHIELD_EN)
2844:Generated_Source\PSoC4/CSD_SensingCSD_LL.c ****             CY_SET_REG32(CSD_SW_SHIELD_SEL_PTR,    CSD_DEFAULT_SW_SHIELD_SEL);
2845:Generated_Source\PSoC4/CSD_SensingCSD_LL.c ****             CY_SET_REG32(CSD_SW_HS_P_SEL_PTR, CSD_SW_HS_P_SEL_SCAN);
2846:Generated_Source\PSoC4/CSD_SensingCSD_LL.c ****             #if (CSD_ENABLE == CSD_CSD_SHIELD_TANK_EN)
2847:Generated_Source\PSoC4/CSD_SensingCSD_LL.c ****                 CY_SET_REG32(CSD_SW_HS_N_SEL_PTR, CSD_SW_HS_N_SEL_SW_HCRH_STATIC_CLOSE);
2848:Generated_Source\PSoC4/CSD_SensingCSD_LL.c **** 
2849:Generated_Source\PSoC4/CSD_SensingCSD_LL.c ****                 /* Connect CTANK to AMUXBUS-B */
2850:Generated_Source\PSoC4/CSD_SensingCSD_LL.c ****                 CSD_SsCSDEnableShieldTank();
2851:Generated_Source\PSoC4/CSD_SensingCSD_LL.c ****             #else
2852:Generated_Source\PSoC4/CSD_SensingCSD_LL.c ****                 CY_SET_REG32(CSD_SW_HS_N_SEL_PTR, CSD_SW_HS_N_SEL_SW_HCRL_STATIC_CLOSE);
ARM GAS  C:\Users\CHRIST~1\AppData\Local\Temp\ccGy5PUQ.s 			page 94


2853:Generated_Source\PSoC4/CSD_SensingCSD_LL.c ****             #endif /* (CSD_ENABLE == CSD_CSD_SHIELD_TANK_EN) */
2854:Generated_Source\PSoC4/CSD_SensingCSD_LL.c ****         #else
2855:Generated_Source\PSoC4/CSD_SensingCSD_LL.c ****             CY_SET_REG32(CSD_SW_SHIELD_SEL_PTR, 0x00000000uL);
 2423              		.loc 1 2855 0
 2424 001a 164B     		ldr	r3, .L118+4
 2425 001c 0022     		mov	r2, #0
 2426 001e 1A60     		str	r2, [r3]
2856:Generated_Source\PSoC4/CSD_SensingCSD_LL.c ****             CY_SET_REG32(CSD_SW_HS_P_SEL_PTR, CSD_STATIC_OPEN);
 2427              		.loc 1 2856 0
 2428 0020 154B     		ldr	r3, .L118+8
 2429 0022 0022     		mov	r2, #0
 2430 0024 1A60     		str	r2, [r3]
2857:Generated_Source\PSoC4/CSD_SensingCSD_LL.c ****             CY_SET_REG32(CSD_SW_HS_N_SEL_PTR, CSD_STATIC_OPEN);
 2431              		.loc 1 2857 0
 2432 0026 154B     		ldr	r3, .L118+12
 2433 0028 0022     		mov	r2, #0
 2434 002a 1A60     		str	r2, [r3]
2858:Generated_Source\PSoC4/CSD_SensingCSD_LL.c ****         #endif /* (CSD_ENABLE == CSD_CSD_SHIELD_EN) */
2859:Generated_Source\PSoC4/CSD_SensingCSD_LL.c **** 
2860:Generated_Source\PSoC4/CSD_SensingCSD_LL.c ****         CY_SET_REG32(CSD_SW_RES_PTR, CSD_CSD_SW_RES_SCAN);
 2435              		.loc 1 2860 0
 2436 002c 144B     		ldr	r3, .L118+16
 2437 002e 5022     		mov	r2, #80
 2438 0030 1A60     		str	r2, [r3]
2861:Generated_Source\PSoC4/CSD_SensingCSD_LL.c **** 
2862:Generated_Source\PSoC4/CSD_SensingCSD_LL.c ****         #if (CSD_ENABLE == CSD_CSD_AUTO_ZERO_EN)
2863:Generated_Source\PSoC4/CSD_SensingCSD_LL.c ****             /* Enable CSDCMP */
2864:Generated_Source\PSoC4/CSD_SensingCSD_LL.c ****             CY_SET_REG32(CSD_CSDCMP_PTR, CSD_CSDCMP_CSDCMP_EN_MASK |
2865:Generated_Source\PSoC4/CSD_SensingCSD_LL.c ****                                                       CSD_CSDCMP_AZ_EN_MASK);
2866:Generated_Source\PSoC4/CSD_SensingCSD_LL.c ****         #else
2867:Generated_Source\PSoC4/CSD_SensingCSD_LL.c ****             /* Enable CSDCMP */
2868:Generated_Source\PSoC4/CSD_SensingCSD_LL.c ****             CY_SET_REG32(CSD_CSDCMP_PTR, CSD_CSDCMP_CSDCMP_EN_MASK);
 2439              		.loc 1 2868 0
 2440 0032 144B     		ldr	r3, .L118+20
 2441 0034 0122     		mov	r2, #1
 2442 0036 1A60     		str	r2, [r3]
2869:Generated_Source\PSoC4/CSD_SensingCSD_LL.c ****         #endif /* (CSD_ENABLE == CSD_CSD_AUTO_ZERO_EN) */
2870:Generated_Source\PSoC4/CSD_SensingCSD_LL.c **** 
2871:Generated_Source\PSoC4/CSD_SensingCSD_LL.c ****         #if ((CSD_ENABLE == CSD_CSD_SHIELD_EN) && \
2872:Generated_Source\PSoC4/CSD_SensingCSD_LL.c ****              (CSD_2000_MV <= CSD_CYDEV_VDDA_MV))
2873:Generated_Source\PSoC4/CSD_SensingCSD_LL.c ****             /*  Connect Vrefhi to AMUBUF positive input. Connect AMUBUF output to CSDBUSB with sych
2874:Generated_Source\PSoC4/CSD_SensingCSD_LL.c ****             CY_SET_REG32(CSD_SW_AMUXBUF_SEL_PTR, CSD_SW_AMUXBUF_SEL_SW_IRH_STATIC_CLOSE |
2875:Generated_Source\PSoC4/CSD_SensingCSD_LL.c ****                                                               CSD_SW_AMUXBUF_SEL_SW_ICB_PHI2);
2876:Generated_Source\PSoC4/CSD_SensingCSD_LL.c ****         #endif /* ((CSD_ENABLE == CSD_CSD_SHIELD_EN) && \
2877:Generated_Source\PSoC4/CSD_SensingCSD_LL.c ****                    (CSD_2000_MV <= CSD_CYDEV_VDDA_MV)) */
2878:Generated_Source\PSoC4/CSD_SensingCSD_LL.c **** 
2879:Generated_Source\PSoC4/CSD_SensingCSD_LL.c ****         #if (CSD_DISABLE == CSD_CSD_SHIELD_EN)
2880:Generated_Source\PSoC4/CSD_SensingCSD_LL.c ****             /* Disable HSCOMP during the sampling phase when shield is disabled */
2881:Generated_Source\PSoC4/CSD_SensingCSD_LL.c ****             CY_SET_REG32(CSD_HSCMP_PTR, 0u);
 2443              		.loc 1 2881 0
 2444 0038 134B     		ldr	r3, .L118+24
 2445 003a 0022     		mov	r2, #0
 2446 003c 1A60     		str	r2, [r3]
2882:Generated_Source\PSoC4/CSD_SensingCSD_LL.c ****         #else
2883:Generated_Source\PSoC4/CSD_SensingCSD_LL.c ****             CY_SET_REG32(CSD_HSCMP_PTR, CSD_HSCMP_SCAN_MASK);
2884:Generated_Source\PSoC4/CSD_SensingCSD_LL.c ****         #endif /* (CSD_DISABLE == CSD_CSD_SHIELD_EN) */
2885:Generated_Source\PSoC4/CSD_SensingCSD_LL.c **** 
ARM GAS  C:\Users\CHRIST~1\AppData\Local\Temp\ccGy5PUQ.s 			page 95


2886:Generated_Source\PSoC4/CSD_SensingCSD_LL.c ****         #if (CSD_CLK_SOURCE_DIRECT != CSD_CSD_SNS_CLK_SOURCE)
2887:Generated_Source\PSoC4/CSD_SensingCSD_LL.c ****             /*  Force the LFSR to it's initial state (all ones) */
2888:Generated_Source\PSoC4/CSD_SensingCSD_LL.c ****             CY_SET_REG32(CSD_SENSE_PERIOD_PTR, CY_GET_REG32(CSD_SENSE_PERIOD_PTR) |
2889:Generated_Source\PSoC4/CSD_SensingCSD_LL.c ****                                                            CSD_SENSE_PERIOD_LFSR_CLEAR_MASK);
2890:Generated_Source\PSoC4/CSD_SensingCSD_LL.c ****         #endif /* (CSD_CLK_SOURCE_DIRECT != CSD_CSD_SNS_CLK_SOURCE) */
2891:Generated_Source\PSoC4/CSD_SensingCSD_LL.c **** 
2892:Generated_Source\PSoC4/CSD_SensingCSD_LL.c ****         /* Enable SAMPLE interrupt */
2893:Generated_Source\PSoC4/CSD_SensingCSD_LL.c ****         CY_SET_REG32(CSD_INTR_MASK_PTR, CSD_INTR_MASK_SAMPLE_MASK);
 2447              		.loc 1 2893 0
 2448 003e 134B     		ldr	r3, .L118+28
 2449 0040 0222     		mov	r2, #2
 2450 0042 1A60     		str	r2, [r3]
2894:Generated_Source\PSoC4/CSD_SensingCSD_LL.c **** 
2895:Generated_Source\PSoC4/CSD_SensingCSD_LL.c ****         /* Init Watchdog Counter to prevent a hang */
2896:Generated_Source\PSoC4/CSD_SensingCSD_LL.c ****         watchdogCounter = CSD_SOFTWARE_WDT_CYCLES_NUM;
 2451              		.loc 1 2896 0
 2452 0044 F023     		mov	r3, #240
 2453 0046 9B00     		lsl	r3, r3, #2
 2454 0048 7B60     		str	r3, [r7, #4]
2897:Generated_Source\PSoC4/CSD_SensingCSD_LL.c **** 
2898:Generated_Source\PSoC4/CSD_SensingCSD_LL.c ****         /* Wait for IDLE state of the CSDv2 HW sequencer */
2899:Generated_Source\PSoC4/CSD_SensingCSD_LL.c ****         while((0u != (CY_GET_REG32(CSD_STAT_SEQ_PTR) & CSD_STAT_SEQ_SEQ_STATE_MASK)) && (0u != watc
 2455              		.loc 1 2899 0
 2456 004a 02E0     		b	.L115
 2457              	.L117:
2900:Generated_Source\PSoC4/CSD_SensingCSD_LL.c ****         {
2901:Generated_Source\PSoC4/CSD_SensingCSD_LL.c ****             watchdogCounter--;
 2458              		.loc 1 2901 0
 2459 004c 7B68     		ldr	r3, [r7, #4]
 2460 004e 013B     		sub	r3, r3, #1
 2461 0050 7B60     		str	r3, [r7, #4]
 2462              	.L115:
2899:Generated_Source\PSoC4/CSD_SensingCSD_LL.c ****         {
 2463              		.loc 1 2899 0
 2464 0052 0F4B     		ldr	r3, .L118+32
 2465 0054 1B68     		ldr	r3, [r3]
 2466 0056 0722     		mov	r2, #7
 2467 0058 1340     		and	r3, r2
 2468 005a 02D0     		beq	.L116
2899:Generated_Source\PSoC4/CSD_SensingCSD_LL.c ****         {
 2469              		.loc 1 2899 0 is_stmt 0 discriminator 1
 2470 005c 7B68     		ldr	r3, [r7, #4]
 2471 005e 002B     		cmp	r3, #0
 2472 0060 F4D1     		bne	.L117
 2473              	.L116:
2902:Generated_Source\PSoC4/CSD_SensingCSD_LL.c ****         }
2903:Generated_Source\PSoC4/CSD_SensingCSD_LL.c **** 
2904:Generated_Source\PSoC4/CSD_SensingCSD_LL.c ****         /* Start SEQUENCER for fine initialization scan for Cmod and then for normal scan */
2905:Generated_Source\PSoC4/CSD_SensingCSD_LL.c ****         CY_SET_REG32(CSD_SEQ_START_PTR, CSD_SEQ_START_AZ0_SKIP_MASK |
 2474              		.loc 1 2905 0 is_stmt 1
 2475 0062 0C4B     		ldr	r3, .L118+36
 2476 0064 0C4A     		ldr	r2, .L118+40
 2477 0066 1A60     		str	r2, [r3]
2906:Generated_Source\PSoC4/CSD_SensingCSD_LL.c ****                                                      CSD_SEQ_START_AZ1_SKIP_MASK |
2907:Generated_Source\PSoC4/CSD_SensingCSD_LL.c ****                                                      CSD_SEQ_START_START_MASK);
2908:Generated_Source\PSoC4/CSD_SensingCSD_LL.c **** 
2909:Generated_Source\PSoC4/CSD_SensingCSD_LL.c ****     #else
ARM GAS  C:\Users\CHRIST~1\AppData\Local\Temp\ccGy5PUQ.s 			page 96


2910:Generated_Source\PSoC4/CSD_SensingCSD_LL.c **** 
2911:Generated_Source\PSoC4/CSD_SensingCSD_LL.c ****         /* CSDv1 HW IP block section */
2912:Generated_Source\PSoC4/CSD_SensingCSD_LL.c **** 
2913:Generated_Source\PSoC4/CSD_SensingCSD_LL.c ****         /* Set resolution to Counter register to start scanning */
2914:Generated_Source\PSoC4/CSD_SensingCSD_LL.c ****         CY_SET_REG32(CSD_COUNTER_PTR, CSD_counterResolution);
2915:Generated_Source\PSoC4/CSD_SensingCSD_LL.c **** 
2916:Generated_Source\PSoC4/CSD_SensingCSD_LL.c ****     #endif /* (CSD_ENABLE == CSD_CSDV2) */
2917:Generated_Source\PSoC4/CSD_SensingCSD_LL.c **** }
 2478              		.loc 1 2917 0
 2479 0068 BD46     		mov	sp, r7
 2480 006a 02B0     		add	sp, sp, #8
 2481              		@ sp needed
 2482 006c 80BD     		pop	{r7, pc}
 2483              	.L119:
 2484 006e C046     		.align	2
 2485              	.L118:
 2486 0070 F0000C40 		.word	1074528496
 2487 0074 88020C40 		.word	1074528904
 2488 0078 80020C40 		.word	1074528896
 2489 007c 84020C40 		.word	1074528900
 2490 0080 F0010C40 		.word	1074528752
 2491 0084 8C010C40 		.word	1074528652
 2492 0088 80010C40 		.word	1074528640
 2493 008c F8000C40 		.word	1074528504
 2494 0090 00000C40 		.word	1074528256
 2495 0094 40030C40 		.word	1074529088
 2496 0098 01030000 		.word	769
 2497              		.cfi_endproc
 2498              	.LFE27:
 2499              		.size	CSD_SsCSDTriggerScan, .-CSD_SsCSDTriggerScan
 2500              		.text
 2501              	.Letext0:
 2502              		.file 2 "Generated_Source\\PSoC4/cytypes.h"
 2503              		.file 3 "Generated_Source\\PSoC4\\CSD_Configuration.h"
 2504              		.file 4 "Generated_Source\\PSoC4\\CSD_Structure.h"
 2505              		.file 5 "Generated_Source\\PSoC4\\CSD_Sensing.h"
 2506              		.section	.debug_info,"",%progbits
 2507              	.Ldebug_info0:
 2508 0000 930C0000 		.4byte	0xc93
 2509 0004 0400     		.2byte	0x4
 2510 0006 00000000 		.4byte	.Ldebug_abbrev0
 2511 000a 04       		.byte	0x4
 2512 000b 01       		.uleb128 0x1
 2513 000c E2020000 		.4byte	.LASF148
 2514 0010 01       		.byte	0x1
 2515 0011 B4070000 		.4byte	.LASF149
 2516 0015 67020000 		.4byte	.LASF150
 2517 0019 00000000 		.4byte	.Ldebug_ranges0+0
 2518 001d 00000000 		.4byte	0
 2519 0021 00000000 		.4byte	.Ldebug_line0
 2520 0025 02       		.uleb128 0x2
 2521 0026 01       		.byte	0x1
 2522 0027 06       		.byte	0x6
 2523 0028 DF000000 		.4byte	.LASF0
 2524 002c 02       		.uleb128 0x2
 2525 002d 01       		.byte	0x1
 2526 002e 08       		.byte	0x8
ARM GAS  C:\Users\CHRIST~1\AppData\Local\Temp\ccGy5PUQ.s 			page 97


 2527 002f 04060000 		.4byte	.LASF1
 2528 0033 02       		.uleb128 0x2
 2529 0034 02       		.byte	0x2
 2530 0035 05       		.byte	0x5
 2531 0036 60060000 		.4byte	.LASF2
 2532 003a 02       		.uleb128 0x2
 2533 003b 02       		.byte	0x2
 2534 003c 07       		.byte	0x7
 2535 003d D7030000 		.4byte	.LASF3
 2536 0041 02       		.uleb128 0x2
 2537 0042 04       		.byte	0x4
 2538 0043 05       		.byte	0x5
 2539 0044 24010000 		.4byte	.LASF4
 2540 0048 02       		.uleb128 0x2
 2541 0049 04       		.byte	0x4
 2542 004a 07       		.byte	0x7
 2543 004b 30070000 		.4byte	.LASF5
 2544 004f 02       		.uleb128 0x2
 2545 0050 08       		.byte	0x8
 2546 0051 05       		.byte	0x5
 2547 0052 D1000000 		.4byte	.LASF6
 2548 0056 02       		.uleb128 0x2
 2549 0057 08       		.byte	0x8
 2550 0058 07       		.byte	0x7
 2551 0059 57000000 		.4byte	.LASF7
 2552 005d 03       		.uleb128 0x3
 2553 005e 04       		.byte	0x4
 2554 005f 05       		.byte	0x5
 2555 0060 696E7400 		.ascii	"int\000"
 2556 0064 02       		.uleb128 0x2
 2557 0065 04       		.byte	0x4
 2558 0066 07       		.byte	0x7
 2559 0067 FA010000 		.4byte	.LASF8
 2560 006b 04       		.uleb128 0x4
 2561 006c 48010000 		.4byte	.LASF9
 2562 0070 02       		.byte	0x2
 2563 0071 9801     		.2byte	0x198
 2564 0073 2C000000 		.4byte	0x2c
 2565 0077 04       		.uleb128 0x4
 2566 0078 00000000 		.4byte	.LASF10
 2567 007c 02       		.byte	0x2
 2568 007d 9901     		.2byte	0x199
 2569 007f 3A000000 		.4byte	0x3a
 2570 0083 04       		.uleb128 0x4
 2571 0084 AA010000 		.4byte	.LASF11
 2572 0088 02       		.byte	0x2
 2573 0089 9A01     		.2byte	0x19a
 2574 008b 48000000 		.4byte	0x48
 2575 008f 02       		.uleb128 0x2
 2576 0090 04       		.byte	0x4
 2577 0091 04       		.byte	0x4
 2578 0092 AD050000 		.4byte	.LASF12
 2579 0096 02       		.uleb128 0x2
 2580 0097 08       		.byte	0x8
 2581 0098 04       		.byte	0x4
 2582 0099 76010000 		.4byte	.LASF13
 2583 009d 02       		.uleb128 0x2
ARM GAS  C:\Users\CHRIST~1\AppData\Local\Temp\ccGy5PUQ.s 			page 98


 2584 009e 01       		.byte	0x1
 2585 009f 08       		.byte	0x8
 2586 00a0 52070000 		.4byte	.LASF14
 2587 00a4 04       		.uleb128 0x4
 2588 00a5 B9080000 		.4byte	.LASF15
 2589 00a9 02       		.byte	0x2
 2590 00aa 3A02     		.2byte	0x23a
 2591 00ac 48000000 		.4byte	0x48
 2592 00b0 05       		.uleb128 0x5
 2593 00b1 6B000000 		.4byte	0x6b
 2594 00b5 04       		.uleb128 0x4
 2595 00b6 A0040000 		.4byte	.LASF16
 2596 00ba 02       		.byte	0x2
 2597 00bb 4402     		.2byte	0x244
 2598 00bd C1000000 		.4byte	0xc1
 2599 00c1 05       		.uleb128 0x5
 2600 00c2 83000000 		.4byte	0x83
 2601 00c6 06       		.uleb128 0x6
 2602 00c7 B1010000 		.4byte	.LASF17
 2603 00cb 03       		.byte	0x3
 2604 00cc D8       		.byte	0xd8
 2605 00cd 77000000 		.4byte	0x77
 2606 00d1 06       		.uleb128 0x6
 2607 00d2 CC020000 		.4byte	.LASF18
 2608 00d6 03       		.byte	0x3
 2609 00d7 DC       		.byte	0xdc
 2610 00d8 6B000000 		.4byte	0x6b
 2611 00dc 07       		.uleb128 0x7
 2612 00dd 01       		.byte	0x1
 2613 00de 04       		.byte	0x4
 2614 00df 5D       		.byte	0x5d
 2615 00e0 F7000000 		.4byte	0xf7
 2616 00e4 08       		.uleb128 0x8
 2617 00e5 A1060000 		.4byte	.LASF19
 2618 00e9 00       		.sleb128 0
 2619 00ea 08       		.uleb128 0x8
 2620 00eb 74030000 		.4byte	.LASF20
 2621 00ef 01       		.sleb128 1
 2622 00f0 08       		.uleb128 0x8
 2623 00f1 19070000 		.4byte	.LASF21
 2624 00f5 02       		.sleb128 2
 2625 00f6 00       		.byte	0
 2626 00f7 06       		.uleb128 0x6
 2627 00f8 BF040000 		.4byte	.LASF22
 2628 00fc 04       		.byte	0x4
 2629 00fd 61       		.byte	0x61
 2630 00fe DC000000 		.4byte	0xdc
 2631 0102 09       		.uleb128 0x9
 2632 0103 0E       		.byte	0xe
 2633 0104 04       		.byte	0x4
 2634 0105 7B       		.byte	0x7b
 2635 0106 8F010000 		.4byte	0x18f
 2636 010a 0A       		.uleb128 0xa
 2637 010b D1060000 		.4byte	.LASF23
 2638 010f 04       		.byte	0x4
 2639 0110 81       		.byte	0x81
 2640 0111 77000000 		.4byte	0x77
ARM GAS  C:\Users\CHRIST~1\AppData\Local\Temp\ccGy5PUQ.s 			page 99


 2641 0115 00       		.byte	0
 2642 0116 0A       		.uleb128 0xa
 2643 0117 22090000 		.4byte	.LASF24
 2644 011b 04       		.byte	0x4
 2645 011c 86       		.byte	0x86
 2646 011d C6000000 		.4byte	0xc6
 2647 0121 02       		.byte	0x2
 2648 0122 0A       		.uleb128 0xa
 2649 0123 72090000 		.4byte	.LASF25
 2650 0127 04       		.byte	0x4
 2651 0128 8B       		.byte	0x8b
 2652 0129 6B000000 		.4byte	0x6b
 2653 012d 04       		.byte	0x4
 2654 012e 0A       		.uleb128 0xa
 2655 012f 01050000 		.4byte	.LASF26
 2656 0133 04       		.byte	0x4
 2657 0134 90       		.byte	0x90
 2658 0135 6B000000 		.4byte	0x6b
 2659 0139 05       		.byte	0x5
 2660 013a 0A       		.uleb128 0xa
 2661 013b F9050000 		.4byte	.LASF27
 2662 013f 04       		.byte	0x4
 2663 0140 95       		.byte	0x95
 2664 0141 6B000000 		.4byte	0x6b
 2665 0145 06       		.byte	0x6
 2666 0146 0A       		.uleb128 0xa
 2667 0147 90070000 		.4byte	.LASF28
 2668 014b 04       		.byte	0x4
 2669 014c 9A       		.byte	0x9a
 2670 014d 6B000000 		.4byte	0x6b
 2671 0151 07       		.byte	0x7
 2672 0152 0A       		.uleb128 0xa
 2673 0153 8B030000 		.4byte	.LASF29
 2674 0157 04       		.byte	0x4
 2675 0158 A0       		.byte	0xa0
 2676 0159 D1000000 		.4byte	0xd1
 2677 015d 08       		.byte	0x8
 2678 015e 0A       		.uleb128 0xa
 2679 015f E6050000 		.4byte	.LASF30
 2680 0163 04       		.byte	0x4
 2681 0164 A5       		.byte	0xa5
 2682 0165 6B000000 		.4byte	0x6b
 2683 0169 09       		.byte	0x9
 2684 016a 0A       		.uleb128 0xa
 2685 016b B7040000 		.4byte	.LASF31
 2686 016f 04       		.byte	0x4
 2687 0170 AC       		.byte	0xac
 2688 0171 8F010000 		.4byte	0x18f
 2689 0175 0A       		.byte	0xa
 2690 0176 0A       		.uleb128 0xa
 2691 0177 74070000 		.4byte	.LASF32
 2692 017b 04       		.byte	0x4
 2693 017c B3       		.byte	0xb3
 2694 017d 6B000000 		.4byte	0x6b
 2695 0181 0B       		.byte	0xb
 2696 0182 0A       		.uleb128 0xa
 2697 0183 AC080000 		.4byte	.LASF33
ARM GAS  C:\Users\CHRIST~1\AppData\Local\Temp\ccGy5PUQ.s 			page 100


 2698 0187 04       		.byte	0x4
 2699 0188 B8       		.byte	0xb8
 2700 0189 6B000000 		.4byte	0x6b
 2701 018d 0C       		.byte	0xc
 2702 018e 00       		.byte	0
 2703 018f 0B       		.uleb128 0xb
 2704 0190 6B000000 		.4byte	0x6b
 2705 0194 9F010000 		.4byte	0x19f
 2706 0198 0C       		.uleb128 0xc
 2707 0199 9F010000 		.4byte	0x19f
 2708 019d 00       		.byte	0
 2709 019e 00       		.byte	0
 2710 019f 02       		.uleb128 0x2
 2711 01a0 04       		.byte	0x4
 2712 01a1 07       		.byte	0x7
 2713 01a2 DD040000 		.4byte	.LASF34
 2714 01a6 06       		.uleb128 0x6
 2715 01a7 89040000 		.4byte	.LASF35
 2716 01ab 04       		.byte	0x4
 2717 01ac B9       		.byte	0xb9
 2718 01ad 02010000 		.4byte	0x102
 2719 01b1 09       		.uleb128 0x9
 2720 01b2 0E       		.byte	0xe
 2721 01b3 04       		.byte	0x4
 2722 01b4 BE       		.byte	0xbe
 2723 01b5 3E020000 		.4byte	0x23e
 2724 01b9 0A       		.uleb128 0xa
 2725 01ba D1060000 		.4byte	.LASF23
 2726 01be 04       		.byte	0x4
 2727 01bf C4       		.byte	0xc4
 2728 01c0 77000000 		.4byte	0x77
 2729 01c4 00       		.byte	0
 2730 01c5 0A       		.uleb128 0xa
 2731 01c6 22090000 		.4byte	.LASF24
 2732 01ca 04       		.byte	0x4
 2733 01cb C9       		.byte	0xc9
 2734 01cc C6000000 		.4byte	0xc6
 2735 01d0 02       		.byte	0x2
 2736 01d1 0A       		.uleb128 0xa
 2737 01d2 72090000 		.4byte	.LASF25
 2738 01d6 04       		.byte	0x4
 2739 01d7 CE       		.byte	0xce
 2740 01d8 6B000000 		.4byte	0x6b
 2741 01dc 04       		.byte	0x4
 2742 01dd 0A       		.uleb128 0xa
 2743 01de 01050000 		.4byte	.LASF26
 2744 01e2 04       		.byte	0x4
 2745 01e3 D3       		.byte	0xd3
 2746 01e4 6B000000 		.4byte	0x6b
 2747 01e8 05       		.byte	0x5
 2748 01e9 0A       		.uleb128 0xa
 2749 01ea F9050000 		.4byte	.LASF27
 2750 01ee 04       		.byte	0x4
 2751 01ef D8       		.byte	0xd8
 2752 01f0 6B000000 		.4byte	0x6b
 2753 01f4 06       		.byte	0x6
 2754 01f5 0A       		.uleb128 0xa
ARM GAS  C:\Users\CHRIST~1\AppData\Local\Temp\ccGy5PUQ.s 			page 101


 2755 01f6 90070000 		.4byte	.LASF28
 2756 01fa 04       		.byte	0x4
 2757 01fb DD       		.byte	0xdd
 2758 01fc 6B000000 		.4byte	0x6b
 2759 0200 07       		.byte	0x7
 2760 0201 0A       		.uleb128 0xa
 2761 0202 8B030000 		.4byte	.LASF29
 2762 0206 04       		.byte	0x4
 2763 0207 E3       		.byte	0xe3
 2764 0208 D1000000 		.4byte	0xd1
 2765 020c 08       		.byte	0x8
 2766 020d 0A       		.uleb128 0xa
 2767 020e E6050000 		.4byte	.LASF30
 2768 0212 04       		.byte	0x4
 2769 0213 E8       		.byte	0xe8
 2770 0214 6B000000 		.4byte	0x6b
 2771 0218 09       		.byte	0x9
 2772 0219 0A       		.uleb128 0xa
 2773 021a B7040000 		.4byte	.LASF31
 2774 021e 04       		.byte	0x4
 2775 021f EF       		.byte	0xef
 2776 0220 8F010000 		.4byte	0x18f
 2777 0224 0A       		.byte	0xa
 2778 0225 0A       		.uleb128 0xa
 2779 0226 74070000 		.4byte	.LASF32
 2780 022a 04       		.byte	0x4
 2781 022b F6       		.byte	0xf6
 2782 022c 6B000000 		.4byte	0x6b
 2783 0230 0B       		.byte	0xb
 2784 0231 0A       		.uleb128 0xa
 2785 0232 AC080000 		.4byte	.LASF33
 2786 0236 04       		.byte	0x4
 2787 0237 FB       		.byte	0xfb
 2788 0238 6B000000 		.4byte	0x6b
 2789 023c 0C       		.byte	0xc
 2790 023d 00       		.byte	0
 2791 023e 06       		.uleb128 0x6
 2792 023f 9B070000 		.4byte	.LASF36
 2793 0243 04       		.byte	0x4
 2794 0244 FC       		.byte	0xfc
 2795 0245 B1010000 		.4byte	0x1b1
 2796 0249 0D       		.uleb128 0xd
 2797 024a 0E       		.byte	0xe
 2798 024b 04       		.byte	0x4
 2799 024c 0201     		.2byte	0x102
 2800 024e 60020000 		.4byte	0x260
 2801 0252 0E       		.uleb128 0xe
 2802 0253 03010000 		.4byte	.LASF37
 2803 0257 04       		.byte	0x4
 2804 0258 0701     		.2byte	0x107
 2805 025a 3E020000 		.4byte	0x23e
 2806 025e 00       		.byte	0
 2807 025f 00       		.byte	0
 2808 0260 04       		.uleb128 0x4
 2809 0261 27060000 		.4byte	.LASF38
 2810 0265 04       		.byte	0x4
 2811 0266 0801     		.2byte	0x108
ARM GAS  C:\Users\CHRIST~1\AppData\Local\Temp\ccGy5PUQ.s 			page 102


 2812 0268 49020000 		.4byte	0x249
 2813 026c 0D       		.uleb128 0xd
 2814 026d 0A       		.byte	0xa
 2815 026e 04       		.byte	0x4
 2816 026f 0E01     		.2byte	0x10e
 2817 0271 C4020000 		.4byte	0x2c4
 2818 0275 0F       		.uleb128 0xf
 2819 0276 72617700 		.ascii	"raw\000"
 2820 027a 04       		.byte	0x4
 2821 027b 1301     		.2byte	0x113
 2822 027d C4020000 		.4byte	0x2c4
 2823 0281 00       		.byte	0
 2824 0282 0E       		.uleb128 0xe
 2825 0283 F5010000 		.4byte	.LASF39
 2826 0287 04       		.byte	0x4
 2827 0288 1801     		.2byte	0x118
 2828 028a C4020000 		.4byte	0x2c4
 2829 028e 02       		.byte	0x2
 2830 028f 0E       		.uleb128 0xe
 2831 0290 C9010000 		.4byte	.LASF40
 2832 0294 04       		.byte	0x4
 2833 0295 1E01     		.2byte	0x11e
 2834 0297 8F010000 		.4byte	0x18f
 2835 029b 04       		.byte	0x4
 2836 029c 0E       		.uleb128 0xe
 2837 029d F5070000 		.4byte	.LASF41
 2838 02a1 04       		.byte	0x4
 2839 02a2 2401     		.2byte	0x124
 2840 02a4 8F010000 		.4byte	0x18f
 2841 02a8 05       		.byte	0x5
 2842 02a9 0E       		.uleb128 0xe
 2843 02aa 83000000 		.4byte	.LASF42
 2844 02ae 04       		.byte	0x4
 2845 02af 2901     		.2byte	0x129
 2846 02b1 C6000000 		.4byte	0xc6
 2847 02b5 06       		.byte	0x6
 2848 02b6 0E       		.uleb128 0xe
 2849 02b7 FE070000 		.4byte	.LASF43
 2850 02bb 04       		.byte	0x4
 2851 02bc 2E01     		.2byte	0x12e
 2852 02be D4020000 		.4byte	0x2d4
 2853 02c2 08       		.byte	0x8
 2854 02c3 00       		.byte	0
 2855 02c4 0B       		.uleb128 0xb
 2856 02c5 77000000 		.4byte	0x77
 2857 02c9 D4020000 		.4byte	0x2d4
 2858 02cd 0C       		.uleb128 0xc
 2859 02ce 9F010000 		.4byte	0x19f
 2860 02d2 00       		.byte	0
 2861 02d3 00       		.byte	0
 2862 02d4 0B       		.uleb128 0xb
 2863 02d5 D1000000 		.4byte	0xd1
 2864 02d9 E4020000 		.4byte	0x2e4
 2865 02dd 0C       		.uleb128 0xc
 2866 02de 9F010000 		.4byte	0x19f
 2867 02e2 00       		.byte	0
 2868 02e3 00       		.byte	0
ARM GAS  C:\Users\CHRIST~1\AppData\Local\Temp\ccGy5PUQ.s 			page 103


 2869 02e4 04       		.uleb128 0x4
 2870 02e5 63010000 		.4byte	.LASF44
 2871 02e9 04       		.byte	0x4
 2872 02ea 2F01     		.2byte	0x12f
 2873 02ec 6C020000 		.4byte	0x26c
 2874 02f0 0D       		.uleb128 0xd
 2875 02f1 14       		.byte	0x14
 2876 02f2 04       		.byte	0x4
 2877 02f3 3501     		.2byte	0x135
 2878 02f5 07030000 		.4byte	0x307
 2879 02f9 0E       		.uleb128 0xe
 2880 02fa 03010000 		.4byte	.LASF37
 2881 02fe 04       		.byte	0x4
 2882 02ff 3A01     		.2byte	0x13a
 2883 0301 07030000 		.4byte	0x307
 2884 0305 00       		.byte	0
 2885 0306 00       		.byte	0
 2886 0307 0B       		.uleb128 0xb
 2887 0308 E4020000 		.4byte	0x2e4
 2888 030c 17030000 		.4byte	0x317
 2889 0310 0C       		.uleb128 0xc
 2890 0311 9F010000 		.4byte	0x19f
 2891 0315 01       		.byte	0x1
 2892 0316 00       		.byte	0
 2893 0317 04       		.uleb128 0x4
 2894 0318 01070000 		.4byte	.LASF45
 2895 031c 04       		.byte	0x4
 2896 031d 3B01     		.2byte	0x13b
 2897 031f F0020000 		.4byte	0x2f0
 2898 0323 0D       		.uleb128 0xd
 2899 0324 44       		.byte	0x44
 2900 0325 04       		.byte	0x4
 2901 0326 4101     		.2byte	0x141
 2902 0328 FD030000 		.4byte	0x3fd
 2903 032c 0E       		.uleb128 0xe
 2904 032d 28040000 		.4byte	.LASF46
 2905 0331 04       		.byte	0x4
 2906 0332 4701     		.2byte	0x147
 2907 0334 77000000 		.4byte	0x77
 2908 0338 00       		.byte	0
 2909 0339 0E       		.uleb128 0xe
 2910 033a 6D040000 		.4byte	.LASF47
 2911 033e 04       		.byte	0x4
 2912 033f 4C01     		.2byte	0x14c
 2913 0341 77000000 		.4byte	0x77
 2914 0345 02       		.byte	0x2
 2915 0346 0E       		.uleb128 0xe
 2916 0347 A4050000 		.4byte	.LASF48
 2917 034b 04       		.byte	0x4
 2918 034c 5201     		.2byte	0x152
 2919 034e 77000000 		.4byte	0x77
 2920 0352 04       		.byte	0x4
 2921 0353 0E       		.uleb128 0xe
 2922 0354 53050000 		.4byte	.LASF49
 2923 0358 04       		.byte	0x4
 2924 0359 5701     		.2byte	0x157
 2925 035b 77000000 		.4byte	0x77
ARM GAS  C:\Users\CHRIST~1\AppData\Local\Temp\ccGy5PUQ.s 			page 104


 2926 035f 06       		.byte	0x6
 2927 0360 0E       		.uleb128 0xe
 2928 0361 56080000 		.4byte	.LASF50
 2929 0365 04       		.byte	0x4
 2930 0366 5C01     		.2byte	0x15c
 2931 0368 83000000 		.4byte	0x83
 2932 036c 08       		.byte	0x8
 2933 036d 0E       		.uleb128 0xe
 2934 036e 6E080000 		.4byte	.LASF51
 2935 0372 04       		.byte	0x4
 2936 0373 6101     		.2byte	0x161
 2937 0375 FD030000 		.4byte	0x3fd
 2938 0379 0C       		.byte	0xc
 2939 037a 0E       		.uleb128 0xe
 2940 037b E0010000 		.4byte	.LASF52
 2941 037f 04       		.byte	0x4
 2942 0380 6601     		.2byte	0x166
 2943 0382 FD030000 		.4byte	0x3fd
 2944 0386 10       		.byte	0x10
 2945 0387 0E       		.uleb128 0xe
 2946 0388 1A010000 		.4byte	.LASF53
 2947 038c 04       		.byte	0x4
 2948 038d 7401     		.2byte	0x174
 2949 038f 8F010000 		.4byte	0x18f
 2950 0393 14       		.byte	0x14
 2951 0394 0E       		.uleb128 0xe
 2952 0395 56040000 		.4byte	.LASF54
 2953 0399 04       		.byte	0x4
 2954 039a 7901     		.2byte	0x179
 2955 039c 77000000 		.4byte	0x77
 2956 03a0 16       		.byte	0x16
 2957 03a1 0E       		.uleb128 0xe
 2958 03a2 2D010000 		.4byte	.LASF55
 2959 03a6 04       		.byte	0x4
 2960 03a7 7E01     		.2byte	0x17e
 2961 03a9 6B000000 		.4byte	0x6b
 2962 03ad 18       		.byte	0x18
 2963 03ae 0E       		.uleb128 0xe
 2964 03af F8060000 		.4byte	.LASF56
 2965 03b3 04       		.byte	0x4
 2966 03b4 8301     		.2byte	0x183
 2967 03b6 60020000 		.4byte	0x260
 2968 03ba 1A       		.byte	0x1a
 2969 03bb 0E       		.uleb128 0xe
 2970 03bc 16040000 		.4byte	.LASF57
 2971 03c0 04       		.byte	0x4
 2972 03c1 8801     		.2byte	0x188
 2973 03c3 17030000 		.4byte	0x317
 2974 03c7 28       		.byte	0x28
 2975 03c8 0E       		.uleb128 0xe
 2976 03c9 57020000 		.4byte	.LASF58
 2977 03cd 04       		.byte	0x4
 2978 03ce 8D01     		.2byte	0x18d
 2979 03d0 6B000000 		.4byte	0x6b
 2980 03d4 3C       		.byte	0x3c
 2981 03d5 0E       		.uleb128 0xe
 2982 03d6 AB000000 		.4byte	.LASF59
ARM GAS  C:\Users\CHRIST~1\AppData\Local\Temp\ccGy5PUQ.s 			page 105


 2983 03da 04       		.byte	0x4
 2984 03db 9201     		.2byte	0x192
 2985 03dd 6B000000 		.4byte	0x6b
 2986 03e1 3D       		.byte	0x3d
 2987 03e2 0E       		.uleb128 0xe
 2988 03e3 4D090000 		.4byte	.LASF60
 2989 03e7 04       		.byte	0x4
 2990 03e8 9701     		.2byte	0x197
 2991 03ea 77000000 		.4byte	0x77
 2992 03ee 3E       		.byte	0x3e
 2993 03ef 0E       		.uleb128 0xe
 2994 03f0 7D010000 		.4byte	.LASF61
 2995 03f4 04       		.byte	0x4
 2996 03f5 9C01     		.2byte	0x19c
 2997 03f7 C4020000 		.4byte	0x2c4
 2998 03fb 40       		.byte	0x40
 2999 03fc 00       		.byte	0
 3000 03fd 0B       		.uleb128 0xb
 3001 03fe 83000000 		.4byte	0x83
 3002 0402 0D040000 		.4byte	0x40d
 3003 0406 0C       		.uleb128 0xc
 3004 0407 9F010000 		.4byte	0x19f
 3005 040b 00       		.byte	0
 3006 040c 00       		.byte	0
 3007 040d 04       		.uleb128 0x4
 3008 040e B3050000 		.4byte	.LASF62
 3009 0412 04       		.byte	0x4
 3010 0413 9D01     		.2byte	0x19d
 3011 0415 23030000 		.4byte	0x323
 3012 0419 0D       		.uleb128 0xd
 3013 041a 1C       		.byte	0x1c
 3014 041b 04       		.byte	0x4
 3015 041c A301     		.2byte	0x1a3
 3016 041e 98040000 		.4byte	0x498
 3017 0422 0E       		.uleb128 0xe
 3018 0423 A2000000 		.4byte	.LASF63
 3019 0427 04       		.byte	0x4
 3020 0428 A801     		.2byte	0x1a8
 3021 042a 98040000 		.4byte	0x498
 3022 042e 00       		.byte	0
 3023 042f 0E       		.uleb128 0xe
 3024 0430 47090000 		.4byte	.LASF64
 3025 0434 04       		.byte	0x4
 3026 0435 AD01     		.2byte	0x1ad
 3027 0437 98040000 		.4byte	0x498
 3028 043b 04       		.byte	0x4
 3029 043c 0E       		.uleb128 0xe
 3030 043d 6E070000 		.4byte	.LASF65
 3031 0441 04       		.byte	0x4
 3032 0442 B201     		.2byte	0x1b2
 3033 0444 98040000 		.4byte	0x498
 3034 0448 08       		.byte	0x8
 3035 0449 0E       		.uleb128 0xe
 3036 044a 42010000 		.4byte	.LASF66
 3037 044e 04       		.byte	0x4
 3038 044f B701     		.2byte	0x1b7
 3039 0451 98040000 		.4byte	0x498
ARM GAS  C:\Users\CHRIST~1\AppData\Local\Temp\ccGy5PUQ.s 			page 106


 3040 0455 0C       		.byte	0xc
 3041 0456 0E       		.uleb128 0xe
 3042 0457 60090000 		.4byte	.LASF67
 3043 045b 04       		.byte	0x4
 3044 045c BC01     		.2byte	0x1bc
 3045 045e 83000000 		.4byte	0x83
 3046 0462 10       		.byte	0x10
 3047 0463 0E       		.uleb128 0xe
 3048 0464 C4010000 		.4byte	.LASF68
 3049 0468 04       		.byte	0x4
 3050 0469 C101     		.2byte	0x1c1
 3051 046b 83000000 		.4byte	0x83
 3052 046f 14       		.byte	0x14
 3053 0470 0E       		.uleb128 0xe
 3054 0471 96060000 		.4byte	.LASF69
 3055 0475 04       		.byte	0x4
 3056 0476 C601     		.2byte	0x1c6
 3057 0478 6B000000 		.4byte	0x6b
 3058 047c 18       		.byte	0x18
 3059 047d 0E       		.uleb128 0xe
 3060 047e A2010000 		.4byte	.LASF70
 3061 0482 04       		.byte	0x4
 3062 0483 CB01     		.2byte	0x1cb
 3063 0485 6B000000 		.4byte	0x6b
 3064 0489 19       		.byte	0x19
 3065 048a 0E       		.uleb128 0xe
 3066 048b 8D010000 		.4byte	.LASF71
 3067 048f 04       		.byte	0x4
 3068 0490 D001     		.2byte	0x1d0
 3069 0492 6B000000 		.4byte	0x6b
 3070 0496 1A       		.byte	0x1a
 3071 0497 00       		.byte	0
 3072 0498 10       		.uleb128 0x10
 3073 0499 04       		.byte	0x4
 3074 049a B5000000 		.4byte	0xb5
 3075 049e 04       		.uleb128 0x4
 3076 049f C2050000 		.4byte	.LASF72
 3077 04a3 04       		.byte	0x4
 3078 04a4 D101     		.2byte	0x1d1
 3079 04a6 19040000 		.4byte	0x419
 3080 04aa 0D       		.uleb128 0xd
 3081 04ab 1C       		.byte	0x1c
 3082 04ac 04       		.byte	0x4
 3083 04ad FC01     		.2byte	0x1fc
 3084 04af 29050000 		.4byte	0x529
 3085 04b3 0E       		.uleb128 0xe
 3086 04b4 76000000 		.4byte	.LASF73
 3087 04b8 04       		.byte	0x4
 3088 04b9 0502     		.2byte	0x205
 3089 04bb 29050000 		.4byte	0x529
 3090 04bf 00       		.byte	0
 3091 04c0 0E       		.uleb128 0xe
 3092 04c1 61040000 		.4byte	.LASF74
 3093 04c5 04       		.byte	0x4
 3094 04c6 0B02     		.2byte	0x20b
 3095 04c8 30050000 		.4byte	0x530
 3096 04cc 04       		.byte	0x4
ARM GAS  C:\Users\CHRIST~1\AppData\Local\Temp\ccGy5PUQ.s 			page 107


 3097 04cd 0E       		.uleb128 0xe
 3098 04ce 37010000 		.4byte	.LASF75
 3099 04d2 04       		.byte	0x4
 3100 04d3 1102     		.2byte	0x211
 3101 04d5 32050000 		.4byte	0x532
 3102 04d9 08       		.byte	0x8
 3103 04da 0E       		.uleb128 0xe
 3104 04db 76060000 		.4byte	.LASF76
 3105 04df 04       		.byte	0x4
 3106 04e0 1602     		.2byte	0x216
 3107 04e2 30050000 		.4byte	0x530
 3108 04e6 0C       		.byte	0xc
 3109 04e7 0E       		.uleb128 0xe
 3110 04e8 18080000 		.4byte	.LASF77
 3111 04ec 04       		.byte	0x4
 3112 04ed 1D02     		.2byte	0x21d
 3113 04ef 38050000 		.4byte	0x538
 3114 04f3 10       		.byte	0x10
 3115 04f4 0E       		.uleb128 0xe
 3116 04f5 F4040000 		.4byte	.LASF78
 3117 04f9 04       		.byte	0x4
 3118 04fa 2202     		.2byte	0x222
 3119 04fc 77000000 		.4byte	0x77
 3120 0500 14       		.byte	0x14
 3121 0501 0E       		.uleb128 0xe
 3122 0502 0C080000 		.4byte	.LASF79
 3123 0506 04       		.byte	0x4
 3124 0507 2902     		.2byte	0x229
 3125 0509 77000000 		.4byte	0x77
 3126 050d 16       		.byte	0x16
 3127 050e 0E       		.uleb128 0xe
 3128 050f 2A050000 		.4byte	.LASF80
 3129 0513 04       		.byte	0x4
 3130 0514 3402     		.2byte	0x234
 3131 0516 6B000000 		.4byte	0x6b
 3132 051a 18       		.byte	0x18
 3133 051b 0E       		.uleb128 0xe
 3134 051c D5040000 		.4byte	.LASF81
 3135 0520 04       		.byte	0x4
 3136 0521 3C02     		.2byte	0x23c
 3137 0523 6B000000 		.4byte	0x6b
 3138 0527 19       		.byte	0x19
 3139 0528 00       		.byte	0
 3140 0529 10       		.uleb128 0x10
 3141 052a 04       		.byte	0x4
 3142 052b 2F050000 		.4byte	0x52f
 3143 052f 11       		.uleb128 0x11
 3144 0530 12       		.uleb128 0x12
 3145 0531 04       		.byte	0x4
 3146 0532 10       		.uleb128 0x10
 3147 0533 04       		.byte	0x4
 3148 0534 E4020000 		.4byte	0x2e4
 3149 0538 10       		.uleb128 0x10
 3150 0539 04       		.byte	0x4
 3151 053a 6B000000 		.4byte	0x6b
 3152 053e 04       		.uleb128 0x4
 3153 053f B1060000 		.4byte	.LASF82
ARM GAS  C:\Users\CHRIST~1\AppData\Local\Temp\ccGy5PUQ.s 			page 108


 3154 0543 04       		.byte	0x4
 3155 0544 3D02     		.2byte	0x23d
 3156 0546 AA040000 		.4byte	0x4aa
 3157 054a 0D       		.uleb128 0xd
 3158 054b 1C       		.byte	0x1c
 3159 054c 04       		.byte	0x4
 3160 054d 4302     		.2byte	0x243
 3161 054f 61050000 		.4byte	0x561
 3162 0553 0E       		.uleb128 0xe
 3163 0554 EB010000 		.4byte	.LASF83
 3164 0558 04       		.byte	0x4
 3165 0559 4802     		.2byte	0x248
 3166 055b 61050000 		.4byte	0x561
 3167 055f 00       		.byte	0
 3168 0560 00       		.byte	0
 3169 0561 0B       		.uleb128 0xb
 3170 0562 3E050000 		.4byte	0x53e
 3171 0566 71050000 		.4byte	0x571
 3172 056a 0C       		.uleb128 0xc
 3173 056b 9F010000 		.4byte	0x19f
 3174 056f 00       		.byte	0
 3175 0570 00       		.byte	0
 3176 0571 04       		.uleb128 0x4
 3177 0572 5D080000 		.4byte	.LASF84
 3178 0576 04       		.byte	0x4
 3179 0577 4902     		.2byte	0x249
 3180 0579 4A050000 		.4byte	0x54a
 3181 057d 13       		.uleb128 0x13
 3182 057e 3E000000 		.4byte	.LASF87
 3183 0582 01       		.byte	0x1
 3184 0583 A001     		.2byte	0x1a0
 3185 0585 00000000 		.4byte	.LFB1
 3186 0589 78000000 		.4byte	.LFE1-.LFB1
 3187 058d 01       		.uleb128 0x1
 3188 058e 9C       		.byte	0x9c
 3189 058f B2050000 		.4byte	0x5b2
 3190 0593 14       		.uleb128 0x14
 3191 0594 1E040000 		.4byte	.LASF85
 3192 0598 01       		.byte	0x1
 3193 0599 A201     		.2byte	0x1a2
 3194 059b 83000000 		.4byte	0x83
 3195 059f 02       		.uleb128 0x2
 3196 05a0 91       		.byte	0x91
 3197 05a1 74       		.sleb128 -12
 3198 05a2 14       		.uleb128 0x14
 3199 05a3 20000000 		.4byte	.LASF86
 3200 05a7 01       		.byte	0x1
 3201 05a8 A301     		.2byte	0x1a3
 3202 05aa 83000000 		.4byte	0x83
 3203 05ae 02       		.uleb128 0x2
 3204 05af 91       		.byte	0x91
 3205 05b0 70       		.sleb128 -16
 3206 05b1 00       		.byte	0
 3207 05b2 13       		.uleb128 0x13
 3208 05b3 3F020000 		.4byte	.LASF88
 3209 05b7 01       		.byte	0x1
 3210 05b8 1C02     		.2byte	0x21c
ARM GAS  C:\Users\CHRIST~1\AppData\Local\Temp\ccGy5PUQ.s 			page 109


 3211 05ba 00000000 		.4byte	.LFB2
 3212 05be 78000000 		.4byte	.LFE2-.LFB2
 3213 05c2 01       		.uleb128 0x1
 3214 05c3 9C       		.byte	0x9c
 3215 05c4 D8050000 		.4byte	0x5d8
 3216 05c8 14       		.uleb128 0x14
 3217 05c9 42070000 		.4byte	.LASF89
 3218 05cd 01       		.byte	0x1
 3219 05ce 1F02     		.2byte	0x21f
 3220 05d0 83000000 		.4byte	0x83
 3221 05d4 02       		.uleb128 0x2
 3222 05d5 91       		.byte	0x91
 3223 05d6 74       		.sleb128 -12
 3224 05d7 00       		.byte	0
 3225 05d8 15       		.uleb128 0x15
 3226 05d9 4E010000 		.4byte	.LASF151
 3227 05dd 01       		.byte	0x1
 3228 05de 4502     		.2byte	0x245
 3229 05e0 00000000 		.4byte	.LFB3
 3230 05e4 24000000 		.4byte	.LFE3-.LFB3
 3231 05e8 01       		.uleb128 0x1
 3232 05e9 9C       		.byte	0x9c
 3233 05ea 16       		.uleb128 0x16
 3234 05eb 28080000 		.4byte	.LASF91
 3235 05ef 01       		.byte	0x1
 3236 05f0 7E02     		.2byte	0x27e
 3237 05f2 00000000 		.4byte	.LFB4
 3238 05f6 60010000 		.4byte	.LFE4-.LFB4
 3239 05fa 01       		.uleb128 0x1
 3240 05fb 9C       		.byte	0x9c
 3241 05fc 10060000 		.4byte	0x610
 3242 0600 14       		.uleb128 0x14
 3243 0601 F7000000 		.4byte	.LASF90
 3244 0605 01       		.byte	0x1
 3245 0606 8002     		.2byte	0x280
 3246 0608 83000000 		.4byte	0x83
 3247 060c 02       		.uleb128 0x2
 3248 060d 91       		.byte	0x91
 3249 060e 74       		.sleb128 -12
 3250 060f 00       		.byte	0
 3251 0610 17       		.uleb128 0x17
 3252 0611 FF080000 		.4byte	.LASF107
 3253 0615 01       		.byte	0x1
 3254 0616 4A03     		.2byte	0x34a
 3255 0618 00000000 		.4byte	.LFB5
 3256 061c 28000000 		.4byte	.LFE5-.LFB5
 3257 0620 01       		.uleb128 0x1
 3258 0621 9C       		.byte	0x9c
 3259 0622 16       		.uleb128 0x16
 3260 0623 3E060000 		.4byte	.LASF92
 3261 0627 01       		.byte	0x1
 3262 0628 8703     		.2byte	0x387
 3263 062a 00000000 		.4byte	.LFB6
 3264 062e 88000000 		.4byte	.LFE6-.LFB6
 3265 0632 01       		.uleb128 0x1
 3266 0633 9C       		.byte	0x9c
 3267 0634 75060000 		.4byte	0x675
ARM GAS  C:\Users\CHRIST~1\AppData\Local\Temp\ccGy5PUQ.s 			page 110


 3268 0638 18       		.uleb128 0x18
 3269 0639 AF030000 		.4byte	.LASF96
 3270 063d 01       		.byte	0x1
 3271 063e 8703     		.2byte	0x387
 3272 0640 75060000 		.4byte	0x675
 3273 0644 02       		.uleb128 0x2
 3274 0645 91       		.byte	0x91
 3275 0646 5C       		.sleb128 -36
 3276 0647 14       		.uleb128 0x14
 3277 0648 0B010000 		.4byte	.LASF93
 3278 064c 01       		.byte	0x1
 3279 064d 8A03     		.2byte	0x38a
 3280 064f 6B000000 		.4byte	0x6b
 3281 0653 02       		.uleb128 0x2
 3282 0654 91       		.byte	0x91
 3283 0655 6F       		.sleb128 -17
 3284 0656 14       		.uleb128 0x14
 3285 0657 41040000 		.4byte	.LASF94
 3286 065b 01       		.byte	0x1
 3287 065c 8D03     		.2byte	0x38d
 3288 065e 83000000 		.4byte	0x83
 3289 0662 02       		.uleb128 0x2
 3290 0663 91       		.byte	0x91
 3291 0664 68       		.sleb128 -24
 3292 0665 14       		.uleb128 0x14
 3293 0666 86050000 		.4byte	.LASF95
 3294 066a 01       		.byte	0x1
 3295 066b 9003     		.2byte	0x390
 3296 066d 83000000 		.4byte	0x83
 3297 0671 02       		.uleb128 0x2
 3298 0672 91       		.byte	0x91
 3299 0673 64       		.sleb128 -28
 3300 0674 00       		.byte	0
 3301 0675 10       		.uleb128 0x10
 3302 0676 04       		.byte	0x4
 3303 0677 7B060000 		.4byte	0x67b
 3304 067b 19       		.uleb128 0x19
 3305 067c A6010000 		.4byte	0x1a6
 3306 0680 1A       		.uleb128 0x1a
 3307 0681 B7030000 		.4byte	.LASF99
 3308 0685 01       		.byte	0x1
 3309 0686 FA03     		.2byte	0x3fa
 3310 0688 83000000 		.4byte	0x83
 3311 068c 00000000 		.4byte	.LFB7
 3312 0690 8C000000 		.4byte	.LFE7-.LFB7
 3313 0694 01       		.uleb128 0x1
 3314 0695 9C       		.byte	0x9c
 3315 0696 D7060000 		.4byte	0x6d7
 3316 069a 18       		.uleb128 0x18
 3317 069b 1C050000 		.4byte	.LASF97
 3318 069f 01       		.byte	0x1
 3319 06a0 FA03     		.2byte	0x3fa
 3320 06a2 83000000 		.4byte	0x83
 3321 06a6 02       		.uleb128 0x2
 3322 06a7 91       		.byte	0x91
 3323 06a8 6C       		.sleb128 -20
 3324 06a9 18       		.uleb128 0x18
ARM GAS  C:\Users\CHRIST~1\AppData\Local\Temp\ccGy5PUQ.s 			page 111


 3325 06aa D1060000 		.4byte	.LASF23
 3326 06ae 01       		.byte	0x1
 3327 06af FA03     		.2byte	0x3fa
 3328 06b1 83000000 		.4byte	0x83
 3329 06b5 02       		.uleb128 0x2
 3330 06b6 91       		.byte	0x91
 3331 06b7 68       		.sleb128 -24
 3332 06b8 14       		.uleb128 0x14
 3333 06b9 D1010000 		.4byte	.LASF98
 3334 06bd 01       		.byte	0x1
 3335 06be FC03     		.2byte	0x3fc
 3336 06c0 83000000 		.4byte	0x83
 3337 06c4 02       		.uleb128 0x2
 3338 06c5 91       		.byte	0x91
 3339 06c6 74       		.sleb128 -12
 3340 06c7 14       		.uleb128 0x14
 3341 06c8 42070000 		.4byte	.LASF89
 3342 06cc 01       		.byte	0x1
 3343 06cd FE03     		.2byte	0x3fe
 3344 06cf 83000000 		.4byte	0x83
 3345 06d3 02       		.uleb128 0x2
 3346 06d4 91       		.byte	0x91
 3347 06d5 70       		.sleb128 -16
 3348 06d6 00       		.byte	0
 3349 06d7 1B       		.uleb128 0x1b
 3350 06d8 07020000 		.4byte	.LASF100
 3351 06dc 01       		.byte	0x1
 3352 06dd 6504     		.2byte	0x465
 3353 06df 83000000 		.4byte	0x83
 3354 06e3 00000000 		.4byte	.LFB8
 3355 06e7 30000000 		.4byte	.LFE8-.LFB8
 3356 06eb 01       		.uleb128 0x1
 3357 06ec 9C       		.byte	0x9c
 3358 06ed 1F070000 		.4byte	0x71f
 3359 06f1 18       		.uleb128 0x18
 3360 06f2 1E040000 		.4byte	.LASF85
 3361 06f6 01       		.byte	0x1
 3362 06f7 6504     		.2byte	0x465
 3363 06f9 83000000 		.4byte	0x83
 3364 06fd 02       		.uleb128 0x2
 3365 06fe 91       		.byte	0x91
 3366 06ff 6C       		.sleb128 -20
 3367 0700 14       		.uleb128 0x14
 3368 0701 07000000 		.4byte	.LASF101
 3369 0705 01       		.byte	0x1
 3370 0706 6704     		.2byte	0x467
 3371 0708 83000000 		.4byte	0x83
 3372 070c 02       		.uleb128 0x2
 3373 070d 91       		.byte	0x91
 3374 070e 70       		.sleb128 -16
 3375 070f 14       		.uleb128 0x14
 3376 0710 AF030000 		.4byte	.LASF96
 3377 0714 01       		.byte	0x1
 3378 0715 6B04     		.2byte	0x46b
 3379 0717 1F070000 		.4byte	0x71f
 3380 071b 02       		.uleb128 0x2
 3381 071c 91       		.byte	0x91
ARM GAS  C:\Users\CHRIST~1\AppData\Local\Temp\ccGy5PUQ.s 			page 112


 3382 071d 74       		.sleb128 -12
 3383 071e 00       		.byte	0
 3384 071f 10       		.uleb128 0x10
 3385 0720 04       		.byte	0x4
 3386 0721 A6010000 		.4byte	0x1a6
 3387 0725 16       		.uleb128 0x16
 3388 0726 29000000 		.4byte	.LASF102
 3389 072a 01       		.byte	0x1
 3390 072b B804     		.2byte	0x4b8
 3391 072d 00000000 		.4byte	.LFB9
 3392 0731 64000000 		.4byte	.LFE9-.LFB9
 3393 0735 01       		.uleb128 0x1
 3394 0736 9C       		.byte	0x9c
 3395 0737 69070000 		.4byte	0x769
 3396 073b 14       		.uleb128 0x14
 3397 073c 1C050000 		.4byte	.LASF97
 3398 0740 01       		.byte	0x1
 3399 0741 BA04     		.2byte	0x4ba
 3400 0743 83000000 		.4byte	0x83
 3401 0747 02       		.uleb128 0x2
 3402 0748 91       		.byte	0x91
 3403 0749 6C       		.sleb128 -20
 3404 074a 14       		.uleb128 0x14
 3405 074b F7000000 		.4byte	.LASF90
 3406 074f 01       		.byte	0x1
 3407 0750 BB04     		.2byte	0x4bb
 3408 0752 83000000 		.4byte	0x83
 3409 0756 02       		.uleb128 0x2
 3410 0757 91       		.byte	0x91
 3411 0758 74       		.sleb128 -12
 3412 0759 14       		.uleb128 0x14
 3413 075a AF030000 		.4byte	.LASF96
 3414 075e 01       		.byte	0x1
 3415 075f BF04     		.2byte	0x4bf
 3416 0761 75060000 		.4byte	0x675
 3417 0765 02       		.uleb128 0x2
 3418 0766 91       		.byte	0x91
 3419 0767 70       		.sleb128 -16
 3420 0768 00       		.byte	0
 3421 0769 1C       		.uleb128 0x1c
 3422 076a 33050000 		.4byte	.LASF103
 3423 076e 01       		.byte	0x1
 3424 076f 1E05     		.2byte	0x51e
 3425 0771 00000000 		.4byte	.LFB10
 3426 0775 20000000 		.4byte	.LFE10-.LFB10
 3427 0779 01       		.uleb128 0x1
 3428 077a 9C       		.byte	0x9c
 3429 077b 9E070000 		.4byte	0x79e
 3430 077f 18       		.uleb128 0x18
 3431 0780 AC080000 		.4byte	.LASF33
 3432 0784 01       		.byte	0x1
 3433 0785 1E05     		.2byte	0x51e
 3434 0787 83000000 		.4byte	0x83
 3435 078b 02       		.uleb128 0x2
 3436 078c 91       		.byte	0x91
 3437 078d 74       		.sleb128 -12
 3438 078e 18       		.uleb128 0x18
ARM GAS  C:\Users\CHRIST~1\AppData\Local\Temp\ccGy5PUQ.s 			page 113


 3439 078f 1C050000 		.4byte	.LASF97
 3440 0793 01       		.byte	0x1
 3441 0794 1E05     		.2byte	0x51e
 3442 0796 83000000 		.4byte	0x83
 3443 079a 02       		.uleb128 0x2
 3444 079b 91       		.byte	0x91
 3445 079c 70       		.sleb128 -16
 3446 079d 00       		.byte	0
 3447 079e 16       		.uleb128 0x16
 3448 079f E0080000 		.4byte	.LASF104
 3449 07a3 01       		.byte	0x1
 3450 07a4 4205     		.2byte	0x542
 3451 07a6 00000000 		.4byte	.LFB11
 3452 07aa 38000000 		.4byte	.LFE11-.LFB11
 3453 07ae 01       		.uleb128 0x1
 3454 07af 9C       		.byte	0x9c
 3455 07b0 E2070000 		.4byte	0x7e2
 3456 07b4 18       		.uleb128 0x18
 3457 07b5 AF030000 		.4byte	.LASF96
 3458 07b9 01       		.byte	0x1
 3459 07ba 4205     		.2byte	0x542
 3460 07bc 75060000 		.4byte	0x675
 3461 07c0 02       		.uleb128 0x2
 3462 07c1 91       		.byte	0x91
 3463 07c2 6C       		.sleb128 -20
 3464 07c3 14       		.uleb128 0x14
 3465 07c4 D1010000 		.4byte	.LASF98
 3466 07c8 01       		.byte	0x1
 3467 07c9 4505     		.2byte	0x545
 3468 07cb 83000000 		.4byte	0x83
 3469 07cf 02       		.uleb128 0x2
 3470 07d0 91       		.byte	0x91
 3471 07d1 70       		.sleb128 -16
 3472 07d2 14       		.uleb128 0x14
 3473 07d3 1C050000 		.4byte	.LASF97
 3474 07d7 01       		.byte	0x1
 3475 07d8 4605     		.2byte	0x546
 3476 07da 83000000 		.4byte	0x83
 3477 07de 02       		.uleb128 0x2
 3478 07df 91       		.byte	0x91
 3479 07e0 74       		.sleb128 -12
 3480 07e1 00       		.byte	0
 3481 07e2 16       		.uleb128 0x16
 3482 07e3 76040000 		.4byte	.LASF105
 3483 07e7 01       		.byte	0x1
 3484 07e8 8A05     		.2byte	0x58a
 3485 07ea 00000000 		.4byte	.LFB12
 3486 07ee 80000000 		.4byte	.LFE12-.LFB12
 3487 07f2 01       		.uleb128 0x1
 3488 07f3 9C       		.byte	0x9c
 3489 07f4 17080000 		.4byte	0x817
 3490 07f8 18       		.uleb128 0x18
 3491 07f9 1E040000 		.4byte	.LASF85
 3492 07fd 01       		.byte	0x1
 3493 07fe 8A05     		.2byte	0x58a
 3494 0800 83000000 		.4byte	0x83
 3495 0804 02       		.uleb128 0x2
ARM GAS  C:\Users\CHRIST~1\AppData\Local\Temp\ccGy5PUQ.s 			page 114


 3496 0805 91       		.byte	0x91
 3497 0806 6C       		.sleb128 -20
 3498 0807 14       		.uleb128 0x14
 3499 0808 AF030000 		.4byte	.LASF96
 3500 080c 01       		.byte	0x1
 3501 080d 8D05     		.2byte	0x58d
 3502 080f 75060000 		.4byte	0x675
 3503 0813 02       		.uleb128 0x2
 3504 0814 91       		.byte	0x91
 3505 0815 74       		.sleb128 -12
 3506 0816 00       		.byte	0
 3507 0817 16       		.uleb128 0x16
 3508 0818 DF070000 		.4byte	.LASF106
 3509 081c 01       		.byte	0x1
 3510 081d DB05     		.2byte	0x5db
 3511 081f 00000000 		.4byte	.LFB13
 3512 0823 AC000000 		.4byte	.LFE13-.LFB13
 3513 0827 01       		.uleb128 0x1
 3514 0828 9C       		.byte	0x9c
 3515 0829 5B080000 		.4byte	0x85b
 3516 082d 18       		.uleb128 0x18
 3517 082e 1E040000 		.4byte	.LASF85
 3518 0832 01       		.byte	0x1
 3519 0833 DB05     		.2byte	0x5db
 3520 0835 83000000 		.4byte	0x83
 3521 0839 02       		.uleb128 0x2
 3522 083a 91       		.byte	0x91
 3523 083b 6C       		.sleb128 -20
 3524 083c 18       		.uleb128 0x18
 3525 083d 20000000 		.4byte	.LASF86
 3526 0841 01       		.byte	0x1
 3527 0842 DB05     		.2byte	0x5db
 3528 0844 83000000 		.4byte	0x83
 3529 0848 02       		.uleb128 0x2
 3530 0849 91       		.byte	0x91
 3531 084a 68       		.sleb128 -24
 3532 084b 14       		.uleb128 0x14
 3533 084c AF030000 		.4byte	.LASF96
 3534 0850 01       		.byte	0x1
 3535 0851 DD05     		.2byte	0x5dd
 3536 0853 75060000 		.4byte	0x675
 3537 0857 02       		.uleb128 0x2
 3538 0858 91       		.byte	0x91
 3539 0859 74       		.sleb128 -12
 3540 085a 00       		.byte	0
 3541 085b 17       		.uleb128 0x17
 3542 085c 12060000 		.4byte	.LASF108
 3543 0860 01       		.byte	0x1
 3544 0861 1A06     		.2byte	0x61a
 3545 0863 00000000 		.4byte	.LFB14
 3546 0867 28000000 		.4byte	.LFE14-.LFB14
 3547 086b 01       		.uleb128 0x1
 3548 086c 9C       		.byte	0x9c
 3549 086d 17       		.uleb128 0x17
 3550 086e 93010000 		.4byte	.LASF109
 3551 0872 01       		.byte	0x1
 3552 0873 8306     		.2byte	0x683
ARM GAS  C:\Users\CHRIST~1\AppData\Local\Temp\ccGy5PUQ.s 			page 115


 3553 0875 00000000 		.4byte	.LFB15
 3554 0879 20000000 		.4byte	.LFE15-.LFB15
 3555 087d 01       		.uleb128 0x1
 3556 087e 9C       		.byte	0x9c
 3557 087f 16       		.uleb128 0x16
 3558 0880 C2080000 		.4byte	.LASF110
 3559 0884 01       		.byte	0x1
 3560 0885 AA06     		.2byte	0x6aa
 3561 0887 00000000 		.4byte	.LFB16
 3562 088b B8000000 		.4byte	.LFE16-.LFB16
 3563 088f 01       		.uleb128 0x1
 3564 0890 9C       		.byte	0x9c
 3565 0891 A5080000 		.4byte	0x8a5
 3566 0895 14       		.uleb128 0x14
 3567 0896 AF030000 		.4byte	.LASF96
 3568 089a 01       		.byte	0x1
 3569 089b AC06     		.2byte	0x6ac
 3570 089d 75060000 		.4byte	0x675
 3571 08a1 02       		.uleb128 0x2
 3572 08a2 91       		.byte	0x91
 3573 08a3 74       		.sleb128 -12
 3574 08a4 00       		.byte	0
 3575 08a5 16       		.uleb128 0x16
 3576 08a6 88000000 		.4byte	.LASF111
 3577 08aa 01       		.byte	0x1
 3578 08ab EF06     		.2byte	0x6ef
 3579 08ad 00000000 		.4byte	.LFB17
 3580 08b1 40000000 		.4byte	.LFE17-.LFB17
 3581 08b5 01       		.uleb128 0x1
 3582 08b6 9C       		.byte	0x9c
 3583 08b7 DA080000 		.4byte	0x8da
 3584 08bb 18       		.uleb128 0x18
 3585 08bc 1E040000 		.4byte	.LASF85
 3586 08c0 01       		.byte	0x1
 3587 08c1 EF06     		.2byte	0x6ef
 3588 08c3 83000000 		.4byte	0x83
 3589 08c7 02       		.uleb128 0x2
 3590 08c8 91       		.byte	0x91
 3591 08c9 74       		.sleb128 -12
 3592 08ca 18       		.uleb128 0x18
 3593 08cb EB000000 		.4byte	.LASF112
 3594 08cf 01       		.byte	0x1
 3595 08d0 EF06     		.2byte	0x6ef
 3596 08d2 83000000 		.4byte	0x83
 3597 08d6 02       		.uleb128 0x2
 3598 08d7 91       		.byte	0x91
 3599 08d8 70       		.sleb128 -16
 3600 08d9 00       		.byte	0
 3601 08da 16       		.uleb128 0x16
 3602 08db 3C080000 		.4byte	.LASF113
 3603 08df 01       		.byte	0x1
 3604 08e0 3307     		.2byte	0x733
 3605 08e2 00000000 		.4byte	.LFB18
 3606 08e6 40000000 		.4byte	.LFE18-.LFB18
 3607 08ea 01       		.uleb128 0x1
 3608 08eb 9C       		.byte	0x9c
 3609 08ec 0F090000 		.4byte	0x90f
ARM GAS  C:\Users\CHRIST~1\AppData\Local\Temp\ccGy5PUQ.s 			page 116


 3610 08f0 18       		.uleb128 0x18
 3611 08f1 1E040000 		.4byte	.LASF85
 3612 08f5 01       		.byte	0x1
 3613 08f6 3307     		.2byte	0x733
 3614 08f8 83000000 		.4byte	0x83
 3615 08fc 02       		.uleb128 0x2
 3616 08fd 91       		.byte	0x91
 3617 08fe 74       		.sleb128 -12
 3618 08ff 18       		.uleb128 0x18
 3619 0900 EB000000 		.4byte	.LASF112
 3620 0904 01       		.byte	0x1
 3621 0905 3307     		.2byte	0x733
 3622 0907 83000000 		.4byte	0x83
 3623 090b 02       		.uleb128 0x2
 3624 090c 91       		.byte	0x91
 3625 090d 70       		.sleb128 -16
 3626 090e 00       		.byte	0
 3627 090f 16       		.uleb128 0x16
 3628 0910 0A050000 		.4byte	.LASF114
 3629 0914 01       		.byte	0x1
 3630 0915 7C07     		.2byte	0x77c
 3631 0917 00000000 		.4byte	.LFB19
 3632 091b 78000000 		.4byte	.LFE19-.LFB19
 3633 091f 01       		.uleb128 0x1
 3634 0920 9C       		.byte	0x9c
 3635 0921 71090000 		.4byte	0x971
 3636 0925 18       		.uleb128 0x18
 3637 0926 17090000 		.4byte	.LASF115
 3638 092a 01       		.byte	0x1
 3639 092b 7C07     		.2byte	0x77c
 3640 092d 71090000 		.4byte	0x971
 3641 0931 02       		.uleb128 0x2
 3642 0932 91       		.byte	0x91
 3643 0933 5C       		.sleb128 -36
 3644 0934 14       		.uleb128 0x14
 3645 0935 9B080000 		.4byte	.LASF116
 3646 0939 01       		.byte	0x1
 3647 093a 7E07     		.2byte	0x77e
 3648 093c 83000000 		.4byte	0x83
 3649 0940 02       		.uleb128 0x2
 3650 0941 91       		.byte	0x91
 3651 0942 60       		.sleb128 -32
 3652 0943 14       		.uleb128 0x14
 3653 0944 0B010000 		.4byte	.LASF93
 3654 0948 01       		.byte	0x1
 3655 0949 7F07     		.2byte	0x77f
 3656 094b 6B000000 		.4byte	0x6b
 3657 094f 02       		.uleb128 0x2
 3658 0950 91       		.byte	0x91
 3659 0951 67       		.sleb128 -25
 3660 0952 14       		.uleb128 0x14
 3661 0953 C4000000 		.4byte	.LASF117
 3662 0957 01       		.byte	0x1
 3663 0958 8007     		.2byte	0x780
 3664 095a 83000000 		.4byte	0x83
 3665 095e 02       		.uleb128 0x2
 3666 095f 91       		.byte	0x91
ARM GAS  C:\Users\CHRIST~1\AppData\Local\Temp\ccGy5PUQ.s 			page 117


 3667 0960 6C       		.sleb128 -20
 3668 0961 14       		.uleb128 0x14
 3669 0962 52060000 		.4byte	.LASF118
 3670 0966 01       		.byte	0x1
 3671 0967 8107     		.2byte	0x781
 3672 0969 83000000 		.4byte	0x83
 3673 096d 02       		.uleb128 0x2
 3674 096e 91       		.byte	0x91
 3675 096f 68       		.sleb128 -24
 3676 0970 00       		.byte	0
 3677 0971 10       		.uleb128 0x10
 3678 0972 04       		.byte	0x4
 3679 0973 77090000 		.4byte	0x977
 3680 0977 19       		.uleb128 0x19
 3681 0978 9E040000 		.4byte	0x49e
 3682 097c 16       		.uleb128 0x16
 3683 097d 01040000 		.4byte	.LASF119
 3684 0981 01       		.byte	0x1
 3685 0982 B007     		.2byte	0x7b0
 3686 0984 00000000 		.4byte	.LFB20
 3687 0988 92000000 		.4byte	.LFE20-.LFB20
 3688 098c 01       		.uleb128 0x1
 3689 098d 9C       		.byte	0x9c
 3690 098e DE090000 		.4byte	0x9de
 3691 0992 18       		.uleb128 0x18
 3692 0993 17090000 		.4byte	.LASF115
 3693 0997 01       		.byte	0x1
 3694 0998 B007     		.2byte	0x7b0
 3695 099a 71090000 		.4byte	0x971
 3696 099e 02       		.uleb128 0x2
 3697 099f 91       		.byte	0x91
 3698 09a0 5C       		.sleb128 -36
 3699 09a1 14       		.uleb128 0x14
 3700 09a2 52060000 		.4byte	.LASF118
 3701 09a6 01       		.byte	0x1
 3702 09a7 B207     		.2byte	0x7b2
 3703 09a9 83000000 		.4byte	0x83
 3704 09ad 02       		.uleb128 0x2
 3705 09ae 91       		.byte	0x91
 3706 09af 6C       		.sleb128 -20
 3707 09b0 14       		.uleb128 0x14
 3708 09b1 9B080000 		.4byte	.LASF116
 3709 09b5 01       		.byte	0x1
 3710 09b6 B307     		.2byte	0x7b3
 3711 09b8 83000000 		.4byte	0x83
 3712 09bc 02       		.uleb128 0x2
 3713 09bd 91       		.byte	0x91
 3714 09be 60       		.sleb128 -32
 3715 09bf 14       		.uleb128 0x14
 3716 09c0 C4000000 		.4byte	.LASF117
 3717 09c4 01       		.byte	0x1
 3718 09c5 B407     		.2byte	0x7b4
 3719 09c7 83000000 		.4byte	0x83
 3720 09cb 02       		.uleb128 0x2
 3721 09cc 91       		.byte	0x91
 3722 09cd 68       		.sleb128 -24
 3723 09ce 14       		.uleb128 0x14
ARM GAS  C:\Users\CHRIST~1\AppData\Local\Temp\ccGy5PUQ.s 			page 118


 3724 09cf 0B010000 		.4byte	.LASF93
 3725 09d3 01       		.byte	0x1
 3726 09d4 B807     		.2byte	0x7b8
 3727 09d6 6B000000 		.4byte	0x6b
 3728 09da 02       		.uleb128 0x2
 3729 09db 91       		.byte	0x91
 3730 09dc 67       		.sleb128 -25
 3731 09dd 00       		.byte	0
 3732 09de 1D       		.uleb128 0x1d
 3733 09df 6E050000 		.4byte	.LASF128
 3734 09e3 01       		.byte	0x1
 3735 09e4 F207     		.2byte	0x7f2
 3736 09e6 A4000000 		.4byte	0xa4
 3737 09ea 00000000 		.4byte	.LFB21
 3738 09ee 7E000000 		.4byte	.LFE21-.LFB21
 3739 09f2 01       		.uleb128 0x1
 3740 09f3 9C       		.byte	0x9c
 3741 09f4 620A0000 		.4byte	0xa62
 3742 09f8 18       		.uleb128 0x18
 3743 09f9 AF030000 		.4byte	.LASF96
 3744 09fd 01       		.byte	0x1
 3745 09fe F207     		.2byte	0x7f2
 3746 0a00 75060000 		.4byte	0x675
 3747 0a04 02       		.uleb128 0x2
 3748 0a05 91       		.byte	0x91
 3749 0a06 64       		.sleb128 -28
 3750 0a07 18       		.uleb128 0x18
 3751 0a08 F0050000 		.4byte	.LASF120
 3752 0a0c 01       		.byte	0x1
 3753 0a0d F207     		.2byte	0x7f2
 3754 0a0f 83000000 		.4byte	0x83
 3755 0a13 02       		.uleb128 0x2
 3756 0a14 91       		.byte	0x91
 3757 0a15 60       		.sleb128 -32
 3758 0a16 18       		.uleb128 0x18
 3759 0a17 18000000 		.4byte	.LASF121
 3760 0a1b 01       		.byte	0x1
 3761 0a1c F207     		.2byte	0x7f2
 3762 0a1e 83000000 		.4byte	0x83
 3763 0a22 02       		.uleb128 0x2
 3764 0a23 91       		.byte	0x91
 3765 0a24 5C       		.sleb128 -36
 3766 0a25 14       		.uleb128 0x14
 3767 0a26 86060000 		.4byte	.LASF122
 3768 0a2a 01       		.byte	0x1
 3769 0a2b F407     		.2byte	0x7f4
 3770 0a2d A4000000 		.4byte	0xa4
 3771 0a31 02       		.uleb128 0x2
 3772 0a32 91       		.byte	0x91
 3773 0a33 74       		.sleb128 -12
 3774 0a34 14       		.uleb128 0x14
 3775 0a35 5F050000 		.4byte	.LASF123
 3776 0a39 01       		.byte	0x1
 3777 0a3a F507     		.2byte	0x7f5
 3778 0a3c 83000000 		.4byte	0x83
 3779 0a40 02       		.uleb128 0x2
 3780 0a41 91       		.byte	0x91
ARM GAS  C:\Users\CHRIST~1\AppData\Local\Temp\ccGy5PUQ.s 			page 119


 3781 0a42 68       		.sleb128 -24
 3782 0a43 14       		.uleb128 0x14
 3783 0a44 2B090000 		.4byte	.LASF124
 3784 0a48 01       		.byte	0x1
 3785 0a49 F607     		.2byte	0x7f6
 3786 0a4b 83000000 		.4byte	0x83
 3787 0a4f 02       		.uleb128 0x2
 3788 0a50 91       		.byte	0x91
 3789 0a51 70       		.sleb128 -16
 3790 0a52 14       		.uleb128 0x14
 3791 0a53 C5060000 		.4byte	.LASF125
 3792 0a57 01       		.byte	0x1
 3793 0a58 F707     		.2byte	0x7f7
 3794 0a5a 83000000 		.4byte	0x83
 3795 0a5e 02       		.uleb128 0x2
 3796 0a5f 91       		.byte	0x91
 3797 0a60 6C       		.sleb128 -20
 3798 0a61 00       		.byte	0
 3799 0a62 1C       		.uleb128 0x1c
 3800 0a63 24020000 		.4byte	.LASF126
 3801 0a67 01       		.byte	0x1
 3802 0a68 2208     		.2byte	0x822
 3803 0a6a 00000000 		.4byte	.LFB22
 3804 0a6e 4C000000 		.4byte	.LFE22-.LFB22
 3805 0a72 01       		.uleb128 0x1
 3806 0a73 9C       		.byte	0x9c
 3807 0a74 880A0000 		.4byte	0xa88
 3808 0a78 14       		.uleb128 0x14
 3809 0a79 F7000000 		.4byte	.LASF90
 3810 0a7d 01       		.byte	0x1
 3811 0a7e 2408     		.2byte	0x824
 3812 0a80 83000000 		.4byte	0x83
 3813 0a84 02       		.uleb128 0x2
 3814 0a85 91       		.byte	0x91
 3815 0a86 74       		.sleb128 -12
 3816 0a87 00       		.byte	0
 3817 0a88 1C       		.uleb128 0x1c
 3818 0a89 82080000 		.4byte	.LASF127
 3819 0a8d 01       		.byte	0x1
 3820 0a8e 4908     		.2byte	0x849
 3821 0a90 00000000 		.4byte	.LFB23
 3822 0a94 44000000 		.4byte	.LFE23-.LFB23
 3823 0a98 01       		.uleb128 0x1
 3824 0a99 9C       		.byte	0x9c
 3825 0a9a AE0A0000 		.4byte	0xaae
 3826 0a9e 14       		.uleb128 0x14
 3827 0a9f F7000000 		.4byte	.LASF90
 3828 0aa3 01       		.byte	0x1
 3829 0aa4 4D08     		.2byte	0x84d
 3830 0aa6 83000000 		.4byte	0x83
 3831 0aaa 02       		.uleb128 0x2
 3832 0aab 91       		.byte	0x91
 3833 0aac 74       		.sleb128 -12
 3834 0aad 00       		.byte	0
 3835 0aae 1D       		.uleb128 0x1d
 3836 0aaf DC060000 		.4byte	.LASF129
 3837 0ab3 01       		.byte	0x1
ARM GAS  C:\Users\CHRIST~1\AppData\Local\Temp\ccGy5PUQ.s 			page 120


 3838 0ab4 8608     		.2byte	0x886
 3839 0ab6 A4000000 		.4byte	0xa4
 3840 0aba 00000000 		.4byte	.LFB24
 3841 0abe 68010000 		.4byte	.LFE24-.LFB24
 3842 0ac2 01       		.uleb128 0x1
 3843 0ac3 9C       		.byte	0x9c
 3844 0ac4 410B0000 		.4byte	0xb41
 3845 0ac8 18       		.uleb128 0x18
 3846 0ac9 F0050000 		.4byte	.LASF120
 3847 0acd 01       		.byte	0x1
 3848 0ace 8608     		.2byte	0x886
 3849 0ad0 83000000 		.4byte	0x83
 3850 0ad4 02       		.uleb128 0x2
 3851 0ad5 91       		.byte	0x91
 3852 0ad6 5C       		.sleb128 -36
 3853 0ad7 18       		.uleb128 0x18
 3854 0ad8 6E000000 		.4byte	.LASF130
 3855 0adc 01       		.byte	0x1
 3856 0add 8708     		.2byte	0x887
 3857 0adf 38050000 		.4byte	0x538
 3858 0ae3 02       		.uleb128 0x2
 3859 0ae4 91       		.byte	0x91
 3860 0ae5 58       		.sleb128 -40
 3861 0ae6 18       		.uleb128 0x18
 3862 0ae7 BB000000 		.4byte	.LASF131
 3863 0aeb 01       		.byte	0x1
 3864 0aec 8808     		.2byte	0x888
 3865 0aee 38050000 		.4byte	0x538
 3866 0af2 02       		.uleb128 0x2
 3867 0af3 91       		.byte	0x91
 3868 0af4 54       		.sleb128 -44
 3869 0af5 14       		.uleb128 0x14
 3870 0af6 86060000 		.4byte	.LASF122
 3871 0afa 01       		.byte	0x1
 3872 0afb 8A08     		.2byte	0x88a
 3873 0afd A4000000 		.4byte	0xa4
 3874 0b01 02       		.uleb128 0x2
 3875 0b02 91       		.byte	0x91
 3876 0b03 64       		.sleb128 -28
 3877 0b04 14       		.uleb128 0x14
 3878 0b05 79080000 		.4byte	.LASF132
 3879 0b09 01       		.byte	0x1
 3880 0b0a 8B08     		.2byte	0x88b
 3881 0b0c 83000000 		.4byte	0x83
 3882 0b10 02       		.uleb128 0x2
 3883 0b11 91       		.byte	0x91
 3884 0b12 68       		.sleb128 -24
 3885 0b13 14       		.uleb128 0x14
 3886 0b14 6A090000 		.4byte	.LASF133
 3887 0b18 01       		.byte	0x1
 3888 0b19 8C08     		.2byte	0x88c
 3889 0b1b 6B000000 		.4byte	0x6b
 3890 0b1f 02       		.uleb128 0x2
 3891 0b20 91       		.byte	0x91
 3892 0b21 77       		.sleb128 -9
 3893 0b22 14       		.uleb128 0x14
 3894 0b23 31040000 		.4byte	.LASF134
ARM GAS  C:\Users\CHRIST~1\AppData\Local\Temp\ccGy5PUQ.s 			page 121


 3895 0b27 01       		.byte	0x1
 3896 0b28 8D08     		.2byte	0x88d
 3897 0b2a 83000000 		.4byte	0x83
 3898 0b2e 02       		.uleb128 0x2
 3899 0b2f 91       		.byte	0x91
 3900 0b30 70       		.sleb128 -16
 3901 0b31 14       		.uleb128 0x14
 3902 0b32 AF030000 		.4byte	.LASF96
 3903 0b36 01       		.byte	0x1
 3904 0b37 9408     		.2byte	0x894
 3905 0b39 1F070000 		.4byte	0x71f
 3906 0b3d 02       		.uleb128 0x2
 3907 0b3e 91       		.byte	0x91
 3908 0b3f 6C       		.sleb128 -20
 3909 0b40 00       		.byte	0
 3910 0b41 1A       		.uleb128 0x1a
 3911 0b42 57070000 		.4byte	.LASF135
 3912 0b46 01       		.byte	0x1
 3913 0b47 4E09     		.2byte	0x94e
 3914 0b49 A4000000 		.4byte	0xa4
 3915 0b4d 00000000 		.4byte	.LFB25
 3916 0b51 84010000 		.4byte	.LFE25-.LFB25
 3917 0b55 01       		.uleb128 0x1
 3918 0b56 9C       		.byte	0x9c
 3919 0b57 C50B0000 		.4byte	0xbc5
 3920 0b5b 18       		.uleb128 0x18
 3921 0b5c 1E040000 		.4byte	.LASF85
 3922 0b60 01       		.byte	0x1
 3923 0b61 4E09     		.2byte	0x94e
 3924 0b63 83000000 		.4byte	0x83
 3925 0b67 02       		.uleb128 0x2
 3926 0b68 91       		.byte	0x91
 3927 0b69 54       		.sleb128 -44
 3928 0b6a 18       		.uleb128 0x18
 3929 0b6b 4F040000 		.4byte	.LASF136
 3930 0b6f 01       		.byte	0x1
 3931 0b70 4E09     		.2byte	0x94e
 3932 0b72 83000000 		.4byte	0x83
 3933 0b76 02       		.uleb128 0x2
 3934 0b77 91       		.byte	0x91
 3935 0b78 50       		.sleb128 -48
 3936 0b79 14       		.uleb128 0x14
 3937 0b7a F0050000 		.4byte	.LASF120
 3938 0b7e 01       		.byte	0x1
 3939 0b7f 5009     		.2byte	0x950
 3940 0b81 83000000 		.4byte	0x83
 3941 0b85 02       		.uleb128 0x2
 3942 0b86 91       		.byte	0x91
 3943 0b87 64       		.sleb128 -28
 3944 0b88 14       		.uleb128 0x14
 3945 0b89 86060000 		.4byte	.LASF122
 3946 0b8d 01       		.byte	0x1
 3947 0b8e 5109     		.2byte	0x951
 3948 0b90 A4000000 		.4byte	0xa4
 3949 0b94 02       		.uleb128 0x2
 3950 0b95 91       		.byte	0x91
 3951 0b96 6C       		.sleb128 -20
ARM GAS  C:\Users\CHRIST~1\AppData\Local\Temp\ccGy5PUQ.s 			page 122


 3952 0b97 14       		.uleb128 0x14
 3953 0b98 AF030000 		.4byte	.LASF96
 3954 0b9c 01       		.byte	0x1
 3955 0b9d 5409     		.2byte	0x954
 3956 0b9f 1F070000 		.4byte	0x71f
 3957 0ba3 02       		.uleb128 0x2
 3958 0ba4 91       		.byte	0x91
 3959 0ba5 68       		.sleb128 -24
 3960 0ba6 14       		.uleb128 0x14
 3961 0ba7 BB000000 		.4byte	.LASF131
 3962 0bab 01       		.byte	0x1
 3963 0bac 5609     		.2byte	0x956
 3964 0bae 8F010000 		.4byte	0x18f
 3965 0bb2 02       		.uleb128 0x2
 3966 0bb3 91       		.byte	0x91
 3967 0bb4 5C       		.sleb128 -36
 3968 0bb5 14       		.uleb128 0x14
 3969 0bb6 6E000000 		.4byte	.LASF130
 3970 0bba 01       		.byte	0x1
 3971 0bbb 5709     		.2byte	0x957
 3972 0bbd 38050000 		.4byte	0x538
 3973 0bc1 02       		.uleb128 0x2
 3974 0bc2 91       		.byte	0x91
 3975 0bc3 60       		.sleb128 -32
 3976 0bc4 00       		.byte	0
 3977 0bc5 1C       		.uleb128 0x1c
 3978 0bc6 EA030000 		.4byte	.LASF137
 3979 0bca 01       		.byte	0x1
 3980 0bcb 810A     		.2byte	0xa81
 3981 0bcd 00000000 		.4byte	.LFB26
 3982 0bd1 A4000000 		.4byte	.LFE26-.LFB26
 3983 0bd5 01       		.uleb128 0x1
 3984 0bd6 9C       		.byte	0x9c
 3985 0bd7 EB0B0000 		.4byte	0xbeb
 3986 0bdb 14       		.uleb128 0x14
 3987 0bdc 31040000 		.4byte	.LASF134
 3988 0be0 01       		.byte	0x1
 3989 0be1 870A     		.2byte	0xa87
 3990 0be3 83000000 		.4byte	0x83
 3991 0be7 02       		.uleb128 0x2
 3992 0be8 91       		.byte	0x91
 3993 0be9 74       		.sleb128 -12
 3994 0bea 00       		.byte	0
 3995 0beb 13       		.uleb128 0x13
 3996 0bec 7B070000 		.4byte	.LASF138
 3997 0bf0 01       		.byte	0x1
 3998 0bf1 080B     		.2byte	0xb08
 3999 0bf3 00000000 		.4byte	.LFB27
 4000 0bf7 9C000000 		.4byte	.LFE27-.LFB27
 4001 0bfb 01       		.uleb128 0x1
 4002 0bfc 9C       		.byte	0x9c
 4003 0bfd 110C0000 		.4byte	0xc11
 4004 0c01 14       		.uleb128 0x14
 4005 0c02 31040000 		.4byte	.LASF134
 4006 0c06 01       		.byte	0x1
 4007 0c07 0E0B     		.2byte	0xb0e
 4008 0c09 83000000 		.4byte	0x83
ARM GAS  C:\Users\CHRIST~1\AppData\Local\Temp\ccGy5PUQ.s 			page 123


 4009 0c0d 02       		.uleb128 0x2
 4010 0c0e 91       		.byte	0x91
 4011 0c0f 74       		.sleb128 -12
 4012 0c10 00       		.byte	0
 4013 0c11 1E       		.uleb128 0x1e
 4014 0c12 37090000 		.4byte	.LASF139
 4015 0c16 01       		.byte	0x1
 4016 0c17 C9       		.byte	0xc9
 4017 0c18 71090000 		.4byte	0x971
 4018 0c1c 05       		.uleb128 0x5
 4019 0c1d 03       		.byte	0x3
 4020 0c1e 00000000 		.4byte	CSD_curSnsIOPtr
 4021 0c22 1E       		.uleb128 0x1e
 4022 0c23 96030000 		.4byte	.LASF140
 4023 0c27 01       		.byte	0x1
 4024 0c28 CB       		.byte	0xcb
 4025 0c29 6B000000 		.4byte	0x6b
 4026 0c2d 05       		.uleb128 0x5
 4027 0c2e 03       		.byte	0x3
 4028 0c2f 04000000 		.4byte	CSD_eleCsdDisconnectFlag
 4029 0c33 1F       		.uleb128 0x1f
 4030 0c34 0E000000 		.4byte	.LASF141
 4031 0c38 04       		.byte	0x4
 4032 0c39 8103     		.2byte	0x381
 4033 0c3b 0D040000 		.4byte	0x40d
 4034 0c3f 1F       		.uleb128 0x1f
 4035 0c40 6A060000 		.4byte	.LASF142
 4036 0c44 04       		.byte	0x4
 4037 0c45 8203     		.2byte	0x382
 4038 0c47 4B0C0000 		.4byte	0xc4b
 4039 0c4b 19       		.uleb128 0x19
 4040 0c4c 71050000 		.4byte	0x571
 4041 0c50 20       		.uleb128 0x20
 4042 0c51 E6040000 		.4byte	.LASF143
 4043 0c55 01       		.byte	0x1
 4044 0c56 C3       		.byte	0xc3
 4045 0c57 83000000 		.4byte	0x83
 4046 0c5b 05       		.uleb128 0x5
 4047 0c5c 03       		.byte	0x3
 4048 0c5d 00000000 		.4byte	CSD_configCsd
 4049 0c61 1F       		.uleb128 0x1f
 4050 0c62 CE080000 		.4byte	.LASF144
 4051 0c66 05       		.byte	0x5
 4052 0c67 1A05     		.2byte	0x51a
 4053 0c69 6D0C0000 		.4byte	0xc6d
 4054 0c6d 19       		.uleb128 0x19
 4055 0c6e 6B000000 		.4byte	0x6b
 4056 0c72 1F       		.uleb128 0x1f
 4057 0c73 94050000 		.4byte	.LASF145
 4058 0c77 05       		.byte	0x5
 4059 0c78 1C05     		.2byte	0x51c
 4060 0c7a B0000000 		.4byte	0xb0
 4061 0c7e 1F       		.uleb128 0x1f
 4062 0c7f D6050000 		.4byte	.LASF146
 4063 0c83 05       		.byte	0x5
 4064 0c84 1D05     		.2byte	0x51d
 4065 0c86 B0000000 		.4byte	0xb0
ARM GAS  C:\Users\CHRIST~1\AppData\Local\Temp\ccGy5PUQ.s 			page 124


 4066 0c8a 1F       		.uleb128 0x1f
 4067 0c8b A6040000 		.4byte	.LASF147
 4068 0c8f 05       		.byte	0x5
 4069 0c90 1F05     		.2byte	0x51f
 4070 0c92 32050000 		.4byte	0x532
 4071 0c96 00       		.byte	0
 4072              		.section	.debug_abbrev,"",%progbits
 4073              	.Ldebug_abbrev0:
 4074 0000 01       		.uleb128 0x1
 4075 0001 11       		.uleb128 0x11
 4076 0002 01       		.byte	0x1
 4077 0003 25       		.uleb128 0x25
 4078 0004 0E       		.uleb128 0xe
 4079 0005 13       		.uleb128 0x13
 4080 0006 0B       		.uleb128 0xb
 4081 0007 03       		.uleb128 0x3
 4082 0008 0E       		.uleb128 0xe
 4083 0009 1B       		.uleb128 0x1b
 4084 000a 0E       		.uleb128 0xe
 4085 000b 55       		.uleb128 0x55
 4086 000c 17       		.uleb128 0x17
 4087 000d 11       		.uleb128 0x11
 4088 000e 01       		.uleb128 0x1
 4089 000f 10       		.uleb128 0x10
 4090 0010 17       		.uleb128 0x17
 4091 0011 00       		.byte	0
 4092 0012 00       		.byte	0
 4093 0013 02       		.uleb128 0x2
 4094 0014 24       		.uleb128 0x24
 4095 0015 00       		.byte	0
 4096 0016 0B       		.uleb128 0xb
 4097 0017 0B       		.uleb128 0xb
 4098 0018 3E       		.uleb128 0x3e
 4099 0019 0B       		.uleb128 0xb
 4100 001a 03       		.uleb128 0x3
 4101 001b 0E       		.uleb128 0xe
 4102 001c 00       		.byte	0
 4103 001d 00       		.byte	0
 4104 001e 03       		.uleb128 0x3
 4105 001f 24       		.uleb128 0x24
 4106 0020 00       		.byte	0
 4107 0021 0B       		.uleb128 0xb
 4108 0022 0B       		.uleb128 0xb
 4109 0023 3E       		.uleb128 0x3e
 4110 0024 0B       		.uleb128 0xb
 4111 0025 03       		.uleb128 0x3
 4112 0026 08       		.uleb128 0x8
 4113 0027 00       		.byte	0
 4114 0028 00       		.byte	0
 4115 0029 04       		.uleb128 0x4
 4116 002a 16       		.uleb128 0x16
 4117 002b 00       		.byte	0
 4118 002c 03       		.uleb128 0x3
 4119 002d 0E       		.uleb128 0xe
 4120 002e 3A       		.uleb128 0x3a
 4121 002f 0B       		.uleb128 0xb
 4122 0030 3B       		.uleb128 0x3b
ARM GAS  C:\Users\CHRIST~1\AppData\Local\Temp\ccGy5PUQ.s 			page 125


 4123 0031 05       		.uleb128 0x5
 4124 0032 49       		.uleb128 0x49
 4125 0033 13       		.uleb128 0x13
 4126 0034 00       		.byte	0
 4127 0035 00       		.byte	0
 4128 0036 05       		.uleb128 0x5
 4129 0037 35       		.uleb128 0x35
 4130 0038 00       		.byte	0
 4131 0039 49       		.uleb128 0x49
 4132 003a 13       		.uleb128 0x13
 4133 003b 00       		.byte	0
 4134 003c 00       		.byte	0
 4135 003d 06       		.uleb128 0x6
 4136 003e 16       		.uleb128 0x16
 4137 003f 00       		.byte	0
 4138 0040 03       		.uleb128 0x3
 4139 0041 0E       		.uleb128 0xe
 4140 0042 3A       		.uleb128 0x3a
 4141 0043 0B       		.uleb128 0xb
 4142 0044 3B       		.uleb128 0x3b
 4143 0045 0B       		.uleb128 0xb
 4144 0046 49       		.uleb128 0x49
 4145 0047 13       		.uleb128 0x13
 4146 0048 00       		.byte	0
 4147 0049 00       		.byte	0
 4148 004a 07       		.uleb128 0x7
 4149 004b 04       		.uleb128 0x4
 4150 004c 01       		.byte	0x1
 4151 004d 0B       		.uleb128 0xb
 4152 004e 0B       		.uleb128 0xb
 4153 004f 3A       		.uleb128 0x3a
 4154 0050 0B       		.uleb128 0xb
 4155 0051 3B       		.uleb128 0x3b
 4156 0052 0B       		.uleb128 0xb
 4157 0053 01       		.uleb128 0x1
 4158 0054 13       		.uleb128 0x13
 4159 0055 00       		.byte	0
 4160 0056 00       		.byte	0
 4161 0057 08       		.uleb128 0x8
 4162 0058 28       		.uleb128 0x28
 4163 0059 00       		.byte	0
 4164 005a 03       		.uleb128 0x3
 4165 005b 0E       		.uleb128 0xe
 4166 005c 1C       		.uleb128 0x1c
 4167 005d 0D       		.uleb128 0xd
 4168 005e 00       		.byte	0
 4169 005f 00       		.byte	0
 4170 0060 09       		.uleb128 0x9
 4171 0061 13       		.uleb128 0x13
 4172 0062 01       		.byte	0x1
 4173 0063 0B       		.uleb128 0xb
 4174 0064 0B       		.uleb128 0xb
 4175 0065 3A       		.uleb128 0x3a
 4176 0066 0B       		.uleb128 0xb
 4177 0067 3B       		.uleb128 0x3b
 4178 0068 0B       		.uleb128 0xb
 4179 0069 01       		.uleb128 0x1
ARM GAS  C:\Users\CHRIST~1\AppData\Local\Temp\ccGy5PUQ.s 			page 126


 4180 006a 13       		.uleb128 0x13
 4181 006b 00       		.byte	0
 4182 006c 00       		.byte	0
 4183 006d 0A       		.uleb128 0xa
 4184 006e 0D       		.uleb128 0xd
 4185 006f 00       		.byte	0
 4186 0070 03       		.uleb128 0x3
 4187 0071 0E       		.uleb128 0xe
 4188 0072 3A       		.uleb128 0x3a
 4189 0073 0B       		.uleb128 0xb
 4190 0074 3B       		.uleb128 0x3b
 4191 0075 0B       		.uleb128 0xb
 4192 0076 49       		.uleb128 0x49
 4193 0077 13       		.uleb128 0x13
 4194 0078 38       		.uleb128 0x38
 4195 0079 0B       		.uleb128 0xb
 4196 007a 00       		.byte	0
 4197 007b 00       		.byte	0
 4198 007c 0B       		.uleb128 0xb
 4199 007d 01       		.uleb128 0x1
 4200 007e 01       		.byte	0x1
 4201 007f 49       		.uleb128 0x49
 4202 0080 13       		.uleb128 0x13
 4203 0081 01       		.uleb128 0x1
 4204 0082 13       		.uleb128 0x13
 4205 0083 00       		.byte	0
 4206 0084 00       		.byte	0
 4207 0085 0C       		.uleb128 0xc
 4208 0086 21       		.uleb128 0x21
 4209 0087 00       		.byte	0
 4210 0088 49       		.uleb128 0x49
 4211 0089 13       		.uleb128 0x13
 4212 008a 2F       		.uleb128 0x2f
 4213 008b 0B       		.uleb128 0xb
 4214 008c 00       		.byte	0
 4215 008d 00       		.byte	0
 4216 008e 0D       		.uleb128 0xd
 4217 008f 13       		.uleb128 0x13
 4218 0090 01       		.byte	0x1
 4219 0091 0B       		.uleb128 0xb
 4220 0092 0B       		.uleb128 0xb
 4221 0093 3A       		.uleb128 0x3a
 4222 0094 0B       		.uleb128 0xb
 4223 0095 3B       		.uleb128 0x3b
 4224 0096 05       		.uleb128 0x5
 4225 0097 01       		.uleb128 0x1
 4226 0098 13       		.uleb128 0x13
 4227 0099 00       		.byte	0
 4228 009a 00       		.byte	0
 4229 009b 0E       		.uleb128 0xe
 4230 009c 0D       		.uleb128 0xd
 4231 009d 00       		.byte	0
 4232 009e 03       		.uleb128 0x3
 4233 009f 0E       		.uleb128 0xe
 4234 00a0 3A       		.uleb128 0x3a
 4235 00a1 0B       		.uleb128 0xb
 4236 00a2 3B       		.uleb128 0x3b
ARM GAS  C:\Users\CHRIST~1\AppData\Local\Temp\ccGy5PUQ.s 			page 127


 4237 00a3 05       		.uleb128 0x5
 4238 00a4 49       		.uleb128 0x49
 4239 00a5 13       		.uleb128 0x13
 4240 00a6 38       		.uleb128 0x38
 4241 00a7 0B       		.uleb128 0xb
 4242 00a8 00       		.byte	0
 4243 00a9 00       		.byte	0
 4244 00aa 0F       		.uleb128 0xf
 4245 00ab 0D       		.uleb128 0xd
 4246 00ac 00       		.byte	0
 4247 00ad 03       		.uleb128 0x3
 4248 00ae 08       		.uleb128 0x8
 4249 00af 3A       		.uleb128 0x3a
 4250 00b0 0B       		.uleb128 0xb
 4251 00b1 3B       		.uleb128 0x3b
 4252 00b2 05       		.uleb128 0x5
 4253 00b3 49       		.uleb128 0x49
 4254 00b4 13       		.uleb128 0x13
 4255 00b5 38       		.uleb128 0x38
 4256 00b6 0B       		.uleb128 0xb
 4257 00b7 00       		.byte	0
 4258 00b8 00       		.byte	0
 4259 00b9 10       		.uleb128 0x10
 4260 00ba 0F       		.uleb128 0xf
 4261 00bb 00       		.byte	0
 4262 00bc 0B       		.uleb128 0xb
 4263 00bd 0B       		.uleb128 0xb
 4264 00be 49       		.uleb128 0x49
 4265 00bf 13       		.uleb128 0x13
 4266 00c0 00       		.byte	0
 4267 00c1 00       		.byte	0
 4268 00c2 11       		.uleb128 0x11
 4269 00c3 26       		.uleb128 0x26
 4270 00c4 00       		.byte	0
 4271 00c5 00       		.byte	0
 4272 00c6 00       		.byte	0
 4273 00c7 12       		.uleb128 0x12
 4274 00c8 0F       		.uleb128 0xf
 4275 00c9 00       		.byte	0
 4276 00ca 0B       		.uleb128 0xb
 4277 00cb 0B       		.uleb128 0xb
 4278 00cc 00       		.byte	0
 4279 00cd 00       		.byte	0
 4280 00ce 13       		.uleb128 0x13
 4281 00cf 2E       		.uleb128 0x2e
 4282 00d0 01       		.byte	0x1
 4283 00d1 03       		.uleb128 0x3
 4284 00d2 0E       		.uleb128 0xe
 4285 00d3 3A       		.uleb128 0x3a
 4286 00d4 0B       		.uleb128 0xb
 4287 00d5 3B       		.uleb128 0x3b
 4288 00d6 05       		.uleb128 0x5
 4289 00d7 27       		.uleb128 0x27
 4290 00d8 19       		.uleb128 0x19
 4291 00d9 11       		.uleb128 0x11
 4292 00da 01       		.uleb128 0x1
 4293 00db 12       		.uleb128 0x12
ARM GAS  C:\Users\CHRIST~1\AppData\Local\Temp\ccGy5PUQ.s 			page 128


 4294 00dc 06       		.uleb128 0x6
 4295 00dd 40       		.uleb128 0x40
 4296 00de 18       		.uleb128 0x18
 4297 00df 9642     		.uleb128 0x2116
 4298 00e1 19       		.uleb128 0x19
 4299 00e2 01       		.uleb128 0x1
 4300 00e3 13       		.uleb128 0x13
 4301 00e4 00       		.byte	0
 4302 00e5 00       		.byte	0
 4303 00e6 14       		.uleb128 0x14
 4304 00e7 34       		.uleb128 0x34
 4305 00e8 00       		.byte	0
 4306 00e9 03       		.uleb128 0x3
 4307 00ea 0E       		.uleb128 0xe
 4308 00eb 3A       		.uleb128 0x3a
 4309 00ec 0B       		.uleb128 0xb
 4310 00ed 3B       		.uleb128 0x3b
 4311 00ee 05       		.uleb128 0x5
 4312 00ef 49       		.uleb128 0x49
 4313 00f0 13       		.uleb128 0x13
 4314 00f1 02       		.uleb128 0x2
 4315 00f2 18       		.uleb128 0x18
 4316 00f3 00       		.byte	0
 4317 00f4 00       		.byte	0
 4318 00f5 15       		.uleb128 0x15
 4319 00f6 2E       		.uleb128 0x2e
 4320 00f7 00       		.byte	0
 4321 00f8 03       		.uleb128 0x3
 4322 00f9 0E       		.uleb128 0xe
 4323 00fa 3A       		.uleb128 0x3a
 4324 00fb 0B       		.uleb128 0xb
 4325 00fc 3B       		.uleb128 0x3b
 4326 00fd 05       		.uleb128 0x5
 4327 00fe 27       		.uleb128 0x27
 4328 00ff 19       		.uleb128 0x19
 4329 0100 11       		.uleb128 0x11
 4330 0101 01       		.uleb128 0x1
 4331 0102 12       		.uleb128 0x12
 4332 0103 06       		.uleb128 0x6
 4333 0104 40       		.uleb128 0x40
 4334 0105 18       		.uleb128 0x18
 4335 0106 9742     		.uleb128 0x2117
 4336 0108 19       		.uleb128 0x19
 4337 0109 00       		.byte	0
 4338 010a 00       		.byte	0
 4339 010b 16       		.uleb128 0x16
 4340 010c 2E       		.uleb128 0x2e
 4341 010d 01       		.byte	0x1
 4342 010e 3F       		.uleb128 0x3f
 4343 010f 19       		.uleb128 0x19
 4344 0110 03       		.uleb128 0x3
 4345 0111 0E       		.uleb128 0xe
 4346 0112 3A       		.uleb128 0x3a
 4347 0113 0B       		.uleb128 0xb
 4348 0114 3B       		.uleb128 0x3b
 4349 0115 05       		.uleb128 0x5
 4350 0116 27       		.uleb128 0x27
ARM GAS  C:\Users\CHRIST~1\AppData\Local\Temp\ccGy5PUQ.s 			page 129


 4351 0117 19       		.uleb128 0x19
 4352 0118 11       		.uleb128 0x11
 4353 0119 01       		.uleb128 0x1
 4354 011a 12       		.uleb128 0x12
 4355 011b 06       		.uleb128 0x6
 4356 011c 40       		.uleb128 0x40
 4357 011d 18       		.uleb128 0x18
 4358 011e 9642     		.uleb128 0x2116
 4359 0120 19       		.uleb128 0x19
 4360 0121 01       		.uleb128 0x1
 4361 0122 13       		.uleb128 0x13
 4362 0123 00       		.byte	0
 4363 0124 00       		.byte	0
 4364 0125 17       		.uleb128 0x17
 4365 0126 2E       		.uleb128 0x2e
 4366 0127 00       		.byte	0
 4367 0128 3F       		.uleb128 0x3f
 4368 0129 19       		.uleb128 0x19
 4369 012a 03       		.uleb128 0x3
 4370 012b 0E       		.uleb128 0xe
 4371 012c 3A       		.uleb128 0x3a
 4372 012d 0B       		.uleb128 0xb
 4373 012e 3B       		.uleb128 0x3b
 4374 012f 05       		.uleb128 0x5
 4375 0130 27       		.uleb128 0x27
 4376 0131 19       		.uleb128 0x19
 4377 0132 11       		.uleb128 0x11
 4378 0133 01       		.uleb128 0x1
 4379 0134 12       		.uleb128 0x12
 4380 0135 06       		.uleb128 0x6
 4381 0136 40       		.uleb128 0x40
 4382 0137 18       		.uleb128 0x18
 4383 0138 9642     		.uleb128 0x2116
 4384 013a 19       		.uleb128 0x19
 4385 013b 00       		.byte	0
 4386 013c 00       		.byte	0
 4387 013d 18       		.uleb128 0x18
 4388 013e 05       		.uleb128 0x5
 4389 013f 00       		.byte	0
 4390 0140 03       		.uleb128 0x3
 4391 0141 0E       		.uleb128 0xe
 4392 0142 3A       		.uleb128 0x3a
 4393 0143 0B       		.uleb128 0xb
 4394 0144 3B       		.uleb128 0x3b
 4395 0145 05       		.uleb128 0x5
 4396 0146 49       		.uleb128 0x49
 4397 0147 13       		.uleb128 0x13
 4398 0148 02       		.uleb128 0x2
 4399 0149 18       		.uleb128 0x18
 4400 014a 00       		.byte	0
 4401 014b 00       		.byte	0
 4402 014c 19       		.uleb128 0x19
 4403 014d 26       		.uleb128 0x26
 4404 014e 00       		.byte	0
 4405 014f 49       		.uleb128 0x49
 4406 0150 13       		.uleb128 0x13
 4407 0151 00       		.byte	0
ARM GAS  C:\Users\CHRIST~1\AppData\Local\Temp\ccGy5PUQ.s 			page 130


 4408 0152 00       		.byte	0
 4409 0153 1A       		.uleb128 0x1a
 4410 0154 2E       		.uleb128 0x2e
 4411 0155 01       		.byte	0x1
 4412 0156 3F       		.uleb128 0x3f
 4413 0157 19       		.uleb128 0x19
 4414 0158 03       		.uleb128 0x3
 4415 0159 0E       		.uleb128 0xe
 4416 015a 3A       		.uleb128 0x3a
 4417 015b 0B       		.uleb128 0xb
 4418 015c 3B       		.uleb128 0x3b
 4419 015d 05       		.uleb128 0x5
 4420 015e 27       		.uleb128 0x27
 4421 015f 19       		.uleb128 0x19
 4422 0160 49       		.uleb128 0x49
 4423 0161 13       		.uleb128 0x13
 4424 0162 11       		.uleb128 0x11
 4425 0163 01       		.uleb128 0x1
 4426 0164 12       		.uleb128 0x12
 4427 0165 06       		.uleb128 0x6
 4428 0166 40       		.uleb128 0x40
 4429 0167 18       		.uleb128 0x18
 4430 0168 9642     		.uleb128 0x2116
 4431 016a 19       		.uleb128 0x19
 4432 016b 01       		.uleb128 0x1
 4433 016c 13       		.uleb128 0x13
 4434 016d 00       		.byte	0
 4435 016e 00       		.byte	0
 4436 016f 1B       		.uleb128 0x1b
 4437 0170 2E       		.uleb128 0x2e
 4438 0171 01       		.byte	0x1
 4439 0172 3F       		.uleb128 0x3f
 4440 0173 19       		.uleb128 0x19
 4441 0174 03       		.uleb128 0x3
 4442 0175 0E       		.uleb128 0xe
 4443 0176 3A       		.uleb128 0x3a
 4444 0177 0B       		.uleb128 0xb
 4445 0178 3B       		.uleb128 0x3b
 4446 0179 05       		.uleb128 0x5
 4447 017a 27       		.uleb128 0x27
 4448 017b 19       		.uleb128 0x19
 4449 017c 49       		.uleb128 0x49
 4450 017d 13       		.uleb128 0x13
 4451 017e 11       		.uleb128 0x11
 4452 017f 01       		.uleb128 0x1
 4453 0180 12       		.uleb128 0x12
 4454 0181 06       		.uleb128 0x6
 4455 0182 40       		.uleb128 0x40
 4456 0183 18       		.uleb128 0x18
 4457 0184 9742     		.uleb128 0x2117
 4458 0186 19       		.uleb128 0x19
 4459 0187 01       		.uleb128 0x1
 4460 0188 13       		.uleb128 0x13
 4461 0189 00       		.byte	0
 4462 018a 00       		.byte	0
 4463 018b 1C       		.uleb128 0x1c
 4464 018c 2E       		.uleb128 0x2e
ARM GAS  C:\Users\CHRIST~1\AppData\Local\Temp\ccGy5PUQ.s 			page 131


 4465 018d 01       		.byte	0x1
 4466 018e 03       		.uleb128 0x3
 4467 018f 0E       		.uleb128 0xe
 4468 0190 3A       		.uleb128 0x3a
 4469 0191 0B       		.uleb128 0xb
 4470 0192 3B       		.uleb128 0x3b
 4471 0193 05       		.uleb128 0x5
 4472 0194 27       		.uleb128 0x27
 4473 0195 19       		.uleb128 0x19
 4474 0196 11       		.uleb128 0x11
 4475 0197 01       		.uleb128 0x1
 4476 0198 12       		.uleb128 0x12
 4477 0199 06       		.uleb128 0x6
 4478 019a 40       		.uleb128 0x40
 4479 019b 18       		.uleb128 0x18
 4480 019c 9742     		.uleb128 0x2117
 4481 019e 19       		.uleb128 0x19
 4482 019f 01       		.uleb128 0x1
 4483 01a0 13       		.uleb128 0x13
 4484 01a1 00       		.byte	0
 4485 01a2 00       		.byte	0
 4486 01a3 1D       		.uleb128 0x1d
 4487 01a4 2E       		.uleb128 0x2e
 4488 01a5 01       		.byte	0x1
 4489 01a6 03       		.uleb128 0x3
 4490 01a7 0E       		.uleb128 0xe
 4491 01a8 3A       		.uleb128 0x3a
 4492 01a9 0B       		.uleb128 0xb
 4493 01aa 3B       		.uleb128 0x3b
 4494 01ab 05       		.uleb128 0x5
 4495 01ac 27       		.uleb128 0x27
 4496 01ad 19       		.uleb128 0x19
 4497 01ae 49       		.uleb128 0x49
 4498 01af 13       		.uleb128 0x13
 4499 01b0 11       		.uleb128 0x11
 4500 01b1 01       		.uleb128 0x1
 4501 01b2 12       		.uleb128 0x12
 4502 01b3 06       		.uleb128 0x6
 4503 01b4 40       		.uleb128 0x40
 4504 01b5 18       		.uleb128 0x18
 4505 01b6 9642     		.uleb128 0x2116
 4506 01b8 19       		.uleb128 0x19
 4507 01b9 01       		.uleb128 0x1
 4508 01ba 13       		.uleb128 0x13
 4509 01bb 00       		.byte	0
 4510 01bc 00       		.byte	0
 4511 01bd 1E       		.uleb128 0x1e
 4512 01be 34       		.uleb128 0x34
 4513 01bf 00       		.byte	0
 4514 01c0 03       		.uleb128 0x3
 4515 01c1 0E       		.uleb128 0xe
 4516 01c2 3A       		.uleb128 0x3a
 4517 01c3 0B       		.uleb128 0xb
 4518 01c4 3B       		.uleb128 0x3b
 4519 01c5 0B       		.uleb128 0xb
 4520 01c6 49       		.uleb128 0x49
 4521 01c7 13       		.uleb128 0x13
ARM GAS  C:\Users\CHRIST~1\AppData\Local\Temp\ccGy5PUQ.s 			page 132


 4522 01c8 02       		.uleb128 0x2
 4523 01c9 18       		.uleb128 0x18
 4524 01ca 00       		.byte	0
 4525 01cb 00       		.byte	0
 4526 01cc 1F       		.uleb128 0x1f
 4527 01cd 34       		.uleb128 0x34
 4528 01ce 00       		.byte	0
 4529 01cf 03       		.uleb128 0x3
 4530 01d0 0E       		.uleb128 0xe
 4531 01d1 3A       		.uleb128 0x3a
 4532 01d2 0B       		.uleb128 0xb
 4533 01d3 3B       		.uleb128 0x3b
 4534 01d4 05       		.uleb128 0x5
 4535 01d5 49       		.uleb128 0x49
 4536 01d6 13       		.uleb128 0x13
 4537 01d7 3F       		.uleb128 0x3f
 4538 01d8 19       		.uleb128 0x19
 4539 01d9 3C       		.uleb128 0x3c
 4540 01da 19       		.uleb128 0x19
 4541 01db 00       		.byte	0
 4542 01dc 00       		.byte	0
 4543 01dd 20       		.uleb128 0x20
 4544 01de 34       		.uleb128 0x34
 4545 01df 00       		.byte	0
 4546 01e0 03       		.uleb128 0x3
 4547 01e1 0E       		.uleb128 0xe
 4548 01e2 3A       		.uleb128 0x3a
 4549 01e3 0B       		.uleb128 0xb
 4550 01e4 3B       		.uleb128 0x3b
 4551 01e5 0B       		.uleb128 0xb
 4552 01e6 49       		.uleb128 0x49
 4553 01e7 13       		.uleb128 0x13
 4554 01e8 3F       		.uleb128 0x3f
 4555 01e9 19       		.uleb128 0x19
 4556 01ea 02       		.uleb128 0x2
 4557 01eb 18       		.uleb128 0x18
 4558 01ec 00       		.byte	0
 4559 01ed 00       		.byte	0
 4560 01ee 00       		.byte	0
 4561              		.section	.debug_aranges,"",%progbits
 4562 0000 EC000000 		.4byte	0xec
 4563 0004 0200     		.2byte	0x2
 4564 0006 00000000 		.4byte	.Ldebug_info0
 4565 000a 04       		.byte	0x4
 4566 000b 00       		.byte	0
 4567 000c 0000     		.2byte	0
 4568 000e 0000     		.2byte	0
 4569 0010 00000000 		.4byte	.LFB1
 4570 0014 78000000 		.4byte	.LFE1-.LFB1
 4571 0018 00000000 		.4byte	.LFB2
 4572 001c 78000000 		.4byte	.LFE2-.LFB2
 4573 0020 00000000 		.4byte	.LFB3
 4574 0024 24000000 		.4byte	.LFE3-.LFB3
 4575 0028 00000000 		.4byte	.LFB4
 4576 002c 60010000 		.4byte	.LFE4-.LFB4
 4577 0030 00000000 		.4byte	.LFB5
 4578 0034 28000000 		.4byte	.LFE5-.LFB5
ARM GAS  C:\Users\CHRIST~1\AppData\Local\Temp\ccGy5PUQ.s 			page 133


 4579 0038 00000000 		.4byte	.LFB6
 4580 003c 88000000 		.4byte	.LFE6-.LFB6
 4581 0040 00000000 		.4byte	.LFB7
 4582 0044 8C000000 		.4byte	.LFE7-.LFB7
 4583 0048 00000000 		.4byte	.LFB8
 4584 004c 30000000 		.4byte	.LFE8-.LFB8
 4585 0050 00000000 		.4byte	.LFB9
 4586 0054 64000000 		.4byte	.LFE9-.LFB9
 4587 0058 00000000 		.4byte	.LFB10
 4588 005c 20000000 		.4byte	.LFE10-.LFB10
 4589 0060 00000000 		.4byte	.LFB11
 4590 0064 38000000 		.4byte	.LFE11-.LFB11
 4591 0068 00000000 		.4byte	.LFB12
 4592 006c 80000000 		.4byte	.LFE12-.LFB12
 4593 0070 00000000 		.4byte	.LFB13
 4594 0074 AC000000 		.4byte	.LFE13-.LFB13
 4595 0078 00000000 		.4byte	.LFB14
 4596 007c 28000000 		.4byte	.LFE14-.LFB14
 4597 0080 00000000 		.4byte	.LFB15
 4598 0084 20000000 		.4byte	.LFE15-.LFB15
 4599 0088 00000000 		.4byte	.LFB16
 4600 008c B8000000 		.4byte	.LFE16-.LFB16
 4601 0090 00000000 		.4byte	.LFB17
 4602 0094 40000000 		.4byte	.LFE17-.LFB17
 4603 0098 00000000 		.4byte	.LFB18
 4604 009c 40000000 		.4byte	.LFE18-.LFB18
 4605 00a0 00000000 		.4byte	.LFB19
 4606 00a4 78000000 		.4byte	.LFE19-.LFB19
 4607 00a8 00000000 		.4byte	.LFB20
 4608 00ac 92000000 		.4byte	.LFE20-.LFB20
 4609 00b0 00000000 		.4byte	.LFB21
 4610 00b4 7E000000 		.4byte	.LFE21-.LFB21
 4611 00b8 00000000 		.4byte	.LFB22
 4612 00bc 4C000000 		.4byte	.LFE22-.LFB22
 4613 00c0 00000000 		.4byte	.LFB23
 4614 00c4 44000000 		.4byte	.LFE23-.LFB23
 4615 00c8 00000000 		.4byte	.LFB24
 4616 00cc 68010000 		.4byte	.LFE24-.LFB24
 4617 00d0 00000000 		.4byte	.LFB25
 4618 00d4 84010000 		.4byte	.LFE25-.LFB25
 4619 00d8 00000000 		.4byte	.LFB26
 4620 00dc A4000000 		.4byte	.LFE26-.LFB26
 4621 00e0 00000000 		.4byte	.LFB27
 4622 00e4 9C000000 		.4byte	.LFE27-.LFB27
 4623 00e8 00000000 		.4byte	0
 4624 00ec 00000000 		.4byte	0
 4625              		.section	.debug_ranges,"",%progbits
 4626              	.Ldebug_ranges0:
 4627 0000 00000000 		.4byte	.LFB1
 4628 0004 78000000 		.4byte	.LFE1
 4629 0008 00000000 		.4byte	.LFB2
 4630 000c 78000000 		.4byte	.LFE2
 4631 0010 00000000 		.4byte	.LFB3
 4632 0014 24000000 		.4byte	.LFE3
 4633 0018 00000000 		.4byte	.LFB4
 4634 001c 60010000 		.4byte	.LFE4
 4635 0020 00000000 		.4byte	.LFB5
ARM GAS  C:\Users\CHRIST~1\AppData\Local\Temp\ccGy5PUQ.s 			page 134


 4636 0024 28000000 		.4byte	.LFE5
 4637 0028 00000000 		.4byte	.LFB6
 4638 002c 88000000 		.4byte	.LFE6
 4639 0030 00000000 		.4byte	.LFB7
 4640 0034 8C000000 		.4byte	.LFE7
 4641 0038 00000000 		.4byte	.LFB8
 4642 003c 30000000 		.4byte	.LFE8
 4643 0040 00000000 		.4byte	.LFB9
 4644 0044 64000000 		.4byte	.LFE9
 4645 0048 00000000 		.4byte	.LFB10
 4646 004c 20000000 		.4byte	.LFE10
 4647 0050 00000000 		.4byte	.LFB11
 4648 0054 38000000 		.4byte	.LFE11
 4649 0058 00000000 		.4byte	.LFB12
 4650 005c 80000000 		.4byte	.LFE12
 4651 0060 00000000 		.4byte	.LFB13
 4652 0064 AC000000 		.4byte	.LFE13
 4653 0068 00000000 		.4byte	.LFB14
 4654 006c 28000000 		.4byte	.LFE14
 4655 0070 00000000 		.4byte	.LFB15
 4656 0074 20000000 		.4byte	.LFE15
 4657 0078 00000000 		.4byte	.LFB16
 4658 007c B8000000 		.4byte	.LFE16
 4659 0080 00000000 		.4byte	.LFB17
 4660 0084 40000000 		.4byte	.LFE17
 4661 0088 00000000 		.4byte	.LFB18
 4662 008c 40000000 		.4byte	.LFE18
 4663 0090 00000000 		.4byte	.LFB19
 4664 0094 78000000 		.4byte	.LFE19
 4665 0098 00000000 		.4byte	.LFB20
 4666 009c 92000000 		.4byte	.LFE20
 4667 00a0 00000000 		.4byte	.LFB21
 4668 00a4 7E000000 		.4byte	.LFE21
 4669 00a8 00000000 		.4byte	.LFB22
 4670 00ac 4C000000 		.4byte	.LFE22
 4671 00b0 00000000 		.4byte	.LFB23
 4672 00b4 44000000 		.4byte	.LFE23
 4673 00b8 00000000 		.4byte	.LFB24
 4674 00bc 68010000 		.4byte	.LFE24
 4675 00c0 00000000 		.4byte	.LFB25
 4676 00c4 84010000 		.4byte	.LFE25
 4677 00c8 00000000 		.4byte	.LFB26
 4678 00cc A4000000 		.4byte	.LFE26
 4679 00d0 00000000 		.4byte	.LFB27
 4680 00d4 9C000000 		.4byte	.LFE27
 4681 00d8 00000000 		.4byte	0
 4682 00dc 00000000 		.4byte	0
 4683              		.section	.debug_line,"",%progbits
 4684              	.Ldebug_line0:
 4685 0000 1B040000 		.section	.debug_str,"MS",%progbits,1
 4685      02008900 
 4685      00000201 
 4685      FB0E0D00 
 4685      01010101 
 4686              	.LASF10:
 4687 0000 75696E74 		.ascii	"uint16\000"
 4687      313600
ARM GAS  C:\Users\CHRIST~1\AppData\Local\Temp\ccGy5PUQ.s 			page 135


 4688              	.LASF101:
 4689 0007 72657456 		.ascii	"retVal\000"
 4689      616C00
 4690              	.LASF141:
 4691 000e 4353445F 		.ascii	"CSD_dsRam\000"
 4691      64735261 
 4691      6D00
 4692              	.LASF121:
 4693 0018 72617744 		.ascii	"rawData\000"
 4693      61746100 
 4694              	.LASF86:
 4695 0020 736E7349 		.ascii	"snsIndex\000"
 4695      6E646578 
 4695      00
 4696              	.LASF102:
 4697 0029 4353445F 		.ascii	"CSD_SsCSDConfigClock\000"
 4697      53734353 
 4697      44436F6E 
 4697      66696743 
 4697      6C6F636B 
 4698              	.LASF87:
 4699 003e 4353445F 		.ascii	"CSD_SsCSDClearCSDSensors\000"
 4699      53734353 
 4699      44436C65 
 4699      61724353 
 4699      4453656E 
 4700              	.LASF7:
 4701 0057 6C6F6E67 		.ascii	"long long unsigned int\000"
 4701      206C6F6E 
 4701      6720756E 
 4701      7369676E 
 4701      65642069 
 4702              	.LASF130:
 4703 006e 70747249 		.ascii	"ptrIdac\000"
 4703      64616300 
 4704              	.LASF73:
 4705 0076 70747232 		.ascii	"ptr2SnsFlash\000"
 4705      536E7346 
 4705      6C617368 
 4705      00
 4706              	.LASF42:
 4707 0083 64696666 		.ascii	"diff\000"
 4707      00
 4708              	.LASF111:
 4709 0088 4353445F 		.ascii	"CSD_SsCSDConnectSensorExt\000"
 4709      53734353 
 4709      44436F6E 
 4709      6E656374 
 4709      53656E73 
 4710              	.LASF63:
 4711 00a2 6873696F 		.ascii	"hsiomPtr\000"
 4711      6D507472 
 4711      00
 4712              	.LASF59:
 4713 00ab 736E7254 		.ascii	"snrTestSensorId\000"
 4713      65737453 
 4713      656E736F 
ARM GAS  C:\Users\CHRIST~1\AppData\Local\Temp\ccGy5PUQ.s 			page 136


 4713      72496400 
 4714              	.LASF131:
 4715 00bb 69444143 		.ascii	"iDAC8Max\000"
 4715      384D6178 
 4715      00
 4716              	.LASF117:
 4717 00c4 70696E4D 		.ascii	"pinModeShift\000"
 4717      6F646553 
 4717      68696674 
 4717      00
 4718              	.LASF6:
 4719 00d1 6C6F6E67 		.ascii	"long long int\000"
 4719      206C6F6E 
 4719      6720696E 
 4719      7400
 4720              	.LASF0:
 4721 00df 7369676E 		.ascii	"signed char\000"
 4721      65642063 
 4721      68617200 
 4722              	.LASF112:
 4723 00eb 73656E73 		.ascii	"sensorIndex\000"
 4723      6F72496E 
 4723      64657800 
 4724              	.LASF90:
 4725 00f7 6E657752 		.ascii	"newRegValue\000"
 4725      65675661 
 4725      6C756500 
 4726              	.LASF37:
 4727 0103 62757474 		.ascii	"button0\000"
 4727      6F6E3000 
 4728              	.LASF93:
 4729 010b 696E7465 		.ascii	"interruptState\000"
 4729      72727570 
 4729      74537461 
 4729      746500
 4730              	.LASF53:
 4731 011a 736E7353 		.ascii	"snsStatus\000"
 4731      74617475 
 4731      7300
 4732              	.LASF4:
 4733 0124 6C6F6E67 		.ascii	"long int\000"
 4733      20696E74 
 4733      00
 4734              	.LASF55:
 4735 012d 6D6F6443 		.ascii	"modCsdClk\000"
 4735      7364436C 
 4735      6B00
 4736              	.LASF75:
 4737 0137 70747232 		.ascii	"ptr2SnsRam\000"
 4737      536E7352 
 4737      616D00
 4738              	.LASF66:
 4739 0142 70735074 		.ascii	"psPtr\000"
 4739      7200
 4740              	.LASF9:
 4741 0148 75696E74 		.ascii	"uint8\000"
 4741      3800
ARM GAS  C:\Users\CHRIST~1\AppData\Local\Temp\ccGy5PUQ.s 			page 137


 4742              	.LASF151:
 4743 014e 4353445F 		.ascii	"CSD_SsCSDConfigIDACs\000"
 4743      53734353 
 4743      44436F6E 
 4743      66696749 
 4743      44414373 
 4744              	.LASF44:
 4745 0163 4353445F 		.ascii	"CSD_RAM_SNS_STRUCT\000"
 4745      52414D5F 
 4745      534E535F 
 4745      53545255 
 4745      435400
 4746              	.LASF13:
 4747 0176 646F7562 		.ascii	"double\000"
 4747      6C6500
 4748              	.LASF61:
 4749 017d 736E7254 		.ascii	"snrTestRawCount\000"
 4749      65737452 
 4749      6177436F 
 4749      756E7400 
 4750              	.LASF71:
 4751 018d 73686966 		.ascii	"shift\000"
 4751      7400
 4752              	.LASF109:
 4753 0193 4353445F 		.ascii	"CSD_CSDScanExt\000"
 4753      43534453 
 4753      63616E45 
 4753      787400
 4754              	.LASF70:
 4755 01a2 64725368 		.ascii	"drShift\000"
 4755      69667400 
 4756              	.LASF11:
 4757 01aa 75696E74 		.ascii	"uint32\000"
 4757      333200
 4758              	.LASF17:
 4759 01b1 4353445F 		.ascii	"CSD_THRESHOLD_TYPE\000"
 4759      54485245 
 4759      53484F4C 
 4759      445F5459 
 4759      504500
 4760              	.LASF68:
 4761 01c4 6D61736B 		.ascii	"mask\000"
 4761      00
 4762              	.LASF40:
 4763 01c9 62736C6E 		.ascii	"bslnExt\000"
 4763      45787400 
 4764              	.LASF98:
 4765 01d1 636F6E76 		.ascii	"conversionsNum\000"
 4765      65727369 
 4765      6F6E734E 
 4765      756D00
 4766              	.LASF52:
 4767 01e0 77646774 		.ascii	"wdgtStatus\000"
 4767      53746174 
 4767      757300
 4768              	.LASF83:
 4769 01eb 77646774 		.ascii	"wdgtArray\000"
ARM GAS  C:\Users\CHRIST~1\AppData\Local\Temp\ccGy5PUQ.s 			page 138


 4769      41727261 
 4769      7900
 4770              	.LASF39:
 4771 01f5 62736C6E 		.ascii	"bsln\000"
 4771      00
 4772              	.LASF8:
 4773 01fa 756E7369 		.ascii	"unsigned int\000"
 4773      676E6564 
 4773      20696E74 
 4773      00
 4774              	.LASF100:
 4775 0207 4353445F 		.ascii	"CSD_SsCSDGetColSnsClkDivider\000"
 4775      53734353 
 4775      44476574 
 4775      436F6C53 
 4775      6E73436C 
 4776              	.LASF126:
 4777 0224 4353445F 		.ascii	"CSD_SsCSDSetSingleIdacMode\000"
 4777      53734353 
 4777      44536574 
 4777      53696E67 
 4777      6C654964 
 4778              	.LASF88:
 4779 023f 4353445F 		.ascii	"CSD_SsCSDSetFilterDelay\000"
 4779      53734353 
 4779      44536574 
 4779      46696C74 
 4779      65724465 
 4780              	.LASF58:
 4781 0257 736E7254 		.ascii	"snrTestWidgetId\000"
 4781      65737457 
 4781      69646765 
 4781      74496400 
 4782              	.LASF150:
 4783 0267 433A5C55 		.ascii	"C:\\Users\\Christopher Kuzma\\Downloads\\Cypress Th"
 4783      73657273 
 4783      5C436872 
 4783      6973746F 
 4783      70686572 
 4784 0296 696E675C 		.ascii	"ing\\EnvironmentSensing.cydsn\\EnvironmentSensing.c"
 4784      456E7669 
 4784      726F6E6D 
 4784      656E7453 
 4784      656E7369 
 4785 02c7 7964736E 		.ascii	"ydsn\000"
 4785      00
 4786              	.LASF18:
 4787 02cc 4353445F 		.ascii	"CSD_LOW_BSLN_RST_TYPE\000"
 4787      4C4F575F 
 4787      42534C4E 
 4787      5F525354 
 4787      5F545950 
 4788              	.LASF148:
 4789 02e2 474E5520 		.ascii	"GNU C 4.9.3 20150303 (release) [ARM/embedded-4_9-br"
 4789      4320342E 
 4789      392E3320 
 4789      32303135 
ARM GAS  C:\Users\CHRIST~1\AppData\Local\Temp\ccGy5PUQ.s 			page 139


 4789      30333033 
 4790 0315 616E6368 		.ascii	"anch revision 221220] -mcpu=cortex-m0plus -mthumb -"
 4790      20726576 
 4790      6973696F 
 4790      6E203232 
 4790      31323230 
 4791 0348 67202D4F 		.ascii	"g -O0 -ffunction-sections -ffat-lto-objects\000"
 4791      30202D66 
 4791      66756E63 
 4791      74696F6E 
 4791      2D736563 
 4792              	.LASF20:
 4793 0374 4353445F 		.ascii	"CSD_SENSE_METHOD_CSD_E\000"
 4793      53454E53 
 4793      455F4D45 
 4793      54484F44 
 4793      5F435344 
 4794              	.LASF29:
 4795 038b 6C6F7742 		.ascii	"lowBslnRst\000"
 4795      736C6E52 
 4795      737400
 4796              	.LASF140:
 4797 0396 4353445F 		.ascii	"CSD_eleCsdDisconnectFlag\000"
 4797      656C6543 
 4797      73644469 
 4797      73636F6E 
 4797      6E656374 
 4798              	.LASF96:
 4799 03af 70747257 		.ascii	"ptrWdgt\000"
 4799      64677400 
 4800              	.LASF99:
 4801 03b7 4353445F 		.ascii	"CSD_SsCSDGetNumberOfConversions\000"
 4801      53734353 
 4801      44476574 
 4801      4E756D62 
 4801      65724F66 
 4802              	.LASF3:
 4803 03d7 73686F72 		.ascii	"short unsigned int\000"
 4803      7420756E 
 4803      7369676E 
 4803      65642069 
 4803      6E7400
 4804              	.LASF137:
 4805 03ea 4353445F 		.ascii	"CSD_SsCSDCmodPrecharge\000"
 4805      53734353 
 4805      44436D6F 
 4805      64507265 
 4805      63686172 
 4806              	.LASF119:
 4807 0401 4353445F 		.ascii	"CSD_CSDDisconnectSns\000"
 4807      43534444 
 4807      6973636F 
 4807      6E6E6563 
 4807      74536E73 
 4808              	.LASF57:
 4809 0416 736E734C 		.ascii	"snsList\000"
 4809      69737400 
ARM GAS  C:\Users\CHRIST~1\AppData\Local\Temp\ccGy5PUQ.s 			page 140


 4810              	.LASF85:
 4811 041e 77646774 		.ascii	"wdgtIndex\000"
 4811      496E6465 
 4811      7800
 4812              	.LASF46:
 4813 0428 636F6E66 		.ascii	"configId\000"
 4813      69674964 
 4813      00
 4814              	.LASF134:
 4815 0431 77617463 		.ascii	"watchdogCounter\000"
 4815      68646F67 
 4815      436F756E 
 4815      74657200 
 4816              	.LASF94:
 4817 0441 69646163 		.ascii	"idacARegValue\000"
 4817      41526567 
 4817      56616C75 
 4817      6500
 4818              	.LASF136:
 4819 044f 74617267 		.ascii	"target\000"
 4819      657400
 4820              	.LASF54:
 4821 0456 63736430 		.ascii	"csd0Config\000"
 4821      436F6E66 
 4821      696700
 4822              	.LASF74:
 4823 0461 70747232 		.ascii	"ptr2WdgtRam\000"
 4823      57646774 
 4823      52616D00 
 4824              	.LASF47:
 4825 046d 64657669 		.ascii	"deviceId\000"
 4825      63654964 
 4825      00
 4826              	.LASF105:
 4827 0476 4353445F 		.ascii	"CSD_CSDSetupWidget\000"
 4827      43534453 
 4827      65747570 
 4827      57696467 
 4827      657400
 4828              	.LASF35:
 4829 0489 4353445F 		.ascii	"CSD_RAM_WD_BASE_STRUCT\000"
 4829      52414D5F 
 4829      57445F42 
 4829      4153455F 
 4829      53545255 
 4830              	.LASF16:
 4831 04a0 72656733 		.ascii	"reg32\000"
 4831      3200
 4832              	.LASF147:
 4833 04a6 4353445F 		.ascii	"CSD_curRamSnsPtr\000"
 4833      63757252 
 4833      616D536E 
 4833      73507472 
 4833      00
 4834              	.LASF31:
 4835 04b7 69646163 		.ascii	"idacMod\000"
 4835      4D6F6400 
ARM GAS  C:\Users\CHRIST~1\AppData\Local\Temp\ccGy5PUQ.s 			page 141


 4836              	.LASF22:
 4837 04bf 4353445F 		.ascii	"CSD_SENSE_METHOD_ENUM\000"
 4837      53454E53 
 4837      455F4D45 
 4837      54484F44 
 4837      5F454E55 
 4838              	.LASF81:
 4839 04d5 6E756D43 		.ascii	"numCols\000"
 4839      6F6C7300 
 4840              	.LASF34:
 4841 04dd 73697A65 		.ascii	"sizetype\000"
 4841      74797065 
 4841      00
 4842              	.LASF143:
 4843 04e6 4353445F 		.ascii	"CSD_configCsd\000"
 4843      636F6E66 
 4843      69674373 
 4843      6400
 4844              	.LASF78:
 4845 04f4 73746174 		.ascii	"staticConfig\000"
 4845      6963436F 
 4845      6E666967 
 4845      00
 4846              	.LASF26:
 4847 0501 6E4E6F69 		.ascii	"nNoiseTh\000"
 4847      73655468 
 4847      00
 4848              	.LASF114:
 4849 050a 4353445F 		.ascii	"CSD_CSDConnectSns\000"
 4849      43534443 
 4849      6F6E6E65 
 4849      6374536E 
 4849      7300
 4850              	.LASF97:
 4851 051c 736E7343 		.ascii	"snsClkDivider\000"
 4851      6C6B4469 
 4851      76696465 
 4851      7200
 4852              	.LASF80:
 4853 052a 77646774 		.ascii	"wdgtType\000"
 4853      54797065 
 4853      00
 4854              	.LASF103:
 4855 0533 4353445F 		.ascii	"CSD_SsCSDSetModeSnsClockDivider\000"
 4855      53734353 
 4855      44536574 
 4855      4D6F6465 
 4855      536E7343 
 4856              	.LASF49:
 4857 0553 7363616E 		.ascii	"scanCounter\000"
 4857      436F756E 
 4857      74657200 
 4858              	.LASF123:
 4859 055f 72617743 		.ascii	"rawCountsError\000"
 4859      6F756E74 
 4859      73457272 
 4859      6F7200
ARM GAS  C:\Users\CHRIST~1\AppData\Local\Temp\ccGy5PUQ.s 			page 142


 4860              	.LASF128:
 4861 056e 4353445F 		.ascii	"CSD_SsCSDCalibrateCheck\000"
 4861      53734353 
 4861      4443616C 
 4861      69627261 
 4861      74654368 
 4862              	.LASF95:
 4863 0586 69646163 		.ascii	"idacBRegValue\000"
 4863      42526567 
 4863      56616C75 
 4863      6500
 4864              	.LASF145:
 4865 0594 4353445F 		.ascii	"CSD_widgetIndex\000"
 4865      77696467 
 4865      6574496E 
 4865      64657800 
 4866              	.LASF48:
 4867 05a4 74756E65 		.ascii	"tunerCmd\000"
 4867      72436D64 
 4867      00
 4868              	.LASF12:
 4869 05ad 666C6F61 		.ascii	"float\000"
 4869      7400
 4870              	.LASF62:
 4871 05b3 4353445F 		.ascii	"CSD_RAM_STRUCT\000"
 4871      52414D5F 
 4871      53545255 
 4871      435400
 4872              	.LASF72:
 4873 05c2 4353445F 		.ascii	"CSD_FLASH_IO_STRUCT\000"
 4873      464C4153 
 4873      485F494F 
 4873      5F535452 
 4873      55435400 
 4874              	.LASF146:
 4875 05d6 4353445F 		.ascii	"CSD_sensorIndex\000"
 4875      73656E73 
 4875      6F72496E 
 4875      64657800 
 4876              	.LASF30:
 4877 05e6 62736C6E 		.ascii	"bslnCoeff\000"
 4877      436F6566 
 4877      6600
 4878              	.LASF120:
 4879 05f0 7261774C 		.ascii	"rawLevel\000"
 4879      6576656C 
 4879      00
 4880              	.LASF27:
 4881 05f9 68797374 		.ascii	"hysteresis\000"
 4881      65726573 
 4881      697300
 4882              	.LASF1:
 4883 0604 756E7369 		.ascii	"unsigned char\000"
 4883      676E6564 
 4883      20636861 
 4883      7200
 4884              	.LASF108:
ARM GAS  C:\Users\CHRIST~1\AppData\Local\Temp\ccGy5PUQ.s 			page 143


 4885 0612 4353445F 		.ascii	"CSD_SsCSDStartSample\000"
 4885      53734353 
 4885      44537461 
 4885      72745361 
 4885      6D706C65 
 4886              	.LASF38:
 4887 0627 4353445F 		.ascii	"CSD_RAM_WD_LIST_STRUCT\000"
 4887      52414D5F 
 4887      57445F4C 
 4887      4953545F 
 4887      53545255 
 4888              	.LASF92:
 4889 063e 4353445F 		.ascii	"CSD_SsCSDSetUpIdacs\000"
 4889      53734353 
 4889      44536574 
 4889      55704964 
 4889      61637300 
 4890              	.LASF118:
 4891 0652 70696E48 		.ascii	"pinHSIOMShift\000"
 4891      53494F4D 
 4891      53686966 
 4891      7400
 4892              	.LASF2:
 4893 0660 73686F72 		.ascii	"short int\000"
 4893      7420696E 
 4893      7400
 4894              	.LASF142:
 4895 066a 4353445F 		.ascii	"CSD_dsFlash\000"
 4895      6473466C 
 4895      61736800 
 4896              	.LASF76:
 4897 0676 70747232 		.ascii	"ptr2FltrHistory\000"
 4897      466C7472 
 4897      48697374 
 4897      6F727900 
 4898              	.LASF122:
 4899 0686 63616C69 		.ascii	"calibrateStatus\000"
 4899      62726174 
 4899      65537461 
 4899      74757300 
 4900              	.LASF69:
 4901 0696 6873696F 		.ascii	"hsiomShift\000"
 4901      6D536869 
 4901      667400
 4902              	.LASF19:
 4903 06a1 4353445F 		.ascii	"CSD_UNDEFINED_E\000"
 4903      554E4445 
 4903      46494E45 
 4903      445F4500 
 4904              	.LASF82:
 4905 06b1 4353445F 		.ascii	"CSD_FLASH_WD_STRUCT\000"
 4905      464C4153 
 4905      485F5744 
 4905      5F535452 
 4905      55435400 
 4906              	.LASF125:
 4907 06c5 6D617852 		.ascii	"maxRawLevel\000"
ARM GAS  C:\Users\CHRIST~1\AppData\Local\Temp\ccGy5PUQ.s 			page 144


 4907      61774C65 
 4907      76656C00 
 4908              	.LASF23:
 4909 06d1 7265736F 		.ascii	"resolution\000"
 4909      6C757469 
 4909      6F6E00
 4910              	.LASF129:
 4911 06dc 4353445F 		.ascii	"CSD_SsCSDCalibrateOneSensor\000"
 4911      53734353 
 4911      4443616C 
 4911      69627261 
 4911      74654F6E 
 4912              	.LASF56:
 4913 06f8 77646774 		.ascii	"wdgtList\000"
 4913      4C697374 
 4913      00
 4914              	.LASF45:
 4915 0701 4353445F 		.ascii	"CSD_RAM_SNS_LIST_STRUCT\000"
 4915      52414D5F 
 4915      534E535F 
 4915      4C495354 
 4915      5F535452 
 4916              	.LASF21:
 4917 0719 4353445F 		.ascii	"CSD_SENSE_METHOD_CSX_E\000"
 4917      53454E53 
 4917      455F4D45 
 4917      54484F44 
 4917      5F435358 
 4918              	.LASF5:
 4919 0730 6C6F6E67 		.ascii	"long unsigned int\000"
 4919      20756E73 
 4919      69676E65 
 4919      6420696E 
 4919      7400
 4920              	.LASF89:
 4921 0742 73616D70 		.ascii	"sampleClkFreqHz\000"
 4921      6C65436C 
 4921      6B467265 
 4921      71487A00 
 4922              	.LASF14:
 4923 0752 63686172 		.ascii	"char\000"
 4923      00
 4924              	.LASF135:
 4925 0757 4353445F 		.ascii	"CSD_CSDCalibrateWidget\000"
 4925      43534443 
 4925      616C6962 
 4925      72617465 
 4925      57696467 
 4926              	.LASF65:
 4927 076e 64725074 		.ascii	"drPtr\000"
 4927      7200
 4928              	.LASF32:
 4929 0774 736E7343 		.ascii	"snsClk\000"
 4929      6C6B00
 4930              	.LASF138:
 4931 077b 4353445F 		.ascii	"CSD_SsCSDTriggerScan\000"
 4931      53734353 
ARM GAS  C:\Users\CHRIST~1\AppData\Local\Temp\ccGy5PUQ.s 			page 145


 4931      44547269 
 4931      67676572 
 4931      5363616E 
 4932              	.LASF28:
 4933 0790 6F6E4465 		.ascii	"onDebounce\000"
 4933      626F756E 
 4933      636500
 4934              	.LASF36:
 4935 079b 4353445F 		.ascii	"CSD_RAM_WD_BUTTON_STRUCT\000"
 4935      52414D5F 
 4935      57445F42 
 4935      5554544F 
 4935      4E5F5354 
 4936              	.LASF149:
 4937 07b4 47656E65 		.ascii	"Generated_Source\\PSoC4\\CSD_SensingCSD_LL.c\000"
 4937      72617465 
 4937      645F536F 
 4937      75726365 
 4937      5C50536F 
 4938              	.LASF106:
 4939 07df 4353445F 		.ascii	"CSD_CSDSetupWidgetExt\000"
 4939      43534453 
 4939      65747570 
 4939      57696467 
 4939      65744578 
 4940              	.LASF41:
 4941 07f5 69646163 		.ascii	"idacComp\000"
 4941      436F6D70 
 4941      00
 4942              	.LASF43:
 4943 07fe 6E656742 		.ascii	"negBslnRstCnt\000"
 4943      736C6E52 
 4943      7374436E 
 4943      7400
 4944              	.LASF79:
 4945 080c 746F7461 		.ascii	"totalNumSns\000"
 4945      6C4E756D 
 4945      536E7300 
 4946              	.LASF77:
 4947 0818 70747232 		.ascii	"ptr2DebounceArr\000"
 4947      4465626F 
 4947      756E6365 
 4947      41727200 
 4948              	.LASF91:
 4949 0828 4353445F 		.ascii	"CSD_SsCSDInitialize\000"
 4949      53734353 
 4949      44496E69 
 4949      7469616C 
 4949      697A6500 
 4950              	.LASF113:
 4951 083c 4353445F 		.ascii	"CSD_SsCSDDisconnectSnsExt\000"
 4951      53734353 
 4951      44446973 
 4951      636F6E6E 
 4951      65637453 
 4952              	.LASF50:
 4953 0856 73746174 		.ascii	"status\000"
ARM GAS  C:\Users\CHRIST~1\AppData\Local\Temp\ccGy5PUQ.s 			page 146


 4953      757300
 4954              	.LASF84:
 4955 085d 4353445F 		.ascii	"CSD_FLASH_STRUCT\000"
 4955      464C4153 
 4955      485F5354 
 4955      52554354 
 4955      00
 4956              	.LASF51:
 4957 086e 77646774 		.ascii	"wdgtEnable\000"
 4957      456E6162 
 4957      6C6500
 4958              	.LASF132:
 4959 0879 72617744 		.ascii	"rawData0\000"
 4959      61746130 
 4959      00
 4960              	.LASF127:
 4961 0882 4353445F 		.ascii	"CSD_SsCSDRestoreIdacMode\000"
 4961      53734353 
 4961      44526573 
 4961      746F7265 
 4961      49646163 
 4962              	.LASF116:
 4963 089b 6E657752 		.ascii	"newRegisterValue\000"
 4963      65676973 
 4963      74657256 
 4963      616C7565 
 4963      00
 4964              	.LASF33:
 4965 08ac 736E7343 		.ascii	"snsClkSource\000"
 4965      6C6B536F 
 4965      75726365 
 4965      00
 4966              	.LASF15:
 4967 08b9 63797374 		.ascii	"cystatus\000"
 4967      61747573 
 4967      00
 4968              	.LASF110:
 4969 08c2 4353445F 		.ascii	"CSD_CSDScan\000"
 4969      43534453 
 4969      63616E00 
 4970              	.LASF144:
 4971 08ce 4353445F 		.ascii	"CSD_scanFreqIndex\000"
 4971      7363616E 
 4971      46726571 
 4971      496E6465 
 4971      7800
 4972              	.LASF104:
 4973 08e0 4353445F 		.ascii	"CSD_SsCSDCalculateScanDuration\000"
 4973      53734353 
 4973      4443616C 
 4973      63756C61 
 4973      74655363 
 4974              	.LASF107:
 4975 08ff 4353445F 		.ascii	"CSD_SsCSDElectrodeCheck\000"
 4975      53734353 
 4975      44456C65 
 4975      6374726F 
ARM GAS  C:\Users\CHRIST~1\AppData\Local\Temp\ccGy5PUQ.s 			page 147


 4975      64654368 
 4976              	.LASF115:
 4977 0917 736E7341 		.ascii	"snsAddrPtr\000"
 4977      64647250 
 4977      747200
 4978              	.LASF24:
 4979 0922 66696E67 		.ascii	"fingerTh\000"
 4979      65725468 
 4979      00
 4980              	.LASF124:
 4981 092b 6D696E52 		.ascii	"minRawLevel\000"
 4981      61774C65 
 4981      76656C00 
 4982              	.LASF139:
 4983 0937 4353445F 		.ascii	"CSD_curSnsIOPtr\000"
 4983      63757253 
 4983      6E73494F 
 4983      50747200 
 4984              	.LASF64:
 4985 0947 70635074 		.ascii	"pcPtr\000"
 4985      7200
 4986              	.LASF60:
 4987 094d 736E7254 		.ascii	"snrTestScanCounter\000"
 4987      65737453 
 4987      63616E43 
 4987      6F756E74 
 4987      657200
 4988              	.LASF67:
 4989 0960 6873696F 		.ascii	"hsiomMask\000"
 4989      6D4D6173 
 4989      6B00
 4990              	.LASF133:
 4991 096a 63616C4D 		.ascii	"calMask\000"
 4991      61736B00 
 4992              	.LASF25:
 4993 0972 6E6F6973 		.ascii	"noiseTh\000"
 4993      65546800 
 4994              		.ident	"GCC: (GNU Tools for ARM Embedded Processors) 4.9.3 20150303 (release) [ARM/embedded-4_9-br
