ARM GAS  C:\Users\CHRIST~1\AppData\Local\Temp\ccVM2khi.s 			page 1


   1              		.cpu cortex-m0plus
   2              		.fpu softvfp
   3              		.eabi_attribute 20, 1
   4              		.eabi_attribute 21, 1
   5              		.eabi_attribute 23, 3
   6              		.eabi_attribute 24, 1
   7              		.eabi_attribute 25, 1
   8              		.eabi_attribute 26, 1
   9              		.eabi_attribute 30, 6
  10              		.eabi_attribute 34, 0
  11              		.eabi_attribute 18, 4
  12              		.code	16
  13              		.file	"CSD_Structure.c"
  14              		.text
  15              	.Ltext0:
  16              		.cfi_sections	.debug_frame
  17              		.comm	CSD_dsRam,68,4
  18              		.bss
  19              		.align	2
  20              	CSD_debounceButton0:
  21 0000 0000     		.space	2
  22 0002 0000     		.align	2
  23              	CSD_fltrHistoryButton0:
  24 0004 00000000 		.space	4
  25              		.global	CSD_dsFlash
  26              		.section	.rodata
  27              		.align	2
  28              		.type	CSD_dsFlash, %object
  29              		.size	CSD_dsFlash, 28
  30              	CSD_dsFlash:
  31 0000 00000000 		.word	CSD_ioList
  32 0004 1A000000 		.word	CSD_dsRam+26
  33 0008 28000000 		.word	CSD_dsRam+40
  34 000c 04000000 		.word	CSD_fltrHistoryButton0
  35 0010 00000000 		.word	CSD_debounceButton0
  36 0014 0100     		.short	1
  37 0016 0200     		.short	2
  38 0018 01       		.byte	1
  39 0019 02       		.byte	2
  40 001a 0000     		.space	2
  41              		.global	CSD_ioList
  42              		.align	2
  43              		.type	CSD_ioList, %object
  44              		.size	CSD_ioList, 56
  45              	CSD_ioList:
  46 001c 00010240 		.word	1073873152
  47 0020 08010440 		.word	1074004232
  48 0024 00010440 		.word	1074004224
  49 0028 04010440 		.word	1074004228
  50 002c 0000F000 		.word	15728640
  51 0030 20000000 		.word	32
  52 0034 14       		.byte	20
  53 0035 05       		.byte	5
  54 0036 0F       		.byte	15
  55 0037 00       		.space	1
  56 0038 00010240 		.word	1073873152
  57 003c 08010440 		.word	1074004232
ARM GAS  C:\Users\CHRIST~1\AppData\Local\Temp\ccVM2khi.s 			page 2


  58 0040 00010440 		.word	1074004224
  59 0044 04010440 		.word	1074004228
  60 0048 000000F0 		.word	-268435456
  61 004c 80000000 		.word	128
  62 0050 1C       		.byte	28
  63 0051 07       		.byte	7
  64 0052 15       		.byte	21
  65 0053 00       		.space	1
  66              		.align	2
  67              		.type	CSD_ramWidgetInit, %object
  68              		.size	CSD_ramWidgetInit, 14
  69              	CSD_ramWidgetInit:
  70 0054 1000     		.short	16
  71 0056 6400     		.short	100
  72 0058 28       		.byte	40
  73 0059 28       		.byte	40
  74 005a 0A       		.byte	10
  75 005b 03       		.byte	3
  76 005c 1E       		.byte	30
  77 005d 64       		.byte	100
  78 005e 20       		.byte	32
  79 005f 80       		.byte	-128
  80 0060 00       		.byte	0
  81 0061 00       		.space	1
  82 0062 0000     		.align	2
  83              		.type	CSD_ramIdacInit, %object
  84              		.size	CSD_ramIdacInit, 2
  85              	CSD_ramIdacInit:
  86 0064 20       		.byte	32
  87 0065 20       		.byte	32
  88 0066 0000     		.section	.text.CSD_DsInitialize,"ax",%progbits
  89              		.align	2
  90              		.global	CSD_DsInitialize
  91              		.code	16
  92              		.thumb_func
  93              		.type	CSD_DsInitialize, %function
  94              	CSD_DsInitialize:
  95              	.LFB1:
  96              		.file 1 "Generated_Source\\PSoC4\\CSD_Structure.c"
   1:Generated_Source\PSoC4/CSD_Structure.c **** /***************************************************************************//**
   2:Generated_Source\PSoC4/CSD_Structure.c **** * \file CSD_Structure.c
   3:Generated_Source\PSoC4/CSD_Structure.c **** * \version 3.0
   4:Generated_Source\PSoC4/CSD_Structure.c **** *
   5:Generated_Source\PSoC4/CSD_Structure.c **** * \brief
   6:Generated_Source\PSoC4/CSD_Structure.c **** *   This file defines the data structure global variables and provides implementation
   7:Generated_Source\PSoC4/CSD_Structure.c **** *   for the high-level and low-level APIs of the Data Structure module.
   8:Generated_Source\PSoC4/CSD_Structure.c **** *
   9:Generated_Source\PSoC4/CSD_Structure.c **** * \see CapSense P4 v3.0 Datasheet
  10:Generated_Source\PSoC4/CSD_Structure.c **** *
  11:Generated_Source\PSoC4/CSD_Structure.c **** *//*****************************************************************************
  12:Generated_Source\PSoC4/CSD_Structure.c **** * Copyright (2016), Cypress Semiconductor Corporation.
  13:Generated_Source\PSoC4/CSD_Structure.c **** ********************************************************************************
  14:Generated_Source\PSoC4/CSD_Structure.c **** * This software is owned by Cypress Semiconductor Corporation (Cypress) and is
  15:Generated_Source\PSoC4/CSD_Structure.c **** * protected by and subject to worldwide patent protection (United States and
  16:Generated_Source\PSoC4/CSD_Structure.c **** * foreign), United States copyright laws and international treaty provisions.
  17:Generated_Source\PSoC4/CSD_Structure.c **** * Cypress hereby grants to licensee a personal, non-exclusive, non-transferable
  18:Generated_Source\PSoC4/CSD_Structure.c **** * license to copy, use, modify, create derivative works of, and compile the
ARM GAS  C:\Users\CHRIST~1\AppData\Local\Temp\ccVM2khi.s 			page 3


  19:Generated_Source\PSoC4/CSD_Structure.c **** * Cypress Source Code and derivative works for the sole purpose of creating
  20:Generated_Source\PSoC4/CSD_Structure.c **** * custom software in support of licensee product to be used only in conjunction
  21:Generated_Source\PSoC4/CSD_Structure.c **** * with a Cypress integrated circuit as specified in the applicable agreement.
  22:Generated_Source\PSoC4/CSD_Structure.c **** * Any reproduction, modification, translation, compilation, or representation of
  23:Generated_Source\PSoC4/CSD_Structure.c **** * this software except as specified above is prohibited without the express
  24:Generated_Source\PSoC4/CSD_Structure.c **** * written permission of Cypress.
  25:Generated_Source\PSoC4/CSD_Structure.c **** *
  26:Generated_Source\PSoC4/CSD_Structure.c **** * Disclaimer: CYPRESS MAKES NO WARRANTY OF ANY KIND, EXPRESS OR IMPLIED, WITH
  27:Generated_Source\PSoC4/CSD_Structure.c **** * REGARD TO THIS MATERIAL, INCLUDING, BUT NOT LIMITED TO, THE IMPLIED
  28:Generated_Source\PSoC4/CSD_Structure.c **** * WARRANTIES OF MERCHANTABILITY AND FITNESS FOR A PARTICULAR PURPOSE.
  29:Generated_Source\PSoC4/CSD_Structure.c **** * Cypress reserves the right to make changes without further notice to the
  30:Generated_Source\PSoC4/CSD_Structure.c **** * materials described herein. Cypress does not assume any liability arising out
  31:Generated_Source\PSoC4/CSD_Structure.c **** * of the application or use of any product or circuit described herein. Cypress
  32:Generated_Source\PSoC4/CSD_Structure.c **** * does not authorize its products for use as critical components in life-support
  33:Generated_Source\PSoC4/CSD_Structure.c **** * systems where a malfunction or failure may reasonably be expected to result in
  34:Generated_Source\PSoC4/CSD_Structure.c **** * significant injury to the user. The inclusion of Cypress' product in a life-
  35:Generated_Source\PSoC4/CSD_Structure.c **** * support systems application implies that the manufacturer assumes all risk of
  36:Generated_Source\PSoC4/CSD_Structure.c **** * such use and in doing so indemnifies Cypress against all charges. Use may be
  37:Generated_Source\PSoC4/CSD_Structure.c **** * limited by and subject to the applicable Cypress software license agreement.
  38:Generated_Source\PSoC4/CSD_Structure.c **** *******************************************************************************/
  39:Generated_Source\PSoC4/CSD_Structure.c **** 
  40:Generated_Source\PSoC4/CSD_Structure.c **** #include <cytypes.h>
  41:Generated_Source\PSoC4/CSD_Structure.c **** #include "CyLib.h"
  42:Generated_Source\PSoC4/CSD_Structure.c **** #include "CSD_Structure.h"
  43:Generated_Source\PSoC4/CSD_Structure.c **** 
  44:Generated_Source\PSoC4/CSD_Structure.c **** #if (0u != CSD_ADC_EN)
  45:Generated_Source\PSoC4/CSD_Structure.c ****     #include "CSD_Adc.h"
  46:Generated_Source\PSoC4/CSD_Structure.c **** #endif /* (0u != CSD_ADC_EN) */
  47:Generated_Source\PSoC4/CSD_Structure.c **** 
  48:Generated_Source\PSoC4/CSD_Structure.c **** /*******************************************************************************
  49:Generated_Source\PSoC4/CSD_Structure.c **** * Define the RAM Data Structure variables and their init data in flash
  50:Generated_Source\PSoC4/CSD_Structure.c **** *******************************************************************************/
  51:Generated_Source\PSoC4/CSD_Structure.c **** /**
  52:Generated_Source\PSoC4/CSD_Structure.c **** * \if SECTION_GLOBAL_VARIABLES
  53:Generated_Source\PSoC4/CSD_Structure.c **** * \addtogroup group_global_variables
  54:Generated_Source\PSoC4/CSD_Structure.c **** * \{
  55:Generated_Source\PSoC4/CSD_Structure.c **** */
  56:Generated_Source\PSoC4/CSD_Structure.c **** 
  57:Generated_Source\PSoC4/CSD_Structure.c **** /**
  58:Generated_Source\PSoC4/CSD_Structure.c **** * Variable that contains CSD configuration, settings and scanning results.
  59:Generated_Source\PSoC4/CSD_Structure.c **** * CSD_dsRam represents RAM Data Structure.
  60:Generated_Source\PSoC4/CSD_Structure.c **** */
  61:Generated_Source\PSoC4/CSD_Structure.c **** CSD_RAM_STRUCT CSD_dsRam;
  62:Generated_Source\PSoC4/CSD_Structure.c **** /** \}
  63:Generated_Source\PSoC4/CSD_Structure.c **** * \endif */
  64:Generated_Source\PSoC4/CSD_Structure.c **** 
  65:Generated_Source\PSoC4/CSD_Structure.c **** /*******************************************************************************
  66:Generated_Source\PSoC4/CSD_Structure.c **** * Declare Widget's De-bounce Counters
  67:Generated_Source\PSoC4/CSD_Structure.c **** *******************************************************************************/
  68:Generated_Source\PSoC4/CSD_Structure.c **** static uint8 CSD_debounceButton0[CSD_BUTTON0_NUM_SENSORS];
  69:Generated_Source\PSoC4/CSD_Structure.c **** 
  70:Generated_Source\PSoC4/CSD_Structure.c **** 
  71:Generated_Source\PSoC4/CSD_Structure.c **** /***************************************************************************//**
  72:Generated_Source\PSoC4/CSD_Structure.c **** * Declare Filter History Objects
  73:Generated_Source\PSoC4/CSD_Structure.c **** *******************************************************************************/
  74:Generated_Source\PSoC4/CSD_Structure.c **** static CSD_REGULAR_FLTR_STRUCT CSD_fltrHistoryButton0[CSD_BUTTON0_NUM_SENSORS];
  75:Generated_Source\PSoC4/CSD_Structure.c **** 
ARM GAS  C:\Users\CHRIST~1\AppData\Local\Temp\ccVM2khi.s 			page 4


  76:Generated_Source\PSoC4/CSD_Structure.c **** /*******************************************************************************
  77:Generated_Source\PSoC4/CSD_Structure.c **** * Define and initialize the Flash Data Structure
  78:Generated_Source\PSoC4/CSD_Structure.c **** *******************************************************************************/
  79:Generated_Source\PSoC4/CSD_Structure.c **** 
  80:Generated_Source\PSoC4/CSD_Structure.c **** /**
  81:Generated_Source\PSoC4/CSD_Structure.c **** * \if SECTION_API_CONSTANTS
  82:Generated_Source\PSoC4/CSD_Structure.c **** * \addtogroup group_api_constants
  83:Generated_Source\PSoC4/CSD_Structure.c **** * \{
  84:Generated_Source\PSoC4/CSD_Structure.c **** */
  85:Generated_Source\PSoC4/CSD_Structure.c **** 
  86:Generated_Source\PSoC4/CSD_Structure.c **** /**
  87:Generated_Source\PSoC4/CSD_Structure.c **** * Constant for the FLASH Data Structure
  88:Generated_Source\PSoC4/CSD_Structure.c **** */
  89:Generated_Source\PSoC4/CSD_Structure.c **** const CSD_FLASH_STRUCT CSD_dsFlash =
  90:Generated_Source\PSoC4/CSD_Structure.c **** {
  91:Generated_Source\PSoC4/CSD_Structure.c ****     /* Flash Widget Initialization Data */
  92:Generated_Source\PSoC4/CSD_Structure.c ****     {
  93:Generated_Source\PSoC4/CSD_Structure.c ****         { /* Button0 */
  94:Generated_Source\PSoC4/CSD_Structure.c ****             &CSD_ioList[0u],
  95:Generated_Source\PSoC4/CSD_Structure.c ****             (void *)&CSD_dsRam.wdgtList.button0,
  96:Generated_Source\PSoC4/CSD_Structure.c ****             CSD_dsRam.snsList.button0,
  97:Generated_Source\PSoC4/CSD_Structure.c ****             (void *)CSD_fltrHistoryButton0,
  98:Generated_Source\PSoC4/CSD_Structure.c ****             CSD_debounceButton0,
  99:Generated_Source\PSoC4/CSD_Structure.c ****             CSD_BUTTON0_STATIC_CONFIG,
 100:Generated_Source\PSoC4/CSD_Structure.c ****             CSD_BUTTON0_NUM_SENSORS,
 101:Generated_Source\PSoC4/CSD_Structure.c ****             (uint8)CSD_WD_BUTTON_E,
 102:Generated_Source\PSoC4/CSD_Structure.c ****             CSD_BUTTON0_NUM_SENSORS,
 103:Generated_Source\PSoC4/CSD_Structure.c ****         },
 104:Generated_Source\PSoC4/CSD_Structure.c ****     },
 105:Generated_Source\PSoC4/CSD_Structure.c **** };
 106:Generated_Source\PSoC4/CSD_Structure.c **** 
 107:Generated_Source\PSoC4/CSD_Structure.c **** 
 108:Generated_Source\PSoC4/CSD_Structure.c **** /**
 109:Generated_Source\PSoC4/CSD_Structure.c **** * Array of pointers to the electrode specific register
 110:Generated_Source\PSoC4/CSD_Structure.c **** */
 111:Generated_Source\PSoC4/CSD_Structure.c **** const CSD_FLASH_IO_STRUCT CSD_ioList[CSD_TOTAL_ELECTRODES] =
 112:Generated_Source\PSoC4/CSD_Structure.c **** {
 113:Generated_Source\PSoC4/CSD_Structure.c ****     { /* 0: Button0_Sns0 */
 114:Generated_Source\PSoC4/CSD_Structure.c ****         (reg32 *)CSD_Sns__0__HSIOM,
 115:Generated_Source\PSoC4/CSD_Structure.c ****         (reg32 *)CSD_Sns__0__PC,
 116:Generated_Source\PSoC4/CSD_Structure.c ****         (reg32 *)CSD_Sns__0__DR,
 117:Generated_Source\PSoC4/CSD_Structure.c ****         (reg32 *)CSD_Sns__0__PS,
 118:Generated_Source\PSoC4/CSD_Structure.c ****         CSD_Sns__0__HSIOM_MASK,
 119:Generated_Source\PSoC4/CSD_Structure.c ****         CSD_Sns__0__MASK,
 120:Generated_Source\PSoC4/CSD_Structure.c ****         CSD_Sns__0__HSIOM_SHIFT,
 121:Generated_Source\PSoC4/CSD_Structure.c ****         (uint8)CSD_Sns__0__SHIFT,
 122:Generated_Source\PSoC4/CSD_Structure.c ****         (uint8)CSD_Sns__0__SHIFT * 3u,
 123:Generated_Source\PSoC4/CSD_Structure.c ****     },
 124:Generated_Source\PSoC4/CSD_Structure.c ****     { /* 1: Button0_Sns1 */
 125:Generated_Source\PSoC4/CSD_Structure.c ****         (reg32 *)CSD_Sns__1__HSIOM,
 126:Generated_Source\PSoC4/CSD_Structure.c ****         (reg32 *)CSD_Sns__1__PC,
 127:Generated_Source\PSoC4/CSD_Structure.c ****         (reg32 *)CSD_Sns__1__DR,
 128:Generated_Source\PSoC4/CSD_Structure.c ****         (reg32 *)CSD_Sns__1__PS,
 129:Generated_Source\PSoC4/CSD_Structure.c ****         CSD_Sns__1__HSIOM_MASK,
 130:Generated_Source\PSoC4/CSD_Structure.c ****         CSD_Sns__1__MASK,
 131:Generated_Source\PSoC4/CSD_Structure.c ****         CSD_Sns__1__HSIOM_SHIFT,
 132:Generated_Source\PSoC4/CSD_Structure.c ****         (uint8)CSD_Sns__1__SHIFT,
ARM GAS  C:\Users\CHRIST~1\AppData\Local\Temp\ccVM2khi.s 			page 5


 133:Generated_Source\PSoC4/CSD_Structure.c ****         (uint8)CSD_Sns__1__SHIFT * 3u,
 134:Generated_Source\PSoC4/CSD_Structure.c ****     },
 135:Generated_Source\PSoC4/CSD_Structure.c **** };
 136:Generated_Source\PSoC4/CSD_Structure.c **** 
 137:Generated_Source\PSoC4/CSD_Structure.c **** 
 138:Generated_Source\PSoC4/CSD_Structure.c **** 
 139:Generated_Source\PSoC4/CSD_Structure.c **** /** \}
 140:Generated_Source\PSoC4/CSD_Structure.c **** * \endif */
 141:Generated_Source\PSoC4/CSD_Structure.c **** 
 142:Generated_Source\PSoC4/CSD_Structure.c **** /* Initialization data for RAM widget list */
 143:Generated_Source\PSoC4/CSD_Structure.c **** static const CSD_RAM_WD_LIST_STRUCT CSD_ramWidgetInit =
 144:Generated_Source\PSoC4/CSD_Structure.c **** {
 145:Generated_Source\PSoC4/CSD_Structure.c ****     { /* Button0 */
 146:Generated_Source\PSoC4/CSD_Structure.c ****         CSD_BUTTON0_RESOLUTION,
 147:Generated_Source\PSoC4/CSD_Structure.c ****         CSD_BUTTON0_FINGER_TH,
 148:Generated_Source\PSoC4/CSD_Structure.c ****         CSD_BUTTON0_NOISE_TH,
 149:Generated_Source\PSoC4/CSD_Structure.c ****         CSD_BUTTON0_NNOISE_TH,
 150:Generated_Source\PSoC4/CSD_Structure.c ****         CSD_BUTTON0_HYSTERESIS,
 151:Generated_Source\PSoC4/CSD_Structure.c ****         CSD_BUTTON0_ON_DEBOUNCE,
 152:Generated_Source\PSoC4/CSD_Structure.c ****         CSD_BUTTON0_LOW_BSLN_RST,
 153:Generated_Source\PSoC4/CSD_Structure.c ****         CSD_BUTTON0_BSLN_COEFF,
 154:Generated_Source\PSoC4/CSD_Structure.c ****         {
 155:Generated_Source\PSoC4/CSD_Structure.c ****             CSD_BUTTON0_IDAC_MOD0,
 156:Generated_Source\PSoC4/CSD_Structure.c ****         },
 157:Generated_Source\PSoC4/CSD_Structure.c ****         CSD_BUTTON0_SNS_CLK,
 158:Generated_Source\PSoC4/CSD_Structure.c ****         CSD_BUTTON0_SNS_CLK_SOURCE,
 159:Generated_Source\PSoC4/CSD_Structure.c ****     },
 160:Generated_Source\PSoC4/CSD_Structure.c **** };
 161:Generated_Source\PSoC4/CSD_Structure.c **** 
 162:Generated_Source\PSoC4/CSD_Structure.c **** 
 163:Generated_Source\PSoC4/CSD_Structure.c **** /* IDAC Initialization Data */
 164:Generated_Source\PSoC4/CSD_Structure.c **** static const uint8 CSD_ramIdacInit[CSD_TOTAL_SENSORS] =
 165:Generated_Source\PSoC4/CSD_Structure.c **** {
 166:Generated_Source\PSoC4/CSD_Structure.c ****     /* Button0 */
 167:Generated_Source\PSoC4/CSD_Structure.c ****     CSD_BUTTON0_SNS0_IDAC_COMP0,
 168:Generated_Source\PSoC4/CSD_Structure.c ****     CSD_BUTTON0_SNS1_IDAC_COMP0,
 169:Generated_Source\PSoC4/CSD_Structure.c **** };
 170:Generated_Source\PSoC4/CSD_Structure.c **** 
 171:Generated_Source\PSoC4/CSD_Structure.c **** 
 172:Generated_Source\PSoC4/CSD_Structure.c **** /*******************************************************************************
 173:Generated_Source\PSoC4/CSD_Structure.c **** * Define internal data types and statements
 174:Generated_Source\PSoC4/CSD_Structure.c **** *******************************************************************************/
 175:Generated_Source\PSoC4/CSD_Structure.c **** #define PARAM_TYPE_OFFSET       (30u)
 176:Generated_Source\PSoC4/CSD_Structure.c **** #define PARAM_TYPE_MASK         (3Lu << PARAM_TYPE_OFFSET)
 177:Generated_Source\PSoC4/CSD_Structure.c **** #define PARAM_RWBIT_OFFSET      (29u)
 178:Generated_Source\PSoC4/CSD_Structure.c **** #define PARAM_RWBIT_MASK        (1Lu << PARAM_RWBIT_OFFSET)
 179:Generated_Source\PSoC4/CSD_Structure.c **** #define PARAM_FBIT_OFFSET       (28u)
 180:Generated_Source\PSoC4/CSD_Structure.c **** #define PARAM_FBIT_MASK         (1Lu << PARAM_FBIT_OFFSET)
 181:Generated_Source\PSoC4/CSD_Structure.c **** #define PARAM_UBIT_OFFSET       (23u)
 182:Generated_Source\PSoC4/CSD_Structure.c **** #define PARAM_UBIT_MASK         (1Lu << PARAM_UBIT_OFFSET)
 183:Generated_Source\PSoC4/CSD_Structure.c **** #define PARAM_WDID_OFFSET       (16u)
 184:Generated_Source\PSoC4/CSD_Structure.c **** #define PARAM_WDID_MASK         (0x7FLu << PARAM_WDID_OFFSET)
 185:Generated_Source\PSoC4/CSD_Structure.c **** #define PARAM_CRC_OFFSET        (24u)
 186:Generated_Source\PSoC4/CSD_Structure.c **** #define PARAM_CRC_MASK          (0x0FLu << PARAM_CRC_OFFSET)
 187:Generated_Source\PSoC4/CSD_Structure.c **** 
 188:Generated_Source\PSoC4/CSD_Structure.c **** /* Define align masks for uint16 and uint32 */
 189:Generated_Source\PSoC4/CSD_Structure.c **** #define UINT16_ALIGN_MASK       (1Lu)
ARM GAS  C:\Users\CHRIST~1\AppData\Local\Temp\ccVM2khi.s 			page 6


 190:Generated_Source\PSoC4/CSD_Structure.c **** #define UINT32_ALIGN_MASK       (3Lu)
 191:Generated_Source\PSoC4/CSD_Structure.c **** 
 192:Generated_Source\PSoC4/CSD_Structure.c **** /* Define supported parameter types */
 193:Generated_Source\PSoC4/CSD_Structure.c **** #define DS_PARAM_TYPE_UINT8     (0x01u)
 194:Generated_Source\PSoC4/CSD_Structure.c **** #define DS_PARAM_TYPE_UINT16    (0x02u)
 195:Generated_Source\PSoC4/CSD_Structure.c **** #define DS_PARAM_TYPE_UINT32    (0x03u)
 196:Generated_Source\PSoC4/CSD_Structure.c **** 
 197:Generated_Source\PSoC4/CSD_Structure.c **** 
 198:Generated_Source\PSoC4/CSD_Structure.c **** /* Define PARAM_ID structure */
 199:Generated_Source\PSoC4/CSD_Structure.c **** typedef struct
 200:Generated_Source\PSoC4/CSD_Structure.c **** {
 201:Generated_Source\PSoC4/CSD_Structure.c ****     uint16 offset;      /* parameter offset                     */
 202:Generated_Source\PSoC4/CSD_Structure.c ****     uint8  widgetId;    /* widget Id parameter belongs to       */
 203:Generated_Source\PSoC4/CSD_Structure.c ****     uint8  affectsCrc;  /* parameter affects widget CRC         */
 204:Generated_Source\PSoC4/CSD_Structure.c ****     uint8  crc;         /* parameter CRC                        */
 205:Generated_Source\PSoC4/CSD_Structure.c ****     uint8  flash;       /* parameter located in FLASH flag      */
 206:Generated_Source\PSoC4/CSD_Structure.c ****     uint8  rw;          /* parameter is read/write flag         */
 207:Generated_Source\PSoC4/CSD_Structure.c ****     uint8  type;        /* parameter type: uint8/uint16/uint32  */
 208:Generated_Source\PSoC4/CSD_Structure.c **** } PARAM_ID_STRUCT;
 209:Generated_Source\PSoC4/CSD_Structure.c **** 
 210:Generated_Source\PSoC4/CSD_Structure.c **** 
 211:Generated_Source\PSoC4/CSD_Structure.c **** /*******************************************************************************
 212:Generated_Source\PSoC4/CSD_Structure.c **** * Static Function Prototypes
 213:Generated_Source\PSoC4/CSD_Structure.c **** *******************************************************************************/
 214:Generated_Source\PSoC4/CSD_Structure.c **** /**
 215:Generated_Source\PSoC4/CSD_Structure.c **** * \if SECTION_CAPSENSE_INTERNAL
 216:Generated_Source\PSoC4/CSD_Structure.c **** * \addtogroup group_capsense_internal
 217:Generated_Source\PSoC4/CSD_Structure.c **** * \{
 218:Generated_Source\PSoC4/CSD_Structure.c **** */
 219:Generated_Source\PSoC4/CSD_Structure.c **** 
 220:Generated_Source\PSoC4/CSD_Structure.c **** static cystatus DsParseParamId(uint32 paramId, PARAM_ID_STRUCT *pData);
 221:Generated_Source\PSoC4/CSD_Structure.c **** 
 222:Generated_Source\PSoC4/CSD_Structure.c **** /** \}
 223:Generated_Source\PSoC4/CSD_Structure.c **** * \endif */
 224:Generated_Source\PSoC4/CSD_Structure.c **** 
 225:Generated_Source\PSoC4/CSD_Structure.c **** 
 226:Generated_Source\PSoC4/CSD_Structure.c **** /*******************************************************************************
 227:Generated_Source\PSoC4/CSD_Structure.c **** * Function Name: CSD_DsInitialize
 228:Generated_Source\PSoC4/CSD_Structure.c **** ****************************************************************************//**
 229:Generated_Source\PSoC4/CSD_Structure.c **** *
 230:Generated_Source\PSoC4/CSD_Structure.c **** * \brief
 231:Generated_Source\PSoC4/CSD_Structure.c **** *   This function initializes the Data Structure storage.
 232:Generated_Source\PSoC4/CSD_Structure.c **** *
 233:Generated_Source\PSoC4/CSD_Structure.c **** * \details
 234:Generated_Source\PSoC4/CSD_Structure.c **** *   This function copies the default widget configuration parameters 
 235:Generated_Source\PSoC4/CSD_Structure.c **** *   from the Flash storage into the RAM Data Structure.
 236:Generated_Source\PSoC4/CSD_Structure.c **** *
 237:Generated_Source\PSoC4/CSD_Structure.c **** *******************************************************************************/
 238:Generated_Source\PSoC4/CSD_Structure.c **** void CSD_DsInitialize(void)
 239:Generated_Source\PSoC4/CSD_Structure.c **** {
  97              		.loc 1 239 0
  98              		.cfi_startproc
  99 0000 80B5     		push	{r7, lr}
 100              		.cfi_def_cfa_offset 8
 101              		.cfi_offset 7, -8
 102              		.cfi_offset 14, -4
 103 0002 86B0     		sub	sp, sp, #24
ARM GAS  C:\Users\CHRIST~1\AppData\Local\Temp\ccVM2khi.s 			page 7


 104              		.cfi_def_cfa_offset 32
 105 0004 00AF     		add	r7, sp, #0
 106              		.cfi_def_cfa_register 7
 240:Generated_Source\PSoC4/CSD_Structure.c ****     #if (0u != CSD_CSX_EN) || (0 != CSD_CSD_IDAC_COMP_EN)
 241:Generated_Source\PSoC4/CSD_Structure.c ****         uint32 snsId;
 242:Generated_Source\PSoC4/CSD_Structure.c ****         uint32 wdgtId;
 243:Generated_Source\PSoC4/CSD_Structure.c ****     
 244:Generated_Source\PSoC4/CSD_Structure.c ****         CSD_RAM_SNS_STRUCT * ptrSns;
 245:Generated_Source\PSoC4/CSD_Structure.c ****         CSD_FLASH_WD_STRUCT const * ptrFlashWdgt;
 246:Generated_Source\PSoC4/CSD_Structure.c ****         uint8 const * ptrIdacInit = CSD_ramIdacInit;
 107              		.loc 1 246 0
 108 0006 214B     		ldr	r3, .L6
 109 0008 7B60     		str	r3, [r7, #4]
 247:Generated_Source\PSoC4/CSD_Structure.c ****     #endif        
 248:Generated_Source\PSoC4/CSD_Structure.c ****     
 249:Generated_Source\PSoC4/CSD_Structure.c ****     /* Reset RAM data structure content */
 250:Generated_Source\PSoC4/CSD_Structure.c ****     (void)memset(&CSD_dsRam, 0, sizeof(CSD_dsRam));
 110              		.loc 1 250 0
 111 000a 214B     		ldr	r3, .L6+4
 112 000c 181C     		mov	r0, r3
 113 000e 0021     		mov	r1, #0
 114 0010 4422     		mov	r2, #68
 115 0012 FFF7FEFF 		bl	memset
 251:Generated_Source\PSoC4/CSD_Structure.c ****     
 252:Generated_Source\PSoC4/CSD_Structure.c ****     /* Initialize configId and deviceId registers */
 253:Generated_Source\PSoC4/CSD_Structure.c ****     CSD_dsRam.configId = CSD_CONFIG_ID;
 116              		.loc 1 253 0
 117 0016 1E4B     		ldr	r3, .L6+4
 118 0018 1E4A     		ldr	r2, .L6+8
 119 001a 1A80     		strh	r2, [r3]
 254:Generated_Source\PSoC4/CSD_Structure.c ****     CSD_dsRam.deviceId = CSD_DEVICE_ID;
 120              		.loc 1 254 0
 121 001c 1C4B     		ldr	r3, .L6+4
 122 001e E022     		mov	r2, #224
 123 0020 5200     		lsl	r2, r2, #1
 124 0022 5A80     		strh	r2, [r3, #2]
 255:Generated_Source\PSoC4/CSD_Structure.c ****     
 256:Generated_Source\PSoC4/CSD_Structure.c ****     /* Initialize global RAM data */
 257:Generated_Source\PSoC4/CSD_Structure.c ****     CSD_dsRam.csd0Config = CSD_CSD0_CONFIG;
 125              		.loc 1 257 0
 126 0024 1A4B     		ldr	r3, .L6+4
 127 0026 0822     		mov	r2, #8
 128 0028 DA82     		strh	r2, [r3, #22]
 258:Generated_Source\PSoC4/CSD_Structure.c **** 
 259:Generated_Source\PSoC4/CSD_Structure.c ****     #if ((0u != CSD_CSD2X_EN) || (0u != CSD_CSX2X_EN))
 260:Generated_Source\PSoC4/CSD_Structure.c ****         CSD_dsRam.csd1Config = CSD_CSD1_CONFIG;
 261:Generated_Source\PSoC4/CSD_Structure.c ****     #endif /* #if ((0u != CSD_CSD2X_EN) || (0u != CSD_CSX2X_EN)) */
 262:Generated_Source\PSoC4/CSD_Structure.c ****     
 263:Generated_Source\PSoC4/CSD_Structure.c ****     #if (0u != CSD_CSD_EN)
 264:Generated_Source\PSoC4/CSD_Structure.c ****         CSD_dsRam.modCsdClk = CSD_CSD_SCANSPEED_DIVIDER;
 129              		.loc 1 264 0
 130 002a 194B     		ldr	r3, .L6+4
 131 002c 0222     		mov	r2, #2
 132 002e 1A76     		strb	r2, [r3, #24]
 265:Generated_Source\PSoC4/CSD_Structure.c ****         
 266:Generated_Source\PSoC4/CSD_Structure.c ****         #if (0u != CSD_CSD_COMMON_SNS_CLK_EN)
 267:Generated_Source\PSoC4/CSD_Structure.c ****             CSD_dsRam.snsCsdClk = CSD_CSD_SNS_CLK_DIVIDER;
ARM GAS  C:\Users\CHRIST~1\AppData\Local\Temp\ccVM2khi.s 			page 8


 268:Generated_Source\PSoC4/CSD_Structure.c ****         #endif /* #if (0u != CSD_CSD_COMMON_SNS_CLK_EN) */
 269:Generated_Source\PSoC4/CSD_Structure.c ****     #endif /* #if (0u != CSD_CSD_EN) */
 270:Generated_Source\PSoC4/CSD_Structure.c ****     
 271:Generated_Source\PSoC4/CSD_Structure.c ****     #if (0u != CSD_CSX_EN)
 272:Generated_Source\PSoC4/CSD_Structure.c ****         CSD_dsRam.modCsxClk = CSD_CSX_SCANSPEED_DIVIDER;
 273:Generated_Source\PSoC4/CSD_Structure.c ****         
 274:Generated_Source\PSoC4/CSD_Structure.c ****         #if (0u != CSD_CSX_COMMON_TX_CLK_EN)
 275:Generated_Source\PSoC4/CSD_Structure.c ****             CSD_dsRam.snsCsxClk = CSD_CSX_TX_CLK_DIVIDER;
 276:Generated_Source\PSoC4/CSD_Structure.c ****         #endif /* #if (0u != CSD_CSX_COMMON_TX_CLK_EN) */
 277:Generated_Source\PSoC4/CSD_Structure.c ****     #endif /* #if (0u != CSD_CSX_EN) */
 278:Generated_Source\PSoC4/CSD_Structure.c ****     
 279:Generated_Source\PSoC4/CSD_Structure.c ****     #if (0u != CSD_SELF_TEST_EN)
 280:Generated_Source\PSoC4/CSD_Structure.c ****         CSD_dsRam.glbCrc = CSD_GLB_CRC;
 281:Generated_Source\PSoC4/CSD_Structure.c ****     #endif /* #if (0u != CSD_SELF_TEST_EN) */
 282:Generated_Source\PSoC4/CSD_Structure.c ****    
 283:Generated_Source\PSoC4/CSD_Structure.c ****     /* Initialize RAM widget data */
 284:Generated_Source\PSoC4/CSD_Structure.c ****     CSD_dsRam.wdgtList = CSD_ramWidgetInit;
 133              		.loc 1 284 0
 134 0030 174B     		ldr	r3, .L6+4
 135 0032 1A22     		mov	r2, #26
 136 0034 1849     		ldr	r1, .L6+12
 137 0036 9B18     		add	r3, r3, r2
 138 0038 0E22     		mov	r2, #14
 139 003a 181C     		mov	r0, r3
 140 003c FFF7FEFF 		bl	memcpy
 285:Generated_Source\PSoC4/CSD_Structure.c ****     
 286:Generated_Source\PSoC4/CSD_Structure.c ****     #if (0u != CSD_CSX_EN) || (0 != CSD_CSD_IDAC_COMP_EN)
 287:Generated_Source\PSoC4/CSD_Structure.c ****         /* Initialize IDAC data */
 288:Generated_Source\PSoC4/CSD_Structure.c ****         ptrFlashWdgt = CSD_dsFlash.wdgtArray;
 141              		.loc 1 288 0
 142 0040 164B     		ldr	r3, .L6+16
 143 0042 BB60     		str	r3, [r7, #8]
 289:Generated_Source\PSoC4/CSD_Structure.c ****         
 290:Generated_Source\PSoC4/CSD_Structure.c ****         for (wdgtId = CSD_TOTAL_WIDGETS; wdgtId-- > 0u; )
 144              		.loc 1 290 0
 145 0044 0123     		mov	r3, #1
 146 0046 3B61     		str	r3, [r7, #16]
 147 0048 18E0     		b	.L2
 148              	.L5:
 291:Generated_Source\PSoC4/CSD_Structure.c ****         {
 292:Generated_Source\PSoC4/CSD_Structure.c ****             ptrSns = ptrFlashWdgt->ptr2SnsRam;
 149              		.loc 1 292 0
 150 004a BB68     		ldr	r3, [r7, #8]
 151 004c 9B68     		ldr	r3, [r3, #8]
 152 004e FB60     		str	r3, [r7, #12]
 293:Generated_Source\PSoC4/CSD_Structure.c ****                 
 294:Generated_Source\PSoC4/CSD_Structure.c ****             for (snsId = CSD_GET_SNS_CNT_BY_PTR(ptrFlashWdgt); snsId-- > 0u;)
 153              		.loc 1 294 0
 154 0050 BB68     		ldr	r3, [r7, #8]
 155 0052 DB8A     		ldrh	r3, [r3, #22]
 156 0054 7B61     		str	r3, [r7, #20]
 157 0056 09E0     		b	.L3
 158              	.L4:
 295:Generated_Source\PSoC4/CSD_Structure.c ****             {
 296:Generated_Source\PSoC4/CSD_Structure.c ****                 ptrSns->idacComp[0u] = *ptrIdacInit;
 159              		.loc 1 296 0
 160 0058 7B68     		ldr	r3, [r7, #4]
ARM GAS  C:\Users\CHRIST~1\AppData\Local\Temp\ccVM2khi.s 			page 9


 161 005a 1A78     		ldrb	r2, [r3]
 162 005c FB68     		ldr	r3, [r7, #12]
 163 005e 5A71     		strb	r2, [r3, #5]
 297:Generated_Source\PSoC4/CSD_Structure.c ****                 ptrIdacInit++;
 164              		.loc 1 297 0
 165 0060 7B68     		ldr	r3, [r7, #4]
 166 0062 0133     		add	r3, r3, #1
 167 0064 7B60     		str	r3, [r7, #4]
 298:Generated_Source\PSoC4/CSD_Structure.c ****                 
 299:Generated_Source\PSoC4/CSD_Structure.c ****                 #if (0u != CSD_MULTI_FREQ_SCAN_EN)
 300:Generated_Source\PSoC4/CSD_Structure.c ****                     ptrSns->idacComp[1u] = *ptrIdacInit;
 301:Generated_Source\PSoC4/CSD_Structure.c ****                     ptrIdacInit++;
 302:Generated_Source\PSoC4/CSD_Structure.c ****                     
 303:Generated_Source\PSoC4/CSD_Structure.c ****                     ptrSns->idacComp[2u] = *ptrIdacInit;
 304:Generated_Source\PSoC4/CSD_Structure.c ****                     ptrIdacInit++;
 305:Generated_Source\PSoC4/CSD_Structure.c ****                 #endif /* #if (0u != CSD_MULTI_FREQ_SCAN_EN) */
 306:Generated_Source\PSoC4/CSD_Structure.c ****                 
 307:Generated_Source\PSoC4/CSD_Structure.c ****                 ptrSns++;
 168              		.loc 1 307 0
 169 0066 FB68     		ldr	r3, [r7, #12]
 170 0068 0A33     		add	r3, r3, #10
 171 006a FB60     		str	r3, [r7, #12]
 172              	.L3:
 294:Generated_Source\PSoC4/CSD_Structure.c ****             {
 173              		.loc 1 294 0 discriminator 1
 174 006c 7B69     		ldr	r3, [r7, #20]
 175 006e 5A1E     		sub	r2, r3, #1
 176 0070 7A61     		str	r2, [r7, #20]
 177 0072 002B     		cmp	r3, #0
 178 0074 F0D1     		bne	.L4
 308:Generated_Source\PSoC4/CSD_Structure.c ****             }
 309:Generated_Source\PSoC4/CSD_Structure.c ****             
 310:Generated_Source\PSoC4/CSD_Structure.c ****             ptrFlashWdgt++; /* Move to next widget */
 179              		.loc 1 310 0
 180 0076 BB68     		ldr	r3, [r7, #8]
 181 0078 1C33     		add	r3, r3, #28
 182 007a BB60     		str	r3, [r7, #8]
 183              	.L2:
 290:Generated_Source\PSoC4/CSD_Structure.c ****         {
 184              		.loc 1 290 0 discriminator 1
 185 007c 3B69     		ldr	r3, [r7, #16]
 186 007e 5A1E     		sub	r2, r3, #1
 187 0080 3A61     		str	r2, [r7, #16]
 188 0082 002B     		cmp	r3, #0
 189 0084 E1D1     		bne	.L5
 311:Generated_Source\PSoC4/CSD_Structure.c ****         }
 312:Generated_Source\PSoC4/CSD_Structure.c ****     #endif /*(0u != CSD_CSX_EN) || (0 != CSD_CSD_IDAC_COMP_EN)*/
 313:Generated_Source\PSoC4/CSD_Structure.c ****     
 314:Generated_Source\PSoC4/CSD_Structure.c ****     #if (0u != CSD_ADC_EN)
 315:Generated_Source\PSoC4/CSD_Structure.c ****         CSD_AdcDsInitialize();
 316:Generated_Source\PSoC4/CSD_Structure.c ****     #endif /* (0u != CSD_ADC_EN) */
 317:Generated_Source\PSoC4/CSD_Structure.c **** }
 190              		.loc 1 317 0
 191 0086 BD46     		mov	sp, r7
 192 0088 06B0     		add	sp, sp, #24
 193              		@ sp needed
 194 008a 80BD     		pop	{r7, pc}
ARM GAS  C:\Users\CHRIST~1\AppData\Local\Temp\ccVM2khi.s 			page 10


 195              	.L7:
 196              		.align	2
 197              	.L6:
 198 008c 64000000 		.word	CSD_ramIdacInit
 199 0090 00000000 		.word	CSD_dsRam
 200 0094 DC0C0000 		.word	3292
 201 0098 54000000 		.word	CSD_ramWidgetInit
 202 009c 00000000 		.word	CSD_dsFlash
 203              		.cfi_endproc
 204              	.LFE1:
 205              		.size	CSD_DsInitialize, .-CSD_DsInitialize
 206              		.section	.text.DsParseParamId,"ax",%progbits
 207              		.align	2
 208              		.code	16
 209              		.thumb_func
 210              		.type	DsParseParamId, %function
 211              	DsParseParamId:
 212              	.LFB2:
 318:Generated_Source\PSoC4/CSD_Structure.c **** 
 319:Generated_Source\PSoC4/CSD_Structure.c **** 
 320:Generated_Source\PSoC4/CSD_Structure.c **** #if (0u != CSD_ADC_EN)
 321:Generated_Source\PSoC4/CSD_Structure.c ****     /*******************************************************************************
 322:Generated_Source\PSoC4/CSD_Structure.c ****     * Function Name: CSD_AdcDsInitialize
 323:Generated_Source\PSoC4/CSD_Structure.c ****     ****************************************************************************//**
 324:Generated_Source\PSoC4/CSD_Structure.c ****     *
 325:Generated_Source\PSoC4/CSD_Structure.c ****     * \brief
 326:Generated_Source\PSoC4/CSD_Structure.c ****     *   Configures the initial Adc datastructure members.
 327:Generated_Source\PSoC4/CSD_Structure.c ****     *
 328:Generated_Source\PSoC4/CSD_Structure.c ****     *******************************************************************************/
 329:Generated_Source\PSoC4/CSD_Structure.c ****     void CSD_AdcDsInitialize(void)
 330:Generated_Source\PSoC4/CSD_Structure.c ****     {
 331:Generated_Source\PSoC4/CSD_Structure.c ****         CSD_dsRam.adcResolution = CSD_ADC_RESOLUTION;
 332:Generated_Source\PSoC4/CSD_Structure.c ****         
 333:Generated_Source\PSoC4/CSD_Structure.c ****         #if (0u < CSD_ADC_IDACVAL / CSD_AdcCLOCKDIV_MIN)
 334:Generated_Source\PSoC4/CSD_Structure.c ****             CSD_dsRam.adcIdac = (uint8)(CSD_ADC_IDACVAL / CSD_AdcCLOCKDIV_MIN);
 335:Generated_Source\PSoC4/CSD_Structure.c ****         #else
 336:Generated_Source\PSoC4/CSD_Structure.c ****             CSD_dsRam.adcIdac = 1u;
 337:Generated_Source\PSoC4/CSD_Structure.c ****         #endif /* (0u < CSD_ADC_IDACVAL / CSD_AdcCLOCKDIV_MIN) */
 338:Generated_Source\PSoC4/CSD_Structure.c ****     }
 339:Generated_Source\PSoC4/CSD_Structure.c **** #endif /* (0u != CSD_ADC_EN) */
 340:Generated_Source\PSoC4/CSD_Structure.c **** 
 341:Generated_Source\PSoC4/CSD_Structure.c **** 
 342:Generated_Source\PSoC4/CSD_Structure.c **** /*******************************************************************************
 343:Generated_Source\PSoC4/CSD_Structure.c **** * Function Name: DsParseParamId
 344:Generated_Source\PSoC4/CSD_Structure.c **** ****************************************************************************//**
 345:Generated_Source\PSoC4/CSD_Structure.c **** *
 346:Generated_Source\PSoC4/CSD_Structure.c **** * \brief
 347:Generated_Source\PSoC4/CSD_Structure.c **** *   This function parses the parameter ID and checks its correctness.
 348:Generated_Source\PSoC4/CSD_Structure.c **** *
 349:Generated_Source\PSoC4/CSD_Structure.c **** * \details
 350:Generated_Source\PSoC4/CSD_Structure.c **** *   This function checks the parameter CRC if the self-test is enabled, 
 351:Generated_Source\PSoC4/CSD_Structure.c **** *   validates the offset value and parameter type.
 352:Generated_Source\PSoC4/CSD_Structure.c **** *
 353:Generated_Source\PSoC4/CSD_Structure.c **** * \param paramId The parameter to parse.
 354:Generated_Source\PSoC4/CSD_Structure.c **** * \param pData   The pointer to the structure that will hold parsed data.
 355:Generated_Source\PSoC4/CSD_Structure.c **** *
 356:Generated_Source\PSoC4/CSD_Structure.c **** * \return CYRET_SUCCESS     If the parameter is valid
ARM GAS  C:\Users\CHRIST~1\AppData\Local\Temp\ccVM2khi.s 			page 11


 357:Generated_Source\PSoC4/CSD_Structure.c **** *         CYRET_BAD_PARAM   If  the parameter is invalid
 358:Generated_Source\PSoC4/CSD_Structure.c **** *
 359:Generated_Source\PSoC4/CSD_Structure.c **** *******************************************************************************/
 360:Generated_Source\PSoC4/CSD_Structure.c **** static cystatus DsParseParamId(uint32 paramId, PARAM_ID_STRUCT *pData)
 361:Generated_Source\PSoC4/CSD_Structure.c **** {
 213              		.loc 1 361 0
 214              		.cfi_startproc
 215 0000 80B5     		push	{r7, lr}
 216              		.cfi_def_cfa_offset 8
 217              		.cfi_offset 7, -8
 218              		.cfi_offset 14, -4
 219 0002 84B0     		sub	sp, sp, #16
 220              		.cfi_def_cfa_offset 24
 221 0004 00AF     		add	r7, sp, #0
 222              		.cfi_def_cfa_register 7
 223 0006 7860     		str	r0, [r7, #4]
 224 0008 3960     		str	r1, [r7]
 362:Generated_Source\PSoC4/CSD_Structure.c ****     cystatus result = CYRET_SUCCESS;
 225              		.loc 1 362 0
 226 000a 0023     		mov	r3, #0
 227 000c FB60     		str	r3, [r7, #12]
 363:Generated_Source\PSoC4/CSD_Structure.c ****     
 364:Generated_Source\PSoC4/CSD_Structure.c ****     #if (0u != CSD_SELF_TEST_EN)
 365:Generated_Source\PSoC4/CSD_Structure.c ****         const uint8 crcTable[] =
 366:Generated_Source\PSoC4/CSD_Structure.c ****         {
 367:Generated_Source\PSoC4/CSD_Structure.c ****             0x00u, 0x09u, 0x0Bu, 0x02u, 0x0Fu, 0x06u, 0x04u, 0x0Du,
 368:Generated_Source\PSoC4/CSD_Structure.c ****             0x07u, 0x0Eu, 0x0Cu, 0x05u, 0x08u, 0x01u, 0x03u, 0x0Au
 369:Generated_Source\PSoC4/CSD_Structure.c ****         };
 370:Generated_Source\PSoC4/CSD_Structure.c ****         
 371:Generated_Source\PSoC4/CSD_Structure.c ****         uint32 i;
 372:Generated_Source\PSoC4/CSD_Structure.c ****         uint32 actualCrc = 0u;
 373:Generated_Source\PSoC4/CSD_Structure.c ****         uint32 crcIndex;
 374:Generated_Source\PSoC4/CSD_Structure.c ****     #endif /* #if (0u != CSD_SELF_TEST_EN) */
 375:Generated_Source\PSoC4/CSD_Structure.c ****             
 376:Generated_Source\PSoC4/CSD_Structure.c ****     /* Extract parameter data */
 377:Generated_Source\PSoC4/CSD_Structure.c ****     pData->offset     = LO16(paramId);
 228              		.loc 1 377 0
 229 000e 7B68     		ldr	r3, [r7, #4]
 230 0010 9AB2     		uxth	r2, r3
 231 0012 3B68     		ldr	r3, [r7]
 232 0014 1A80     		strh	r2, [r3]
 378:Generated_Source\PSoC4/CSD_Structure.c ****     pData->affectsCrc = LO8((paramId & PARAM_UBIT_MASK)  >> PARAM_UBIT_OFFSET);
 233              		.loc 1 378 0
 234 0016 7A68     		ldr	r2, [r7, #4]
 235 0018 8023     		mov	r3, #128
 236 001a 1B04     		lsl	r3, r3, #16
 237 001c 1340     		and	r3, r2
 238 001e DB0D     		lsr	r3, r3, #23
 239 0020 DAB2     		uxtb	r2, r3
 240 0022 3B68     		ldr	r3, [r7]
 241 0024 DA70     		strb	r2, [r3, #3]
 379:Generated_Source\PSoC4/CSD_Structure.c ****     pData->widgetId   = LO8((paramId & PARAM_WDID_MASK)  >> PARAM_WDID_OFFSET);
 242              		.loc 1 379 0
 243 0026 7A68     		ldr	r2, [r7, #4]
 244 0028 FE23     		mov	r3, #254
 245 002a DB03     		lsl	r3, r3, #15
 246 002c 1340     		and	r3, r2
ARM GAS  C:\Users\CHRIST~1\AppData\Local\Temp\ccVM2khi.s 			page 12


 247 002e 1B0C     		lsr	r3, r3, #16
 248 0030 DAB2     		uxtb	r2, r3
 249 0032 3B68     		ldr	r3, [r7]
 250 0034 9A70     		strb	r2, [r3, #2]
 380:Generated_Source\PSoC4/CSD_Structure.c ****     pData->type       = LO8((paramId & PARAM_TYPE_MASK)  >> PARAM_TYPE_OFFSET);
 251              		.loc 1 380 0
 252 0036 7B68     		ldr	r3, [r7, #4]
 253 0038 9B0F     		lsr	r3, r3, #30
 254 003a DAB2     		uxtb	r2, r3
 255 003c 3B68     		ldr	r3, [r7]
 256 003e DA71     		strb	r2, [r3, #7]
 381:Generated_Source\PSoC4/CSD_Structure.c ****     pData->flash      = LO8((paramId & PARAM_FBIT_MASK)  >> PARAM_FBIT_OFFSET);
 257              		.loc 1 381 0
 258 0040 7A68     		ldr	r2, [r7, #4]
 259 0042 8023     		mov	r3, #128
 260 0044 5B05     		lsl	r3, r3, #21
 261 0046 1340     		and	r3, r2
 262 0048 1B0F     		lsr	r3, r3, #28
 263 004a DAB2     		uxtb	r2, r3
 264 004c 3B68     		ldr	r3, [r7]
 265 004e 5A71     		strb	r2, [r3, #5]
 382:Generated_Source\PSoC4/CSD_Structure.c ****     pData->rw         = LO8((paramId & PARAM_RWBIT_MASK) >> PARAM_RWBIT_OFFSET);
 266              		.loc 1 382 0
 267 0050 7A68     		ldr	r2, [r7, #4]
 268 0052 8023     		mov	r3, #128
 269 0054 9B05     		lsl	r3, r3, #22
 270 0056 1340     		and	r3, r2
 271 0058 5B0F     		lsr	r3, r3, #29
 272 005a DAB2     		uxtb	r2, r3
 273 005c 3B68     		ldr	r3, [r7]
 274 005e 9A71     		strb	r2, [r3, #6]
 383:Generated_Source\PSoC4/CSD_Structure.c ****     pData->crc        = LO8((paramId & PARAM_CRC_MASK)   >> PARAM_CRC_OFFSET);
 275              		.loc 1 383 0
 276 0060 7A68     		ldr	r2, [r7, #4]
 277 0062 F023     		mov	r3, #240
 278 0064 1B05     		lsl	r3, r3, #20
 279 0066 1340     		and	r3, r2
 280 0068 1B0E     		lsr	r3, r3, #24
 281 006a DAB2     		uxtb	r2, r3
 282 006c 3B68     		ldr	r3, [r7]
 283 006e 1A71     		strb	r2, [r3, #4]
 384:Generated_Source\PSoC4/CSD_Structure.c ****     
 385:Generated_Source\PSoC4/CSD_Structure.c ****     /* Check parameter CRC if self-test is enabled */
 386:Generated_Source\PSoC4/CSD_Structure.c ****     #if (0u != CSD_SELF_TEST_EN)
 387:Generated_Source\PSoC4/CSD_Structure.c ****  
 388:Generated_Source\PSoC4/CSD_Structure.c ****         /* Calculate CRC for bits 0..24.
 389:Generated_Source\PSoC4/CSD_Structure.c ****          * The CRC is calculated using nibbles (4-bits). 
 390:Generated_Source\PSoC4/CSD_Structure.c ****          * So for 0..24 bits there are in total 6 nibbles. */
 391:Generated_Source\PSoC4/CSD_Structure.c ****         for (i = 6u; i > 0u; i--)
 392:Generated_Source\PSoC4/CSD_Structure.c ****         {
 393:Generated_Source\PSoC4/CSD_Structure.c ****             crcIndex = actualCrc ^ (paramId & 0x0Fu);
 394:Generated_Source\PSoC4/CSD_Structure.c ****             actualCrc = crcTable[crcIndex];
 395:Generated_Source\PSoC4/CSD_Structure.c ****             paramId >>= 4u;
 396:Generated_Source\PSoC4/CSD_Structure.c ****         }
 397:Generated_Source\PSoC4/CSD_Structure.c **** 
 398:Generated_Source\PSoC4/CSD_Structure.c ****         /* Add bits 28..32 */
 399:Generated_Source\PSoC4/CSD_Structure.c ****         crcIndex = actualCrc ^ ((paramId >> 4u) & 0x0Fu);
ARM GAS  C:\Users\CHRIST~1\AppData\Local\Temp\ccVM2khi.s 			page 13


 400:Generated_Source\PSoC4/CSD_Structure.c ****         actualCrc = crcTable[crcIndex];
 401:Generated_Source\PSoC4/CSD_Structure.c **** 
 402:Generated_Source\PSoC4/CSD_Structure.c ****         /* Add bits 24..28 (CRC) */
 403:Generated_Source\PSoC4/CSD_Structure.c ****         crcIndex = actualCrc ^ (paramId & 0x0Fu);
 404:Generated_Source\PSoC4/CSD_Structure.c ****         actualCrc = crcTable[crcIndex];
 405:Generated_Source\PSoC4/CSD_Structure.c ****         
 406:Generated_Source\PSoC4/CSD_Structure.c ****         if (0u != actualCrc)
 407:Generated_Source\PSoC4/CSD_Structure.c ****         {
 408:Generated_Source\PSoC4/CSD_Structure.c ****             /* CRC mismatch */
 409:Generated_Source\PSoC4/CSD_Structure.c ****             result = CYRET_BAD_PARAM;
 410:Generated_Source\PSoC4/CSD_Structure.c ****         }
 411:Generated_Source\PSoC4/CSD_Structure.c ****         
 412:Generated_Source\PSoC4/CSD_Structure.c ****         if ((CYRET_SUCCESS == result) && 
 413:Generated_Source\PSoC4/CSD_Structure.c ****             (0u != pData->affectsCrc) && (pData->widgetId >= CSD_TOTAL_WIDGETS ))
 414:Generated_Source\PSoC4/CSD_Structure.c ****         {
 415:Generated_Source\PSoC4/CSD_Structure.c ****             /* Wrong widgetId for protected parameter */
 416:Generated_Source\PSoC4/CSD_Structure.c ****             result = CYRET_BAD_PARAM;
 417:Generated_Source\PSoC4/CSD_Structure.c ****         }
 418:Generated_Source\PSoC4/CSD_Structure.c ****         
 419:Generated_Source\PSoC4/CSD_Structure.c ****         /* Check offset value range */
 420:Generated_Source\PSoC4/CSD_Structure.c ****         if (CYRET_SUCCESS == result)
 421:Generated_Source\PSoC4/CSD_Structure.c ****         {
 422:Generated_Source\PSoC4/CSD_Structure.c ****             if (0u == pData->flash)
 423:Generated_Source\PSoC4/CSD_Structure.c ****             {
 424:Generated_Source\PSoC4/CSD_Structure.c ****                 /* Check offset for RAM Data Structure range */
 425:Generated_Source\PSoC4/CSD_Structure.c ****                 if (pData->offset >= sizeof(CSD_dsRam))
 426:Generated_Source\PSoC4/CSD_Structure.c ****                 {
 427:Generated_Source\PSoC4/CSD_Structure.c ****                     result = CYRET_BAD_PARAM;
 428:Generated_Source\PSoC4/CSD_Structure.c ****                 }
 429:Generated_Source\PSoC4/CSD_Structure.c ****             }
 430:Generated_Source\PSoC4/CSD_Structure.c ****             else
 431:Generated_Source\PSoC4/CSD_Structure.c ****             {
 432:Generated_Source\PSoC4/CSD_Structure.c ****                 /* Check offset for Flash Data Structure range */
 433:Generated_Source\PSoC4/CSD_Structure.c ****                 if (pData->offset >= sizeof(CSD_dsFlash))
 434:Generated_Source\PSoC4/CSD_Structure.c ****                 {
 435:Generated_Source\PSoC4/CSD_Structure.c ****                     result = CYRET_BAD_PARAM;
 436:Generated_Source\PSoC4/CSD_Structure.c ****                 }
 437:Generated_Source\PSoC4/CSD_Structure.c ****                 
 438:Generated_Source\PSoC4/CSD_Structure.c ****                 /* Check if it is marked as Read Only */
 439:Generated_Source\PSoC4/CSD_Structure.c ****                 if (0u != pData->rw)
 440:Generated_Source\PSoC4/CSD_Structure.c ****                 {
 441:Generated_Source\PSoC4/CSD_Structure.c ****                     result = CYRET_BAD_PARAM;
 442:Generated_Source\PSoC4/CSD_Structure.c ****                 }
 443:Generated_Source\PSoC4/CSD_Structure.c ****             }
 444:Generated_Source\PSoC4/CSD_Structure.c ****         }
 445:Generated_Source\PSoC4/CSD_Structure.c ****         
 446:Generated_Source\PSoC4/CSD_Structure.c ****         if (CYRET_SUCCESS == result)
 447:Generated_Source\PSoC4/CSD_Structure.c ****         {
 448:Generated_Source\PSoC4/CSD_Structure.c ****             /* Check parameter type, offset alignment */
 449:Generated_Source\PSoC4/CSD_Structure.c ****             switch (pData->type)
 450:Generated_Source\PSoC4/CSD_Structure.c ****             {
 451:Generated_Source\PSoC4/CSD_Structure.c ****             case DS_PARAM_TYPE_UINT16:
 452:Generated_Source\PSoC4/CSD_Structure.c ****                 if (0u != (pData->offset & UINT16_ALIGN_MASK))
 453:Generated_Source\PSoC4/CSD_Structure.c ****                 {
 454:Generated_Source\PSoC4/CSD_Structure.c ****                     result = CYRET_BAD_PARAM;
 455:Generated_Source\PSoC4/CSD_Structure.c ****                 }
 456:Generated_Source\PSoC4/CSD_Structure.c ****                 break;
ARM GAS  C:\Users\CHRIST~1\AppData\Local\Temp\ccVM2khi.s 			page 14


 457:Generated_Source\PSoC4/CSD_Structure.c ****                 
 458:Generated_Source\PSoC4/CSD_Structure.c ****             case DS_PARAM_TYPE_UINT32:
 459:Generated_Source\PSoC4/CSD_Structure.c ****                 if (0u != (pData->offset & UINT32_ALIGN_MASK))
 460:Generated_Source\PSoC4/CSD_Structure.c ****                 {
 461:Generated_Source\PSoC4/CSD_Structure.c ****                     result = CYRET_BAD_PARAM;
 462:Generated_Source\PSoC4/CSD_Structure.c ****                 }
 463:Generated_Source\PSoC4/CSD_Structure.c ****                 break;
 464:Generated_Source\PSoC4/CSD_Structure.c ****                 
 465:Generated_Source\PSoC4/CSD_Structure.c ****             case DS_PARAM_TYPE_UINT8:
 466:Generated_Source\PSoC4/CSD_Structure.c ****                 break;
 467:Generated_Source\PSoC4/CSD_Structure.c ****                 
 468:Generated_Source\PSoC4/CSD_Structure.c ****             default:
 469:Generated_Source\PSoC4/CSD_Structure.c ****                 result = CYRET_BAD_PARAM;
 470:Generated_Source\PSoC4/CSD_Structure.c ****                 break;
 471:Generated_Source\PSoC4/CSD_Structure.c ****             }
 472:Generated_Source\PSoC4/CSD_Structure.c ****         }
 473:Generated_Source\PSoC4/CSD_Structure.c ****     #else
 474:Generated_Source\PSoC4/CSD_Structure.c ****         /* Check offset value range */
 475:Generated_Source\PSoC4/CSD_Structure.c ****         if (0u == pData->flash)
 284              		.loc 1 475 0
 285 0070 3B68     		ldr	r3, [r7]
 286 0072 5B79     		ldrb	r3, [r3, #5]
 287 0074 002B     		cmp	r3, #0
 288 0076 06D1     		bne	.L9
 476:Generated_Source\PSoC4/CSD_Structure.c ****         {
 477:Generated_Source\PSoC4/CSD_Structure.c ****             /* Check offset for RAM Data Structure range */
 478:Generated_Source\PSoC4/CSD_Structure.c ****             if (pData->offset >= sizeof(CSD_dsRam))
 289              		.loc 1 478 0
 290 0078 3B68     		ldr	r3, [r7]
 291 007a 1B88     		ldrh	r3, [r3]
 292 007c 432B     		cmp	r3, #67
 293 007e 0ED9     		bls	.L11
 479:Generated_Source\PSoC4/CSD_Structure.c ****             {
 480:Generated_Source\PSoC4/CSD_Structure.c ****                 result = CYRET_BAD_PARAM;
 294              		.loc 1 480 0
 295 0080 0123     		mov	r3, #1
 296 0082 FB60     		str	r3, [r7, #12]
 297 0084 0BE0     		b	.L11
 298              	.L9:
 481:Generated_Source\PSoC4/CSD_Structure.c ****             }
 482:Generated_Source\PSoC4/CSD_Structure.c ****         }
 483:Generated_Source\PSoC4/CSD_Structure.c ****         else
 484:Generated_Source\PSoC4/CSD_Structure.c ****         {
 485:Generated_Source\PSoC4/CSD_Structure.c ****             /* Check offset for Flash Data Structure range */
 486:Generated_Source\PSoC4/CSD_Structure.c ****             if (pData->offset >= sizeof(CSD_dsFlash))
 299              		.loc 1 486 0
 300 0086 3B68     		ldr	r3, [r7]
 301 0088 1B88     		ldrh	r3, [r3]
 302 008a 1B2B     		cmp	r3, #27
 303 008c 01D9     		bls	.L12
 487:Generated_Source\PSoC4/CSD_Structure.c ****             {
 488:Generated_Source\PSoC4/CSD_Structure.c ****                 result = CYRET_BAD_PARAM;
 304              		.loc 1 488 0
 305 008e 0123     		mov	r3, #1
 306 0090 FB60     		str	r3, [r7, #12]
 307              	.L12:
 489:Generated_Source\PSoC4/CSD_Structure.c ****             }
ARM GAS  C:\Users\CHRIST~1\AppData\Local\Temp\ccVM2khi.s 			page 15


 490:Generated_Source\PSoC4/CSD_Structure.c ****             
 491:Generated_Source\PSoC4/CSD_Structure.c ****             /* Check if it is marked as Read Only */
 492:Generated_Source\PSoC4/CSD_Structure.c ****             if (0u != pData->rw)
 308              		.loc 1 492 0
 309 0092 3B68     		ldr	r3, [r7]
 310 0094 9B79     		ldrb	r3, [r3, #6]
 311 0096 002B     		cmp	r3, #0
 312 0098 01D0     		beq	.L11
 493:Generated_Source\PSoC4/CSD_Structure.c ****             {
 494:Generated_Source\PSoC4/CSD_Structure.c ****                 result = CYRET_BAD_PARAM;
 313              		.loc 1 494 0
 314 009a 0123     		mov	r3, #1
 315 009c FB60     		str	r3, [r7, #12]
 316              	.L11:
 495:Generated_Source\PSoC4/CSD_Structure.c ****             }
 496:Generated_Source\PSoC4/CSD_Structure.c ****         }
 497:Generated_Source\PSoC4/CSD_Structure.c ****     
 498:Generated_Source\PSoC4/CSD_Structure.c ****         if (CYRET_SUCCESS == result)
 317              		.loc 1 498 0
 318 009e FB68     		ldr	r3, [r7, #12]
 319 00a0 002B     		cmp	r3, #0
 320 00a2 20D1     		bne	.L13
 499:Generated_Source\PSoC4/CSD_Structure.c ****         {
 500:Generated_Source\PSoC4/CSD_Structure.c ****             /* Check parameter type, offset alignment */
 501:Generated_Source\PSoC4/CSD_Structure.c ****             switch (pData->type)
 321              		.loc 1 501 0
 322 00a4 3B68     		ldr	r3, [r7]
 323 00a6 DB79     		ldrb	r3, [r3, #7]
 324 00a8 022B     		cmp	r3, #2
 325 00aa 04D0     		beq	.L15
 326 00ac 032B     		cmp	r3, #3
 327 00ae 0CD0     		beq	.L16
 328 00b0 012B     		cmp	r3, #1
 329 00b2 17D0     		beq	.L22
 330 00b4 13E0     		b	.L21
 331              	.L15:
 502:Generated_Source\PSoC4/CSD_Structure.c ****             {
 503:Generated_Source\PSoC4/CSD_Structure.c ****             case DS_PARAM_TYPE_UINT16:
 504:Generated_Source\PSoC4/CSD_Structure.c ****                 if (0u != (pData->offset & UINT16_ALIGN_MASK))
 332              		.loc 1 504 0
 333 00b6 3B68     		ldr	r3, [r7]
 334 00b8 1B88     		ldrh	r3, [r3]
 335 00ba 1A1C     		mov	r2, r3
 336 00bc 0123     		mov	r3, #1
 337 00be 1340     		and	r3, r2
 338 00c0 02D0     		beq	.L18
 505:Generated_Source\PSoC4/CSD_Structure.c ****                 {
 506:Generated_Source\PSoC4/CSD_Structure.c ****                     result = CYRET_BAD_PARAM;
 339              		.loc 1 506 0
 340 00c2 0123     		mov	r3, #1
 341 00c4 FB60     		str	r3, [r7, #12]
 507:Generated_Source\PSoC4/CSD_Structure.c ****                 }
 508:Generated_Source\PSoC4/CSD_Structure.c ****                 break;
 342              		.loc 1 508 0
 343 00c6 0EE0     		b	.L13
 344              	.L18:
 345 00c8 0DE0     		b	.L13
ARM GAS  C:\Users\CHRIST~1\AppData\Local\Temp\ccVM2khi.s 			page 16


 346              	.L16:
 509:Generated_Source\PSoC4/CSD_Structure.c ****                 
 510:Generated_Source\PSoC4/CSD_Structure.c ****             case DS_PARAM_TYPE_UINT32:
 511:Generated_Source\PSoC4/CSD_Structure.c ****                 if (0u != (pData->offset & UINT32_ALIGN_MASK))
 347              		.loc 1 511 0
 348 00ca 3B68     		ldr	r3, [r7]
 349 00cc 1B88     		ldrh	r3, [r3]
 350 00ce 1A1C     		mov	r2, r3
 351 00d0 0323     		mov	r3, #3
 352 00d2 1340     		and	r3, r2
 353 00d4 02D0     		beq	.L19
 512:Generated_Source\PSoC4/CSD_Structure.c ****                 {
 513:Generated_Source\PSoC4/CSD_Structure.c ****                     result = CYRET_BAD_PARAM;
 354              		.loc 1 513 0
 355 00d6 0123     		mov	r3, #1
 356 00d8 FB60     		str	r3, [r7, #12]
 514:Generated_Source\PSoC4/CSD_Structure.c ****                 }
 515:Generated_Source\PSoC4/CSD_Structure.c ****                 break;
 357              		.loc 1 515 0
 358 00da 04E0     		b	.L13
 359              	.L19:
 360 00dc 03E0     		b	.L13
 361              	.L21:
 516:Generated_Source\PSoC4/CSD_Structure.c ****                 
 517:Generated_Source\PSoC4/CSD_Structure.c ****             case DS_PARAM_TYPE_UINT8:
 518:Generated_Source\PSoC4/CSD_Structure.c ****                 break;
 519:Generated_Source\PSoC4/CSD_Structure.c ****                 
 520:Generated_Source\PSoC4/CSD_Structure.c ****             default:
 521:Generated_Source\PSoC4/CSD_Structure.c ****                 result = CYRET_BAD_PARAM;
 362              		.loc 1 521 0
 363 00de 0123     		mov	r3, #1
 364 00e0 FB60     		str	r3, [r7, #12]
 522:Generated_Source\PSoC4/CSD_Structure.c ****                 break;
 365              		.loc 1 522 0
 366 00e2 00E0     		b	.L13
 367              	.L22:
 518:Generated_Source\PSoC4/CSD_Structure.c ****                 
 368              		.loc 1 518 0
 369 00e4 C046     		mov	r8, r8
 370              	.L13:
 523:Generated_Source\PSoC4/CSD_Structure.c ****             }
 524:Generated_Source\PSoC4/CSD_Structure.c ****         }  
 525:Generated_Source\PSoC4/CSD_Structure.c ****     #endif /* #if (0u != CSD_SELF_TEST_EN) */
 526:Generated_Source\PSoC4/CSD_Structure.c **** 
 527:Generated_Source\PSoC4/CSD_Structure.c ****     return result;
 371              		.loc 1 527 0
 372 00e6 FB68     		ldr	r3, [r7, #12]
 528:Generated_Source\PSoC4/CSD_Structure.c **** }
 373              		.loc 1 528 0
 374 00e8 181C     		mov	r0, r3
 375 00ea BD46     		mov	sp, r7
 376 00ec 04B0     		add	sp, sp, #16
 377              		@ sp needed
 378 00ee 80BD     		pop	{r7, pc}
 379              		.cfi_endproc
 380              	.LFE2:
 381              		.size	DsParseParamId, .-DsParseParamId
ARM GAS  C:\Users\CHRIST~1\AppData\Local\Temp\ccVM2khi.s 			page 17


 382              		.section	.text.CSD_GetParam,"ax",%progbits
 383              		.align	2
 384              		.global	CSD_GetParam
 385              		.code	16
 386              		.thumb_func
 387              		.type	CSD_GetParam, %function
 388              	CSD_GetParam:
 389              	.LFB3:
 529:Generated_Source\PSoC4/CSD_Structure.c **** 
 530:Generated_Source\PSoC4/CSD_Structure.c **** /*******************************************************************************
 531:Generated_Source\PSoC4/CSD_Structure.c **** * Function Name: CSD_GetParam
 532:Generated_Source\PSoC4/CSD_Structure.c **** ****************************************************************************//**
 533:Generated_Source\PSoC4/CSD_Structure.c **** *
 534:Generated_Source\PSoC4/CSD_Structure.c **** * \brief
 535:Generated_Source\PSoC4/CSD_Structure.c **** *  Gets the specified parameter value from the \ref group_structures.
 536:Generated_Source\PSoC4/CSD_Structure.c **** *
 537:Generated_Source\PSoC4/CSD_Structure.c **** * \details
 538:Generated_Source\PSoC4/CSD_Structure.c **** *  This function gets the value of the specified parameter by the paramId 
 539:Generated_Source\PSoC4/CSD_Structure.c **** *  argument. The paramId for each register is available in the 
 540:Generated_Source\PSoC4/CSD_Structure.c **** *  CSD_RegisterMap.h file as 
 541:Generated_Source\PSoC4/CSD_Structure.c **** *  CSD_<ParameterName>_PARAM_ID. The paramId is a special 
 542:Generated_Source\PSoC4/CSD_Structure.c **** *  enumerated value generated by the customizer. The format of paramId is as 
 543:Generated_Source\PSoC4/CSD_Structure.c **** *  follows:
 544:Generated_Source\PSoC4/CSD_Structure.c **** *    1. [ byte 3 byte 2 byte 1 byte 0 ] 
 545:Generated_Source\PSoC4/CSD_Structure.c **** *    2. [ TTWFCCCC UIIIIIII MMMMMMMM LLLLLLLL ]
 546:Generated_Source\PSoC4/CSD_Structure.c **** *    3. T - encodes the parameter type:
 547:Generated_Source\PSoC4/CSD_Structure.c **** *      - 01b: uint8
 548:Generated_Source\PSoC4/CSD_Structure.c **** *      - 10b: uint16
 549:Generated_Source\PSoC4/CSD_Structure.c **** *      - 11b: uint32
 550:Generated_Source\PSoC4/CSD_Structure.c **** *    4. W - indicates whether the parameter is writeable:
 551:Generated_Source\PSoC4/CSD_Structure.c **** *      - 0: ReadOnly
 552:Generated_Source\PSoC4/CSD_Structure.c **** *      - 1: Read/Write
 553:Generated_Source\PSoC4/CSD_Structure.c **** *    5. C - 4 bit CRC (X^3 + 1) of the whole paramId word, the C bits are 
 554:Generated_Source\PSoC4/CSD_Structure.c **** *       filled with 0s when the CRC is calculated.
 555:Generated_Source\PSoC4/CSD_Structure.c **** *    6. U - indicates if the parameter affects the RAM Widget Object CRC.
 556:Generated_Source\PSoC4/CSD_Structure.c **** *    7. I - specifies that the widgetID parameter belongs to
 557:Generated_Source\PSoC4/CSD_Structure.c **** *    8. M,L - the parameter offset MSB and LSB accordingly in:
 558:Generated_Source\PSoC4/CSD_Structure.c **** *      - Flash Data Structure if W bit is 0.
 559:Generated_Source\PSoC4/CSD_Structure.c **** *      - RAM Data Structure if W bit is 1.
 560:Generated_Source\PSoC4/CSD_Structure.c **** *
 561:Generated_Source\PSoC4/CSD_Structure.c **** *  Refer to the \ref group_structures section for details of the data structure 
 562:Generated_Source\PSoC4/CSD_Structure.c **** *  organization and examples of its register access.
 563:Generated_Source\PSoC4/CSD_Structure.c **** *
 564:Generated_Source\PSoC4/CSD_Structure.c **** * \param  paramId 
 565:Generated_Source\PSoC4/CSD_Structure.c **** *  Specify the ID of parameter to get its value.
 566:Generated_Source\PSoC4/CSD_Structure.c **** *  A macro for the parameter ID can be found in CSD_RegisterMap.h 
 567:Generated_Source\PSoC4/CSD_Structure.c **** *  file defined as CSD_<ParameterName>_PARAM_ID.
 568:Generated_Source\PSoC4/CSD_Structure.c **** *
 569:Generated_Source\PSoC4/CSD_Structure.c **** * \param  value   
 570:Generated_Source\PSoC4/CSD_Structure.c **** *  The pointer to a variable that should be updated with the got value.
 571:Generated_Source\PSoC4/CSD_Structure.c **** *
 572:Generated_Source\PSoC4/CSD_Structure.c **** * \return
 573:Generated_Source\PSoC4/CSD_Structure.c **** *  Returns the status of operation:
 574:Generated_Source\PSoC4/CSD_Structure.c **** *    - CYRET_SUCCESS if the operation is successfully completed.
 575:Generated_Source\PSoC4/CSD_Structure.c **** *    - CYRET_BAD_PARAM if the input parameter is invalid. 
 576:Generated_Source\PSoC4/CSD_Structure.c **** *
 577:Generated_Source\PSoC4/CSD_Structure.c **** *******************************************************************************/
ARM GAS  C:\Users\CHRIST~1\AppData\Local\Temp\ccVM2khi.s 			page 18


 578:Generated_Source\PSoC4/CSD_Structure.c **** cystatus CSD_GetParam(uint32 paramId, uint32 *value)
 579:Generated_Source\PSoC4/CSD_Structure.c **** {
 390              		.loc 1 579 0
 391              		.cfi_startproc
 392 0000 80B5     		push	{r7, lr}
 393              		.cfi_def_cfa_offset 8
 394              		.cfi_offset 7, -8
 395              		.cfi_offset 14, -4
 396 0002 86B0     		sub	sp, sp, #24
 397              		.cfi_def_cfa_offset 32
 398 0004 00AF     		add	r7, sp, #0
 399              		.cfi_def_cfa_register 7
 400 0006 7860     		str	r0, [r7, #4]
 401 0008 3960     		str	r1, [r7]
 580:Generated_Source\PSoC4/CSD_Structure.c ****     PARAM_ID_STRUCT pData;
 581:Generated_Source\PSoC4/CSD_Structure.c ****     cystatus result;
 582:Generated_Source\PSoC4/CSD_Structure.c ****     
 583:Generated_Source\PSoC4/CSD_Structure.c ****     union
 584:Generated_Source\PSoC4/CSD_Structure.c ****     {
 585:Generated_Source\PSoC4/CSD_Structure.c ****         volatile void   const * ptr;
 586:Generated_Source\PSoC4/CSD_Structure.c ****         volatile uint8  const * ptrUint8;
 587:Generated_Source\PSoC4/CSD_Structure.c ****         volatile uint16 const * ptrUint16;
 588:Generated_Source\PSoC4/CSD_Structure.c ****         volatile uint32 const * ptrUint32;
 589:Generated_Source\PSoC4/CSD_Structure.c ****     } ptrData;
 590:Generated_Source\PSoC4/CSD_Structure.c ****     
 591:Generated_Source\PSoC4/CSD_Structure.c ****     result = DsParseParamId(paramId, &pData);
 402              		.loc 1 591 0
 403 000a 7A68     		ldr	r2, [r7, #4]
 404 000c 0C23     		mov	r3, #12
 405 000e FB18     		add	r3, r7, r3
 406 0010 101C     		mov	r0, r2
 407 0012 191C     		mov	r1, r3
 408 0014 FFF7FEFF 		bl	DsParseParamId
 409 0018 031C     		mov	r3, r0
 410 001a 7B61     		str	r3, [r7, #20]
 592:Generated_Source\PSoC4/CSD_Structure.c ****     
 593:Generated_Source\PSoC4/CSD_Structure.c ****     /* Parse and validate paramId */
 594:Generated_Source\PSoC4/CSD_Structure.c ****     if (CYRET_SUCCESS == result)
 411              		.loc 1 594 0
 412 001c 7B69     		ldr	r3, [r7, #20]
 413 001e 002B     		cmp	r3, #0
 414 0020 34D1     		bne	.L24
 595:Generated_Source\PSoC4/CSD_Structure.c ****     {
 596:Generated_Source\PSoC4/CSD_Structure.c ****         /* Get base address of parameter */
 597:Generated_Source\PSoC4/CSD_Structure.c ****         if (0u == pData.flash)
 415              		.loc 1 597 0
 416 0022 0C23     		mov	r3, #12
 417 0024 FB18     		add	r3, r7, r3
 418 0026 5B79     		ldrb	r3, [r3, #5]
 419 0028 002B     		cmp	r3, #0
 420 002a 02D1     		bne	.L25
 598:Generated_Source\PSoC4/CSD_Structure.c ****         {
 599:Generated_Source\PSoC4/CSD_Structure.c ****             ptrData.ptr = &CSD_dsRam;
 421              		.loc 1 599 0
 422 002c 1A4B     		ldr	r3, .L31
 423 002e BB60     		str	r3, [r7, #8]
 424 0030 01E0     		b	.L26
ARM GAS  C:\Users\CHRIST~1\AppData\Local\Temp\ccVM2khi.s 			page 19


 425              	.L25:
 600:Generated_Source\PSoC4/CSD_Structure.c ****         }
 601:Generated_Source\PSoC4/CSD_Structure.c ****         else
 602:Generated_Source\PSoC4/CSD_Structure.c ****         {
 603:Generated_Source\PSoC4/CSD_Structure.c ****             ptrData.ptr = &CSD_dsFlash;
 426              		.loc 1 603 0
 427 0032 1A4B     		ldr	r3, .L31+4
 428 0034 BB60     		str	r3, [r7, #8]
 429              	.L26:
 604:Generated_Source\PSoC4/CSD_Structure.c ****         }
 605:Generated_Source\PSoC4/CSD_Structure.c ****         
 606:Generated_Source\PSoC4/CSD_Structure.c ****         /* Add offset to base address */
 607:Generated_Source\PSoC4/CSD_Structure.c ****         ptrData.ptrUint8 += pData.offset;
 430              		.loc 1 607 0
 431 0036 BB68     		ldr	r3, [r7, #8]
 432 0038 0C22     		mov	r2, #12
 433 003a BA18     		add	r2, r7, r2
 434 003c 1288     		ldrh	r2, [r2]
 435 003e 9B18     		add	r3, r3, r2
 436 0040 BB60     		str	r3, [r7, #8]
 608:Generated_Source\PSoC4/CSD_Structure.c ****         
 609:Generated_Source\PSoC4/CSD_Structure.c ****         /* Read data */
 610:Generated_Source\PSoC4/CSD_Structure.c ****         if (DS_PARAM_TYPE_UINT8 == pData.type)
 437              		.loc 1 610 0
 438 0042 0C23     		mov	r3, #12
 439 0044 FB18     		add	r3, r7, r3
 440 0046 DB79     		ldrb	r3, [r3, #7]
 441 0048 012B     		cmp	r3, #1
 442 004a 06D1     		bne	.L27
 611:Generated_Source\PSoC4/CSD_Structure.c ****         {
 612:Generated_Source\PSoC4/CSD_Structure.c ****             *value = (uint32) (*ptrData.ptrUint8);
 443              		.loc 1 612 0
 444 004c BB68     		ldr	r3, [r7, #8]
 445 004e 1B78     		ldrb	r3, [r3]
 446 0050 DBB2     		uxtb	r3, r3
 447 0052 1A1C     		mov	r2, r3
 448 0054 3B68     		ldr	r3, [r7]
 449 0056 1A60     		str	r2, [r3]
 450 0058 18E0     		b	.L24
 451              	.L27:
 613:Generated_Source\PSoC4/CSD_Structure.c ****         }
 614:Generated_Source\PSoC4/CSD_Structure.c ****         else if (DS_PARAM_TYPE_UINT16 == pData.type)
 452              		.loc 1 614 0
 453 005a 0C23     		mov	r3, #12
 454 005c FB18     		add	r3, r7, r3
 455 005e DB79     		ldrb	r3, [r3, #7]
 456 0060 022B     		cmp	r3, #2
 457 0062 06D1     		bne	.L28
 615:Generated_Source\PSoC4/CSD_Structure.c ****         {
 616:Generated_Source\PSoC4/CSD_Structure.c ****             *value = (uint32) (*ptrData.ptrUint16);
 458              		.loc 1 616 0
 459 0064 BB68     		ldr	r3, [r7, #8]
 460 0066 1B88     		ldrh	r3, [r3]
 461 0068 9BB2     		uxth	r3, r3
 462 006a 1A1C     		mov	r2, r3
 463 006c 3B68     		ldr	r3, [r7]
 464 006e 1A60     		str	r2, [r3]
ARM GAS  C:\Users\CHRIST~1\AppData\Local\Temp\ccVM2khi.s 			page 20


 465 0070 0CE0     		b	.L24
 466              	.L28:
 617:Generated_Source\PSoC4/CSD_Structure.c ****         }
 618:Generated_Source\PSoC4/CSD_Structure.c ****         else if (DS_PARAM_TYPE_UINT32 == pData.type)
 467              		.loc 1 618 0
 468 0072 0C23     		mov	r3, #12
 469 0074 FB18     		add	r3, r7, r3
 470 0076 DB79     		ldrb	r3, [r3, #7]
 471 0078 032B     		cmp	r3, #3
 472 007a 04D1     		bne	.L29
 619:Generated_Source\PSoC4/CSD_Structure.c ****         {
 620:Generated_Source\PSoC4/CSD_Structure.c ****             *value = *ptrData.ptrUint32;
 473              		.loc 1 620 0
 474 007c BB68     		ldr	r3, [r7, #8]
 475 007e 1A68     		ldr	r2, [r3]
 476 0080 3B68     		ldr	r3, [r7]
 477 0082 1A60     		str	r2, [r3]
 478 0084 02E0     		b	.L24
 479              	.L29:
 621:Generated_Source\PSoC4/CSD_Structure.c ****         }
 622:Generated_Source\PSoC4/CSD_Structure.c ****         else
 623:Generated_Source\PSoC4/CSD_Structure.c ****         {
 624:Generated_Source\PSoC4/CSD_Structure.c ****             /* Parameter comes here already validated. */
 625:Generated_Source\PSoC4/CSD_Structure.c ****             CYASSERT(0u);
 480              		.loc 1 625 0 discriminator 1
 481 0086 0020     		mov	r0, #0
 482 0088 FFF7FEFF 		bl	CyHalt
 483              	.L24:
 626:Generated_Source\PSoC4/CSD_Structure.c ****         }
 627:Generated_Source\PSoC4/CSD_Structure.c ****     }
 628:Generated_Source\PSoC4/CSD_Structure.c ****     
 629:Generated_Source\PSoC4/CSD_Structure.c ****     return result;
 484              		.loc 1 629 0
 485 008c 7B69     		ldr	r3, [r7, #20]
 630:Generated_Source\PSoC4/CSD_Structure.c **** }
 486              		.loc 1 630 0
 487 008e 181C     		mov	r0, r3
 488 0090 BD46     		mov	sp, r7
 489 0092 06B0     		add	sp, sp, #24
 490              		@ sp needed
 491 0094 80BD     		pop	{r7, pc}
 492              	.L32:
 493 0096 C046     		.align	2
 494              	.L31:
 495 0098 00000000 		.word	CSD_dsRam
 496 009c 00000000 		.word	CSD_dsFlash
 497              		.cfi_endproc
 498              	.LFE3:
 499              		.size	CSD_GetParam, .-CSD_GetParam
 500              		.section	.text.CSD_SetParam,"ax",%progbits
 501              		.align	2
 502              		.global	CSD_SetParam
 503              		.code	16
 504              		.thumb_func
 505              		.type	CSD_SetParam, %function
 506              	CSD_SetParam:
 507              	.LFB4:
ARM GAS  C:\Users\CHRIST~1\AppData\Local\Temp\ccVM2khi.s 			page 21


 631:Generated_Source\PSoC4/CSD_Structure.c **** 
 632:Generated_Source\PSoC4/CSD_Structure.c **** 
 633:Generated_Source\PSoC4/CSD_Structure.c **** /*******************************************************************************
 634:Generated_Source\PSoC4/CSD_Structure.c **** * Function Name: CSD_SetParam
 635:Generated_Source\PSoC4/CSD_Structure.c **** ****************************************************************************//**
 636:Generated_Source\PSoC4/CSD_Structure.c **** *
 637:Generated_Source\PSoC4/CSD_Structure.c **** * \brief
 638:Generated_Source\PSoC4/CSD_Structure.c **** *  Sets a new value for the specified parameter in the \ref group_structures.
 639:Generated_Source\PSoC4/CSD_Structure.c **** *
 640:Generated_Source\PSoC4/CSD_Structure.c **** * \details
 641:Generated_Source\PSoC4/CSD_Structure.c **** *  This function sets the value of the specified parameter by the paramId 
 642:Generated_Source\PSoC4/CSD_Structure.c **** *  argument. The paramId for each register is available in the 
 643:Generated_Source\PSoC4/CSD_Structure.c **** *  CSD_RegisterMap.h file as 
 644:Generated_Source\PSoC4/CSD_Structure.c **** *  CSD_<ParameterName>_PARAM_ID. The paramId is a special 
 645:Generated_Source\PSoC4/CSD_Structure.c **** *  enumerated value generated by the customizer. The format of paramId is as 
 646:Generated_Source\PSoC4/CSD_Structure.c **** *  follows:
 647:Generated_Source\PSoC4/CSD_Structure.c **** *    1. [ byte 3 byte 2 byte 1 byte 0 ] 
 648:Generated_Source\PSoC4/CSD_Structure.c **** *    2. [ TTWFCCCC UIIIIIII MMMMMMMM LLLLLLLL ]
 649:Generated_Source\PSoC4/CSD_Structure.c **** *    3. T - encodes the parameter type:
 650:Generated_Source\PSoC4/CSD_Structure.c **** *      - 01b: uint8
 651:Generated_Source\PSoC4/CSD_Structure.c **** *      - 10b: uint16
 652:Generated_Source\PSoC4/CSD_Structure.c **** *      - 11b: uint32
 653:Generated_Source\PSoC4/CSD_Structure.c **** *    4. W - indicates whether the parameter is writeable:
 654:Generated_Source\PSoC4/CSD_Structure.c **** *      - 0: ReadOnly
 655:Generated_Source\PSoC4/CSD_Structure.c **** *      - 1: Read/Write
 656:Generated_Source\PSoC4/CSD_Structure.c **** *    5. C - 4 bit CRC (X^3 + 1) of the whole paramId word, the C bits are 
 657:Generated_Source\PSoC4/CSD_Structure.c **** *       filled with 0s when the CRC is calculated.
 658:Generated_Source\PSoC4/CSD_Structure.c **** *    6. U - indicates if the parameter affects the RAM Widget Object CRC.
 659:Generated_Source\PSoC4/CSD_Structure.c **** *    7. I - specifies that the widgetID parameter belongs to
 660:Generated_Source\PSoC4/CSD_Structure.c **** *    8. M,L - the parameter offset MSB and LSB accordingly in:
 661:Generated_Source\PSoC4/CSD_Structure.c **** *      - Flash Data Structure if W bit is 0.
 662:Generated_Source\PSoC4/CSD_Structure.c **** *      - RAM Data Structure if W bit is 1.
 663:Generated_Source\PSoC4/CSD_Structure.c **** *
 664:Generated_Source\PSoC4/CSD_Structure.c **** *  Refer to the \ref group_structures section for details of the data structure 
 665:Generated_Source\PSoC4/CSD_Structure.c **** *  organization and examples of its register access.
 666:Generated_Source\PSoC4/CSD_Structure.c **** *
 667:Generated_Source\PSoC4/CSD_Structure.c **** * \param paramId  
 668:Generated_Source\PSoC4/CSD_Structure.c **** *  Specify the ID of parameter to set its value.
 669:Generated_Source\PSoC4/CSD_Structure.c **** *  A macro for the parameter ID can be found in CSD_RegisterMap.h
 670:Generated_Source\PSoC4/CSD_Structure.c **** *  file defined as CSD_<ParameterName>_PARAM_ID.
 671:Generated_Source\PSoC4/CSD_Structure.c **** 
 672:Generated_Source\PSoC4/CSD_Structure.c **** * \param value    
 673:Generated_Source\PSoC4/CSD_Structure.c **** *  Specify the new parameter's value.
 674:Generated_Source\PSoC4/CSD_Structure.c **** *
 675:Generated_Source\PSoC4/CSD_Structure.c **** * \return
 676:Generated_Source\PSoC4/CSD_Structure.c **** *  Returns the status of operation:
 677:Generated_Source\PSoC4/CSD_Structure.c **** *    - CYRET_SUCCESS if the operation is successfully completed.
 678:Generated_Source\PSoC4/CSD_Structure.c **** *    - CYRET_BAD_PARAM if the input parameter is invalid. 
 679:Generated_Source\PSoC4/CSD_Structure.c **** *
 680:Generated_Source\PSoC4/CSD_Structure.c **** *******************************************************************************/
 681:Generated_Source\PSoC4/CSD_Structure.c **** cystatus CSD_SetParam(uint32 paramId, uint32 value)
 682:Generated_Source\PSoC4/CSD_Structure.c **** {
 508              		.loc 1 682 0
 509              		.cfi_startproc
 510 0000 80B5     		push	{r7, lr}
 511              		.cfi_def_cfa_offset 8
 512              		.cfi_offset 7, -8
ARM GAS  C:\Users\CHRIST~1\AppData\Local\Temp\ccVM2khi.s 			page 22


 513              		.cfi_offset 14, -4
 514 0002 86B0     		sub	sp, sp, #24
 515              		.cfi_def_cfa_offset 32
 516 0004 00AF     		add	r7, sp, #0
 517              		.cfi_def_cfa_register 7
 518 0006 7860     		str	r0, [r7, #4]
 519 0008 3960     		str	r1, [r7]
 683:Generated_Source\PSoC4/CSD_Structure.c ****     cystatus result;
 684:Generated_Source\PSoC4/CSD_Structure.c ****     PARAM_ID_STRUCT pData;
 685:Generated_Source\PSoC4/CSD_Structure.c ****     
 686:Generated_Source\PSoC4/CSD_Structure.c ****     union
 687:Generated_Source\PSoC4/CSD_Structure.c ****     {
 688:Generated_Source\PSoC4/CSD_Structure.c ****         volatile void   * ptr;
 689:Generated_Source\PSoC4/CSD_Structure.c ****         volatile uint8  * ptrUint8;
 690:Generated_Source\PSoC4/CSD_Structure.c ****         volatile uint16 * ptrUint16;
 691:Generated_Source\PSoC4/CSD_Structure.c ****         volatile uint32 * ptrUint32;
 692:Generated_Source\PSoC4/CSD_Structure.c ****     } ptrData;
 693:Generated_Source\PSoC4/CSD_Structure.c ****     
 694:Generated_Source\PSoC4/CSD_Structure.c ****     result = DsParseParamId(paramId, &pData);
 520              		.loc 1 694 0
 521 000a 7A68     		ldr	r2, [r7, #4]
 522 000c 0C23     		mov	r3, #12
 523 000e FB18     		add	r3, r7, r3
 524 0010 101C     		mov	r0, r2
 525 0012 191C     		mov	r1, r3
 526 0014 FFF7FEFF 		bl	DsParseParamId
 527 0018 031C     		mov	r3, r0
 528 001a 7B61     		str	r3, [r7, #20]
 695:Generated_Source\PSoC4/CSD_Structure.c ****     
 696:Generated_Source\PSoC4/CSD_Structure.c ****     /* verify if parameter is writable */
 697:Generated_Source\PSoC4/CSD_Structure.c ****     if (CYRET_SUCCESS == result)
 529              		.loc 1 697 0
 530 001c 7B69     		ldr	r3, [r7, #20]
 531 001e 002B     		cmp	r3, #0
 532 0020 06D1     		bne	.L34
 698:Generated_Source\PSoC4/CSD_Structure.c ****     {
 699:Generated_Source\PSoC4/CSD_Structure.c ****         if (0u == pData.rw)
 533              		.loc 1 699 0
 534 0022 0C23     		mov	r3, #12
 535 0024 FB18     		add	r3, r7, r3
 536 0026 9B79     		ldrb	r3, [r3, #6]
 537 0028 002B     		cmp	r3, #0
 538 002a 01D1     		bne	.L34
 700:Generated_Source\PSoC4/CSD_Structure.c ****         {
 701:Generated_Source\PSoC4/CSD_Structure.c ****             result = CYRET_BAD_PARAM;
 539              		.loc 1 701 0
 540 002c 0123     		mov	r3, #1
 541 002e 7B61     		str	r3, [r7, #20]
 542              	.L34:
 702:Generated_Source\PSoC4/CSD_Structure.c ****         }
 703:Generated_Source\PSoC4/CSD_Structure.c ****     }
 704:Generated_Source\PSoC4/CSD_Structure.c ****     
 705:Generated_Source\PSoC4/CSD_Structure.c ****     /* Parse and validate paramId */
 706:Generated_Source\PSoC4/CSD_Structure.c ****     if (CYRET_SUCCESS == result)
 543              		.loc 1 706 0
 544 0030 7B69     		ldr	r3, [r7, #20]
 545 0032 002B     		cmp	r3, #0
ARM GAS  C:\Users\CHRIST~1\AppData\Local\Temp\ccVM2khi.s 			page 23


 546 0034 27D1     		bne	.L35
 707:Generated_Source\PSoC4/CSD_Structure.c ****     {
 708:Generated_Source\PSoC4/CSD_Structure.c ****         /* Get base address of parameter */
 709:Generated_Source\PSoC4/CSD_Structure.c ****         ptrData.ptr = &CSD_dsRam;
 547              		.loc 1 709 0
 548 0036 164B     		ldr	r3, .L40
 549 0038 BB60     		str	r3, [r7, #8]
 710:Generated_Source\PSoC4/CSD_Structure.c ****         
 711:Generated_Source\PSoC4/CSD_Structure.c ****         /* Add offset to base address */
 712:Generated_Source\PSoC4/CSD_Structure.c ****         ptrData.ptrUint8 += pData.offset;
 550              		.loc 1 712 0
 551 003a BB68     		ldr	r3, [r7, #8]
 552 003c 0C22     		mov	r2, #12
 553 003e BA18     		add	r2, r7, r2
 554 0040 1288     		ldrh	r2, [r2]
 555 0042 9B18     		add	r3, r3, r2
 556 0044 BB60     		str	r3, [r7, #8]
 713:Generated_Source\PSoC4/CSD_Structure.c ****         
 714:Generated_Source\PSoC4/CSD_Structure.c ****         /* Write data */
 715:Generated_Source\PSoC4/CSD_Structure.c ****         if (DS_PARAM_TYPE_UINT8 == pData.type)
 557              		.loc 1 715 0
 558 0046 0C23     		mov	r3, #12
 559 0048 FB18     		add	r3, r7, r3
 560 004a DB79     		ldrb	r3, [r3, #7]
 561 004c 012B     		cmp	r3, #1
 562 004e 04D1     		bne	.L36
 716:Generated_Source\PSoC4/CSD_Structure.c ****         {
 717:Generated_Source\PSoC4/CSD_Structure.c ****             *ptrData.ptrUint8 = LO8(value);
 563              		.loc 1 717 0
 564 0050 BB68     		ldr	r3, [r7, #8]
 565 0052 3A68     		ldr	r2, [r7]
 566 0054 D2B2     		uxtb	r2, r2
 567 0056 1A70     		strb	r2, [r3]
 568 0058 15E0     		b	.L35
 569              	.L36:
 718:Generated_Source\PSoC4/CSD_Structure.c ****         }
 719:Generated_Source\PSoC4/CSD_Structure.c ****         else if (DS_PARAM_TYPE_UINT16 == pData.type)
 570              		.loc 1 719 0
 571 005a 0C23     		mov	r3, #12
 572 005c FB18     		add	r3, r7, r3
 573 005e DB79     		ldrb	r3, [r3, #7]
 574 0060 022B     		cmp	r3, #2
 575 0062 04D1     		bne	.L37
 720:Generated_Source\PSoC4/CSD_Structure.c ****         {
 721:Generated_Source\PSoC4/CSD_Structure.c ****             *ptrData.ptrUint16 = LO16(value);
 576              		.loc 1 721 0
 577 0064 BB68     		ldr	r3, [r7, #8]
 578 0066 3A68     		ldr	r2, [r7]
 579 0068 92B2     		uxth	r2, r2
 580 006a 1A80     		strh	r2, [r3]
 581 006c 0BE0     		b	.L35
 582              	.L37:
 722:Generated_Source\PSoC4/CSD_Structure.c ****         }
 723:Generated_Source\PSoC4/CSD_Structure.c ****         else if (DS_PARAM_TYPE_UINT32 == pData.type)
 583              		.loc 1 723 0
 584 006e 0C23     		mov	r3, #12
 585 0070 FB18     		add	r3, r7, r3
ARM GAS  C:\Users\CHRIST~1\AppData\Local\Temp\ccVM2khi.s 			page 24


 586 0072 DB79     		ldrb	r3, [r3, #7]
 587 0074 032B     		cmp	r3, #3
 588 0076 03D1     		bne	.L38
 724:Generated_Source\PSoC4/CSD_Structure.c ****         {
 725:Generated_Source\PSoC4/CSD_Structure.c ****             *ptrData.ptrUint32 = value;
 589              		.loc 1 725 0
 590 0078 BB68     		ldr	r3, [r7, #8]
 591 007a 3A68     		ldr	r2, [r7]
 592 007c 1A60     		str	r2, [r3]
 593 007e 02E0     		b	.L35
 594              	.L38:
 726:Generated_Source\PSoC4/CSD_Structure.c ****         }
 727:Generated_Source\PSoC4/CSD_Structure.c ****         else
 728:Generated_Source\PSoC4/CSD_Structure.c ****         {
 729:Generated_Source\PSoC4/CSD_Structure.c ****             /* Parameter comes here already validated. */
 730:Generated_Source\PSoC4/CSD_Structure.c ****             CYASSERT(0u);
 595              		.loc 1 730 0 discriminator 1
 596 0080 0020     		mov	r0, #0
 597 0082 FFF7FEFF 		bl	CyHalt
 598              	.L35:
 731:Generated_Source\PSoC4/CSD_Structure.c ****         }
 732:Generated_Source\PSoC4/CSD_Structure.c ****         
 733:Generated_Source\PSoC4/CSD_Structure.c ****         /* Update widget CRC if self-test is enabled and parameter affects it */
 734:Generated_Source\PSoC4/CSD_Structure.c ****         #if (0u != CSD_SELF_TEST_EN)
 735:Generated_Source\PSoC4/CSD_Structure.c ****             if (0u != pData.affectsCrc)
 736:Generated_Source\PSoC4/CSD_Structure.c ****             {
 737:Generated_Source\PSoC4/CSD_Structure.c ****                 CSD_DsUpdateWidgetCrc((uint32)pData.widgetId);
 738:Generated_Source\PSoC4/CSD_Structure.c ****             }
 739:Generated_Source\PSoC4/CSD_Structure.c ****             else
 740:Generated_Source\PSoC4/CSD_Structure.c ****             {
 741:Generated_Source\PSoC4/CSD_Structure.c ****                 if ((ptrData.ptrUint16 >= &CSD_dsRam.csd0Config) &&
 742:Generated_Source\PSoC4/CSD_Structure.c ****                     (ptrData.ptrUint16 <  &CSD_dsRam.glbCrc))
 743:Generated_Source\PSoC4/CSD_Structure.c ****                 {
 744:Generated_Source\PSoC4/CSD_Structure.c ****                     /* Update global data CRC */
 745:Generated_Source\PSoC4/CSD_Structure.c ****                     CSD_dsRam.glbCrc = 
 746:Generated_Source\PSoC4/CSD_Structure.c ****                         CSD_DsCalculateCrc16(
 747:Generated_Source\PSoC4/CSD_Structure.c ****                             (void *)&CSD_dsRam.csd0Config,
 748:Generated_Source\PSoC4/CSD_Structure.c ****                             (uint32)&CSD_dsRam.glbCrc - (uint32)&CSD_dsRam.csd0Config);
 749:Generated_Source\PSoC4/CSD_Structure.c ****                 }
 750:Generated_Source\PSoC4/CSD_Structure.c ****             }
 751:Generated_Source\PSoC4/CSD_Structure.c ****         #endif /* #if (0u != CSD_SELF_TEST_EN) */
 752:Generated_Source\PSoC4/CSD_Structure.c ****     }
 753:Generated_Source\PSoC4/CSD_Structure.c ****     
 754:Generated_Source\PSoC4/CSD_Structure.c ****     return result;
 599              		.loc 1 754 0
 600 0086 7B69     		ldr	r3, [r7, #20]
 755:Generated_Source\PSoC4/CSD_Structure.c **** }
 601              		.loc 1 755 0
 602 0088 181C     		mov	r0, r3
 603 008a BD46     		mov	sp, r7
 604 008c 06B0     		add	sp, sp, #24
 605              		@ sp needed
 606 008e 80BD     		pop	{r7, pc}
 607              	.L41:
 608              		.align	2
 609              	.L40:
 610 0090 00000000 		.word	CSD_dsRam
ARM GAS  C:\Users\CHRIST~1\AppData\Local\Temp\ccVM2khi.s 			page 25


 611              		.cfi_endproc
 612              	.LFE4:
 613              		.size	CSD_SetParam, .-CSD_SetParam
 614              		.section	.text.CSD_IsAnyWidgetActive,"ax",%progbits
 615              		.align	2
 616              		.global	CSD_IsAnyWidgetActive
 617              		.code	16
 618              		.thumb_func
 619              		.type	CSD_IsAnyWidgetActive, %function
 620              	CSD_IsAnyWidgetActive:
 621              	.LFB5:
 756:Generated_Source\PSoC4/CSD_Structure.c **** 
 757:Generated_Source\PSoC4/CSD_Structure.c **** #if (0u != CSD_SELF_TEST_EN)
 758:Generated_Source\PSoC4/CSD_Structure.c **** /*******************************************************************************
 759:Generated_Source\PSoC4/CSD_Structure.c **** * Function Name: DsCalculateCrc16
 760:Generated_Source\PSoC4/CSD_Structure.c **** ****************************************************************************//**
 761:Generated_Source\PSoC4/CSD_Structure.c **** *
 762:Generated_Source\PSoC4/CSD_Structure.c **** * \brief
 763:Generated_Source\PSoC4/CSD_Structure.c **** *   Calculates CRC for the specified buffer and length. CRC Poly: 0xAC9A
 764:Generated_Source\PSoC4/CSD_Structure.c **** *
 765:Generated_Source\PSoC4/CSD_Structure.c **** * \details 
 766:Generated_Source\PSoC4/CSD_Structure.c **** *  This API is used for the CRC protection of the RAM Widget Object.
 767:Generated_Source\PSoC4/CSD_Structure.c **** *  The maximum size of the RAM Widget Object is 192 bits. So, the best suitable 
 768:Generated_Source\PSoC4/CSD_Structure.c **** *  CRC polynomial is 0xAC9A. It has a Hamming distance 5 for data words up to 241 bits.
 769:Generated_Source\PSoC4/CSD_Structure.c **** *    
 770:Generated_Source\PSoC4/CSD_Structure.c **** *  Reference:  "P. Koopman, T. Chakravarthy, 
 771:Generated_Source\PSoC4/CSD_Structure.c **** *  "Cyclic Redundancy Code (CRC) Polynomial Selection for Embedded Networks",
 772:Generated_Source\PSoC4/CSD_Structure.c **** *  The International Conference on Dependable Systems and Networks, DSN-2004"
 773:Generated_Source\PSoC4/CSD_Structure.c **** *
 774:Generated_Source\PSoC4/CSD_Structure.c **** * \param ptrData The pointer to the data.
 775:Generated_Source\PSoC4/CSD_Structure.c **** * \param len     The length of the data in bytes.
 776:Generated_Source\PSoC4/CSD_Structure.c **** *
 777:Generated_Source\PSoC4/CSD_Structure.c **** * \return A calculated CRC-16 value.
 778:Generated_Source\PSoC4/CSD_Structure.c **** *
 779:Generated_Source\PSoC4/CSD_Structure.c **** *******************************************************************************/
 780:Generated_Source\PSoC4/CSD_Structure.c **** uint16 CSD_DsCalculateCrc16(uint8 *ptrData, uint32 len)
 781:Generated_Source\PSoC4/CSD_Structure.c **** {
 782:Generated_Source\PSoC4/CSD_Structure.c ****     uint32 idx;
 783:Generated_Source\PSoC4/CSD_Structure.c ****     uint32 actualCrc = 0Lu;
 784:Generated_Source\PSoC4/CSD_Structure.c ****     const uint16 crcTable[] =
 785:Generated_Source\PSoC4/CSD_Structure.c ****     {
 786:Generated_Source\PSoC4/CSD_Structure.c ****         0x0000u, 0xAC9Au, 0xF5AEu, 0x5934u, 0x47C6u, 0xEB5Cu, 0xB268u, 0x1EF2u,
 787:Generated_Source\PSoC4/CSD_Structure.c ****         0x8F8Cu, 0x2316u, 0x7A22u, 0xD6B8u, 0xC84Au, 0x64D0u, 0x3DE4u, 0x917Eu
 788:Generated_Source\PSoC4/CSD_Structure.c ****     };
 789:Generated_Source\PSoC4/CSD_Structure.c ****     
 790:Generated_Source\PSoC4/CSD_Structure.c ****     for (;len-- > 0u;)
 791:Generated_Source\PSoC4/CSD_Structure.c ****     {
 792:Generated_Source\PSoC4/CSD_Structure.c ****         /* Process HI Nibble */
 793:Generated_Source\PSoC4/CSD_Structure.c ****         idx = ((actualCrc >> 12u) ^ (((uint32)*ptrData) >> 4u)) & 0xFLu;
 794:Generated_Source\PSoC4/CSD_Structure.c ****         actualCrc = crcTable[idx] ^ (actualCrc << 4u);
 795:Generated_Source\PSoC4/CSD_Structure.c **** 
 796:Generated_Source\PSoC4/CSD_Structure.c ****         /* Process LO Nibble */
 797:Generated_Source\PSoC4/CSD_Structure.c ****         idx = ((actualCrc >> 12u) ^ (uint32)*ptrData) & 0xFLu;
 798:Generated_Source\PSoC4/CSD_Structure.c ****         actualCrc = crcTable[idx] ^ (actualCrc << 4u);
 799:Generated_Source\PSoC4/CSD_Structure.c ****         
 800:Generated_Source\PSoC4/CSD_Structure.c ****         ptrData++;
 801:Generated_Source\PSoC4/CSD_Structure.c ****     }
ARM GAS  C:\Users\CHRIST~1\AppData\Local\Temp\ccVM2khi.s 			page 26


 802:Generated_Source\PSoC4/CSD_Structure.c ****         
 803:Generated_Source\PSoC4/CSD_Structure.c ****     return (uint16)actualCrc;
 804:Generated_Source\PSoC4/CSD_Structure.c **** }
 805:Generated_Source\PSoC4/CSD_Structure.c **** 
 806:Generated_Source\PSoC4/CSD_Structure.c **** /*******************************************************************************
 807:Generated_Source\PSoC4/CSD_Structure.c **** * Function Name: CSD_DsUpdateWidgetCrc
 808:Generated_Source\PSoC4/CSD_Structure.c **** ****************************************************************************//**
 809:Generated_Source\PSoC4/CSD_Structure.c **** *
 810:Generated_Source\PSoC4/CSD_Structure.c **** * \brief
 811:Generated_Source\PSoC4/CSD_Structure.c **** *   Recalculates the CRC for the specified widgetId and 
 812:Generated_Source\PSoC4/CSD_Structure.c **** *   writes it to the Data Structure.
 813:Generated_Source\PSoC4/CSD_Structure.c **** *
 814:Generated_Source\PSoC4/CSD_Structure.c **** * \details 
 815:Generated_Source\PSoC4/CSD_Structure.c **** *  The maximum size of the RAM Widget Object is 192 bits. So, the best suitable 
 816:Generated_Source\PSoC4/CSD_Structure.c **** *  CRC polynomial is 0xAC9A that has hamming distance 5 for the data up to 241 bits. 
 817:Generated_Source\PSoC4/CSD_Structure.c **** *    
 818:Generated_Source\PSoC4/CSD_Structure.c **** *  Reference:  "P. Koopman, T. Chakravarthy, 
 819:Generated_Source\PSoC4/CSD_Structure.c **** *  "Cyclic Redundancy Code (CRC) Polynomial Selection for Embedded Networks", 
 820:Generated_Source\PSoC4/CSD_Structure.c **** *  The International Conference on Dependable Systems and Networks, DSN-2004"
 821:Generated_Source\PSoC4/CSD_Structure.c **** *
 822:Generated_Source\PSoC4/CSD_Structure.c **** * \param widgetId  The widget index number.
 823:Generated_Source\PSoC4/CSD_Structure.c **** *
 824:Generated_Source\PSoC4/CSD_Structure.c **** *******************************************************************************/
 825:Generated_Source\PSoC4/CSD_Structure.c **** void CSD_DsUpdateWidgetCrc(uint32 widgetId)
 826:Generated_Source\PSoC4/CSD_Structure.c **** {
 827:Generated_Source\PSoC4/CSD_Structure.c ****     uint32 len;
 828:Generated_Source\PSoC4/CSD_Structure.c ****     uint8 *ptrData;
 829:Generated_Source\PSoC4/CSD_Structure.c ****     CSD_RAM_WD_BASE_STRUCT *ptrWd;
 830:Generated_Source\PSoC4/CSD_Structure.c ****     
 831:Generated_Source\PSoC4/CSD_Structure.c ****     if (widgetId < CSD_TOTAL_WIDGETS)
 832:Generated_Source\PSoC4/CSD_Structure.c ****     {
 833:Generated_Source\PSoC4/CSD_Structure.c ****         /* Get pointer to RAM object data */
 834:Generated_Source\PSoC4/CSD_Structure.c ****         ptrWd = CSD_dsFlash.wdgtArray[widgetId].ptr2WdgtRam;
 835:Generated_Source\PSoC4/CSD_Structure.c ****         ptrData = CSD_dsFlash.wdgtArray[widgetId].ptr2WdgtRam;
 836:Generated_Source\PSoC4/CSD_Structure.c ****         len = (uint32)CSD_dsFlash.wdgtArray[widgetId].ramObjectSize - 2u;
 837:Generated_Source\PSoC4/CSD_Structure.c ****         
 838:Generated_Source\PSoC4/CSD_Structure.c ****         /* Skip CRC in RAM object structure for CRC calculation */
 839:Generated_Source\PSoC4/CSD_Structure.c ****         ptrData += 2u;
 840:Generated_Source\PSoC4/CSD_Structure.c ****       
 841:Generated_Source\PSoC4/CSD_Structure.c ****         ptrWd->crc = CSD_DsCalculateCrc16(ptrData, len);
 842:Generated_Source\PSoC4/CSD_Structure.c ****     }
 843:Generated_Source\PSoC4/CSD_Structure.c **** }
 844:Generated_Source\PSoC4/CSD_Structure.c **** #endif /* #if (0u != CSD_SELF_TEST_EN) */
 845:Generated_Source\PSoC4/CSD_Structure.c **** 
 846:Generated_Source\PSoC4/CSD_Structure.c **** /*******************************************************************************
 847:Generated_Source\PSoC4/CSD_Structure.c **** * Function Name: CSD_IsAnyWidgetActive
 848:Generated_Source\PSoC4/CSD_Structure.c **** ****************************************************************************//**
 849:Generated_Source\PSoC4/CSD_Structure.c **** *
 850:Generated_Source\PSoC4/CSD_Structure.c **** * \brief
 851:Generated_Source\PSoC4/CSD_Structure.c **** *  Reports if any widget has detected a touch.
 852:Generated_Source\PSoC4/CSD_Structure.c **** *
 853:Generated_Source\PSoC4/CSD_Structure.c **** * \details
 854:Generated_Source\PSoC4/CSD_Structure.c **** *  This function reports if any widget has detected a touch or not by extracting 
 855:Generated_Source\PSoC4/CSD_Structure.c **** *  the information from the wdgtStatus registers 
 856:Generated_Source\PSoC4/CSD_Structure.c **** *  (CSD_WDGT_STATUS<X>_VALUE). This function does not process any 
 857:Generated_Source\PSoC4/CSD_Structure.c **** *  widget but extracts the processed results from the \ref group_structures.
 858:Generated_Source\PSoC4/CSD_Structure.c **** *
ARM GAS  C:\Users\CHRIST~1\AppData\Local\Temp\ccVM2khi.s 			page 27


 859:Generated_Source\PSoC4/CSD_Structure.c **** * \return 
 860:Generated_Source\PSoC4/CSD_Structure.c **** *   Returns the touch detection status of all widgets:
 861:Generated_Source\PSoC4/CSD_Structure.c **** *     - Zero if no touch is detected in all widgets or sensors.
 862:Generated_Source\PSoC4/CSD_Structure.c **** *     - Non-zero if at least one widget or sensor detected a touch.
 863:Generated_Source\PSoC4/CSD_Structure.c **** *
 864:Generated_Source\PSoC4/CSD_Structure.c **** *******************************************************************************/
 865:Generated_Source\PSoC4/CSD_Structure.c **** uint32 CSD_IsAnyWidgetActive(void)
 866:Generated_Source\PSoC4/CSD_Structure.c **** {
 622              		.loc 1 866 0
 623              		.cfi_startproc
 624 0000 80B5     		push	{r7, lr}
 625              		.cfi_def_cfa_offset 8
 626              		.cfi_offset 7, -8
 627              		.cfi_offset 14, -4
 628 0002 82B0     		sub	sp, sp, #8
 629              		.cfi_def_cfa_offset 16
 630 0004 00AF     		add	r7, sp, #0
 631              		.cfi_def_cfa_register 7
 867:Generated_Source\PSoC4/CSD_Structure.c ****     uint32 result = 0Lu;
 632              		.loc 1 867 0
 633 0006 0023     		mov	r3, #0
 634 0008 7B60     		str	r3, [r7, #4]
 868:Generated_Source\PSoC4/CSD_Structure.c ****     uint32 wdWord;
 869:Generated_Source\PSoC4/CSD_Structure.c ****     
 870:Generated_Source\PSoC4/CSD_Structure.c ****     for (wdWord = CSD_WDGT_STATUS_WORDS; wdWord-- > 0u;)
 635              		.loc 1 870 0
 636 000a 0123     		mov	r3, #1
 637 000c 3B60     		str	r3, [r7]
 638 000e 07E0     		b	.L43
 639              	.L44:
 871:Generated_Source\PSoC4/CSD_Structure.c ****     {
 872:Generated_Source\PSoC4/CSD_Structure.c ****         result |= CSD_dsRam.wdgtStatus[wdWord];
 640              		.loc 1 872 0
 641 0010 084B     		ldr	r3, .L46
 642 0012 3A68     		ldr	r2, [r7]
 643 0014 0432     		add	r2, r2, #4
 644 0016 9200     		lsl	r2, r2, #2
 645 0018 D358     		ldr	r3, [r2, r3]
 646 001a 7A68     		ldr	r2, [r7, #4]
 647 001c 1343     		orr	r3, r2
 648 001e 7B60     		str	r3, [r7, #4]
 649              	.L43:
 870:Generated_Source\PSoC4/CSD_Structure.c ****     {
 650              		.loc 1 870 0 discriminator 1
 651 0020 3B68     		ldr	r3, [r7]
 652 0022 5A1E     		sub	r2, r3, #1
 653 0024 3A60     		str	r2, [r7]
 654 0026 002B     		cmp	r3, #0
 655 0028 F2D1     		bne	.L44
 873:Generated_Source\PSoC4/CSD_Structure.c ****     }
 874:Generated_Source\PSoC4/CSD_Structure.c ****     
 875:Generated_Source\PSoC4/CSD_Structure.c ****     return result;
 656              		.loc 1 875 0
 657 002a 7B68     		ldr	r3, [r7, #4]
 876:Generated_Source\PSoC4/CSD_Structure.c **** }
 658              		.loc 1 876 0
 659 002c 181C     		mov	r0, r3
ARM GAS  C:\Users\CHRIST~1\AppData\Local\Temp\ccVM2khi.s 			page 28


 660 002e BD46     		mov	sp, r7
 661 0030 02B0     		add	sp, sp, #8
 662              		@ sp needed
 663 0032 80BD     		pop	{r7, pc}
 664              	.L47:
 665              		.align	2
 666              	.L46:
 667 0034 00000000 		.word	CSD_dsRam
 668              		.cfi_endproc
 669              	.LFE5:
 670              		.size	CSD_IsAnyWidgetActive, .-CSD_IsAnyWidgetActive
 671              		.section	.text.CSD_IsWidgetActive,"ax",%progbits
 672              		.align	2
 673              		.global	CSD_IsWidgetActive
 674              		.code	16
 675              		.thumb_func
 676              		.type	CSD_IsWidgetActive, %function
 677              	CSD_IsWidgetActive:
 678              	.LFB6:
 877:Generated_Source\PSoC4/CSD_Structure.c **** 
 878:Generated_Source\PSoC4/CSD_Structure.c **** 
 879:Generated_Source\PSoC4/CSD_Structure.c **** /*******************************************************************************
 880:Generated_Source\PSoC4/CSD_Structure.c **** * Function Name: CSD_IsWidgetActive
 881:Generated_Source\PSoC4/CSD_Structure.c **** ****************************************************************************//**
 882:Generated_Source\PSoC4/CSD_Structure.c **** *
 883:Generated_Source\PSoC4/CSD_Structure.c **** * \brief
 884:Generated_Source\PSoC4/CSD_Structure.c **** *  Reports if the specified widget detects a touch on any of its sensors.
 885:Generated_Source\PSoC4/CSD_Structure.c **** *
 886:Generated_Source\PSoC4/CSD_Structure.c **** * \details
 887:Generated_Source\PSoC4/CSD_Structure.c **** *  This function reports if the specified widget has detected a touch or not by 
 888:Generated_Source\PSoC4/CSD_Structure.c **** *  extracting the information from the wdgtStatus registers 
 889:Generated_Source\PSoC4/CSD_Structure.c **** *  (CSD_WDGT_STATUS<X>_VALUE). This function does not process the 
 890:Generated_Source\PSoC4/CSD_Structure.c **** *  widget, but extracts the processed results from the \ref group_structures.
 891:Generated_Source\PSoC4/CSD_Structure.c **** *
 892:Generated_Source\PSoC4/CSD_Structure.c **** * \param widgetId  
 893:Generated_Source\PSoC4/CSD_Structure.c **** *  Specify the ID number of the widget to get its status.
 894:Generated_Source\PSoC4/CSD_Structure.c **** *  A macro for the widget ID can be found in CSD_Configuration.h 
 895:Generated_Source\PSoC4/CSD_Structure.c **** *  file defined as CSD_<WidgetName>_WDGT_ID.
 896:Generated_Source\PSoC4/CSD_Structure.c **** *
 897:Generated_Source\PSoC4/CSD_Structure.c **** * \return 
 898:Generated_Source\PSoC4/CSD_Structure.c **** *  Returns the touch detection status of the specified widgets:
 899:Generated_Source\PSoC4/CSD_Structure.c **** *    - Zero if no touch is detected in the specified widget or a wrong widgetId
 900:Generated_Source\PSoC4/CSD_Structure.c **** *      is specified
 901:Generated_Source\PSoC4/CSD_Structure.c **** *    - Non-zero if at least one sensor of the specified widget is active i.e. 
 902:Generated_Source\PSoC4/CSD_Structure.c **** *      touch is detected
 903:Generated_Source\PSoC4/CSD_Structure.c **** *
 904:Generated_Source\PSoC4/CSD_Structure.c **** *******************************************************************************/
 905:Generated_Source\PSoC4/CSD_Structure.c **** uint32 CSD_IsWidgetActive(uint32 widgetId)
 906:Generated_Source\PSoC4/CSD_Structure.c **** {
 679              		.loc 1 906 0
 680              		.cfi_startproc
 681 0000 80B5     		push	{r7, lr}
 682              		.cfi_def_cfa_offset 8
 683              		.cfi_offset 7, -8
 684              		.cfi_offset 14, -4
 685 0002 84B0     		sub	sp, sp, #16
 686              		.cfi_def_cfa_offset 24
ARM GAS  C:\Users\CHRIST~1\AppData\Local\Temp\ccVM2khi.s 			page 29


 687 0004 00AF     		add	r7, sp, #0
 688              		.cfi_def_cfa_register 7
 689 0006 7860     		str	r0, [r7, #4]
 907:Generated_Source\PSoC4/CSD_Structure.c ****     uint32 result = 0Lu;
 690              		.loc 1 907 0
 691 0008 0023     		mov	r3, #0
 692 000a FB60     		str	r3, [r7, #12]
 908:Generated_Source\PSoC4/CSD_Structure.c ****    
 909:Generated_Source\PSoC4/CSD_Structure.c ****     if (widgetId < CSD_TOTAL_WIDGETS)
 693              		.loc 1 909 0
 694 000c 7B68     		ldr	r3, [r7, #4]
 695 000e 002B     		cmp	r3, #0
 696 0010 0DD1     		bne	.L49
 910:Generated_Source\PSoC4/CSD_Structure.c ****     {
 911:Generated_Source\PSoC4/CSD_Structure.c ****         result = CSD_GET_WIDGET_ACTIVE_STATUS(widgetId);
 697              		.loc 1 911 0
 698 0012 7B68     		ldr	r3, [r7, #4]
 699 0014 1F22     		mov	r2, #31
 700 0016 1340     		and	r3, r2
 701 0018 0122     		mov	r2, #1
 702 001a 9A40     		lsl	r2, r2, r3
 703 001c 131C     		mov	r3, r2
 704 001e 7A68     		ldr	r2, [r7, #4]
 705 0020 5109     		lsr	r1, r2, #5
 706 0022 054A     		ldr	r2, .L51
 707 0024 0431     		add	r1, r1, #4
 708 0026 8900     		lsl	r1, r1, #2
 709 0028 8A58     		ldr	r2, [r1, r2]
 710 002a 1340     		and	r3, r2
 711 002c FB60     		str	r3, [r7, #12]
 712              	.L49:
 912:Generated_Source\PSoC4/CSD_Structure.c ****     }
 913:Generated_Source\PSoC4/CSD_Structure.c ****     return result;
 713              		.loc 1 913 0
 714 002e FB68     		ldr	r3, [r7, #12]
 914:Generated_Source\PSoC4/CSD_Structure.c **** }
 715              		.loc 1 914 0
 716 0030 181C     		mov	r0, r3
 717 0032 BD46     		mov	sp, r7
 718 0034 04B0     		add	sp, sp, #16
 719              		@ sp needed
 720 0036 80BD     		pop	{r7, pc}
 721              	.L52:
 722              		.align	2
 723              	.L51:
 724 0038 00000000 		.word	CSD_dsRam
 725              		.cfi_endproc
 726              	.LFE6:
 727              		.size	CSD_IsWidgetActive, .-CSD_IsWidgetActive
 728              		.section	.text.CSD_IsSensorActive,"ax",%progbits
 729              		.align	2
 730              		.global	CSD_IsSensorActive
 731              		.code	16
 732              		.thumb_func
 733              		.type	CSD_IsSensorActive, %function
 734              	CSD_IsSensorActive:
 735              	.LFB7:
ARM GAS  C:\Users\CHRIST~1\AppData\Local\Temp\ccVM2khi.s 			page 30


 915:Generated_Source\PSoC4/CSD_Structure.c **** 
 916:Generated_Source\PSoC4/CSD_Structure.c **** 
 917:Generated_Source\PSoC4/CSD_Structure.c **** /*******************************************************************************
 918:Generated_Source\PSoC4/CSD_Structure.c **** * Function Name: CSD_IsSensorActive
 919:Generated_Source\PSoC4/CSD_Structure.c **** ****************************************************************************//**
 920:Generated_Source\PSoC4/CSD_Structure.c **** *
 921:Generated_Source\PSoC4/CSD_Structure.c **** * \brief
 922:Generated_Source\PSoC4/CSD_Structure.c **** *  Reports if the specified sensor in the widget detects a touch.
 923:Generated_Source\PSoC4/CSD_Structure.c **** *
 924:Generated_Source\PSoC4/CSD_Structure.c **** * \details 
 925:Generated_Source\PSoC4/CSD_Structure.c **** *  This function reports if the specified sensor in the widget has detected a 
 926:Generated_Source\PSoC4/CSD_Structure.c **** *  touch or not by extracting the information from wdgtStatus registers 
 927:Generated_Source\PSoC4/CSD_Structure.c **** *  (CSD_WDGT_STATUS<X>_VALUE). This function does not process the
 928:Generated_Source\PSoC4/CSD_Structure.c **** *  widget or sensor, but extracts the processed results from the \ref group_structures.
 929:Generated_Source\PSoC4/CSD_Structure.c **** *   
 930:Generated_Source\PSoC4/CSD_Structure.c **** *  For Proximity sensors this function returns proximity detection status. To 
 931:Generated_Source\PSoC4/CSD_Structure.c **** *  get finger touch status of proximity sensors, use the 
 932:Generated_Source\PSoC4/CSD_Structure.c **** *  CSD_IsProximityTouchActive() function. 
 933:Generated_Source\PSoC4/CSD_Structure.c **** *
 934:Generated_Source\PSoC4/CSD_Structure.c **** * \param widgetId  
 935:Generated_Source\PSoC4/CSD_Structure.c **** *  Specify the ID number of the widget.
 936:Generated_Source\PSoC4/CSD_Structure.c **** *  A macro for the widget ID can be found in CSD_Configuration.h 
 937:Generated_Source\PSoC4/CSD_Structure.c **** *  file defined as CSD_<WidgetName>_WDGT_ID 
 938:Generated_Source\PSoC4/CSD_Structure.c **** 
 939:Generated_Source\PSoC4/CSD_Structure.c **** * \param sensorId  
 940:Generated_Source\PSoC4/CSD_Structure.c **** *  Specify the ID number of the sensor within the widget to get its touch 
 941:Generated_Source\PSoC4/CSD_Structure.c **** *  detection status.
 942:Generated_Source\PSoC4/CSD_Structure.c **** *  A macro for the sensor ID within specified widget can be found in 
 943:Generated_Source\PSoC4/CSD_Structure.c **** *  CSD_Configuration.h file defined as 
 944:Generated_Source\PSoC4/CSD_Structure.c **** *  CSD_<WidgetName>_SNS<SensorNumber>_ID 
 945:Generated_Source\PSoC4/CSD_Structure.c **** *
 946:Generated_Source\PSoC4/CSD_Structure.c **** * \return 
 947:Generated_Source\PSoC4/CSD_Structure.c **** *  Returns the touch detection status of the specified sensor / widget:
 948:Generated_Source\PSoC4/CSD_Structure.c **** *    - Zero if no touch is detected in the specified sensor / widget or a wrong
 949:Generated_Source\PSoC4/CSD_Structure.c **** *      widget ID / sensor ID is specified
 950:Generated_Source\PSoC4/CSD_Structure.c **** *    - Non-zero if the specified sensor is active i.e. touch is detected. If the
 951:Generated_Source\PSoC4/CSD_Structure.c **** *      specific sensor belongs to a proximity widget, the proximity detection 
 952:Generated_Source\PSoC4/CSD_Structure.c **** *      status is returned.
 953:Generated_Source\PSoC4/CSD_Structure.c **** *
 954:Generated_Source\PSoC4/CSD_Structure.c **** *******************************************************************************/
 955:Generated_Source\PSoC4/CSD_Structure.c **** uint32 CSD_IsSensorActive(uint32 widgetId, uint32 sensorId)
 956:Generated_Source\PSoC4/CSD_Structure.c **** {
 736              		.loc 1 956 0
 737              		.cfi_startproc
 738 0000 80B5     		push	{r7, lr}
 739              		.cfi_def_cfa_offset 8
 740              		.cfi_offset 7, -8
 741              		.cfi_offset 14, -4
 742 0002 84B0     		sub	sp, sp, #16
 743              		.cfi_def_cfa_offset 24
 744 0004 00AF     		add	r7, sp, #0
 745              		.cfi_def_cfa_register 7
 746 0006 7860     		str	r0, [r7, #4]
 747 0008 3960     		str	r1, [r7]
 957:Generated_Source\PSoC4/CSD_Structure.c ****     uint32 result = 0Lu;
 748              		.loc 1 957 0
 749 000a 0023     		mov	r3, #0
ARM GAS  C:\Users\CHRIST~1\AppData\Local\Temp\ccVM2khi.s 			page 31


 750 000c FB60     		str	r3, [r7, #12]
 958:Generated_Source\PSoC4/CSD_Structure.c ****     
 959:Generated_Source\PSoC4/CSD_Structure.c ****     if ((widgetId < CSD_TOTAL_WIDGETS) &&
 751              		.loc 1 959 0
 752 000e 7B68     		ldr	r3, [r7, #4]
 753 0010 002B     		cmp	r3, #0
 754 0012 18D1     		bne	.L54
 960:Generated_Source\PSoC4/CSD_Structure.c ****         (sensorId < CSD_GET_SENSOR_COUNT(widgetId)))
 755              		.loc 1 960 0 discriminator 1
 756 0014 0E49     		ldr	r1, .L56
 757 0016 7A68     		ldr	r2, [r7, #4]
 758 0018 131C     		mov	r3, r2
 759 001a DB00     		lsl	r3, r3, #3
 760 001c 9B1A     		sub	r3, r3, r2
 761 001e 9B00     		lsl	r3, r3, #2
 762 0020 CB18     		add	r3, r1, r3
 763 0022 1033     		add	r3, r3, #16
 764 0024 DB88     		ldrh	r3, [r3, #6]
 765 0026 1A1E     		sub	r2, r3, #0
 959:Generated_Source\PSoC4/CSD_Structure.c ****         (sensorId < CSD_GET_SENSOR_COUNT(widgetId)))
 766              		.loc 1 959 0 discriminator 1
 767 0028 3B68     		ldr	r3, [r7]
 768 002a 9A42     		cmp	r2, r3
 769 002c 0BD9     		bls	.L54
 961:Generated_Source\PSoC4/CSD_Structure.c ****     {
 962:Generated_Source\PSoC4/CSD_Structure.c ****         #if (CSD_ENABLE == CSD_PROXIMITY_WIDGET_EN)
 963:Generated_Source\PSoC4/CSD_Structure.c ****             if (CSD_WD_PROXIMITY_E == 
 964:Generated_Source\PSoC4/CSD_Structure.c **** 				(CSD_WD_TYPE_ENUM)CSD_dsFlash.wdgtArray[widgetId].wdgtType)
 965:Generated_Source\PSoC4/CSD_Structure.c ****             {
 966:Generated_Source\PSoC4/CSD_Structure.c ****                 sensorId = CSD_PROX_STS_OFFSET(sensorId);
 967:Generated_Source\PSoC4/CSD_Structure.c ****             }
 968:Generated_Source\PSoC4/CSD_Structure.c ****         #endif /* (CSD_ENABLE != CSD_PROXIMITY_WIDGET_EN) */
 969:Generated_Source\PSoC4/CSD_Structure.c ****         result = CSD_dsRam.snsStatus[widgetId] & (1Lu << sensorId);
 770              		.loc 1 969 0
 771 002e 094A     		ldr	r2, .L56+4
 772 0030 7B68     		ldr	r3, [r7, #4]
 773 0032 D318     		add	r3, r2, r3
 774 0034 1033     		add	r3, r3, #16
 775 0036 1B79     		ldrb	r3, [r3, #4]
 776 0038 191C     		mov	r1, r3
 777 003a 3B68     		ldr	r3, [r7]
 778 003c 0122     		mov	r2, #1
 779 003e 9A40     		lsl	r2, r2, r3
 780 0040 131C     		mov	r3, r2
 781 0042 0B40     		and	r3, r1
 782 0044 FB60     		str	r3, [r7, #12]
 783              	.L54:
 970:Generated_Source\PSoC4/CSD_Structure.c ****     }
 971:Generated_Source\PSoC4/CSD_Structure.c ****     
 972:Generated_Source\PSoC4/CSD_Structure.c ****     return result;
 784              		.loc 1 972 0
 785 0046 FB68     		ldr	r3, [r7, #12]
 973:Generated_Source\PSoC4/CSD_Structure.c **** }
 786              		.loc 1 973 0
 787 0048 181C     		mov	r0, r3
 788 004a BD46     		mov	sp, r7
 789 004c 04B0     		add	sp, sp, #16
ARM GAS  C:\Users\CHRIST~1\AppData\Local\Temp\ccVM2khi.s 			page 32


 790              		@ sp needed
 791 004e 80BD     		pop	{r7, pc}
 792              	.L57:
 793              		.align	2
 794              	.L56:
 795 0050 00000000 		.word	CSD_dsFlash
 796 0054 00000000 		.word	CSD_dsRam
 797              		.cfi_endproc
 798              	.LFE7:
 799              		.size	CSD_IsSensorActive, .-CSD_IsSensorActive
 800              		.text
 801              	.Letext0:
 802              		.file 2 "Generated_Source\\PSoC4/cytypes.h"
 803              		.file 3 "Generated_Source\\PSoC4\\CSD_Configuration.h"
 804              		.file 4 "Generated_Source\\PSoC4\\CSD_Structure.h"