ARM GAS  C:\Users\CHRIST~1\AppData\Local\Temp\ccdqcrh1.s 			page 1


   1              		.cpu cortex-m0plus
   2              		.fpu softvfp
   3              		.eabi_attribute 20, 1
   4              		.eabi_attribute 21, 1
   5              		.eabi_attribute 23, 3
   6              		.eabi_attribute 24, 1
   7              		.eabi_attribute 25, 1
   8              		.eabi_attribute 26, 1
   9              		.eabi_attribute 30, 6
  10              		.eabi_attribute 34, 0
  11              		.eabi_attribute 18, 4
  12              		.code	16
  13              		.file	"CSD_Control.c"
  14              		.text
  15              	.Ltext0:
  16              		.cfi_sections	.debug_frame
  17              		.bss
  18              	CSD_InitVar:
  19 0000 00       		.space	1
  20              		.section	.text.CSD_Start,"ax",%progbits
  21              		.align	2
  22              		.global	CSD_Start
  23              		.code	16
  24              		.thumb_func
  25              		.type	CSD_Start, %function
  26              	CSD_Start:
  27              	.LFB1:
  28              		.file 1 "Generated_Source\\PSoC4\\CSD_Control.c"
   1:Generated_Source\PSoC4/CSD_Control.c **** /***************************************************************************//**
   2:Generated_Source\PSoC4/CSD_Control.c **** * \file CSD_Control.c
   3:Generated_Source\PSoC4/CSD_Control.c **** * \version 3.0
   4:Generated_Source\PSoC4/CSD_Control.c **** *
   5:Generated_Source\PSoC4/CSD_Control.c **** * \brief
   6:Generated_Source\PSoC4/CSD_Control.c **** * This file provides the source code to the Control module API of the Component.
   7:Generated_Source\PSoC4/CSD_Control.c **** *
   8:Generated_Source\PSoC4/CSD_Control.c **** * \see CapSense P4 v3.0 Datasheet
   9:Generated_Source\PSoC4/CSD_Control.c **** *
  10:Generated_Source\PSoC4/CSD_Control.c **** *//*****************************************************************************
  11:Generated_Source\PSoC4/CSD_Control.c **** * Copyright (2016), Cypress Semiconductor Corporation.
  12:Generated_Source\PSoC4/CSD_Control.c **** ********************************************************************************
  13:Generated_Source\PSoC4/CSD_Control.c **** * This software is owned by Cypress Semiconductor Corporation (Cypress) and is
  14:Generated_Source\PSoC4/CSD_Control.c **** * protected by and subject to worldwide patent protection (United States and
  15:Generated_Source\PSoC4/CSD_Control.c **** * foreign), United States copyright laws and international treaty provisions.
  16:Generated_Source\PSoC4/CSD_Control.c **** * Cypress hereby grants to licensee a personal, non-exclusive, non-transferable
  17:Generated_Source\PSoC4/CSD_Control.c **** * license to copy, use, modify, create derivative works of, and compile the
  18:Generated_Source\PSoC4/CSD_Control.c **** * Cypress Source Code and derivative works for the sole purpose of creating
  19:Generated_Source\PSoC4/CSD_Control.c **** * custom software in support of licensee product to be used only in conjunction
  20:Generated_Source\PSoC4/CSD_Control.c **** * with a Cypress integrated circuit as specified in the applicable agreement.
  21:Generated_Source\PSoC4/CSD_Control.c **** * Any reproduction, modification, translation, compilation, or representation of
  22:Generated_Source\PSoC4/CSD_Control.c **** * this software except as specified above is prohibited without the express
  23:Generated_Source\PSoC4/CSD_Control.c **** * written permission of Cypress.
  24:Generated_Source\PSoC4/CSD_Control.c **** *
  25:Generated_Source\PSoC4/CSD_Control.c **** * Disclaimer: CYPRESS MAKES NO WARRANTY OF ANY KIND, EXPRESS OR IMPLIED, WITH
  26:Generated_Source\PSoC4/CSD_Control.c **** * REGARD TO THIS MATERIAL, INCLUDING, BUT NOT LIMITED TO, THE IMPLIED
  27:Generated_Source\PSoC4/CSD_Control.c **** * WARRANTIES OF MERCHANTABILITY AND FITNESS FOR A PARTICULAR PURPOSE.
  28:Generated_Source\PSoC4/CSD_Control.c **** * Cypress reserves the right to make changes without further notice to the
  29:Generated_Source\PSoC4/CSD_Control.c **** * materials described herein. Cypress does not assume any liability arising out
ARM GAS  C:\Users\CHRIST~1\AppData\Local\Temp\ccdqcrh1.s 			page 2


  30:Generated_Source\PSoC4/CSD_Control.c **** * of the application or use of any product or circuit described herein. Cypress
  31:Generated_Source\PSoC4/CSD_Control.c **** * does not authorize its products for use as critical components in life-support
  32:Generated_Source\PSoC4/CSD_Control.c **** * systems where a malfunction or failure may reasonably be expected to result in
  33:Generated_Source\PSoC4/CSD_Control.c **** * significant injury to the user. The inclusion of Cypress' product in a life-
  34:Generated_Source\PSoC4/CSD_Control.c **** * support systems application implies that the manufacturer assumes all risk of
  35:Generated_Source\PSoC4/CSD_Control.c **** * such use and in doing so indemnifies Cypress against all charges. Use may be
  36:Generated_Source\PSoC4/CSD_Control.c **** * limited by and subject to the applicable Cypress software license agreement.
  37:Generated_Source\PSoC4/CSD_Control.c **** *******************************************************************************/
  38:Generated_Source\PSoC4/CSD_Control.c **** 
  39:Generated_Source\PSoC4/CSD_Control.c **** #include "cytypes.h"
  40:Generated_Source\PSoC4/CSD_Control.c **** #include "CyLib.h"
  41:Generated_Source\PSoC4/CSD_Control.c **** #include "cyPm.h"
  42:Generated_Source\PSoC4/CSD_Control.c **** #include "CSD_Configuration.h"
  43:Generated_Source\PSoC4/CSD_Control.c **** #include "CSD_Structure.h"
  44:Generated_Source\PSoC4/CSD_Control.c **** #include "CSD_Control.h"
  45:Generated_Source\PSoC4/CSD_Control.c **** #include "CSD_Processing.h"
  46:Generated_Source\PSoC4/CSD_Control.c **** #include "CSD_Filter.h"
  47:Generated_Source\PSoC4/CSD_Control.c **** #include "CSD_Sensing.h"
  48:Generated_Source\PSoC4/CSD_Control.c **** #include "CSD_Tuner.h"
  49:Generated_Source\PSoC4/CSD_Control.c **** 
  50:Generated_Source\PSoC4/CSD_Control.c **** #if (0u != CSD_ADC_EN)
  51:Generated_Source\PSoC4/CSD_Control.c ****     #include "CSD_Adc.h"
  52:Generated_Source\PSoC4/CSD_Control.c **** #endif /* (0u != CSD_ADC_EN) */
  53:Generated_Source\PSoC4/CSD_Control.c **** /**************************************************************************************************
  54:Generated_Source\PSoC4/CSD_Control.c **** * Local definition
  55:Generated_Source\PSoC4/CSD_Control.c **** ***************************************************************************************************
  56:Generated_Source\PSoC4/CSD_Control.c **** #define CSD_INIT_DONE   (1u)
  57:Generated_Source\PSoC4/CSD_Control.c **** #define CSD_INIT_NEEDED (0u)
  58:Generated_Source\PSoC4/CSD_Control.c **** 
  59:Generated_Source\PSoC4/CSD_Control.c **** /**************************************************************************************************
  60:Generated_Source\PSoC4/CSD_Control.c **** * Local variables
  61:Generated_Source\PSoC4/CSD_Control.c **** ***************************************************************************************************
  62:Generated_Source\PSoC4/CSD_Control.c **** static uint8 CSD_InitVar = CSD_INIT_NEEDED;
  63:Generated_Source\PSoC4/CSD_Control.c **** 
  64:Generated_Source\PSoC4/CSD_Control.c **** /*******************************************************************************
  65:Generated_Source\PSoC4/CSD_Control.c **** * Function Name: CSD_Start
  66:Generated_Source\PSoC4/CSD_Control.c **** ****************************************************************************//**
  67:Generated_Source\PSoC4/CSD_Control.c **** *
  68:Generated_Source\PSoC4/CSD_Control.c **** * \brief
  69:Generated_Source\PSoC4/CSD_Control.c **** *  Initializes component hardware and firmware modules. This function should be 
  70:Generated_Source\PSoC4/CSD_Control.c **** *  called by the application program prior to calling any other function of the 
  71:Generated_Source\PSoC4/CSD_Control.c **** *  component.
  72:Generated_Source\PSoC4/CSD_Control.c **** *
  73:Generated_Source\PSoC4/CSD_Control.c **** * \details
  74:Generated_Source\PSoC4/CSD_Control.c **** *  This function initializes the component hardware and firmware modules and 
  75:Generated_Source\PSoC4/CSD_Control.c **** *  should be called by the application program prior to calling any other API
  76:Generated_Source\PSoC4/CSD_Control.c **** *  of the component. When this function is called, the following tasks are 
  77:Generated_Source\PSoC4/CSD_Control.c **** *  executed as part of the initialization process:
  78:Generated_Source\PSoC4/CSD_Control.c **** *    1. Initialize the registers of the \ref group_structures variable 
  79:Generated_Source\PSoC4/CSD_Control.c **** *       CSD_dsRam based on the user selection in component 
  80:Generated_Source\PSoC4/CSD_Control.c **** *       configuration wizard. 
  81:Generated_Source\PSoC4/CSD_Control.c **** *    2. Configure the hardware to perform capacitive sensing.
  82:Generated_Source\PSoC4/CSD_Control.c **** *    3. If SmartSense Auto-tuning is selected for the CSD Tuning mode in the 
  83:Generated_Source\PSoC4/CSD_Control.c **** *       Basic tab, the auto-tuning algorithm is executed to set the optimal 
  84:Generated_Source\PSoC4/CSD_Control.c **** *       values for the hardware parameters of the widgets/sensors.
  85:Generated_Source\PSoC4/CSD_Control.c **** *    4. Calibrate the sensors and find the optimal values for IDACs of each 
  86:Generated_Source\PSoC4/CSD_Control.c **** *       widget / sensor, if the Enable IDAC auto-calibration is enabled in the
ARM GAS  C:\Users\CHRIST~1\AppData\Local\Temp\ccdqcrh1.s 			page 3


  87:Generated_Source\PSoC4/CSD_Control.c **** *       CSD Setting or CSX Setting tabs.
  88:Generated_Source\PSoC4/CSD_Control.c **** *    5. Perform a scan for all sensors and initialize the baseline history. 
  89:Generated_Source\PSoC4/CSD_Control.c **** *       During the scan, CPU is in the sleep mode to save power.
  90:Generated_Source\PSoC4/CSD_Control.c **** *    6. If the firmware filters are enabled in the Advanced General tab, the 
  91:Generated_Source\PSoC4/CSD_Control.c **** *       filter histories are also initialized.
  92:Generated_Source\PSoC4/CSD_Control.c **** 
  93:Generated_Source\PSoC4/CSD_Control.c **** *  Any next call of this API repeats an initialization process except for 
  94:Generated_Source\PSoC4/CSD_Control.c **** *  data structure initialization. Therefore, it is possible to change the 
  95:Generated_Source\PSoC4/CSD_Control.c **** *  component configuration from the application program by writing to the 
  96:Generated_Source\PSoC4/CSD_Control.c **** *  data structure registers and calling this function again. This is also 
  97:Generated_Source\PSoC4/CSD_Control.c **** *  done inside the CSD_RunTuner() function when a restart command 
  98:Generated_Source\PSoC4/CSD_Control.c **** *  is received. 
  99:Generated_Source\PSoC4/CSD_Control.c **** *
 100:Generated_Source\PSoC4/CSD_Control.c **** *  When the component operation is stopped by the CSD_Stop() 
 101:Generated_Source\PSoC4/CSD_Control.c **** *  function, the CSD_Start() function repeats an initialization 
 102:Generated_Source\PSoC4/CSD_Control.c **** *  process including data structure initialization.
 103:Generated_Source\PSoC4/CSD_Control.c **** *
 104:Generated_Source\PSoC4/CSD_Control.c **** * \return
 105:Generated_Source\PSoC4/CSD_Control.c **** *  Returns the status of the initialization process. If CYRET_SUCCESS is not 
 106:Generated_Source\PSoC4/CSD_Control.c **** *  received, some of the initialization fails and the component may not operate
 107:Generated_Source\PSoC4/CSD_Control.c **** *  as expected.
 108:Generated_Source\PSoC4/CSD_Control.c **** *
 109:Generated_Source\PSoC4/CSD_Control.c **** *******************************************************************************/
 110:Generated_Source\PSoC4/CSD_Control.c **** cystatus CSD_Start(void)
 111:Generated_Source\PSoC4/CSD_Control.c **** {
  29              		.loc 1 111 0
  30              		.cfi_startproc
  31 0000 90B5     		push	{r4, r7, lr}
  32              		.cfi_def_cfa_offset 12
  33              		.cfi_offset 4, -12
  34              		.cfi_offset 7, -8
  35              		.cfi_offset 14, -4
  36 0002 83B0     		sub	sp, sp, #12
  37              		.cfi_def_cfa_offset 24
  38 0004 00AF     		add	r7, sp, #0
  39              		.cfi_def_cfa_register 7
 112:Generated_Source\PSoC4/CSD_Control.c ****     cystatus result;
 113:Generated_Source\PSoC4/CSD_Control.c ****     uint8 interruptState;
 114:Generated_Source\PSoC4/CSD_Control.c **** 
 115:Generated_Source\PSoC4/CSD_Control.c ****     /* Initialize CSD modules */
 116:Generated_Source\PSoC4/CSD_Control.c ****     result = CSD_Initialize();
  40              		.loc 1 116 0
  41 0006 FFF7FEFF 		bl	CSD_Initialize
  42 000a 031C     		mov	r3, r0
  43 000c 7B60     		str	r3, [r7, #4]
 117:Generated_Source\PSoC4/CSD_Control.c **** 
 118:Generated_Source\PSoC4/CSD_Control.c ****     #if (0u != CSD_SELF_TEST_EN)
 119:Generated_Source\PSoC4/CSD_Control.c ****         if (CYRET_SUCCESS == result)
 120:Generated_Source\PSoC4/CSD_Control.c ****         {
 121:Generated_Source\PSoC4/CSD_Control.c ****             result = CSD_RunSelfTest(CSD_TST_SHORTS);
 122:Generated_Source\PSoC4/CSD_Control.c **** 
 123:Generated_Source\PSoC4/CSD_Control.c ****             /* Verify if test succeed */
 124:Generated_Source\PSoC4/CSD_Control.c ****             if (0u != result)
 125:Generated_Source\PSoC4/CSD_Control.c ****             {
 126:Generated_Source\PSoC4/CSD_Control.c ****                 result = CYRET_UNKNOWN;
 127:Generated_Source\PSoC4/CSD_Control.c ****             }
 128:Generated_Source\PSoC4/CSD_Control.c ****         }
ARM GAS  C:\Users\CHRIST~1\AppData\Local\Temp\ccdqcrh1.s 			page 4


 129:Generated_Source\PSoC4/CSD_Control.c ****     #endif /* #if (0u != CSD_SELF_TEST_EN) */
 130:Generated_Source\PSoC4/CSD_Control.c **** 
 131:Generated_Source\PSoC4/CSD_Control.c ****     #if (CSD_CSD_AUTOTUNE != CSD_CSD_SS_DIS)
 132:Generated_Source\PSoC4/CSD_Control.c ****         if (CYRET_SUCCESS == result)
 133:Generated_Source\PSoC4/CSD_Control.c ****         {
 134:Generated_Source\PSoC4/CSD_Control.c ****             result = CSD_SsAutoTune();
 135:Generated_Source\PSoC4/CSD_Control.c ****         }
 136:Generated_Source\PSoC4/CSD_Control.c ****     #endif /* #if (CSD_CSD_AUTOTUNE != CSD_CSD_SS_DIS) */
 137:Generated_Source\PSoC4/CSD_Control.c **** 
 138:Generated_Source\PSoC4/CSD_Control.c ****     #if ((0u != CSD_CSX_IDAC_AUTOCAL_EN) || \
 139:Generated_Source\PSoC4/CSD_Control.c ****         ((CSD_CSD_AUTOTUNE == CSD_CSD_SS_DIS) && (0u != CSD_CSD_IDAC_AUTOCAL_EN)))
 140:Generated_Source\PSoC4/CSD_Control.c ****         if (CYRET_SUCCESS == result)
  44              		.loc 1 140 0
  45 000e 7B68     		ldr	r3, [r7, #4]
  46 0010 002B     		cmp	r3, #0
  47 0012 03D1     		bne	.L2
 141:Generated_Source\PSoC4/CSD_Control.c ****         {
 142:Generated_Source\PSoC4/CSD_Control.c ****             result = CSD_CalibrateAllWidgets();
  48              		.loc 1 142 0
  49 0014 FFF7FEFF 		bl	CSD_CalibrateAllWidgets
  50 0018 031C     		mov	r3, r0
  51 001a 7B60     		str	r3, [r7, #4]
  52              	.L2:
 143:Generated_Source\PSoC4/CSD_Control.c ****         }
 144:Generated_Source\PSoC4/CSD_Control.c ****     #endif
 145:Generated_Source\PSoC4/CSD_Control.c **** 
 146:Generated_Source\PSoC4/CSD_Control.c ****     if (CYRET_SUCCESS == result)
  53              		.loc 1 146 0
  54 001c 7B68     		ldr	r3, [r7, #4]
  55 001e 002B     		cmp	r3, #0
  56 0020 03D1     		bne	.L3
 147:Generated_Source\PSoC4/CSD_Control.c ****     {
 148:Generated_Source\PSoC4/CSD_Control.c ****         result = CSD_ScanAllWidgets();
  57              		.loc 1 148 0
  58 0022 FFF7FEFF 		bl	CSD_ScanAllWidgets
  59 0026 031C     		mov	r3, r0
  60 0028 7B60     		str	r3, [r7, #4]
  61              	.L3:
 149:Generated_Source\PSoC4/CSD_Control.c ****     }
 150:Generated_Source\PSoC4/CSD_Control.c **** 
 151:Generated_Source\PSoC4/CSD_Control.c ****     if (CYRET_SUCCESS == result)
  62              		.loc 1 151 0
  63 002a 7B68     		ldr	r3, [r7, #4]
  64 002c 002B     		cmp	r3, #0
  65 002e 1ED1     		bne	.L4
 152:Generated_Source\PSoC4/CSD_Control.c ****     {
 153:Generated_Source\PSoC4/CSD_Control.c ****         /* Put CPU into sleep mode while scanning */
 154:Generated_Source\PSoC4/CSD_Control.c ****         interruptState = CyEnterCriticalSection();
  66              		.loc 1 154 0
  67 0030 FC1C     		add	r4, r7, #3
  68 0032 FFF7FEFF 		bl	CyEnterCriticalSection
  69 0036 031C     		mov	r3, r0
  70 0038 2370     		strb	r3, [r4]
 155:Generated_Source\PSoC4/CSD_Control.c ****         while(CSD_NOT_BUSY != CSD_IsBusy())
  71              		.loc 1 155 0
  72 003a 0BE0     		b	.L5
  73              	.L6:
ARM GAS  C:\Users\CHRIST~1\AppData\Local\Temp\ccdqcrh1.s 			page 5


 156:Generated_Source\PSoC4/CSD_Control.c ****         {
 157:Generated_Source\PSoC4/CSD_Control.c ****             CySysPmSleep();
  74              		.loc 1 157 0
  75 003c FFF7FEFF 		bl	CySysPmSleep
 158:Generated_Source\PSoC4/CSD_Control.c **** 
 159:Generated_Source\PSoC4/CSD_Control.c ****             /* Exit from the critical section to unblock processing pending interruprs. */
 160:Generated_Source\PSoC4/CSD_Control.c ****             CyExitCriticalSection(interruptState);
  76              		.loc 1 160 0
  77 0040 FB1C     		add	r3, r7, #3
  78 0042 1B78     		ldrb	r3, [r3]
  79 0044 181C     		mov	r0, r3
  80 0046 FFF7FEFF 		bl	CyExitCriticalSection
 161:Generated_Source\PSoC4/CSD_Control.c ****             interruptState = CyEnterCriticalSection();
  81              		.loc 1 161 0
  82 004a FC1C     		add	r4, r7, #3
  83 004c FFF7FEFF 		bl	CyEnterCriticalSection
  84 0050 031C     		mov	r3, r0
  85 0052 2370     		strb	r3, [r4]
  86              	.L5:
 155:Generated_Source\PSoC4/CSD_Control.c ****         {
  87              		.loc 1 155 0
  88 0054 FFF7FEFF 		bl	CSD_IsBusy
  89 0058 031E     		sub	r3, r0, #0
  90 005a EFD1     		bne	.L6
 162:Generated_Source\PSoC4/CSD_Control.c ****         }
 163:Generated_Source\PSoC4/CSD_Control.c ****         CyExitCriticalSection(interruptState);
  91              		.loc 1 163 0
  92 005c FB1C     		add	r3, r7, #3
  93 005e 1B78     		ldrb	r3, [r3]
  94 0060 181C     		mov	r0, r3
  95 0062 FFF7FEFF 		bl	CyExitCriticalSection
 164:Generated_Source\PSoC4/CSD_Control.c **** 
 165:Generated_Source\PSoC4/CSD_Control.c ****         CSD_FtInitialize();
  96              		.loc 1 165 0
  97 0066 FFF7FEFF 		bl	CSD_FtInitialize
 166:Generated_Source\PSoC4/CSD_Control.c ****         CSD_InitializeAllBaselines();
  98              		.loc 1 166 0
  99 006a FFF7FEFF 		bl	CSD_InitializeAllBaselines
 100              	.L4:
 167:Generated_Source\PSoC4/CSD_Control.c ****     }
 168:Generated_Source\PSoC4/CSD_Control.c **** 
 169:Generated_Source\PSoC4/CSD_Control.c ****     #if (0u != CSD_ADC_EN)
 170:Generated_Source\PSoC4/CSD_Control.c ****         CSD_AdcInitialize();
 171:Generated_Source\PSoC4/CSD_Control.c ****     #endif /* (0u != CSD_ADC_EN) */
 172:Generated_Source\PSoC4/CSD_Control.c **** 
 173:Generated_Source\PSoC4/CSD_Control.c ****     return result;
 101              		.loc 1 173 0
 102 006e 7B68     		ldr	r3, [r7, #4]
 174:Generated_Source\PSoC4/CSD_Control.c **** }
 103              		.loc 1 174 0
 104 0070 181C     		mov	r0, r3
 105 0072 BD46     		mov	sp, r7
 106 0074 03B0     		add	sp, sp, #12
 107              		@ sp needed
 108 0076 90BD     		pop	{r4, r7, pc}
 109              		.cfi_endproc
 110              	.LFE1:
ARM GAS  C:\Users\CHRIST~1\AppData\Local\Temp\ccdqcrh1.s 			page 6


 111              		.size	CSD_Start, .-CSD_Start
 112              		.section	.text.CSD_Initialize,"ax",%progbits
 113              		.align	2
 114              		.global	CSD_Initialize
 115              		.code	16
 116              		.thumb_func
 117              		.type	CSD_Initialize, %function
 118              	CSD_Initialize:
 119              	.LFB2:
 175:Generated_Source\PSoC4/CSD_Control.c **** 
 176:Generated_Source\PSoC4/CSD_Control.c **** /*******************************************************************************
 177:Generated_Source\PSoC4/CSD_Control.c **** * Function Name: CSD_Initialize
 178:Generated_Source\PSoC4/CSD_Control.c **** ****************************************************************************//**
 179:Generated_Source\PSoC4/CSD_Control.c **** *
 180:Generated_Source\PSoC4/CSD_Control.c **** * \brief
 181:Generated_Source\PSoC4/CSD_Control.c **** *  This function initializes the CSD component.
 182:Generated_Source\PSoC4/CSD_Control.c **** *
 183:Generated_Source\PSoC4/CSD_Control.c **** * \details
 184:Generated_Source\PSoC4/CSD_Control.c **** *  This API initializes all sub-modules of the CSD component:
 185:Generated_Source\PSoC4/CSD_Control.c **** *   - Data Structure - set the default component parameters defined in the Customizer.
 186:Generated_Source\PSoC4/CSD_Control.c **** *   - Data Processing - resets all widget statuses.
 187:Generated_Source\PSoC4/CSD_Control.c **** *   - Tuner - resets tuning state.
 188:Generated_Source\PSoC4/CSD_Control.c **** *   - Sensing - prepares CSD HW for operation.
 189:Generated_Source\PSoC4/CSD_Control.c **** *
 190:Generated_Source\PSoC4/CSD_Control.c **** *  Note that Data Structure module is initialized only once after the reset or
 191:Generated_Source\PSoC4/CSD_Control.c **** *  CSD_Stop() API is called. The repeated calls of Initialize API
 192:Generated_Source\PSoC4/CSD_Control.c **** *  will not re-initialize Data Structure. This is done to preserve component
 193:Generated_Source\PSoC4/CSD_Control.c **** *  parameters that user may set in runtime.
 194:Generated_Source\PSoC4/CSD_Control.c **** *
 195:Generated_Source\PSoC4/CSD_Control.c **** *  If default component parameters are needed the CSD_DsInitialize()
 196:Generated_Source\PSoC4/CSD_Control.c **** *  API must be called directly from the application code.
 197:Generated_Source\PSoC4/CSD_Control.c **** *
 198:Generated_Source\PSoC4/CSD_Control.c **** * \return
 199:Generated_Source\PSoC4/CSD_Control.c **** *  Return CYRET_SUCCESS if the initialization was successful.
 200:Generated_Source\PSoC4/CSD_Control.c **** *
 201:Generated_Source\PSoC4/CSD_Control.c **** *******************************************************************************/
 202:Generated_Source\PSoC4/CSD_Control.c **** cystatus CSD_Initialize(void)
 203:Generated_Source\PSoC4/CSD_Control.c **** {
 120              		.loc 1 203 0
 121              		.cfi_startproc
 122 0000 80B5     		push	{r7, lr}
 123              		.cfi_def_cfa_offset 8
 124              		.cfi_offset 7, -8
 125              		.cfi_offset 14, -4
 126 0002 82B0     		sub	sp, sp, #8
 127              		.cfi_def_cfa_offset 16
 128 0004 00AF     		add	r7, sp, #0
 129              		.cfi_def_cfa_register 7
 204:Generated_Source\PSoC4/CSD_Control.c ****     cystatus result;
 205:Generated_Source\PSoC4/CSD_Control.c **** 
 206:Generated_Source\PSoC4/CSD_Control.c ****     /* The Data Structure and Tuner are initialized only once */
 207:Generated_Source\PSoC4/CSD_Control.c ****     if (CSD_INIT_NEEDED == CSD_InitVar)
 130              		.loc 1 207 0
 131 0006 0B4B     		ldr	r3, .L11
 132 0008 1B78     		ldrb	r3, [r3]
 133 000a 002B     		cmp	r3, #0
 134 000c 06D1     		bne	.L9
ARM GAS  C:\Users\CHRIST~1\AppData\Local\Temp\ccdqcrh1.s 			page 7


 208:Generated_Source\PSoC4/CSD_Control.c ****     {
 209:Generated_Source\PSoC4/CSD_Control.c ****         CSD_DsInitialize();
 135              		.loc 1 209 0
 136 000e FFF7FEFF 		bl	CSD_DsInitialize
 210:Generated_Source\PSoC4/CSD_Control.c ****         CSD_TuInitialize();
 137              		.loc 1 210 0
 138 0012 FFF7FEFF 		bl	CSD_TuInitialize
 211:Generated_Source\PSoC4/CSD_Control.c ****         CSD_InitVar = CSD_INIT_DONE;
 139              		.loc 1 211 0
 140 0016 074B     		ldr	r3, .L11
 141 0018 0122     		mov	r2, #1
 142 001a 1A70     		strb	r2, [r3]
 143              	.L9:
 212:Generated_Source\PSoC4/CSD_Control.c ****     }
 213:Generated_Source\PSoC4/CSD_Control.c **** 
 214:Generated_Source\PSoC4/CSD_Control.c ****     CSD_DpInitialize();
 144              		.loc 1 214 0
 145 001c FFF7FEFF 		bl	CSD_DpInitialize
 215:Generated_Source\PSoC4/CSD_Control.c **** 
 216:Generated_Source\PSoC4/CSD_Control.c ****     result = CSD_SsInitialize();
 146              		.loc 1 216 0
 147 0020 FFF7FEFF 		bl	CSD_SsInitialize
 148 0024 031C     		mov	r3, r0
 149 0026 7B60     		str	r3, [r7, #4]
 217:Generated_Source\PSoC4/CSD_Control.c **** 
 218:Generated_Source\PSoC4/CSD_Control.c ****     return result;
 150              		.loc 1 218 0
 151 0028 7B68     		ldr	r3, [r7, #4]
 219:Generated_Source\PSoC4/CSD_Control.c **** }
 152              		.loc 1 219 0
 153 002a 181C     		mov	r0, r3
 154 002c BD46     		mov	sp, r7
 155 002e 02B0     		add	sp, sp, #8
 156              		@ sp needed
 157 0030 80BD     		pop	{r7, pc}
 158              	.L12:
 159 0032 C046     		.align	2
 160              	.L11:
 161 0034 00000000 		.word	CSD_InitVar
 162              		.cfi_endproc
 163              	.LFE2:
 164              		.size	CSD_Initialize, .-CSD_Initialize
 165              		.section	.text.CSD_Stop,"ax",%progbits
 166              		.align	2
 167              		.global	CSD_Stop
 168              		.code	16
 169              		.thumb_func
 170              		.type	CSD_Stop, %function
 171              	CSD_Stop:
 172              	.LFB3:
 220:Generated_Source\PSoC4/CSD_Control.c **** 
 221:Generated_Source\PSoC4/CSD_Control.c **** /*******************************************************************************
 222:Generated_Source\PSoC4/CSD_Control.c **** * Function Name: CSD_Stop
 223:Generated_Source\PSoC4/CSD_Control.c **** ****************************************************************************//**
 224:Generated_Source\PSoC4/CSD_Control.c **** *
 225:Generated_Source\PSoC4/CSD_Control.c **** * \brief
 226:Generated_Source\PSoC4/CSD_Control.c **** *  Stops the component operation.
ARM GAS  C:\Users\CHRIST~1\AppData\Local\Temp\ccdqcrh1.s 			page 8


 227:Generated_Source\PSoC4/CSD_Control.c **** *
 228:Generated_Source\PSoC4/CSD_Control.c **** * \details
 229:Generated_Source\PSoC4/CSD_Control.c **** *  This function stops the component operation, no sensor scanning can be 
 230:Generated_Source\PSoC4/CSD_Control.c **** *  executed when the component is stopped. Once stopped, the hardware block may 
 231:Generated_Source\PSoC4/CSD_Control.c **** *  be reconfigured by the application program for any other special usage. The 
 232:Generated_Source\PSoC4/CSD_Control.c **** *  component operation can be resumed by calling the CSD_Resume() 
 233:Generated_Source\PSoC4/CSD_Control.c **** *  function or the component can be reset by calling the 
 234:Generated_Source\PSoC4/CSD_Control.c **** *  CSD_Start() function.
 235:Generated_Source\PSoC4/CSD_Control.c **** *  
 236:Generated_Source\PSoC4/CSD_Control.c **** *  This function should be called when no scanning is in progress. 
 237:Generated_Source\PSoC4/CSD_Control.c **** *  I.e. CSD_IsBusy() returns a non-busy status.
 238:Generated_Source\PSoC4/CSD_Control.c **** *
 239:Generated_Source\PSoC4/CSD_Control.c **** * \return
 240:Generated_Source\PSoC4/CSD_Control.c **** *  Returns the status of the stop process. If CYRET_SUCCESS is not received, 
 241:Generated_Source\PSoC4/CSD_Control.c **** *  the stop process fails and retries may be required.
 242:Generated_Source\PSoC4/CSD_Control.c **** *
 243:Generated_Source\PSoC4/CSD_Control.c **** *******************************************************************************/
 244:Generated_Source\PSoC4/CSD_Control.c **** cystatus CSD_Stop(void)
 245:Generated_Source\PSoC4/CSD_Control.c **** {
 173              		.loc 1 245 0
 174              		.cfi_startproc
 175 0000 80B5     		push	{r7, lr}
 176              		.cfi_def_cfa_offset 8
 177              		.cfi_offset 7, -8
 178              		.cfi_offset 14, -4
 179 0002 82B0     		sub	sp, sp, #8
 180              		.cfi_def_cfa_offset 16
 181 0004 00AF     		add	r7, sp, #0
 182              		.cfi_def_cfa_register 7
 246:Generated_Source\PSoC4/CSD_Control.c ****     cystatus result = CYRET_SUCCESS;
 183              		.loc 1 246 0
 184 0006 0023     		mov	r3, #0
 185 0008 7B60     		str	r3, [r7, #4]
 247:Generated_Source\PSoC4/CSD_Control.c **** 
 248:Generated_Source\PSoC4/CSD_Control.c ****     #if (CSD_ENABLE == CSD_ADC_EN)
 249:Generated_Source\PSoC4/CSD_Control.c ****         /* Release CSD resources */
 250:Generated_Source\PSoC4/CSD_Control.c ****         result = CSD_SsReleaseResources();
 251:Generated_Source\PSoC4/CSD_Control.c **** 
 252:Generated_Source\PSoC4/CSD_Control.c ****         /* Release ADC resources */
 253:Generated_Source\PSoC4/CSD_Control.c ****         CSD_AdcStop();
 254:Generated_Source\PSoC4/CSD_Control.c ****     #endif /* (CSD_ENABLE == CSD_ADC_EN) */
 255:Generated_Source\PSoC4/CSD_Control.c **** 
 256:Generated_Source\PSoC4/CSD_Control.c ****     CSD_InitVar = CSD_INIT_NEEDED;
 186              		.loc 1 256 0
 187 000a 044B     		ldr	r3, .L15
 188 000c 0022     		mov	r2, #0
 189 000e 1A70     		strb	r2, [r3]
 257:Generated_Source\PSoC4/CSD_Control.c **** 
 258:Generated_Source\PSoC4/CSD_Control.c ****     return result;
 190              		.loc 1 258 0
 191 0010 7B68     		ldr	r3, [r7, #4]
 259:Generated_Source\PSoC4/CSD_Control.c **** }
 192              		.loc 1 259 0
 193 0012 181C     		mov	r0, r3
 194 0014 BD46     		mov	sp, r7
 195 0016 02B0     		add	sp, sp, #8
 196              		@ sp needed
ARM GAS  C:\Users\CHRIST~1\AppData\Local\Temp\ccdqcrh1.s 			page 9


 197 0018 80BD     		pop	{r7, pc}
 198              	.L16:
 199 001a C046     		.align	2
 200              	.L15:
 201 001c 00000000 		.word	CSD_InitVar
 202              		.cfi_endproc
 203              	.LFE3:
 204              		.size	CSD_Stop, .-CSD_Stop
 205              		.section	.text.CSD_Resume,"ax",%progbits
 206              		.align	2
 207              		.global	CSD_Resume
 208              		.code	16
 209              		.thumb_func
 210              		.type	CSD_Resume, %function
 211              	CSD_Resume:
 212              	.LFB4:
 260:Generated_Source\PSoC4/CSD_Control.c **** 
 261:Generated_Source\PSoC4/CSD_Control.c **** /*******************************************************************************
 262:Generated_Source\PSoC4/CSD_Control.c **** * Function Name: CSD_Resume
 263:Generated_Source\PSoC4/CSD_Control.c **** ****************************************************************************//**
 264:Generated_Source\PSoC4/CSD_Control.c **** *
 265:Generated_Source\PSoC4/CSD_Control.c **** * \brief
 266:Generated_Source\PSoC4/CSD_Control.c **** *  Resumes the component operation if CSD_Stop() function was 
 267:Generated_Source\PSoC4/CSD_Control.c **** *  called previously.
 268:Generated_Source\PSoC4/CSD_Control.c **** *
 269:Generated_Source\PSoC4/CSD_Control.c **** * \details
 270:Generated_Source\PSoC4/CSD_Control.c **** *  This function resumes the component operation if the operation is stopped
 271:Generated_Source\PSoC4/CSD_Control.c **** *  previously by the CSD_Stop() function. The following tasks are 
 272:Generated_Source\PSoC4/CSD_Control.c **** *  executed as part of the operation resume process:
 273:Generated_Source\PSoC4/CSD_Control.c **** *    1. Reset all Widgets/Sensors status.
 274:Generated_Source\PSoC4/CSD_Control.c **** *    2. Configure the hardware to perform capacitive sensing.
 275:Generated_Source\PSoC4/CSD_Control.c **** *
 276:Generated_Source\PSoC4/CSD_Control.c **** * \return
 277:Generated_Source\PSoC4/CSD_Control.c **** *  Returns the status of the resume process. If CYRET_SUCCESS is not received,
 278:Generated_Source\PSoC4/CSD_Control.c **** *  the resume process fails and retries may be required.
 279:Generated_Source\PSoC4/CSD_Control.c **** *
 280:Generated_Source\PSoC4/CSD_Control.c **** *******************************************************************************/
 281:Generated_Source\PSoC4/CSD_Control.c **** cystatus CSD_Resume(void)
 282:Generated_Source\PSoC4/CSD_Control.c **** {
 213              		.loc 1 282 0
 214              		.cfi_startproc
 215 0000 80B5     		push	{r7, lr}
 216              		.cfi_def_cfa_offset 8
 217              		.cfi_offset 7, -8
 218              		.cfi_offset 14, -4
 219 0002 82B0     		sub	sp, sp, #8
 220              		.cfi_def_cfa_offset 16
 221 0004 00AF     		add	r7, sp, #0
 222              		.cfi_def_cfa_register 7
 283:Generated_Source\PSoC4/CSD_Control.c ****     cystatus result;
 284:Generated_Source\PSoC4/CSD_Control.c **** 
 285:Generated_Source\PSoC4/CSD_Control.c ****     CSD_DpInitialize();
 223              		.loc 1 285 0
 224 0006 FFF7FEFF 		bl	CSD_DpInitialize
 286:Generated_Source\PSoC4/CSD_Control.c ****     CSD_TuInitialize();
 225              		.loc 1 286 0
 226 000a FFF7FEFF 		bl	CSD_TuInitialize
ARM GAS  C:\Users\CHRIST~1\AppData\Local\Temp\ccdqcrh1.s 			page 10


 287:Generated_Source\PSoC4/CSD_Control.c **** 
 288:Generated_Source\PSoC4/CSD_Control.c ****     result = CSD_SsInitialize();
 227              		.loc 1 288 0
 228 000e FFF7FEFF 		bl	CSD_SsInitialize
 229 0012 031C     		mov	r3, r0
 230 0014 7B60     		str	r3, [r7, #4]
 289:Generated_Source\PSoC4/CSD_Control.c **** 
 290:Generated_Source\PSoC4/CSD_Control.c ****     CSD_InitVar = CSD_INIT_DONE;
 231              		.loc 1 290 0
 232 0016 044B     		ldr	r3, .L19
 233 0018 0122     		mov	r2, #1
 234 001a 1A70     		strb	r2, [r3]
 291:Generated_Source\PSoC4/CSD_Control.c **** 
 292:Generated_Source\PSoC4/CSD_Control.c ****     return result;
 235              		.loc 1 292 0
 236 001c 7B68     		ldr	r3, [r7, #4]
 293:Generated_Source\PSoC4/CSD_Control.c **** }
 237              		.loc 1 293 0
 238 001e 181C     		mov	r0, r3
 239 0020 BD46     		mov	sp, r7
 240 0022 02B0     		add	sp, sp, #8
 241              		@ sp needed
 242 0024 80BD     		pop	{r7, pc}
 243              	.L20:
 244 0026 C046     		.align	2
 245              	.L19:
 246 0028 00000000 		.word	CSD_InitVar
 247              		.cfi_endproc
 248              	.LFE4:
 249              		.size	CSD_Resume, .-CSD_Resume
 250              		.section	.text.CSD_ProcessAllWidgets,"ax",%progbits
 251              		.align	2
 252              		.global	CSD_ProcessAllWidgets
 253              		.code	16
 254              		.thumb_func
 255              		.type	CSD_ProcessAllWidgets, %function
 256              	CSD_ProcessAllWidgets:
 257              	.LFB5:
 294:Generated_Source\PSoC4/CSD_Control.c **** 
 295:Generated_Source\PSoC4/CSD_Control.c **** 
 296:Generated_Source\PSoC4/CSD_Control.c **** /*******************************************************************************
 297:Generated_Source\PSoC4/CSD_Control.c **** * Function Name: CSD_ProcessAllWidgets
 298:Generated_Source\PSoC4/CSD_Control.c **** ****************************************************************************//**
 299:Generated_Source\PSoC4/CSD_Control.c **** *
 300:Generated_Source\PSoC4/CSD_Control.c **** * \brief
 301:Generated_Source\PSoC4/CSD_Control.c **** *  Performs full data processing of all enabled widgets.
 302:Generated_Source\PSoC4/CSD_Control.c **** *
 303:Generated_Source\PSoC4/CSD_Control.c **** * \details
 304:Generated_Source\PSoC4/CSD_Control.c **** *  This function performs all data processes for all enabled widgets in the 
 305:Generated_Source\PSoC4/CSD_Control.c **** *  component. The following tasks are executed as part of processing all the 
 306:Generated_Source\PSoC4/CSD_Control.c **** *  widgets:
 307:Generated_Source\PSoC4/CSD_Control.c **** *    1. Apply raw0count filters to raw counts, if they are enabled in the 
 308:Generated_Source\PSoC4/CSD_Control.c **** *       customizer.
 309:Generated_Source\PSoC4/CSD_Control.c **** *    2. Update thresholds if the SmartSense uFll Auto-Tuning is enabled in
 310:Generated_Source\PSoC4/CSD_Control.c **** *       the customizer.
 311:Generated_Source\PSoC4/CSD_Control.c **** *    3. Update the Baselines and Difference counts for all sensors.
 312:Generated_Source\PSoC4/CSD_Control.c **** *    4. Update the sensor and widget status (on/off), update centroid for 
ARM GAS  C:\Users\CHRIST~1\AppData\Local\Temp\ccdqcrh1.s 			page 11


 313:Generated_Source\PSoC4/CSD_Control.c **** *       sliders and X/Y position for touchpads.
 314:Generated_Source\PSoC4/CSD_Control.c **** *  
 315:Generated_Source\PSoC4/CSD_Control.c **** *  Disabled widgets are not processed. To disable/enable a widget, set 
 316:Generated_Source\PSoC4/CSD_Control.c **** *  appropriate values in the 
 317:Generated_Source\PSoC4/CSD_Control.c **** *  CSD_WDGT_ENABLE<RegisterNumber>_PARAM_ID register using the
 318:Generated_Source\PSoC4/CSD_Control.c **** *  CSD_SetParam() function.
 319:Generated_Source\PSoC4/CSD_Control.c **** *  This function should be called only after all the sensors in the component
 320:Generated_Source\PSoC4/CSD_Control.c **** *  are scanned. Calling this function multiple times without sensor scanning
 321:Generated_Source\PSoC4/CSD_Control.c **** *  causes unexpected behavior.
 322:Generated_Source\PSoC4/CSD_Control.c **** *
 323:Generated_Source\PSoC4/CSD_Control.c **** * \return
 324:Generated_Source\PSoC4/CSD_Control.c **** *  Returns the status of the process operation. If CYRET_SUCCESS is not 
 325:Generated_Source\PSoC4/CSD_Control.c **** *  received, the process failed.
 326:Generated_Source\PSoC4/CSD_Control.c **** *
 327:Generated_Source\PSoC4/CSD_Control.c **** *******************************************************************************/
 328:Generated_Source\PSoC4/CSD_Control.c **** cystatus CSD_ProcessAllWidgets(void)
 329:Generated_Source\PSoC4/CSD_Control.c **** {
 258              		.loc 1 329 0
 259              		.cfi_startproc
 260 0000 80B5     		push	{r7, lr}
 261              		.cfi_def_cfa_offset 8
 262              		.cfi_offset 7, -8
 263              		.cfi_offset 14, -4
 264 0002 84B0     		sub	sp, sp, #16
 265              		.cfi_def_cfa_offset 24
 266 0004 00AF     		add	r7, sp, #0
 267              		.cfi_def_cfa_register 7
 330:Generated_Source\PSoC4/CSD_Control.c ****     uint32 wdgtId;
 331:Generated_Source\PSoC4/CSD_Control.c ****     cystatus result = CYRET_SUCCESS;
 268              		.loc 1 331 0
 269 0006 0023     		mov	r3, #0
 270 0008 7B60     		str	r3, [r7, #4]
 332:Generated_Source\PSoC4/CSD_Control.c ****     CSD_FLASH_WD_STRUCT const *ptrFlashWdgt;
 333:Generated_Source\PSoC4/CSD_Control.c **** 
 334:Generated_Source\PSoC4/CSD_Control.c ****     ptrFlashWdgt = CSD_dsFlash.wdgtArray;
 271              		.loc 1 334 0
 272 000a 164B     		ldr	r3, .L26
 273 000c BB60     		str	r3, [r7, #8]
 335:Generated_Source\PSoC4/CSD_Control.c **** 
 336:Generated_Source\PSoC4/CSD_Control.c ****     for (wdgtId = 0u; wdgtId < CSD_TOTAL_WIDGETS; wdgtId++)
 274              		.loc 1 336 0
 275 000e 0023     		mov	r3, #0
 276 0010 FB60     		str	r3, [r7, #12]
 277 0012 1FE0     		b	.L22
 278              	.L24:
 337:Generated_Source\PSoC4/CSD_Control.c ****     {
 338:Generated_Source\PSoC4/CSD_Control.c ****         if (0u != CSD_GET_WIDGET_EN_STATUS(wdgtId))
 279              		.loc 1 338 0
 280 0014 FB68     		ldr	r3, [r7, #12]
 281 0016 5B09     		lsr	r3, r3, #5
 282 0018 134A     		ldr	r2, .L26+4
 283 001a 0233     		add	r3, r3, #2
 284 001c 9B00     		lsl	r3, r3, #2
 285 001e D318     		add	r3, r2, r3
 286 0020 5A68     		ldr	r2, [r3, #4]
 287 0022 FB68     		ldr	r3, [r7, #12]
 288 0024 1F21     		mov	r1, #31
ARM GAS  C:\Users\CHRIST~1\AppData\Local\Temp\ccdqcrh1.s 			page 12


 289 0026 0B40     		and	r3, r1
 290 0028 DA40     		lsr	r2, r2, r3
 291 002a 131C     		mov	r3, r2
 292 002c 0122     		mov	r2, #1
 293 002e 1340     		and	r3, r2
 294 0030 0AD0     		beq	.L23
 339:Generated_Source\PSoC4/CSD_Control.c ****         {
 340:Generated_Source\PSoC4/CSD_Control.c ****             switch(CSD_GET_SENSE_METHOD(ptrFlashWdgt))
 341:Generated_Source\PSoC4/CSD_Control.c ****             {
 342:Generated_Source\PSoC4/CSD_Control.c ****             #if (0u != CSD_TOTAL_CSD_WIDGETS)
 343:Generated_Source\PSoC4/CSD_Control.c ****                 case CSD_SENSE_METHOD_CSD_E:
 344:Generated_Source\PSoC4/CSD_Control.c ****                     CSD_DpProcessCsdWidgetRawCounts(ptrFlashWdgt);
 295              		.loc 1 344 0
 296 0032 BB68     		ldr	r3, [r7, #8]
 297 0034 181C     		mov	r0, r3
 298 0036 FFF7FEFF 		bl	CSD_DpProcessCsdWidgetRawCounts
 345:Generated_Source\PSoC4/CSD_Control.c ****                     CSD_DpProcessCsdWidgetStatus(wdgtId, ptrFlashWdgt);
 299              		.loc 1 345 0
 300 003a FA68     		ldr	r2, [r7, #12]
 301 003c BB68     		ldr	r3, [r7, #8]
 302 003e 101C     		mov	r0, r2
 303 0040 191C     		mov	r1, r3
 304 0042 FFF7FEFF 		bl	CSD_DpProcessCsdWidgetStatus
 346:Generated_Source\PSoC4/CSD_Control.c ****                     break;
 305              		.loc 1 346 0
 306 0046 C046     		mov	r8, r8
 307              	.L23:
 347:Generated_Source\PSoC4/CSD_Control.c ****             #endif /* #if (0u != CSD_TOTAL_CSD_WIDGETS) */
 348:Generated_Source\PSoC4/CSD_Control.c **** 
 349:Generated_Source\PSoC4/CSD_Control.c ****             #if (0u != CSD_TOTAL_CSX_WIDGETS)
 350:Generated_Source\PSoC4/CSD_Control.c ****                 case CSD_SENSE_METHOD_CSX_E:
 351:Generated_Source\PSoC4/CSD_Control.c ****                     CSD_DpProcessCsxWidgetRawCounts(ptrFlashWdgt);
 352:Generated_Source\PSoC4/CSD_Control.c ****                     CSD_DpProcessCsxWidgetStatus(wdgtId, ptrFlashWdgt);
 353:Generated_Source\PSoC4/CSD_Control.c ****                     break;
 354:Generated_Source\PSoC4/CSD_Control.c ****             #endif /* #if (0u != CSD_TOTAL_CSX_WIDGETS) */
 355:Generated_Source\PSoC4/CSD_Control.c **** 
 356:Generated_Source\PSoC4/CSD_Control.c ****             default:
 357:Generated_Source\PSoC4/CSD_Control.c ****                 CYASSERT(0u);
 358:Generated_Source\PSoC4/CSD_Control.c ****                 break;
 359:Generated_Source\PSoC4/CSD_Control.c ****             }
 360:Generated_Source\PSoC4/CSD_Control.c ****         }
 361:Generated_Source\PSoC4/CSD_Control.c **** 
 362:Generated_Source\PSoC4/CSD_Control.c ****         ptrFlashWdgt++;
 308              		.loc 1 362 0 discriminator 2
 309 0048 BB68     		ldr	r3, [r7, #8]
 310 004a 1C33     		add	r3, r3, #28
 311 004c BB60     		str	r3, [r7, #8]
 336:Generated_Source\PSoC4/CSD_Control.c ****     {
 312              		.loc 1 336 0 discriminator 2
 313 004e FB68     		ldr	r3, [r7, #12]
 314 0050 0133     		add	r3, r3, #1
 315 0052 FB60     		str	r3, [r7, #12]
 316              	.L22:
 336:Generated_Source\PSoC4/CSD_Control.c ****     {
 317              		.loc 1 336 0 is_stmt 0 discriminator 1
 318 0054 FB68     		ldr	r3, [r7, #12]
 319 0056 002B     		cmp	r3, #0
ARM GAS  C:\Users\CHRIST~1\AppData\Local\Temp\ccdqcrh1.s 			page 13


 320 0058 DCD0     		beq	.L24
 363:Generated_Source\PSoC4/CSD_Control.c ****     }
 364:Generated_Source\PSoC4/CSD_Control.c **** 
 365:Generated_Source\PSoC4/CSD_Control.c ****     return result;
 321              		.loc 1 365 0 is_stmt 1
 322 005a 7B68     		ldr	r3, [r7, #4]
 366:Generated_Source\PSoC4/CSD_Control.c **** }
 323              		.loc 1 366 0
 324 005c 181C     		mov	r0, r3
 325 005e BD46     		mov	sp, r7
 326 0060 04B0     		add	sp, sp, #16
 327              		@ sp needed
 328 0062 80BD     		pop	{r7, pc}
 329              	.L27:
 330              		.align	2
 331              	.L26:
 332 0064 00000000 		.word	CSD_dsFlash
 333 0068 00000000 		.word	CSD_dsRam
 334              		.cfi_endproc
 335              	.LFE5:
 336              		.size	CSD_ProcessAllWidgets, .-CSD_ProcessAllWidgets
 337              		.section	.text.CSD_ProcessWidget,"ax",%progbits
 338              		.align	2
 339              		.global	CSD_ProcessWidget
 340              		.code	16
 341              		.thumb_func
 342              		.type	CSD_ProcessWidget, %function
 343              	CSD_ProcessWidget:
 344              	.LFB6:
 367:Generated_Source\PSoC4/CSD_Control.c **** 
 368:Generated_Source\PSoC4/CSD_Control.c **** 
 369:Generated_Source\PSoC4/CSD_Control.c **** /*******************************************************************************
 370:Generated_Source\PSoC4/CSD_Control.c **** * Function Name: CSD_ProcessWidget
 371:Generated_Source\PSoC4/CSD_Control.c **** ****************************************************************************//**
 372:Generated_Source\PSoC4/CSD_Control.c **** *
 373:Generated_Source\PSoC4/CSD_Control.c **** * \brief
 374:Generated_Source\PSoC4/CSD_Control.c **** *  Performs full data processing of the specified widget if it is enabled.
 375:Generated_Source\PSoC4/CSD_Control.c **** *
 376:Generated_Source\PSoC4/CSD_Control.c **** * \details
 377:Generated_Source\PSoC4/CSD_Control.c **** *  This function performs exactly the same tasks as 
 378:Generated_Source\PSoC4/CSD_Control.c **** *  CSD_ProcessAllWidgets(), but only for a specified widget. This 
 379:Generated_Source\PSoC4/CSD_Control.c **** *  function can be used along with the CSD_SetupWidget() and 
 380:Generated_Source\PSoC4/CSD_Control.c **** *  CSD_Scan() functions to scan and process data for a specific
 381:Generated_Source\PSoC4/CSD_Control.c **** *  widget. This function should be called only after all the sensors in the 
 382:Generated_Source\PSoC4/CSD_Control.c **** *  widgets are scanned. A disabled widget is not processed by this function.
 383:Generated_Source\PSoC4/CSD_Control.c **** *  
 384:Generated_Source\PSoC4/CSD_Control.c **** *  The pipeline scan method (i.e. during scanning of a widget perform processing
 385:Generated_Source\PSoC4/CSD_Control.c **** *  of the previously scanned widget) can be implemented using this function and
 386:Generated_Source\PSoC4/CSD_Control.c **** *  it may reduce the total scan/process time, increase the refresh rate and 
 387:Generated_Source\PSoC4/CSD_Control.c **** *  decrease the power consumption.
 388:Generated_Source\PSoC4/CSD_Control.c **** *
 389:Generated_Source\PSoC4/CSD_Control.c **** * \param widgetId 
 390:Generated_Source\PSoC4/CSD_Control.c **** *  Specify the ID number of the widget to be processed. 
 391:Generated_Source\PSoC4/CSD_Control.c **** *  A macro for the widget ID can be found in the 
 392:Generated_Source\PSoC4/CSD_Control.c **** *  CSD_Configuration.h file defined as
 393:Generated_Source\PSoC4/CSD_Control.c **** *  CSD_<WidgetName>_WDGT_ID
 394:Generated_Source\PSoC4/CSD_Control.c **** *
ARM GAS  C:\Users\CHRIST~1\AppData\Local\Temp\ccdqcrh1.s 			page 14


 395:Generated_Source\PSoC4/CSD_Control.c **** * \return
 396:Generated_Source\PSoC4/CSD_Control.c **** *  Returns the status of the widget processing:
 397:Generated_Source\PSoC4/CSD_Control.c **** *    - CYRET_SUCCESS if operation is successfully completed.
 398:Generated_Source\PSoC4/CSD_Control.c **** *    - CYRET_BAD_PARAM if the input parameter is invalid.
 399:Generated_Source\PSoC4/CSD_Control.c **** *    - CYRET_INVALID_STATE if the specified widget is disabled.
 400:Generated_Source\PSoC4/CSD_Control.c **** *
 401:Generated_Source\PSoC4/CSD_Control.c **** *******************************************************************************/
 402:Generated_Source\PSoC4/CSD_Control.c **** cystatus CSD_ProcessWidget(uint32 widgetId)
 403:Generated_Source\PSoC4/CSD_Control.c **** {
 345              		.loc 1 403 0
 346              		.cfi_startproc
 347 0000 80B5     		push	{r7, lr}
 348              		.cfi_def_cfa_offset 8
 349              		.cfi_offset 7, -8
 350              		.cfi_offset 14, -4
 351 0002 84B0     		sub	sp, sp, #16
 352              		.cfi_def_cfa_offset 24
 353 0004 00AF     		add	r7, sp, #0
 354              		.cfi_def_cfa_register 7
 355 0006 7860     		str	r0, [r7, #4]
 404:Generated_Source\PSoC4/CSD_Control.c ****     cystatus result = CYRET_SUCCESS;
 356              		.loc 1 404 0
 357 0008 0023     		mov	r3, #0
 358 000a FB60     		str	r3, [r7, #12]
 405:Generated_Source\PSoC4/CSD_Control.c ****     CSD_FLASH_WD_STRUCT const *ptrFlashWdgt;
 406:Generated_Source\PSoC4/CSD_Control.c **** 
 407:Generated_Source\PSoC4/CSD_Control.c ****     if (widgetId >= CSD_TOTAL_WIDGETS)
 359              		.loc 1 407 0
 360 000c 7B68     		ldr	r3, [r7, #4]
 361 000e 002B     		cmp	r3, #0
 362 0010 01D0     		beq	.L29
 408:Generated_Source\PSoC4/CSD_Control.c ****     {
 409:Generated_Source\PSoC4/CSD_Control.c ****         result = CYRET_BAD_PARAM;
 363              		.loc 1 409 0
 364 0012 0123     		mov	r3, #1
 365 0014 FB60     		str	r3, [r7, #12]
 366              	.L29:
 410:Generated_Source\PSoC4/CSD_Control.c ****     }
 411:Generated_Source\PSoC4/CSD_Control.c **** 
 412:Generated_Source\PSoC4/CSD_Control.c ****     if ((CYRET_SUCCESS == result) && (0u == CSD_GET_WIDGET_EN_STATUS(widgetId)))
 367              		.loc 1 412 0
 368 0016 FB68     		ldr	r3, [r7, #12]
 369 0018 002B     		cmp	r3, #0
 370 001a 10D1     		bne	.L30
 371              		.loc 1 412 0 is_stmt 0 discriminator 1
 372 001c 7B68     		ldr	r3, [r7, #4]
 373 001e 5B09     		lsr	r3, r3, #5
 374 0020 144A     		ldr	r2, .L33
 375 0022 0233     		add	r3, r3, #2
 376 0024 9B00     		lsl	r3, r3, #2
 377 0026 D318     		add	r3, r2, r3
 378 0028 5A68     		ldr	r2, [r3, #4]
 379 002a 7B68     		ldr	r3, [r7, #4]
 380 002c 1F21     		mov	r1, #31
 381 002e 0B40     		and	r3, r1
 382 0030 DA40     		lsr	r2, r2, r3
 383 0032 131C     		mov	r3, r2
ARM GAS  C:\Users\CHRIST~1\AppData\Local\Temp\ccdqcrh1.s 			page 15


 384 0034 0122     		mov	r2, #1
 385 0036 1340     		and	r3, r2
 386 0038 01D1     		bne	.L30
 413:Generated_Source\PSoC4/CSD_Control.c ****     {
 414:Generated_Source\PSoC4/CSD_Control.c ****         result = CYRET_INVALID_STATE;
 387              		.loc 1 414 0 is_stmt 1
 388 003a 1123     		mov	r3, #17
 389 003c FB60     		str	r3, [r7, #12]
 390              	.L30:
 415:Generated_Source\PSoC4/CSD_Control.c ****     }
 416:Generated_Source\PSoC4/CSD_Control.c **** 
 417:Generated_Source\PSoC4/CSD_Control.c ****     if (CYRET_SUCCESS == result)
 391              		.loc 1 417 0
 392 003e FB68     		ldr	r3, [r7, #12]
 393 0040 002B     		cmp	r3, #0
 394 0042 12D1     		bne	.L31
 418:Generated_Source\PSoC4/CSD_Control.c ****     {
 419:Generated_Source\PSoC4/CSD_Control.c ****         ptrFlashWdgt = &CSD_dsFlash.wdgtArray[widgetId];
 395              		.loc 1 419 0
 396 0044 7A68     		ldr	r2, [r7, #4]
 397 0046 131C     		mov	r3, r2
 398 0048 DB00     		lsl	r3, r3, #3
 399 004a 9B1A     		sub	r3, r3, r2
 400 004c 9B00     		lsl	r3, r3, #2
 401 004e 0A4A     		ldr	r2, .L33+4
 402 0050 9B18     		add	r3, r3, r2
 403 0052 BB60     		str	r3, [r7, #8]
 420:Generated_Source\PSoC4/CSD_Control.c **** 
 421:Generated_Source\PSoC4/CSD_Control.c ****         switch(CSD_GET_SENSE_METHOD(ptrFlashWdgt))
 422:Generated_Source\PSoC4/CSD_Control.c ****         {
 423:Generated_Source\PSoC4/CSD_Control.c ****         #if (0u != CSD_TOTAL_CSD_WIDGETS)
 424:Generated_Source\PSoC4/CSD_Control.c ****             case CSD_SENSE_METHOD_CSD_E:
 425:Generated_Source\PSoC4/CSD_Control.c ****                 CSD_DpProcessCsdWidgetRawCounts(ptrFlashWdgt);
 404              		.loc 1 425 0
 405 0054 BB68     		ldr	r3, [r7, #8]
 406 0056 181C     		mov	r0, r3
 407 0058 FFF7FEFF 		bl	CSD_DpProcessCsdWidgetRawCounts
 426:Generated_Source\PSoC4/CSD_Control.c ****                 CSD_DpProcessCsdWidgetStatus(widgetId, ptrFlashWdgt);
 408              		.loc 1 426 0
 409 005c 7A68     		ldr	r2, [r7, #4]
 410 005e BB68     		ldr	r3, [r7, #8]
 411 0060 101C     		mov	r0, r2
 412 0062 191C     		mov	r1, r3
 413 0064 FFF7FEFF 		bl	CSD_DpProcessCsdWidgetStatus
 427:Generated_Source\PSoC4/CSD_Control.c ****                 break;
 414              		.loc 1 427 0
 415 0068 C046     		mov	r8, r8
 416              	.L31:
 428:Generated_Source\PSoC4/CSD_Control.c ****         #endif /* #if (0u != CSD_TOTAL_CSD_WIDGETS) */
 429:Generated_Source\PSoC4/CSD_Control.c **** 
 430:Generated_Source\PSoC4/CSD_Control.c ****         #if (0u != CSD_TOTAL_CSX_WIDGETS)
 431:Generated_Source\PSoC4/CSD_Control.c ****             case CSD_SENSE_METHOD_CSX_E:
 432:Generated_Source\PSoC4/CSD_Control.c ****                 CSD_DpProcessCsxWidgetRawCounts(ptrFlashWdgt);
 433:Generated_Source\PSoC4/CSD_Control.c ****                 CSD_DpProcessCsxWidgetStatus(widgetId, ptrFlashWdgt);
 434:Generated_Source\PSoC4/CSD_Control.c ****                 break;
 435:Generated_Source\PSoC4/CSD_Control.c ****         #endif /* #if (0u != CSD_TOTAL_CSX_WIDGETS) */
 436:Generated_Source\PSoC4/CSD_Control.c **** 
ARM GAS  C:\Users\CHRIST~1\AppData\Local\Temp\ccdqcrh1.s 			page 16


 437:Generated_Source\PSoC4/CSD_Control.c ****         default:
 438:Generated_Source\PSoC4/CSD_Control.c ****             CYASSERT(0u);
 439:Generated_Source\PSoC4/CSD_Control.c ****             break;
 440:Generated_Source\PSoC4/CSD_Control.c ****         }
 441:Generated_Source\PSoC4/CSD_Control.c ****     }
 442:Generated_Source\PSoC4/CSD_Control.c **** 
 443:Generated_Source\PSoC4/CSD_Control.c ****     return result;
 417              		.loc 1 443 0
 418 006a FB68     		ldr	r3, [r7, #12]
 444:Generated_Source\PSoC4/CSD_Control.c **** }
 419              		.loc 1 444 0
 420 006c 181C     		mov	r0, r3
 421 006e BD46     		mov	sp, r7
 422 0070 04B0     		add	sp, sp, #16
 423              		@ sp needed
 424 0072 80BD     		pop	{r7, pc}
 425              	.L34:
 426              		.align	2
 427              	.L33:
 428 0074 00000000 		.word	CSD_dsRam
 429 0078 00000000 		.word	CSD_dsFlash
 430              		.cfi_endproc
 431              	.LFE6:
 432              		.size	CSD_ProcessWidget, .-CSD_ProcessWidget
 433              		.section	.text.CSD_ProcessWidgetExt,"ax",%progbits
 434              		.align	2
 435              		.global	CSD_ProcessWidgetExt
 436              		.code	16
 437              		.thumb_func
 438              		.type	CSD_ProcessWidgetExt, %function
 439              	CSD_ProcessWidgetExt:
 440              	.LFB7:
 445:Generated_Source\PSoC4/CSD_Control.c **** 
 446:Generated_Source\PSoC4/CSD_Control.c **** 
 447:Generated_Source\PSoC4/CSD_Control.c **** /*******************************************************************************
 448:Generated_Source\PSoC4/CSD_Control.c **** * Function Name: CSD_ProcessWidgetExt
 449:Generated_Source\PSoC4/CSD_Control.c **** ****************************************************************************//**
 450:Generated_Source\PSoC4/CSD_Control.c **** *
 451:Generated_Source\PSoC4/CSD_Control.c **** * \brief
 452:Generated_Source\PSoC4/CSD_Control.c **** *  Performs customized data processing on the selected widget.
 453:Generated_Source\PSoC4/CSD_Control.c **** *
 454:Generated_Source\PSoC4/CSD_Control.c **** * \details
 455:Generated_Source\PSoC4/CSD_Control.c **** *  This function performs data processes for the specified widget specified by 
 456:Generated_Source\PSoC4/CSD_Control.c **** *  the mode parameter. The execution order of the requested operations is from 
 457:Generated_Source\PSoC4/CSD_Control.c **** *  LSB to MSB of the mode parameter. If a different order is needed, this API 
 458:Generated_Source\PSoC4/CSD_Control.c **** *  can be called multiple times with the required mode parameter. 
 459:Generated_Source\PSoC4/CSD_Control.c **** *  
 460:Generated_Source\PSoC4/CSD_Control.c **** *  This function can be used with any of the available scan functions. This 
 461:Generated_Source\PSoC4/CSD_Control.c **** *  function should be called only after all sensors in the specified widget are
 462:Generated_Source\PSoC4/CSD_Control.c **** *  scanned. Calling this function multiple times with the same mode without 
 463:Generated_Source\PSoC4/CSD_Control.c **** *  sensor scanning causes unexpected behavior. This function ignores the value 
 464:Generated_Source\PSoC4/CSD_Control.c **** *  of the wdgtEnable register. 
 465:Generated_Source\PSoC4/CSD_Control.c **** *  
 466:Generated_Source\PSoC4/CSD_Control.c **** *  The CSD_PROCESS_CALC_NOISE and 
 467:Generated_Source\PSoC4/CSD_Control.c **** *  CSD_PROCESS_THRESHOLDS flags are supported by the CSD sensing
 468:Generated_Source\PSoC4/CSD_Control.c **** *  method only when the auto-tuning mode is enabled.
 469:Generated_Source\PSoC4/CSD_Control.c **** *  
ARM GAS  C:\Users\CHRIST~1\AppData\Local\Temp\ccdqcrh1.s 			page 17


 470:Generated_Source\PSoC4/CSD_Control.c **** *  The pipeline scan method (i.e. during scanning of a widget perform processing
 471:Generated_Source\PSoC4/CSD_Control.c **** *  of a previously scanned widget) can be implemented using this function and it
 472:Generated_Source\PSoC4/CSD_Control.c **** *  may reduce the total scan/process time, increase the refresh rate and 
 473:Generated_Source\PSoC4/CSD_Control.c **** *  decrease the power consumption.
 474:Generated_Source\PSoC4/CSD_Control.c **** *
 475:Generated_Source\PSoC4/CSD_Control.c **** * \param widgetId 
 476:Generated_Source\PSoC4/CSD_Control.c **** *  Specify the ID number of the widget to be processed. 
 477:Generated_Source\PSoC4/CSD_Control.c **** *  A macro for the widget ID can be found in CSD_Configuration.h 
 478:Generated_Source\PSoC4/CSD_Control.c **** *  file defined as CSD_<WidgetName>_WDGT_ID.
 479:Generated_Source\PSoC4/CSD_Control.c **** 
 480:Generated_Source\PSoC4/CSD_Control.c **** * \param mode 
 481:Generated_Source\PSoC4/CSD_Control.c **** *  Specify the type of widget processing that needs to be executed for the 
 482:Generated_Source\PSoC4/CSD_Control.c **** *  specified widget:
 483:Generated_Source\PSoC4/CSD_Control.c **** *    1.	Bits [31..6] - Reserved
 484:Generated_Source\PSoC4/CSD_Control.c **** *    2.	Bits [5..0] - CSD_PROCESS_ALL - Execute all tasks
 485:Generated_Source\PSoC4/CSD_Control.c **** *    3.	Bit [5] - CSD_PROCESS_STATUS - Update Status (on/off, 
 486:Generated_Source\PSoC4/CSD_Control.c **** *       centroid position)
 487:Generated_Source\PSoC4/CSD_Control.c **** *    4.	Bit [4] - CSD_PROCESS_THRESHOLDS - Update Thresholds 
 488:Generated_Source\PSoC4/CSD_Control.c **** *       (only in CSD auto-tuning mode)
 489:Generated_Source\PSoC4/CSD_Control.c **** *    5.	Bit [3] - CSD_PROCESS_CALC_NOISE - Calculate Noise (only in
 490:Generated_Source\PSoC4/CSD_Control.c **** *       CSD auto-tuning mode)
 491:Generated_Source\PSoC4/CSD_Control.c **** *    6.	Bit [2] - CSD_PROCESS_DIFFCOUNTS - Update Difference Counts
 492:Generated_Source\PSoC4/CSD_Control.c **** *    7.	Bit [1] - CSD_PROCESS_BASELINE - Update Baselines
 493:Generated_Source\PSoC4/CSD_Control.c **** *    8.	Bit [0] - CSD_PROCESS_FILTER - Run Firmware Filter
 494:Generated_Source\PSoC4/CSD_Control.c **** *
 495:Generated_Source\PSoC4/CSD_Control.c **** * \return
 496:Generated_Source\PSoC4/CSD_Control.c **** *  Returns the status of the widget processing operation:
 497:Generated_Source\PSoC4/CSD_Control.c **** *    - CYRET_SUCCESS if processing is successfully performed.
 498:Generated_Source\PSoC4/CSD_Control.c **** *    - CYRET_BAD_PARAM if the input parameter is invalid.
 499:Generated_Source\PSoC4/CSD_Control.c **** *
 500:Generated_Source\PSoC4/CSD_Control.c **** *******************************************************************************/
 501:Generated_Source\PSoC4/CSD_Control.c **** cystatus CSD_ProcessWidgetExt(uint32 widgetId, uint32 mode)
 502:Generated_Source\PSoC4/CSD_Control.c **** {
 441              		.loc 1 502 0
 442              		.cfi_startproc
 443 0000 80B5     		push	{r7, lr}
 444              		.cfi_def_cfa_offset 8
 445              		.cfi_offset 7, -8
 446              		.cfi_offset 14, -4
 447 0002 88B0     		sub	sp, sp, #32
 448              		.cfi_def_cfa_offset 40
 449 0004 00AF     		add	r7, sp, #0
 450              		.cfi_def_cfa_register 7
 451 0006 7860     		str	r0, [r7, #4]
 452 0008 3960     		str	r1, [r7]
 503:Generated_Source\PSoC4/CSD_Control.c ****     uint32 snsCount;
 504:Generated_Source\PSoC4/CSD_Control.c ****     cystatus result = CYRET_BAD_PARAM;
 453              		.loc 1 504 0
 454 000a 0123     		mov	r3, #1
 455 000c BB61     		str	r3, [r7, #24]
 505:Generated_Source\PSoC4/CSD_Control.c ****     CSD_FLASH_WD_STRUCT const *ptrFlashWdgt;
 506:Generated_Source\PSoC4/CSD_Control.c ****     CSD_PTR_FILTER_VARIANT fltrHistV;
 507:Generated_Source\PSoC4/CSD_Control.c ****     CSD_RAM_SNS_STRUCT *ptrSns;
 508:Generated_Source\PSoC4/CSD_Control.c **** 
 509:Generated_Source\PSoC4/CSD_Control.c ****     #if (0u != CSD_TOTAL_CSD_WIDGETS)
 510:Generated_Source\PSoC4/CSD_Control.c ****         uint32 isProxWdgt;
 511:Generated_Source\PSoC4/CSD_Control.c ****     #endif
ARM GAS  C:\Users\CHRIST~1\AppData\Local\Temp\ccdqcrh1.s 			page 18


 512:Generated_Source\PSoC4/CSD_Control.c **** 
 513:Generated_Source\PSoC4/CSD_Control.c ****     if (widgetId < CSD_TOTAL_WIDGETS)
 456              		.loc 1 513 0
 457 000e 7B68     		ldr	r3, [r7, #4]
 458 0010 002B     		cmp	r3, #0
 459 0012 3AD1     		bne	.L36
 514:Generated_Source\PSoC4/CSD_Control.c ****     {
 515:Generated_Source\PSoC4/CSD_Control.c ****         ptrFlashWdgt = &CSD_dsFlash.wdgtArray[widgetId];
 460              		.loc 1 515 0
 461 0014 7A68     		ldr	r2, [r7, #4]
 462 0016 131C     		mov	r3, r2
 463 0018 DB00     		lsl	r3, r3, #3
 464 001a 9B1A     		sub	r3, r3, r2
 465 001c 9B00     		lsl	r3, r3, #2
 466 001e 1D4A     		ldr	r2, .L43
 467 0020 9B18     		add	r3, r3, r2
 468 0022 3B61     		str	r3, [r7, #16]
 516:Generated_Source\PSoC4/CSD_Control.c ****         snsCount = CSD_GET_SNS_CNT_BY_PTR(ptrFlashWdgt);
 469              		.loc 1 516 0
 470 0024 3B69     		ldr	r3, [r7, #16]
 471 0026 DB8A     		ldrh	r3, [r3, #22]
 472 0028 FB61     		str	r3, [r7, #28]
 517:Generated_Source\PSoC4/CSD_Control.c ****         ptrSns = ptrFlashWdgt->ptr2SnsRam;
 473              		.loc 1 517 0
 474 002a 3B69     		ldr	r3, [r7, #16]
 475 002c 9B68     		ldr	r3, [r3, #8]
 476 002e 7B61     		str	r3, [r7, #20]
 518:Generated_Source\PSoC4/CSD_Control.c ****         fltrHistV.ptr = ptrFlashWdgt->ptr2FltrHistory;
 477              		.loc 1 518 0
 478 0030 3B69     		ldr	r3, [r7, #16]
 479 0032 DB68     		ldr	r3, [r3, #12]
 480 0034 BB60     		str	r3, [r7, #8]
 519:Generated_Source\PSoC4/CSD_Control.c **** 
 520:Generated_Source\PSoC4/CSD_Control.c ****         switch(CSD_GET_SENSE_METHOD(ptrFlashWdgt))
 521:Generated_Source\PSoC4/CSD_Control.c ****         {
 522:Generated_Source\PSoC4/CSD_Control.c ****         #if (0u != CSD_TOTAL_CSD_WIDGETS)
 523:Generated_Source\PSoC4/CSD_Control.c ****             case CSD_SENSE_METHOD_CSD_E:
 524:Generated_Source\PSoC4/CSD_Control.c ****             {
 525:Generated_Source\PSoC4/CSD_Control.c ****                 /* Determine if widget is type of proximity.
 526:Generated_Source\PSoC4/CSD_Control.c ****                  * The Proximity widgets use different filters and
 527:Generated_Source\PSoC4/CSD_Control.c ****                  * therefore have different filter history object structure */
 528:Generated_Source\PSoC4/CSD_Control.c ****                 isProxWdgt =
 529:Generated_Source\PSoC4/CSD_Control.c ****                     (CSD_GET_WIDGET_TYPE(ptrFlashWdgt) == CSD_WD_PROXIMITY_E) ? 1Lu : 0Lu;
 481              		.loc 1 529 0
 482 0036 3B69     		ldr	r3, [r7, #16]
 483 0038 1B7E     		ldrb	r3, [r3, #24]
 484 003a 062B     		cmp	r3, #6
 485 003c 01D1     		bne	.L37
 486              		.loc 1 529 0 is_stmt 0 discriminator 1
 487 003e 0123     		mov	r3, #1
 488 0040 00E0     		b	.L38
 489              	.L37:
 490              		.loc 1 529 0 discriminator 2
 491 0042 0023     		mov	r3, #0
 492              	.L38:
 528:Generated_Source\PSoC4/CSD_Control.c ****                     (CSD_GET_WIDGET_TYPE(ptrFlashWdgt) == CSD_WD_PROXIMITY_E) ? 1Lu : 0Lu;
 493              		.loc 1 528 0 is_stmt 1
ARM GAS  C:\Users\CHRIST~1\AppData\Local\Temp\ccdqcrh1.s 			page 19


 494 0044 FB60     		str	r3, [r7, #12]
 530:Generated_Source\PSoC4/CSD_Control.c **** 
 531:Generated_Source\PSoC4/CSD_Control.c ****                 /* Run the desired processing for the all CSD widget sensors */
 532:Generated_Source\PSoC4/CSD_Control.c ****                 for (;snsCount-- > 0u;)
 495              		.loc 1 532 0
 496 0046 0EE0     		b	.L39
 497              	.L40:
 533:Generated_Source\PSoC4/CSD_Control.c ****                 {
 534:Generated_Source\PSoC4/CSD_Control.c ****                     CSD_DpProcessCsdSensorRawCountsExt(ptrFlashWdgt, ptrSns, fltrHistV, mode);
 498              		.loc 1 534 0
 499 0048 3869     		ldr	r0, [r7, #16]
 500 004a 7969     		ldr	r1, [r7, #20]
 501 004c BA68     		ldr	r2, [r7, #8]
 502 004e 3B68     		ldr	r3, [r7]
 503 0050 FFF7FEFF 		bl	CSD_DpProcessCsdSensorRawCountsExt
 535:Generated_Source\PSoC4/CSD_Control.c **** 
 536:Generated_Source\PSoC4/CSD_Control.c ****                     /* Move to the next sensor and filter history objects */
 537:Generated_Source\PSoC4/CSD_Control.c ****                     ptrSns++;
 504              		.loc 1 537 0
 505 0054 7B69     		ldr	r3, [r7, #20]
 506 0056 0A33     		add	r3, r3, #10
 507 0058 7B61     		str	r3, [r7, #20]
 538:Generated_Source\PSoC4/CSD_Control.c ****                     CSD_INC_FLTR_OBJ_VARIANT(isProxWdgt, fltrHistV);
 508              		.loc 1 538 0
 509 005a FB68     		ldr	r3, [r7, #12]
 510 005c 002B     		cmp	r3, #0
 511 005e 02D1     		bne	.L39
 512              		.loc 1 538 0 is_stmt 0 discriminator 1
 513 0060 BB68     		ldr	r3, [r7, #8]
 514 0062 0233     		add	r3, r3, #2
 515 0064 BB60     		str	r3, [r7, #8]
 516              	.L39:
 532:Generated_Source\PSoC4/CSD_Control.c ****                 {
 517              		.loc 1 532 0 is_stmt 1
 518 0066 FB69     		ldr	r3, [r7, #28]
 519 0068 5A1E     		sub	r2, r3, #1
 520 006a FA61     		str	r2, [r7, #28]
 521 006c 002B     		cmp	r3, #0
 522 006e EBD1     		bne	.L40
 539:Generated_Source\PSoC4/CSD_Control.c ****                 }
 540:Generated_Source\PSoC4/CSD_Control.c **** 
 541:Generated_Source\PSoC4/CSD_Control.c ****                 if (0u != (mode & CSD_PROCESS_STATUS))
 523              		.loc 1 541 0
 524 0070 3B68     		ldr	r3, [r7]
 525 0072 2022     		mov	r2, #32
 526 0074 1340     		and	r3, r2
 527 0076 05D0     		beq	.L41
 542:Generated_Source\PSoC4/CSD_Control.c ****                 {
 543:Generated_Source\PSoC4/CSD_Control.c ****                     CSD_DpProcessCsdWidgetStatus(widgetId, ptrFlashWdgt);
 528              		.loc 1 543 0
 529 0078 7A68     		ldr	r2, [r7, #4]
 530 007a 3B69     		ldr	r3, [r7, #16]
 531 007c 101C     		mov	r0, r2
 532 007e 191C     		mov	r1, r3
 533 0080 FFF7FEFF 		bl	CSD_DpProcessCsdWidgetStatus
 534              	.L41:
 544:Generated_Source\PSoC4/CSD_Control.c ****                 }
ARM GAS  C:\Users\CHRIST~1\AppData\Local\Temp\ccdqcrh1.s 			page 20


 545:Generated_Source\PSoC4/CSD_Control.c ****                 break;
 535              		.loc 1 545 0
 536 0084 C046     		mov	r8, r8
 546:Generated_Source\PSoC4/CSD_Control.c ****             }
 547:Generated_Source\PSoC4/CSD_Control.c ****         #endif /* #if (0u != CSD_TOTAL_CSD_WIDGETS) */
 548:Generated_Source\PSoC4/CSD_Control.c **** 
 549:Generated_Source\PSoC4/CSD_Control.c ****         #if (0u != CSD_TOTAL_CSX_WIDGETS)
 550:Generated_Source\PSoC4/CSD_Control.c ****             case CSD_SENSE_METHOD_CSX_E:
 551:Generated_Source\PSoC4/CSD_Control.c **** 
 552:Generated_Source\PSoC4/CSD_Control.c ****                 #if (0u != CSD_CSX_MULTIPHASE_TX_EN)
 553:Generated_Source\PSoC4/CSD_Control.c ****                     if ((0u != (mode & CSD_PROCESS_DECONVOLUTION)) &&
 554:Generated_Source\PSoC4/CSD_Control.c ****                         (0u != (ptrFlashWdgt->staticConfig & CSD_MULTIPHASE_TX_MASK)))
 555:Generated_Source\PSoC4/CSD_Control.c ****                     {
 556:Generated_Source\PSoC4/CSD_Control.c ****                         CSD_DpDeconvolution(ptrFlashWdgt);
 557:Generated_Source\PSoC4/CSD_Control.c ****                     }
 558:Generated_Source\PSoC4/CSD_Control.c ****                 #endif /* #if (0u != CSD_CSX_MULTIPHASE_TX_EN) */
 559:Generated_Source\PSoC4/CSD_Control.c **** 
 560:Generated_Source\PSoC4/CSD_Control.c ****                 /* Run the desired processing for the all CSX widget sensors */
 561:Generated_Source\PSoC4/CSD_Control.c ****                 for (;snsCount-- > 0u;)
 562:Generated_Source\PSoC4/CSD_Control.c ****                 {
 563:Generated_Source\PSoC4/CSD_Control.c ****                     CSD_DpProcessCsxSensorRawCountsExt(ptrFlashWdgt, ptrSns, fltrHistV, mode);
 564:Generated_Source\PSoC4/CSD_Control.c **** 
 565:Generated_Source\PSoC4/CSD_Control.c ****                     /* Move to the next sensor and filter history objects */
 566:Generated_Source\PSoC4/CSD_Control.c ****                     ptrSns++;
 567:Generated_Source\PSoC4/CSD_Control.c ****                     CSD_INC_FLTR_OBJ_VARIANT(0u, fltrHistV);
 568:Generated_Source\PSoC4/CSD_Control.c ****                 }
 569:Generated_Source\PSoC4/CSD_Control.c **** 
 570:Generated_Source\PSoC4/CSD_Control.c ****                 if (0u != (mode & CSD_PROCESS_STATUS))
 571:Generated_Source\PSoC4/CSD_Control.c ****                 {
 572:Generated_Source\PSoC4/CSD_Control.c ****                     CSD_DpProcessCsxWidgetStatus(widgetId, ptrFlashWdgt);
 573:Generated_Source\PSoC4/CSD_Control.c ****                 }
 574:Generated_Source\PSoC4/CSD_Control.c ****                 break;
 575:Generated_Source\PSoC4/CSD_Control.c ****         #endif /* #if (0u != CSD_TOTAL_CSX_WIDGETS) */
 576:Generated_Source\PSoC4/CSD_Control.c **** 
 577:Generated_Source\PSoC4/CSD_Control.c ****         default:
 578:Generated_Source\PSoC4/CSD_Control.c ****             CYASSERT(0u);
 579:Generated_Source\PSoC4/CSD_Control.c ****             break;
 580:Generated_Source\PSoC4/CSD_Control.c ****         }
 581:Generated_Source\PSoC4/CSD_Control.c **** 
 582:Generated_Source\PSoC4/CSD_Control.c ****         result = CYRET_SUCCESS;
 537              		.loc 1 582 0
 538 0086 0023     		mov	r3, #0
 539 0088 BB61     		str	r3, [r7, #24]
 540              	.L36:
 583:Generated_Source\PSoC4/CSD_Control.c ****     }
 584:Generated_Source\PSoC4/CSD_Control.c **** 
 585:Generated_Source\PSoC4/CSD_Control.c ****     return result;
 541              		.loc 1 585 0
 542 008a BB69     		ldr	r3, [r7, #24]
 586:Generated_Source\PSoC4/CSD_Control.c **** }
 543              		.loc 1 586 0
 544 008c 181C     		mov	r0, r3
 545 008e BD46     		mov	sp, r7
 546 0090 08B0     		add	sp, sp, #32
 547              		@ sp needed
 548 0092 80BD     		pop	{r7, pc}
 549              	.L44:
ARM GAS  C:\Users\CHRIST~1\AppData\Local\Temp\ccdqcrh1.s 			page 21


 550              		.align	2
 551              	.L43:
 552 0094 00000000 		.word	CSD_dsFlash
 553              		.cfi_endproc
 554              	.LFE7:
 555              		.size	CSD_ProcessWidgetExt, .-CSD_ProcessWidgetExt
 556              		.section	.text.CSD_ProcessSensorExt,"ax",%progbits
 557              		.align	2
 558              		.global	CSD_ProcessSensorExt
 559              		.code	16
 560              		.thumb_func
 561              		.type	CSD_ProcessSensorExt, %function
 562              	CSD_ProcessSensorExt:
 563              	.LFB8:
 587:Generated_Source\PSoC4/CSD_Control.c **** 
 588:Generated_Source\PSoC4/CSD_Control.c **** /*******************************************************************************
 589:Generated_Source\PSoC4/CSD_Control.c **** * Function Name: CSD_ProcessSensorExt
 590:Generated_Source\PSoC4/CSD_Control.c **** ****************************************************************************//**
 591:Generated_Source\PSoC4/CSD_Control.c **** *
 592:Generated_Source\PSoC4/CSD_Control.c **** * \brief
 593:Generated_Source\PSoC4/CSD_Control.c **** *  Performs customized data processing on the selected widget's sensor.
 594:Generated_Source\PSoC4/CSD_Control.c **** *
 595:Generated_Source\PSoC4/CSD_Control.c **** * \details
 596:Generated_Source\PSoC4/CSD_Control.c **** *  This function performs data processes for the specified sensor specified by
 597:Generated_Source\PSoC4/CSD_Control.c **** *  the mode parameter. The execution order of the requested operations is from 
 598:Generated_Source\PSoC4/CSD_Control.c **** *  LSB to MSB of the mode parameter. If a different order is needed, this 
 599:Generated_Source\PSoC4/CSD_Control.c **** *  function can be called multiple times with the required mode parameter.
 600:Generated_Source\PSoC4/CSD_Control.c **** *  
 601:Generated_Source\PSoC4/CSD_Control.c **** *  This function can be used with any of the available scan functions. This 
 602:Generated_Source\PSoC4/CSD_Control.c **** *  function should be called only after a specified sensor in the widget is 
 603:Generated_Source\PSoC4/CSD_Control.c **** *  scanned. Calling this function multiple times with the same mode without 
 604:Generated_Source\PSoC4/CSD_Control.c **** *  sensor scanning causes unexpected behavior. This function ignores the value 
 605:Generated_Source\PSoC4/CSD_Control.c **** *  of the wdgtEnable register. 
 606:Generated_Source\PSoC4/CSD_Control.c **** *  
 607:Generated_Source\PSoC4/CSD_Control.c **** *  The CSD_PROCESS_CALC_NOISE and 
 608:Generated_Source\PSoC4/CSD_Control.c **** *  CSD_PROCESS_THRESHOLDS flags are supported by the CSD sensing 
 609:Generated_Source\PSoC4/CSD_Control.c **** *  method only when the auto-tuning mode is enabled.
 610:Generated_Source\PSoC4/CSD_Control.c **** *  
 611:Generated_Source\PSoC4/CSD_Control.c **** *  The pipeline scan method (i.e. during scanning of a sensor perform processing
 612:Generated_Source\PSoC4/CSD_Control.c **** *  of a previously scanned sensor) can be implemented using this function and it
 613:Generated_Source\PSoC4/CSD_Control.c **** *  may reduce the total scan/process time, increase the refresh rate and 
 614:Generated_Source\PSoC4/CSD_Control.c **** *  decrease the power consumption.
 615:Generated_Source\PSoC4/CSD_Control.c **** *
 616:Generated_Source\PSoC4/CSD_Control.c **** * \param widgetId  
 617:Generated_Source\PSoC4/CSD_Control.c **** *  Specify the ID number of the widget to process one of its sensors. 
 618:Generated_Source\PSoC4/CSD_Control.c **** *  A macro for the widget ID can be found in the 
 619:Generated_Source\PSoC4/CSD_Control.c **** *  CSD_Configuration.h file defined as 
 620:Generated_Source\PSoC4/CSD_Control.c **** *  CSD_<WidgetName>_WDGT_ID
 621:Generated_Source\PSoC4/CSD_Control.c **** *  
 622:Generated_Source\PSoC4/CSD_Control.c **** * \param sensorId  
 623:Generated_Source\PSoC4/CSD_Control.c **** *  Specify the ID number of the sensor within the widget to process it.
 624:Generated_Source\PSoC4/CSD_Control.c **** *  A macro for the sensor ID within a specified widget can be found in the
 625:Generated_Source\PSoC4/CSD_Control.c **** *  CSD_Configuration.h file defined as 
 626:Generated_Source\PSoC4/CSD_Control.c **** *  CSD_<WidgetName>_SNS<SensorNumber>_ID
 627:Generated_Source\PSoC4/CSD_Control.c **** *  
 628:Generated_Source\PSoC4/CSD_Control.c **** * \param mode      
 629:Generated_Source\PSoC4/CSD_Control.c **** *  Specify the type of the sensor processing that needs to be executed for the
ARM GAS  C:\Users\CHRIST~1\AppData\Local\Temp\ccdqcrh1.s 			page 22


 630:Generated_Source\PSoC4/CSD_Control.c **** *  specified sensor:
 631:Generated_Source\PSoC4/CSD_Control.c **** *    1. Bits [31..5] - Reserved
 632:Generated_Source\PSoC4/CSD_Control.c **** *    2. Bits [4..0] - CSD_PROCESS_ALL - Executes all tasks
 633:Generated_Source\PSoC4/CSD_Control.c **** *    3. Bit [4] - CSD_PROCESS_THRESHOLDS - Updates Thresholds (only
 634:Generated_Source\PSoC4/CSD_Control.c **** *       in auto-tuning mode)
 635:Generated_Source\PSoC4/CSD_Control.c **** *    4. Bit [3] - CSD_PROCESS_CALC_NOISE - Calculates Noise (only 
 636:Generated_Source\PSoC4/CSD_Control.c **** *       in auto-tuning mode)
 637:Generated_Source\PSoC4/CSD_Control.c **** *    5. Bit [2] - CSD_PROCESS_DIFFCOUNTS - Updates Difference Count
 638:Generated_Source\PSoC4/CSD_Control.c **** *    6. Bit [1] - CSD_PROCESS_BASELINE - Updates Baseline
 639:Generated_Source\PSoC4/CSD_Control.c **** *    7. Bit [0] - CSD_PROCESS_FILTER - Runs Firmware Filter
 640:Generated_Source\PSoC4/CSD_Control.c **** *
 641:Generated_Source\PSoC4/CSD_Control.c **** * \return
 642:Generated_Source\PSoC4/CSD_Control.c **** *  Returns the status of the sensor process operation:
 643:Generated_Source\PSoC4/CSD_Control.c **** *    - CYRET_SUCCESS if processing is successfully performed.
 644:Generated_Source\PSoC4/CSD_Control.c **** *    - CYRET_BAD_PARAM if the input parameter is invalid.
 645:Generated_Source\PSoC4/CSD_Control.c **** *
 646:Generated_Source\PSoC4/CSD_Control.c **** *******************************************************************************/
 647:Generated_Source\PSoC4/CSD_Control.c **** cystatus CSD_ProcessSensorExt(uint32 widgetId, uint32 sensorId, uint32 mode)
 648:Generated_Source\PSoC4/CSD_Control.c **** {
 564              		.loc 1 648 0
 565              		.cfi_startproc
 566 0000 80B5     		push	{r7, lr}
 567              		.cfi_def_cfa_offset 8
 568              		.cfi_offset 7, -8
 569              		.cfi_offset 14, -4
 570 0002 88B0     		sub	sp, sp, #32
 571              		.cfi_def_cfa_offset 40
 572 0004 00AF     		add	r7, sp, #0
 573              		.cfi_def_cfa_register 7
 574 0006 F860     		str	r0, [r7, #12]
 575 0008 B960     		str	r1, [r7, #8]
 576 000a 7A60     		str	r2, [r7, #4]
 649:Generated_Source\PSoC4/CSD_Control.c ****     cystatus result = CYRET_BAD_PARAM;
 577              		.loc 1 649 0
 578 000c 0123     		mov	r3, #1
 579 000e FB61     		str	r3, [r7, #28]
 650:Generated_Source\PSoC4/CSD_Control.c ****     CSD_FLASH_WD_STRUCT const *ptrFlashWdgt;
 651:Generated_Source\PSoC4/CSD_Control.c ****     CSD_PTR_FILTER_VARIANT fltrHistV;
 652:Generated_Source\PSoC4/CSD_Control.c ****     CSD_RAM_SNS_STRUCT *ptrSns;
 653:Generated_Source\PSoC4/CSD_Control.c **** 
 654:Generated_Source\PSoC4/CSD_Control.c ****     if ((widgetId < CSD_TOTAL_WIDGETS) && (sensorId < CSD_GET_SENSOR_COUNT(widgetId)))
 580              		.loc 1 654 0
 581 0010 FB68     		ldr	r3, [r7, #12]
 582 0012 002B     		cmp	r3, #0
 583 0014 35D1     		bne	.L46
 584              		.loc 1 654 0 is_stmt 0 discriminator 1
 585 0016 1D49     		ldr	r1, .L49
 586 0018 FA68     		ldr	r2, [r7, #12]
 587 001a 131C     		mov	r3, r2
 588 001c DB00     		lsl	r3, r3, #3
 589 001e 9B1A     		sub	r3, r3, r2
 590 0020 9B00     		lsl	r3, r3, #2
 591 0022 CB18     		add	r3, r1, r3
 592 0024 1033     		add	r3, r3, #16
 593 0026 DB88     		ldrh	r3, [r3, #6]
 594 0028 1A1E     		sub	r2, r3, #0
 595 002a BB68     		ldr	r3, [r7, #8]
ARM GAS  C:\Users\CHRIST~1\AppData\Local\Temp\ccdqcrh1.s 			page 23


 596 002c 9A42     		cmp	r2, r3
 597 002e 28D9     		bls	.L46
 655:Generated_Source\PSoC4/CSD_Control.c ****     {
 656:Generated_Source\PSoC4/CSD_Control.c ****         ptrFlashWdgt = &CSD_dsFlash.wdgtArray[widgetId];
 598              		.loc 1 656 0 is_stmt 1
 599 0030 FA68     		ldr	r2, [r7, #12]
 600 0032 131C     		mov	r3, r2
 601 0034 DB00     		lsl	r3, r3, #3
 602 0036 9B1A     		sub	r3, r3, r2
 603 0038 9B00     		lsl	r3, r3, #2
 604 003a 144A     		ldr	r2, .L49
 605 003c 9B18     		add	r3, r3, r2
 606 003e BB61     		str	r3, [r7, #24]
 657:Generated_Source\PSoC4/CSD_Control.c ****         fltrHistV.ptr = ptrFlashWdgt->ptr2FltrHistory;
 607              		.loc 1 657 0
 608 0040 BB69     		ldr	r3, [r7, #24]
 609 0042 DB68     		ldr	r3, [r3, #12]
 610 0044 3B61     		str	r3, [r7, #16]
 658:Generated_Source\PSoC4/CSD_Control.c ****         ptrSns = ptrFlashWdgt->ptr2SnsRam;
 611              		.loc 1 658 0
 612 0046 BB69     		ldr	r3, [r7, #24]
 613 0048 9B68     		ldr	r3, [r3, #8]
 614 004a 7B61     		str	r3, [r7, #20]
 659:Generated_Source\PSoC4/CSD_Control.c ****         ptrSns += sensorId;
 615              		.loc 1 659 0
 616 004c BA68     		ldr	r2, [r7, #8]
 617 004e 131C     		mov	r3, r2
 618 0050 9B00     		lsl	r3, r3, #2
 619 0052 9B18     		add	r3, r3, r2
 620 0054 5B00     		lsl	r3, r3, #1
 621 0056 1A1C     		mov	r2, r3
 622 0058 7B69     		ldr	r3, [r7, #20]
 623 005a 9B18     		add	r3, r3, r2
 624 005c 7B61     		str	r3, [r7, #20]
 660:Generated_Source\PSoC4/CSD_Control.c **** 
 661:Generated_Source\PSoC4/CSD_Control.c ****         switch(CSD_GET_SENSE_METHOD(ptrFlashWdgt))
 662:Generated_Source\PSoC4/CSD_Control.c ****         {
 663:Generated_Source\PSoC4/CSD_Control.c ****         #if (0u != CSD_TOTAL_CSD_WIDGETS)
 664:Generated_Source\PSoC4/CSD_Control.c ****             case CSD_SENSE_METHOD_CSD_E:
 665:Generated_Source\PSoC4/CSD_Control.c ****                 if (CSD_WD_PROXIMITY_E == (CSD_WD_TYPE_ENUM)ptrFlashWdgt->wdgtType)
 625              		.loc 1 665 0
 626 005e BB69     		ldr	r3, [r7, #24]
 627 0060 1B7E     		ldrb	r3, [r3, #24]
 628 0062 062B     		cmp	r3, #6
 629 0064 04D0     		beq	.L47
 666:Generated_Source\PSoC4/CSD_Control.c ****                 {
 667:Generated_Source\PSoC4/CSD_Control.c ****                     #if (0u != CSD_PROX_RC_FILTER_EN)
 668:Generated_Source\PSoC4/CSD_Control.c ****                         fltrHistV.ptr = &fltrHistV.ptrProx[sensorId];
 669:Generated_Source\PSoC4/CSD_Control.c ****                     #endif /* #if (0u != CSD_PROX_RC_FILTER_EN) */
 670:Generated_Source\PSoC4/CSD_Control.c ****                 }
 671:Generated_Source\PSoC4/CSD_Control.c ****                 else
 672:Generated_Source\PSoC4/CSD_Control.c ****                 {
 673:Generated_Source\PSoC4/CSD_Control.c ****                     #if (0u != CSD_REGULAR_RC_FILTER_EN)
 674:Generated_Source\PSoC4/CSD_Control.c ****                         fltrHistV.ptr = &fltrHistV.ptrRegular[sensorId];
 630              		.loc 1 674 0
 631 0066 3A69     		ldr	r2, [r7, #16]
 632 0068 BB68     		ldr	r3, [r7, #8]
ARM GAS  C:\Users\CHRIST~1\AppData\Local\Temp\ccdqcrh1.s 			page 24


 633 006a 5B00     		lsl	r3, r3, #1
 634 006c D318     		add	r3, r2, r3
 635 006e 3B61     		str	r3, [r7, #16]
 636              	.L47:
 675:Generated_Source\PSoC4/CSD_Control.c ****                     #endif /* #if (0u != CSD_REGULAR_RC_FILTER_EN) */
 676:Generated_Source\PSoC4/CSD_Control.c ****                 }
 677:Generated_Source\PSoC4/CSD_Control.c **** 
 678:Generated_Source\PSoC4/CSD_Control.c ****                 CSD_DpProcessCsdSensorRawCountsExt(ptrFlashWdgt, ptrSns, fltrHistV, mode);
 637              		.loc 1 678 0
 638 0070 B869     		ldr	r0, [r7, #24]
 639 0072 7969     		ldr	r1, [r7, #20]
 640 0074 3A69     		ldr	r2, [r7, #16]
 641 0076 7B68     		ldr	r3, [r7, #4]
 642 0078 FFF7FEFF 		bl	CSD_DpProcessCsdSensorRawCountsExt
 679:Generated_Source\PSoC4/CSD_Control.c ****                 break;
 643              		.loc 1 679 0
 644 007c C046     		mov	r8, r8
 680:Generated_Source\PSoC4/CSD_Control.c ****         #endif /* #if (0u != CSD_TOTAL_CSD_WIDGETS) */
 681:Generated_Source\PSoC4/CSD_Control.c **** 
 682:Generated_Source\PSoC4/CSD_Control.c ****         #if (0u != CSD_TOTAL_CSX_WIDGETS)
 683:Generated_Source\PSoC4/CSD_Control.c ****             case CSD_SENSE_METHOD_CSX_E:
 684:Generated_Source\PSoC4/CSD_Control.c ****                 #if (0u != CSD_REGULAR_RC_FILTER_EN)
 685:Generated_Source\PSoC4/CSD_Control.c ****                     fltrHistV.ptr = &fltrHistV.ptrRegular[sensorId];
 686:Generated_Source\PSoC4/CSD_Control.c ****                 #endif /* #if (0u != CSD_REGULAR_RC_FILTER_EN) */
 687:Generated_Source\PSoC4/CSD_Control.c **** 
 688:Generated_Source\PSoC4/CSD_Control.c ****                 CSD_DpProcessCsxSensorRawCountsExt(ptrFlashWdgt, ptrSns, fltrHistV, mode);
 689:Generated_Source\PSoC4/CSD_Control.c ****                 break;
 690:Generated_Source\PSoC4/CSD_Control.c ****         #endif /* #if (0u != CSD_TOTAL_CSX_WIDGETS) */
 691:Generated_Source\PSoC4/CSD_Control.c **** 
 692:Generated_Source\PSoC4/CSD_Control.c ****         default:
 693:Generated_Source\PSoC4/CSD_Control.c ****             CYASSERT(0u);
 694:Generated_Source\PSoC4/CSD_Control.c ****             break;
 695:Generated_Source\PSoC4/CSD_Control.c ****         }
 696:Generated_Source\PSoC4/CSD_Control.c **** 
 697:Generated_Source\PSoC4/CSD_Control.c ****         result = CYRET_SUCCESS;
 645              		.loc 1 697 0
 646 007e 0023     		mov	r3, #0
 647 0080 FB61     		str	r3, [r7, #28]
 648              	.L46:
 698:Generated_Source\PSoC4/CSD_Control.c ****     }
 699:Generated_Source\PSoC4/CSD_Control.c **** 
 700:Generated_Source\PSoC4/CSD_Control.c ****     return result;
 649              		.loc 1 700 0
 650 0082 FB69     		ldr	r3, [r7, #28]
 701:Generated_Source\PSoC4/CSD_Control.c **** }
 651              		.loc 1 701 0
 652 0084 181C     		mov	r0, r3
 653 0086 BD46     		mov	sp, r7
 654 0088 08B0     		add	sp, sp, #32
 655              		@ sp needed
 656 008a 80BD     		pop	{r7, pc}
 657              	.L50:
 658              		.align	2
 659              	.L49:
 660 008c 00000000 		.word	CSD_dsFlash
 661              		.cfi_endproc
 662              	.LFE8:
ARM GAS  C:\Users\CHRIST~1\AppData\Local\Temp\ccdqcrh1.s 			page 25


 663              		.size	CSD_ProcessSensorExt, .-CSD_ProcessSensorExt
 664              		.section	.text.CSD_Sleep,"ax",%progbits
 665              		.align	2
 666              		.global	CSD_Sleep
 667              		.code	16
 668              		.thumb_func
 669              		.type	CSD_Sleep, %function
 670              	CSD_Sleep:
 671              	.LFB9:
 702:Generated_Source\PSoC4/CSD_Control.c **** 
 703:Generated_Source\PSoC4/CSD_Control.c **** #if (0u != CSD_SELF_TEST_EN)
 704:Generated_Source\PSoC4/CSD_Control.c **** /*******************************************************************************
 705:Generated_Source\PSoC4/CSD_Control.c **** * Function Name: CSD_RunSelfTest
 706:Generated_Source\PSoC4/CSD_Control.c **** ****************************************************************************//**
 707:Generated_Source\PSoC4/CSD_Control.c **** *
 708:Generated_Source\PSoC4/CSD_Control.c **** * \brief
 709:Generated_Source\PSoC4/CSD_Control.c **** *  Run-self tests based on the test-enable mask.
 710:Generated_Source\PSoC4/CSD_Control.c **** *
 711:Generated_Source\PSoC4/CSD_Control.c **** * \details
 712:Generated_Source\PSoC4/CSD_Control.c **** *  The test bit-mask can take the following values:
 713:Generated_Source\PSoC4/CSD_Control.c **** *   - CSD_TST_SHORTS        - A test for the sensor shorts.
 714:Generated_Source\PSoC4/CSD_Control.c **** *   - CSD_TST_GLOBAL_CRC    - Verify CRC of RAM and FLASH global parameters.
 715:Generated_Source\PSoC4/CSD_Control.c **** *   - CSD_TST_BSL_RAW_LIMTS - Verify Baseline and Raw Counts limits.
 716:Generated_Source\PSoC4/CSD_Control.c **** *   - CSD_TST_WIDGET_CRC    - Verify CRC of the widget's configuration in RAM.
 717:Generated_Source\PSoC4/CSD_Control.c **** *   - CSD_TST_CSD_CAPS      - Measure the Cmod and Ctank capacitance.
 718:Generated_Source\PSoC4/CSD_Control.c **** *   - CSD_TST_CSX_CAPS      - Measure the Cint1 and Cint2 capacitance.
 719:Generated_Source\PSoC4/CSD_Control.c **** *   - CSD_TST_BASELINES     - Verify the baselines consistency (inverse copy).
 720:Generated_Source\PSoC4/CSD_Control.c **** *
 721:Generated_Source\PSoC4/CSD_Control.c **** *  The results of the capacitance measurements are stored into the corresponding
 722:Generated_Source\PSoC4/CSD_Control.c **** *  registers of the data structure.
 723:Generated_Source\PSoC4/CSD_Control.c **** *
 724:Generated_Source\PSoC4/CSD_Control.c **** * \param testEnMask The bit-mask with the requested tests to be executed.
 725:Generated_Source\PSoC4/CSD_Control.c **** *
 726:Generated_Source\PSoC4/CSD_Control.c **** * \return
 727:Generated_Source\PSoC4/CSD_Control.c **** *  Bitmask that contains 0 for passed tests (or not selected with the testEnMask)
 728:Generated_Source\PSoC4/CSD_Control.c **** *  and 1 for the failed tests.
 729:Generated_Source\PSoC4/CSD_Control.c **** *
 730:Generated_Source\PSoC4/CSD_Control.c **** *******************************************************************************/
 731:Generated_Source\PSoC4/CSD_Control.c **** uint32 CSD_RunSelfTest(uint32 testEnMask)
 732:Generated_Source\PSoC4/CSD_Control.c **** {
 733:Generated_Source\PSoC4/CSD_Control.c ****     /* The implementation of this API will be
 734:Generated_Source\PSoC4/CSD_Control.c ****      * provided in the FUTURE version of the
 735:Generated_Source\PSoC4/CSD_Control.c ****      * CSD component */
 736:Generated_Source\PSoC4/CSD_Control.c ****     (void)testEnMask;
 737:Generated_Source\PSoC4/CSD_Control.c ****     return 0Lu;
 738:Generated_Source\PSoC4/CSD_Control.c **** }
 739:Generated_Source\PSoC4/CSD_Control.c **** #endif /* #if CSD_SELF_TEST_EN */
 740:Generated_Source\PSoC4/CSD_Control.c **** 
 741:Generated_Source\PSoC4/CSD_Control.c **** 
 742:Generated_Source\PSoC4/CSD_Control.c **** /*******************************************************************************
 743:Generated_Source\PSoC4/CSD_Control.c **** * Function Name: CSD_Sleep
 744:Generated_Source\PSoC4/CSD_Control.c **** ****************************************************************************//**
 745:Generated_Source\PSoC4/CSD_Control.c **** *
 746:Generated_Source\PSoC4/CSD_Control.c **** * \brief
 747:Generated_Source\PSoC4/CSD_Control.c **** *  Prepares the component to deep sleep.
 748:Generated_Source\PSoC4/CSD_Control.c **** *
 749:Generated_Source\PSoC4/CSD_Control.c **** * \details
ARM GAS  C:\Users\CHRIST~1\AppData\Local\Temp\ccdqcrh1.s 			page 26


 750:Generated_Source\PSoC4/CSD_Control.c **** *  Currently this function is empty and exists as a place for future updates, 
 751:Generated_Source\PSoC4/CSD_Control.c **** *  this function shall be used to prepare the component to enter deep sleep.
 752:Generated_Source\PSoC4/CSD_Control.c **** *
 753:Generated_Source\PSoC4/CSD_Control.c **** *******************************************************************************/
 754:Generated_Source\PSoC4/CSD_Control.c **** void CSD_Sleep(void)
 755:Generated_Source\PSoC4/CSD_Control.c **** {
 672              		.loc 1 755 0
 673              		.cfi_startproc
 674 0000 80B5     		push	{r7, lr}
 675              		.cfi_def_cfa_offset 8
 676              		.cfi_offset 7, -8
 677              		.cfi_offset 14, -4
 678 0002 00AF     		add	r7, sp, #0
 679              		.cfi_def_cfa_register 7
 756:Generated_Source\PSoC4/CSD_Control.c **** }
 680              		.loc 1 756 0
 681 0004 BD46     		mov	sp, r7
 682              		@ sp needed
 683 0006 80BD     		pop	{r7, pc}
 684              		.cfi_endproc
 685              	.LFE9:
 686              		.size	CSD_Sleep, .-CSD_Sleep
 687              		.section	.text.CSD_Wakeup,"ax",%progbits
 688              		.align	2
 689              		.global	CSD_Wakeup
 690              		.code	16
 691              		.thumb_func
 692              		.type	CSD_Wakeup, %function
 693              	CSD_Wakeup:
 694              	.LFB10:
 757:Generated_Source\PSoC4/CSD_Control.c **** 
 758:Generated_Source\PSoC4/CSD_Control.c **** 
 759:Generated_Source\PSoC4/CSD_Control.c **** /*******************************************************************************
 760:Generated_Source\PSoC4/CSD_Control.c **** * Function Name: CSD_Wakeup
 761:Generated_Source\PSoC4/CSD_Control.c **** ****************************************************************************//**
 762:Generated_Source\PSoC4/CSD_Control.c **** *
 763:Generated_Source\PSoC4/CSD_Control.c **** * \brief
 764:Generated_Source\PSoC4/CSD_Control.c **** *  Currently this function is empty and exists as a place for future updates,
 765:Generated_Source\PSoC4/CSD_Control.c **** *  this function shall be used to resume the component after exiting deep sleep.
 766:Generated_Source\PSoC4/CSD_Control.c **** *
 767:Generated_Source\PSoC4/CSD_Control.c **** * \details
 768:Generated_Source\PSoC4/CSD_Control.c **** *  This function resumes the component after sleep.
 769:Generated_Source\PSoC4/CSD_Control.c **** *
 770:Generated_Source\PSoC4/CSD_Control.c **** *******************************************************************************/
 771:Generated_Source\PSoC4/CSD_Control.c **** void CSD_Wakeup(void)
 772:Generated_Source\PSoC4/CSD_Control.c **** {
 695              		.loc 1 772 0
 696              		.cfi_startproc
 697 0000 80B5     		push	{r7, lr}
 698              		.cfi_def_cfa_offset 8
 699              		.cfi_offset 7, -8
 700              		.cfi_offset 14, -4
 701 0002 00AF     		add	r7, sp, #0
 702              		.cfi_def_cfa_register 7
 773:Generated_Source\PSoC4/CSD_Control.c **** }
 703              		.loc 1 773 0
 704 0004 BD46     		mov	sp, r7
ARM GAS  C:\Users\CHRIST~1\AppData\Local\Temp\ccdqcrh1.s 			page 27


 705              		@ sp needed
 706 0006 80BD     		pop	{r7, pc}
 707              		.cfi_endproc
 708              	.LFE10:
 709              		.size	CSD_Wakeup, .-CSD_Wakeup
 710              		.text
 711              	.Letext0:
 712              		.file 2 "Generated_Source\\PSoC4\\cytypes.h"
 713              		.file 3 "Generated_Source\\PSoC4\\CSD_Configuration.h"
 714              		.file 4 "Generated_Source\\PSoC4\\CSD_Structure.h"