ARM GAS  C:\Users\CHRIST~1\AppData\Local\Temp\ccGy5PUQ.s 			page 1


   1              		.cpu cortex-m0plus
   2              		.fpu softvfp
   3              		.eabi_attribute 20, 1
   4              		.eabi_attribute 21, 1
   5              		.eabi_attribute 23, 3
   6              		.eabi_attribute 24, 1
   7              		.eabi_attribute 25, 1
   8              		.eabi_attribute 26, 1
   9              		.eabi_attribute 30, 6
  10              		.eabi_attribute 34, 0
  11              		.eabi_attribute 18, 4
  12              		.code	16
  13              		.file	"CSD_SensingCSD_LL.c"
  14              		.text
  15              	.Ltext0:
  16              		.cfi_sections	.debug_frame
  17              		.global	CSD_configCsd
  18              		.data
  19              		.align	2
  20              		.type	CSD_configCsd, %object
  21              		.size	CSD_configCsd, 4
  22              	CSD_configCsd:
  23 0000 02000004 		.word	67108866
  24              		.bss
  25              		.align	2
  26              	CSD_curSnsIOPtr:
  27 0000 00000000 		.space	4
  28              	CSD_eleCsdDisconnectFlag:
  29 0004 00       		.space	1
  30 0005 000000   		.section	.text.CSD_SsCSDClearCSDSensors,"ax",%progbits
  31              		.align	2
  32              		.code	16
  33              		.thumb_func
  34              		.type	CSD_SsCSDClearCSDSensors, %function
  35              	CSD_SsCSDClearCSDSensors:
  36              	.LFB1:
  37              		.file 1 "Generated_Source\\PSoC4\\CSD_SensingCSD_LL.c"
   1:Generated_Source\PSoC4/CSD_SensingCSD_LL.c **** /***************************************************************************//**
   2:Generated_Source\PSoC4/CSD_SensingCSD_LL.c **** * \file CSD_SensingCSD_LL.c
   3:Generated_Source\PSoC4/CSD_SensingCSD_LL.c **** * \version 3.0
   4:Generated_Source\PSoC4/CSD_SensingCSD_LL.c **** *
   5:Generated_Source\PSoC4/CSD_SensingCSD_LL.c **** * \brief
   6:Generated_Source\PSoC4/CSD_SensingCSD_LL.c **** *   This file defines the data structure global variables and provides
   7:Generated_Source\PSoC4/CSD_SensingCSD_LL.c **** *   implementation for the low-level APIs of the CSD part of
   8:Generated_Source\PSoC4/CSD_SensingCSD_LL.c **** *   the Sensing module. The file contains the APIs used for the CSD block
   9:Generated_Source\PSoC4/CSD_SensingCSD_LL.c **** *   initialization, calibration, and scanning.
  10:Generated_Source\PSoC4/CSD_SensingCSD_LL.c **** *
  11:Generated_Source\PSoC4/CSD_SensingCSD_LL.c **** * \see CapSense P4 v3.0 Datasheet
  12:Generated_Source\PSoC4/CSD_SensingCSD_LL.c **** *
  13:Generated_Source\PSoC4/CSD_SensingCSD_LL.c **** *//*****************************************************************************
  14:Generated_Source\PSoC4/CSD_SensingCSD_LL.c **** * Copyright (2016), Cypress Semiconductor Corporation.
  15:Generated_Source\PSoC4/CSD_SensingCSD_LL.c **** ********************************************************************************
  16:Generated_Source\PSoC4/CSD_SensingCSD_LL.c **** * This software is owned by Cypress Semiconductor Corporation (Cypress) and is
  17:Generated_Source\PSoC4/CSD_SensingCSD_LL.c **** * protected by and subject to worldwide patent protection (United States and
  18:Generated_Source\PSoC4/CSD_SensingCSD_LL.c **** * foreign), United States copyright laws and international treaty provisions.
  19:Generated_Source\PSoC4/CSD_SensingCSD_LL.c **** * Cypress hereby grants to licensee a personal, non-exclusive, non-transferable
  20:Generated_Source\PSoC4/CSD_SensingCSD_LL.c **** * license to copy, use, modify, create derivative works of, and compile the
ARM GAS  C:\Users\CHRIST~1\AppData\Local\Temp\ccGy5PUQ.s 			page 2


  21:Generated_Source\PSoC4/CSD_SensingCSD_LL.c **** * Cypress Source Code and derivative works for the sole purpose of creating
  22:Generated_Source\PSoC4/CSD_SensingCSD_LL.c **** * custom software in support of licensee product to be used only in conjunction
  23:Generated_Source\PSoC4/CSD_SensingCSD_LL.c **** * with a Cypress integrated circuit as specified in the applicable agreement.
  24:Generated_Source\PSoC4/CSD_SensingCSD_LL.c **** * Any reproduction, modification, translation, compilation, or representation of
  25:Generated_Source\PSoC4/CSD_SensingCSD_LL.c **** * this software except as specified above is prohibited without the express
  26:Generated_Source\PSoC4/CSD_SensingCSD_LL.c **** * written permission of Cypress.
  27:Generated_Source\PSoC4/CSD_SensingCSD_LL.c **** *
  28:Generated_Source\PSoC4/CSD_SensingCSD_LL.c **** * Disclaimer: CYPRESS MAKES NO WARRANTY OF ANY KIND, EXPRESS OR IMPLIED, WITH
  29:Generated_Source\PSoC4/CSD_SensingCSD_LL.c **** * REGARD TO THIS MATERIAL, INCLUDING, BUT NOT LIMITED TO, THE IMPLIED
  30:Generated_Source\PSoC4/CSD_SensingCSD_LL.c **** * WARRANTIES OF MERCHANTABILITY AND FITNESS FOR A PARTICULAR PURPOSE.
  31:Generated_Source\PSoC4/CSD_SensingCSD_LL.c **** * Cypress reserves the right to make changes without further notice to the
  32:Generated_Source\PSoC4/CSD_SensingCSD_LL.c **** * materials described herein. Cypress does not assume any liability arising out
  33:Generated_Source\PSoC4/CSD_SensingCSD_LL.c **** * of the application or use of any product or circuit described herein. Cypress
  34:Generated_Source\PSoC4/CSD_SensingCSD_LL.c **** * does not authorize its products for use as critical components in life-support
  35:Generated_Source\PSoC4/CSD_SensingCSD_LL.c **** * systems where a malfunction or failure may reasonably be expected to result in
  36:Generated_Source\PSoC4/CSD_SensingCSD_LL.c **** * significant injury to the user. The inclusion of Cypress' product in a life-
  37:Generated_Source\PSoC4/CSD_SensingCSD_LL.c **** * support systems application implies that the manufacturer assumes all risk of
  38:Generated_Source\PSoC4/CSD_SensingCSD_LL.c **** * such use and in doing so indemnifies Cypress against all charges. Use may be
  39:Generated_Source\PSoC4/CSD_SensingCSD_LL.c **** * limited by and subject to the applicable Cypress software license agreement.
  40:Generated_Source\PSoC4/CSD_SensingCSD_LL.c **** *******************************************************************************/
  41:Generated_Source\PSoC4/CSD_SensingCSD_LL.c **** #include "CSD_Structure.h"
  42:Generated_Source\PSoC4/CSD_SensingCSD_LL.c **** #include "CSD_Configuration.h"
  43:Generated_Source\PSoC4/CSD_SensingCSD_LL.c **** #include "CSD_SensingCSD_LL.h"
  44:Generated_Source\PSoC4/CSD_SensingCSD_LL.c **** #include "CSD_Sensing.h"
  45:Generated_Source\PSoC4/CSD_SensingCSD_LL.c **** 
  46:Generated_Source\PSoC4/CSD_SensingCSD_LL.c **** 
  47:Generated_Source\PSoC4/CSD_SensingCSD_LL.c **** #if (CSD_ENABLE == CSD_CSD_EN)
  48:Generated_Source\PSoC4/CSD_SensingCSD_LL.c **** 
  49:Generated_Source\PSoC4/CSD_SensingCSD_LL.c **** /***************************************
  50:Generated_Source\PSoC4/CSD_SensingCSD_LL.c **** * API Constants
  51:Generated_Source\PSoC4/CSD_SensingCSD_LL.c **** ***************************************/
  52:Generated_Source\PSoC4/CSD_SensingCSD_LL.c **** #define CSD_MOD_CSD_CLK_12MHZ                      (12000000uL)
  53:Generated_Source\PSoC4/CSD_SensingCSD_LL.c **** #define CSD_MOD_CSD_CLK_24MHZ                      (24000000uL)
  54:Generated_Source\PSoC4/CSD_SensingCSD_LL.c **** #define CSD_MOD_CSD_CLK_48MHZ                      (48000000uL)
  55:Generated_Source\PSoC4/CSD_SensingCSD_LL.c **** 
  56:Generated_Source\PSoC4/CSD_SensingCSD_LL.c **** #define CSD_DELAY_EXTRACYCLES_NUM                  (9u)
  57:Generated_Source\PSoC4/CSD_SensingCSD_LL.c **** #define CSD_GLITCH_ELIMINATION_CYCLES_CALC         (CSD_CSD_PRESCAN_SETTLING_TIME * CYDEV_BCLK__SYS
  58:Generated_Source\PSoC4/CSD_SensingCSD_LL.c **** #define CSD_CMOD_DISCHARGE_TIME                    (2u)
  59:Generated_Source\PSoC4/CSD_SensingCSD_LL.c **** #define CSD_CMOD_DISCHARGE_CYCLES_CALC             (CSD_CMOD_DISCHARGE_TIME * CYDEV_BCLK__SYSCLK__M
  60:Generated_Source\PSoC4/CSD_SensingCSD_LL.c **** 
  61:Generated_Source\PSoC4/CSD_SensingCSD_LL.c **** #if(CSD_GLITCH_ELIMINATION_CYCLES_CALC >= CSD_DELAY_EXTRACYCLES_NUM)
  62:Generated_Source\PSoC4/CSD_SensingCSD_LL.c ****     #define CSD_GLITCH_ELIMINATION_CYCLES          (CSD_GLITCH_ELIMINATION_CYCLES_CALC -\
  63:Generated_Source\PSoC4/CSD_SensingCSD_LL.c ****                                                                 CSD_DELAY_EXTRACYCLES_NUM)
  64:Generated_Source\PSoC4/CSD_SensingCSD_LL.c **** #else
  65:Generated_Source\PSoC4/CSD_SensingCSD_LL.c ****     #define CSD_GLITCH_ELIMINATION_CYCLES          (CSD_GLITCH_ELIMINATION_CYCLES_CALC)
  66:Generated_Source\PSoC4/CSD_SensingCSD_LL.c **** #endif /* (CSD_GLITCH_ELIMINATION_CYCLES_CALC >= CSD_DELAY_EXTRACYCLES_NUM) */
  67:Generated_Source\PSoC4/CSD_SensingCSD_LL.c **** 
  68:Generated_Source\PSoC4/CSD_SensingCSD_LL.c **** #if(CSD_CMOD_DISCHARGE_CYCLES_CALC >= CSD_DELAY_EXTRACYCLES_NUM)
  69:Generated_Source\PSoC4/CSD_SensingCSD_LL.c ****     #define CSD_CMOD_DISCHARGE_CYCLES              (CSD_CMOD_DISCHARGE_CYCLES_CALC -\
  70:Generated_Source\PSoC4/CSD_SensingCSD_LL.c ****                                                                 CSD_DELAY_EXTRACYCLES_NUM)
  71:Generated_Source\PSoC4/CSD_SensingCSD_LL.c **** #else
  72:Generated_Source\PSoC4/CSD_SensingCSD_LL.c ****     #define CSD_CMOD_DISCHARGE_CYCLES              (CSD_CMOD_DISCHARGE_CYCLES_CALC)
  73:Generated_Source\PSoC4/CSD_SensingCSD_LL.c **** #endif /* (CSD_CMOD_DISCHARGE_CYCLES_CALC >= CSD_DELAY_EXTRACYCLES_NUM) */
  74:Generated_Source\PSoC4/CSD_SensingCSD_LL.c **** 
  75:Generated_Source\PSoC4/CSD_SensingCSD_LL.c **** #define CSD_COARSE_INIT_WATCHDOG_TIME              (3u)
  76:Generated_Source\PSoC4/CSD_SensingCSD_LL.c **** #define CSD_COARSE_INIT_WATCHDOG_CYCLES_CALC       (CSD_COARSE_INIT_WATCHDOG_TIME * CYDEV_BCLK__SYS
  77:Generated_Source\PSoC4/CSD_SensingCSD_LL.c **** 
ARM GAS  C:\Users\CHRIST~1\AppData\Local\Temp\ccGy5PUQ.s 			page 3


  78:Generated_Source\PSoC4/CSD_SensingCSD_LL.c **** #if(CSD_COARSE_INIT_WATCHDOG_CYCLES_CALC >= CSD_DELAY_EXTRACYCLES_NUM)
  79:Generated_Source\PSoC4/CSD_SensingCSD_LL.c ****     #define CSD_COARSE_INIT_WATCHDOG_CYCLES        (CSD_COARSE_INIT_WATCHDOG_CYCLES_CALC -\
  80:Generated_Source\PSoC4/CSD_SensingCSD_LL.c ****                                                                  CSD_DELAY_EXTRACYCLES_NUM)
  81:Generated_Source\PSoC4/CSD_SensingCSD_LL.c **** #else
  82:Generated_Source\PSoC4/CSD_SensingCSD_LL.c ****     #define CSD_COARSE_INIT_WATCHDOG_CYCLES        (CSD_COARSE_INIT_WATCHDOG_CYCLES_CALC)
  83:Generated_Source\PSoC4/CSD_SensingCSD_LL.c **** #endif /* (CSD_COARSE_INIT_WATCHDOG_CYCLES_CALC >= CSD_DELAY_EXTRACYCLES_NUM) */
  84:Generated_Source\PSoC4/CSD_SensingCSD_LL.c **** 
  85:Generated_Source\PSoC4/CSD_SensingCSD_LL.c **** #if (CSD_ENABLE == CSD_CSDV2)
  86:Generated_Source\PSoC4/CSD_SensingCSD_LL.c ****     #if (CSD_CMOD_PAD == CSD_CMOD_CONNECTION)
  87:Generated_Source\PSoC4/CSD_SensingCSD_LL.c ****         #define CSD_SW_DSI_SEL_CMODPAD                (CSD_SW_DSI_CMOD)
  88:Generated_Source\PSoC4/CSD_SensingCSD_LL.c ****         #define CSD_CSD_SW_FW_MOD_SEL_INIT            (CSD_SW_FW_MOD_SEL_SW_F1PM_STATIC_CLOSE |\
  89:Generated_Source\PSoC4/CSD_SensingCSD_LL.c ****                                                                     CSD_SW_FW_MOD_SEL_SW_F1MA_STATI
  90:Generated_Source\PSoC4/CSD_SensingCSD_LL.c ****                                                                     CSD_SW_FW_MOD_SEL_SW_F1CA_STATI
  91:Generated_Source\PSoC4/CSD_SensingCSD_LL.c ****     #elif (CSD_CSH_TANK_PAD == CSD_CMOD_CONNECTION)
  92:Generated_Source\PSoC4/CSD_SensingCSD_LL.c ****         #define CSD_SW_DSI_SEL_CMODPAD                (CSD_SW_DSI_CTANK)
  93:Generated_Source\PSoC4/CSD_SensingCSD_LL.c ****         #define CSD_CSD_SW_FW_MOD_SEL_INIT            (0x00000000uL)
  94:Generated_Source\PSoC4/CSD_SensingCSD_LL.c ****     #else
  95:Generated_Source\PSoC4/CSD_SensingCSD_LL.c ****         #define CSD_SW_DSI_SEL_CMODPAD                (0x00000000uL)
  96:Generated_Source\PSoC4/CSD_SensingCSD_LL.c ****         #define CSD_CSD_SW_FW_MOD_SEL_INIT            (0x00000000uL)
  97:Generated_Source\PSoC4/CSD_SensingCSD_LL.c ****     #endif /* (CSD_CMOD_PAD == CSD_CMOD_CONNECTION) */
  98:Generated_Source\PSoC4/CSD_SensingCSD_LL.c **** 
  99:Generated_Source\PSoC4/CSD_SensingCSD_LL.c ****     #if (CSD_CSH_TANK_PAD == CSD_CTANK_CONNECTION)
 100:Generated_Source\PSoC4/CSD_SensingCSD_LL.c ****         #define CSD_SW_DSI_SEL_TANKPAD                (CSD_SW_DSI_CTANK)
 101:Generated_Source\PSoC4/CSD_SensingCSD_LL.c ****         #define CSD_CSD_SW_FW_TANK_SEL_INIT           (CSD_SW_FW_TANK_SEL_SW_F2PT_STATIC_CLOSE |\
 102:Generated_Source\PSoC4/CSD_SensingCSD_LL.c ****                                                                     CSD_SW_FW_TANK_SEL_SW_F2MA_STAT
 103:Generated_Source\PSoC4/CSD_SensingCSD_LL.c ****                                                                     CSD_SW_FW_TANK_SEL_SW_F2CA_STAT
 104:Generated_Source\PSoC4/CSD_SensingCSD_LL.c ****     #elif (CSD_CMOD_PAD == CSD_CTANK_CONNECTION)
 105:Generated_Source\PSoC4/CSD_SensingCSD_LL.c ****         #define CSD_SW_DSI_SEL_TANKPAD                (CSD_SW_DSI_CMOD)
 106:Generated_Source\PSoC4/CSD_SensingCSD_LL.c ****         #define CSD_CSD_SW_FW_TANK_SEL_INIT           (0x00000000uL)
 107:Generated_Source\PSoC4/CSD_SensingCSD_LL.c ****     #else
 108:Generated_Source\PSoC4/CSD_SensingCSD_LL.c ****         #define CSD_SW_DSI_SEL_TANKPAD                (0x00000000uL)
 109:Generated_Source\PSoC4/CSD_SensingCSD_LL.c ****         #define CSD_CSD_SW_FW_TANK_SEL_INIT           (0x00000000uL)
 110:Generated_Source\PSoC4/CSD_SensingCSD_LL.c ****     #endif /* ((CSD_CSH_TANK_PAD == CSD_CMOD_CONNECTION) || \
 111:Generated_Source\PSoC4/CSD_SensingCSD_LL.c ****                (CSD_CSH_TANK_PAD == CSD_CTANK_CONNECTION)) */
 112:Generated_Source\PSoC4/CSD_SensingCSD_LL.c **** 
 113:Generated_Source\PSoC4/CSD_SensingCSD_LL.c ****     /* SW_FW_MOD_SEL switches state for Coarse initialization of CMOD (sense path) */
 114:Generated_Source\PSoC4/CSD_SensingCSD_LL.c ****     #define CSD_CSD_SW_FW_MOD_SEL_SCAN                (0x00000000uL)
 115:Generated_Source\PSoC4/CSD_SensingCSD_LL.c **** 
 116:Generated_Source\PSoC4/CSD_SensingCSD_LL.c ****     #if ((CSD_ENABLE == CSD_CSD_SHIELD_EN) && \
 117:Generated_Source\PSoC4/CSD_SensingCSD_LL.c ****          (CSD_ENABLE == CSD_CSD_SHIELD_TANK_EN) && \
 118:Generated_Source\PSoC4/CSD_SensingCSD_LL.c ****          (CSD_CSH_TANK_PAD == CSD_CTANK_CONNECTION))
 119:Generated_Source\PSoC4/CSD_SensingCSD_LL.c ****         #define CSD_CSD_SW_FW_TANK_SEL_SCAN            (CSD_SW_FW_TANK_SEL_SW_F2PT_STATIC_CLOSE | C
 120:Generated_Source\PSoC4/CSD_SensingCSD_LL.c ****         #if (CSD_IDAC_SINKING == CSD_CSD_IDAC_CONFIG)
 121:Generated_Source\PSoC4/CSD_SensingCSD_LL.c ****             #define CSD_DEFAULT_SW_SHIELD_SEL          (CSD_SW_SHIELD_SEL_SW_HCBG_HSCMP)
 122:Generated_Source\PSoC4/CSD_SensingCSD_LL.c ****         #else
 123:Generated_Source\PSoC4/CSD_SensingCSD_LL.c ****             #define CSD_DEFAULT_SW_SHIELD_SEL          (CSD_SW_SHIELD_SEL_SW_HCBV_HSCMP)
 124:Generated_Source\PSoC4/CSD_SensingCSD_LL.c ****         #endif /* (CSD_IDAC_SINKING == CSD_CSD_IDAC_CONFIG) */
 125:Generated_Source\PSoC4/CSD_SensingCSD_LL.c ****     #elif((CSD_ENABLE == CSD_CSD_SHIELD_EN) && \
 126:Generated_Source\PSoC4/CSD_SensingCSD_LL.c ****           (CSD_ENABLE == CSD_CSD_SHIELD_TANK_EN))
 127:Generated_Source\PSoC4/CSD_SensingCSD_LL.c ****         #define CSD_CSD_SW_FW_TANK_SEL_SCAN            (0x00000000uL)
 128:Generated_Source\PSoC4/CSD_SensingCSD_LL.c ****         #if (CSD_IDAC_SINKING == CSD_CSD_IDAC_CONFIG)
 129:Generated_Source\PSoC4/CSD_SensingCSD_LL.c ****             #define CSD_DEFAULT_SW_SHIELD_SEL          (CSD_SW_SHIELD_SEL_SW_HCBG_HSCMP)
 130:Generated_Source\PSoC4/CSD_SensingCSD_LL.c ****         #else
 131:Generated_Source\PSoC4/CSD_SensingCSD_LL.c ****             #define CSD_DEFAULT_SW_SHIELD_SEL          (CSD_SW_SHIELD_SEL_SW_HCBV_HSCMP)
 132:Generated_Source\PSoC4/CSD_SensingCSD_LL.c ****         #endif /* (CSD_IDAC_SINKING == CSD_CSD_IDAC_CONFIG) */
 133:Generated_Source\PSoC4/CSD_SensingCSD_LL.c ****     #elif(CSD_ENABLE == CSD_CSD_SHIELD_EN)
 134:Generated_Source\PSoC4/CSD_SensingCSD_LL.c ****         #define CSD_CSD_SW_FW_TANK_SEL_SCAN            (0x00000000uL)
ARM GAS  C:\Users\CHRIST~1\AppData\Local\Temp\ccGy5PUQ.s 			page 4


 135:Generated_Source\PSoC4/CSD_SensingCSD_LL.c ****         #if (CSD_IDAC_SINKING == CSD_CSD_IDAC_CONFIG)
 136:Generated_Source\PSoC4/CSD_SensingCSD_LL.c ****             #define CSD_DEFAULT_SW_SHIELD_SEL          (CSD_SW_SHIELD_SEL_SW_HCBG_PHI1 | CSD_SW_SHI
 137:Generated_Source\PSoC4/CSD_SensingCSD_LL.c ****         #else
 138:Generated_Source\PSoC4/CSD_SensingCSD_LL.c ****             #define CSD_DEFAULT_SW_SHIELD_SEL          (CSD_SW_SHIELD_SEL_SW_HCBG_PHI1 | CSD_SW_SHI
 139:Generated_Source\PSoC4/CSD_SensingCSD_LL.c ****         #endif /* (CSD_IDAC_SINKING == CSD_CSD_IDAC_CONFIG) */
 140:Generated_Source\PSoC4/CSD_SensingCSD_LL.c ****     #else
 141:Generated_Source\PSoC4/CSD_SensingCSD_LL.c ****         #define CSD_CSD_SW_FW_TANK_SEL_SCAN            (0x00000000uL)
 142:Generated_Source\PSoC4/CSD_SensingCSD_LL.c ****         #define CSD_DEFAULT_SW_SHIELD_SEL              (0x00000000uL)
 143:Generated_Source\PSoC4/CSD_SensingCSD_LL.c ****     #endif /* ((CSD_ENABLE == CSD_CSD_SHIELD_EN) && \
 144:Generated_Source\PSoC4/CSD_SensingCSD_LL.c ****                (0u != CSD_CSD_SHIELD_TANK_EN) && \
 145:Generated_Source\PSoC4/CSD_SensingCSD_LL.c ****                (CSD_CSH_TANK_PAD == CSD_CTANK_CONNECTION)) */
 146:Generated_Source\PSoC4/CSD_SensingCSD_LL.c **** 
 147:Generated_Source\PSoC4/CSD_SensingCSD_LL.c ****     #define CSD_DEFAULT_CSD_SW_DSI_SEL                 (CSD_SW_DSI_SEL_CMODPAD | CSD_SW_DSI_SEL_TAN
 148:Generated_Source\PSoC4/CSD_SensingCSD_LL.c **** 
 149:Generated_Source\PSoC4/CSD_SensingCSD_LL.c ****     #define CSD_CSD_SW_RES_INIT                        (CSD_CSD_INIT_SWITCH_RES << CYFLD_CSD_RES_HC
 150:Generated_Source\PSoC4/CSD_SensingCSD_LL.c ****     #define CSD_CSD_SW_RES_SCAN                        ((CSD_CSD_SHIELD_SWITCH_RES << CYFLD_CSD_RES
 151:Generated_Source\PSoC4/CSD_SensingCSD_LL.c ****                                                                      (CSD_CSD_SHIELD_SWITCH_RES << 
 152:Generated_Source\PSoC4/CSD_SensingCSD_LL.c **** 
 153:Generated_Source\PSoC4/CSD_SensingCSD_LL.c ****     #if (CSD_ENABLE == CSD_CSD_AUTO_ZERO_EN)
 154:Generated_Source\PSoC4/CSD_SensingCSD_LL.c ****         #if (CSD_IDAC_SINKING == CSD_CSD_IDAC_CONFIG)
 155:Generated_Source\PSoC4/CSD_SensingCSD_LL.c ****             #define CSD_HSCMP_SCAN_MASK                (CSD_HSCMP_EN_MASK | \
 156:Generated_Source\PSoC4/CSD_SensingCSD_LL.c ****                                                                      CSD_CSD_AZ_EN_MASK |\
 157:Generated_Source\PSoC4/CSD_SensingCSD_LL.c ****                                                                      CSD_HSCMP_INVERT_MASK)
 158:Generated_Source\PSoC4/CSD_SensingCSD_LL.c ****         #else
 159:Generated_Source\PSoC4/CSD_SensingCSD_LL.c ****             #define CSD_HSCMP_SCAN_MASK                (CSD_HSCMP_EN_MASK | \
 160:Generated_Source\PSoC4/CSD_SensingCSD_LL.c ****                                                                      CSD_CSD_AZ_EN_MASK)
 161:Generated_Source\PSoC4/CSD_SensingCSD_LL.c ****         #endif /* (CSD_IDAC_SINKING == CSD_CSD_IDAC_CONFIG) */
 162:Generated_Source\PSoC4/CSD_SensingCSD_LL.c **** 
 163:Generated_Source\PSoC4/CSD_SensingCSD_LL.c ****         #define CSD_HSCMP_INIT_MASK                    (CSD_HSCMP_EN_MASK | \
 164:Generated_Source\PSoC4/CSD_SensingCSD_LL.c ****                                                                      CSD_CSD_AZ_EN_MASK)
 165:Generated_Source\PSoC4/CSD_SensingCSD_LL.c ****     #else
 166:Generated_Source\PSoC4/CSD_SensingCSD_LL.c ****         #if (CSD_IDAC_SINKING == CSD_CSD_IDAC_CONFIG)
 167:Generated_Source\PSoC4/CSD_SensingCSD_LL.c ****             #define CSD_HSCMP_SCAN_MASK                (CSD_HSCMP_EN_MASK | \
 168:Generated_Source\PSoC4/CSD_SensingCSD_LL.c ****                                                                      CSD_HSCMP_INVERT_MASK)
 169:Generated_Source\PSoC4/CSD_SensingCSD_LL.c ****         #else
 170:Generated_Source\PSoC4/CSD_SensingCSD_LL.c ****             #define CSD_HSCMP_SCAN_MASK                (CSD_HSCMP_EN_MASK)
 171:Generated_Source\PSoC4/CSD_SensingCSD_LL.c ****         #endif /* (CSD_IDAC_SINKING == CSD_CSD_IDAC_CONFIG) */
 172:Generated_Source\PSoC4/CSD_SensingCSD_LL.c **** 
 173:Generated_Source\PSoC4/CSD_SensingCSD_LL.c ****         #define CSD_HSCMP_INIT_MASK                    (CSD_HSCMP_EN_MASK)
 174:Generated_Source\PSoC4/CSD_SensingCSD_LL.c ****     #endif /* ((CSD_ENABLE == CSD_CSD_AUTO_ZERO_EN) */
 175:Generated_Source\PSoC4/CSD_SensingCSD_LL.c **** 
 176:Generated_Source\PSoC4/CSD_SensingCSD_LL.c ****     #define CSD_DEFAULT_CSD_INTR_SET                   (0x00000000uL)
 177:Generated_Source\PSoC4/CSD_SensingCSD_LL.c ****     #define CSD_DEFAULT_SW_HS_P_SEL                    (0x00000000uL)
 178:Generated_Source\PSoC4/CSD_SensingCSD_LL.c ****     #define CSD_DEFAULT_SW_HS_N_SEL                    (0X00000000uL)
 179:Generated_Source\PSoC4/CSD_SensingCSD_LL.c ****     #define CSD_DEFAULT_CSD_SW_FW_TANK_SEL             (0x00000000uL)
 180:Generated_Source\PSoC4/CSD_SensingCSD_LL.c ****     #define CSD_DEFAULT_CSD_ADC_CTL                    (0x00000000uL)
 181:Generated_Source\PSoC4/CSD_SensingCSD_LL.c ****     #define CSD_DEFAULT_HSCMP_CFG                      (0x00000000uL)
 182:Generated_Source\PSoC4/CSD_SensingCSD_LL.c **** 
 183:Generated_Source\PSoC4/CSD_SensingCSD_LL.c ****     #define CSD_CSD_ON_DELAY_TIME                      (3u)
 184:Generated_Source\PSoC4/CSD_SensingCSD_LL.c ****     #define CSD_CSD_ON_DELAY                           (CSD_CSD_ON_DELAY_TIME * CYDEV_BCLK__SYSCLK_
 185:Generated_Source\PSoC4/CSD_SensingCSD_LL.c **** 
 186:Generated_Source\PSoC4/CSD_SensingCSD_LL.c ****     #define CSD_HSCMP_ON_DELAY_TIME                    (1u)
 187:Generated_Source\PSoC4/CSD_SensingCSD_LL.c ****     #define CSD_HSCMP_ON_DELAY                         (CSD_HSCMP_ON_DELAY_TIME * CYDEV_BCLK__SYSCL
 188:Generated_Source\PSoC4/CSD_SensingCSD_LL.c **** #endif /* (CSD_ENABLE == CSD_CSDV2) */
 189:Generated_Source\PSoC4/CSD_SensingCSD_LL.c **** 
 190:Generated_Source\PSoC4/CSD_SensingCSD_LL.c **** /***************************************
 191:Generated_Source\PSoC4/CSD_SensingCSD_LL.c **** * Variables
ARM GAS  C:\Users\CHRIST~1\AppData\Local\Temp\ccGy5PUQ.s 			page 5


 192:Generated_Source\PSoC4/CSD_SensingCSD_LL.c **** ***************************************/
 193:Generated_Source\PSoC4/CSD_SensingCSD_LL.c **** 
 194:Generated_Source\PSoC4/CSD_SensingCSD_LL.c **** #if (CSD_ENABLE == CSD_CSDV2)
 195:Generated_Source\PSoC4/CSD_SensingCSD_LL.c ****     uint32 CSD_configCsd = CSD_DEFAULT_CSD_CONFIG;
 196:Generated_Source\PSoC4/CSD_SensingCSD_LL.c **** #else
 197:Generated_Source\PSoC4/CSD_SensingCSD_LL.c ****     uint32 CSD_configCsd = CSD_DEFAULT_CSD_CONFIG | CSD_DEFAULT_MODULATION_MODE;
 198:Generated_Source\PSoC4/CSD_SensingCSD_LL.c ****     static uint32 CSD_counterResolution = CSD_CNT_RESOLUTION_12_BITS;
 199:Generated_Source\PSoC4/CSD_SensingCSD_LL.c **** #endif /* (CSD_ENABLE == CSD_CSDV2) */
 200:Generated_Source\PSoC4/CSD_SensingCSD_LL.c **** /*  Pointer to Flash structure to hold Sns electrode that was connected previously  */
 201:Generated_Source\PSoC4/CSD_SensingCSD_LL.c **** static CSD_FLASH_IO_STRUCT const *CSD_curSnsIOPtr;
 202:Generated_Source\PSoC4/CSD_SensingCSD_LL.c **** /* Flag to indicate electrodes that were connected previously */
 203:Generated_Source\PSoC4/CSD_SensingCSD_LL.c **** static uint8 CSD_eleCsdDisconnectFlag = 0u;
 204:Generated_Source\PSoC4/CSD_SensingCSD_LL.c **** #if ((CSD_ENABLE == CSD_CSDV2) && (CSD_ENABLE == CSD_CSD_NOISE_METRIC_EN))
 205:Generated_Source\PSoC4/CSD_SensingCSD_LL.c ****     /* Number of re-samplings when the bad conversion occurs */
 206:Generated_Source\PSoC4/CSD_SensingCSD_LL.c ****     uint8 CSD_badConversionsNum = CSD_BAD_CONVERSIONS_NUM;
 207:Generated_Source\PSoC4/CSD_SensingCSD_LL.c **** #endif /* ((CSD_ENABLE == CSD_CSDV2) && (CSD_ENABLE == CSD_CSD_NOISE_METRIC_EN)) */
 208:Generated_Source\PSoC4/CSD_SensingCSD_LL.c **** 
 209:Generated_Source\PSoC4/CSD_SensingCSD_LL.c **** /*******************************************************************************
 210:Generated_Source\PSoC4/CSD_SensingCSD_LL.c **** * Static Function Prototypes
 211:Generated_Source\PSoC4/CSD_SensingCSD_LL.c **** *******************************************************************************/
 212:Generated_Source\PSoC4/CSD_SensingCSD_LL.c **** /**
 213:Generated_Source\PSoC4/CSD_SensingCSD_LL.c **** * \if SECTION_CAPSENSE_INTERNAL
 214:Generated_Source\PSoC4/CSD_SensingCSD_LL.c **** * \addtogroup group_capsense_internal
 215:Generated_Source\PSoC4/CSD_SensingCSD_LL.c **** * \{
 216:Generated_Source\PSoC4/CSD_SensingCSD_LL.c **** */
 217:Generated_Source\PSoC4/CSD_SensingCSD_LL.c **** 
 218:Generated_Source\PSoC4/CSD_SensingCSD_LL.c **** #if (CSD_ENABLE == CSD_CSD_SHIELD_EN)
 219:Generated_Source\PSoC4/CSD_SensingCSD_LL.c ****     static void CSD_SsSetShieldDelay(uint32 delay);
 220:Generated_Source\PSoC4/CSD_SensingCSD_LL.c ****     #if (CSD_ENABLE == CSD_CSD_SHIELD_TANK_EN)
 221:Generated_Source\PSoC4/CSD_SensingCSD_LL.c ****         static void CSD_SsCSDEnableShieldTank(void);
 222:Generated_Source\PSoC4/CSD_SensingCSD_LL.c ****     #endif /* (CSD_ENABLE == CSD_CSD_SHIELD_TANK_EN) */
 223:Generated_Source\PSoC4/CSD_SensingCSD_LL.c ****     #if (0u != CSD_CSD_TOTAL_SHIELD_COUNT)
 224:Generated_Source\PSoC4/CSD_SensingCSD_LL.c ****         static void CSD_SsCSDEnableShieldElectrodes(void);
 225:Generated_Source\PSoC4/CSD_SensingCSD_LL.c ****     #endif /* (0u != CSD_CSD_TOTAL_SHIELD_COUNT) */
 226:Generated_Source\PSoC4/CSD_SensingCSD_LL.c **** #endif /* (CSD_ENABLE == CSD_CSD_SHIELD_EN) */
 227:Generated_Source\PSoC4/CSD_SensingCSD_LL.c **** 
 228:Generated_Source\PSoC4/CSD_SensingCSD_LL.c **** static void CSD_SsCSDClearCSDSensors(void);
 229:Generated_Source\PSoC4/CSD_SensingCSD_LL.c **** #if ((CSD_CSD_SS_DIS != CSD_CSD_AUTOTUNE) || \
 230:Generated_Source\PSoC4/CSD_SensingCSD_LL.c ****      (CSD_ENABLE == CSD_CSD_IDAC_AUTOCAL_EN))
 231:Generated_Source\PSoC4/CSD_SensingCSD_LL.c ****     static cystatus CSD_SsCSDCalibrateCheck(CSD_RAM_WD_BASE_STRUCT const *ptrWdgt, uint32 rawLevel,
 232:Generated_Source\PSoC4/CSD_SensingCSD_LL.c ****     #if (CSD_ENABLE == CSD_CSD_IDAC_COMP_EN)
 233:Generated_Source\PSoC4/CSD_SensingCSD_LL.c ****         static void CSD_SsCSDSetSingleIdacMode(void);
 234:Generated_Source\PSoC4/CSD_SensingCSD_LL.c ****         static void CSD_SsCSDRestoreIdacMode(void);
 235:Generated_Source\PSoC4/CSD_SensingCSD_LL.c ****     #endif /* (CSD_ENABLE == CSD_CSD_IDAC_COMP_EN) */
 236:Generated_Source\PSoC4/CSD_SensingCSD_LL.c ****     static cystatus CSD_SsCSDCalibrateOneSensor(uint32 rawLevel,
 237:Generated_Source\PSoC4/CSD_SensingCSD_LL.c ****                                                              uint8 *ptrIdac,
 238:Generated_Source\PSoC4/CSD_SensingCSD_LL.c ****                                                              uint8 *iDAC8Max);
 239:Generated_Source\PSoC4/CSD_SensingCSD_LL.c **** #endif /* ((CSD_CSD_SS_DIS != CSD_CSD_AUTOTUNE) || \
 240:Generated_Source\PSoC4/CSD_SensingCSD_LL.c ****            (CSD_ENABLE == CSD_CSD_IDAC_AUTOCAL_EN))  */
 241:Generated_Source\PSoC4/CSD_SensingCSD_LL.c **** #if (CSD_ENABLE == CSD_CSDV2)
 242:Generated_Source\PSoC4/CSD_SensingCSD_LL.c ****     static void CSD_SsCSDSetFilterDelay(void);
 243:Generated_Source\PSoC4/CSD_SensingCSD_LL.c **** #else
 244:Generated_Source\PSoC4/CSD_SensingCSD_LL.c ****     CY_INLINE static void CSD_SsCSDClockRestart(void);
 245:Generated_Source\PSoC4/CSD_SensingCSD_LL.c **** #endif /* (CSD_ENABLE == CSD_CSDV2) */
 246:Generated_Source\PSoC4/CSD_SensingCSD_LL.c **** CY_INLINE static void CSD_SsCSDCmodPrecharge(void);
 247:Generated_Source\PSoC4/CSD_SensingCSD_LL.c **** CY_INLINE static void CSD_SsCSDTriggerScan(void);
 248:Generated_Source\PSoC4/CSD_SensingCSD_LL.c **** static void CSD_SsCSDSetModeSnsClockDivider(uint32 snsClkSource, uint32 snsClkDivider);
ARM GAS  C:\Users\CHRIST~1\AppData\Local\Temp\ccGy5PUQ.s 			page 6


 249:Generated_Source\PSoC4/CSD_SensingCSD_LL.c **** static void CSD_SsCSDConfigIDACs(void);
 250:Generated_Source\PSoC4/CSD_SensingCSD_LL.c **** 
 251:Generated_Source\PSoC4/CSD_SensingCSD_LL.c **** /** \}
 252:Generated_Source\PSoC4/CSD_SensingCSD_LL.c **** * \endif */
 253:Generated_Source\PSoC4/CSD_SensingCSD_LL.c **** 
 254:Generated_Source\PSoC4/CSD_SensingCSD_LL.c **** 
 255:Generated_Source\PSoC4/CSD_SensingCSD_LL.c **** #if (CSD_ENABLE == CSD_CSD_SHIELD_EN)
 256:Generated_Source\PSoC4/CSD_SensingCSD_LL.c ****     /*******************************************************************************
 257:Generated_Source\PSoC4/CSD_SensingCSD_LL.c ****     * Function Name: CSD_SsSetShieldDelay
 258:Generated_Source\PSoC4/CSD_SensingCSD_LL.c ****     ****************************************************************************//**
 259:Generated_Source\PSoC4/CSD_SensingCSD_LL.c ****     *
 260:Generated_Source\PSoC4/CSD_SensingCSD_LL.c ****     * \brief
 261:Generated_Source\PSoC4/CSD_SensingCSD_LL.c ****     *   This is an internal function that sets a shield delay.
 262:Generated_Source\PSoC4/CSD_SensingCSD_LL.c ****     *
 263:Generated_Source\PSoC4/CSD_SensingCSD_LL.c ****     * \details
 264:Generated_Source\PSoC4/CSD_SensingCSD_LL.c ****     *   The function updates the CSD configuration register bits that define the shield
 265:Generated_Source\PSoC4/CSD_SensingCSD_LL.c ****     *   signal delay relatively to the sense signal.
 266:Generated_Source\PSoC4/CSD_SensingCSD_LL.c ****     *
 267:Generated_Source\PSoC4/CSD_SensingCSD_LL.c ****     * \param delay
 268:Generated_Source\PSoC4/CSD_SensingCSD_LL.c ****     *   Specifies the shield delay value:
 269:Generated_Source\PSoC4/CSD_SensingCSD_LL.c ****     *                               0 - no delay
 270:Generated_Source\PSoC4/CSD_SensingCSD_LL.c ****     *                               1 - 5ns delay (50 ns for CSDv1 block)
 271:Generated_Source\PSoC4/CSD_SensingCSD_LL.c ****     *                               2 - 10ns delay (100 ns for CSDv1 block)
 272:Generated_Source\PSoC4/CSD_SensingCSD_LL.c ****     *                               3 - 20ns delay
 273:Generated_Source\PSoC4/CSD_SensingCSD_LL.c ****     *
 274:Generated_Source\PSoC4/CSD_SensingCSD_LL.c ****     *******************************************************************************/
 275:Generated_Source\PSoC4/CSD_SensingCSD_LL.c ****     static void CSD_SsSetShieldDelay(uint32 delay)
 276:Generated_Source\PSoC4/CSD_SensingCSD_LL.c ****     {
 277:Generated_Source\PSoC4/CSD_SensingCSD_LL.c ****         /* Update CSD config register shield delay bits with shield delay value */
 278:Generated_Source\PSoC4/CSD_SensingCSD_LL.c ****         CSD_configCsd &= (uint32)(~CSD_CONFIG_SHIELD_DELAY_MASK);
 279:Generated_Source\PSoC4/CSD_SensingCSD_LL.c ****         CSD_configCsd |= (delay << CSD_SHIELD_DELAY_SHIFT);
 280:Generated_Source\PSoC4/CSD_SensingCSD_LL.c ****     }
 281:Generated_Source\PSoC4/CSD_SensingCSD_LL.c **** 
 282:Generated_Source\PSoC4/CSD_SensingCSD_LL.c ****     #if (CSD_ENABLE == CSD_CSD_SHIELD_TANK_EN)
 283:Generated_Source\PSoC4/CSD_SensingCSD_LL.c ****         /*******************************************************************************
 284:Generated_Source\PSoC4/CSD_SensingCSD_LL.c ****         * Function Name: CSD_SsCSDEnableShieldTank
 285:Generated_Source\PSoC4/CSD_SensingCSD_LL.c ****         ****************************************************************************//**
 286:Generated_Source\PSoC4/CSD_SensingCSD_LL.c ****         *
 287:Generated_Source\PSoC4/CSD_SensingCSD_LL.c ****         * \brief
 288:Generated_Source\PSoC4/CSD_SensingCSD_LL.c ****         *   This function configures Csh pin
 289:Generated_Source\PSoC4/CSD_SensingCSD_LL.c ****         *
 290:Generated_Source\PSoC4/CSD_SensingCSD_LL.c ****         * \details
 291:Generated_Source\PSoC4/CSD_SensingCSD_LL.c ****         *   The function updates the CSH_HSIOM register to connect Csh to AMUXBUS-B.
 292:Generated_Source\PSoC4/CSD_SensingCSD_LL.c ****         *   For CSD v1 IP HW block it additionally sets Strong drive mode for Csh
 293:Generated_Source\PSoC4/CSD_SensingCSD_LL.c ****         *   and applies High level to Csh pin when precharge is set to IO buffer.
 294:Generated_Source\PSoC4/CSD_SensingCSD_LL.c ****         *
 295:Generated_Source\PSoC4/CSD_SensingCSD_LL.c ****         *******************************************************************************/
 296:Generated_Source\PSoC4/CSD_SensingCSD_LL.c ****         static void CSD_SsCSDEnableShieldTank(void)
 297:Generated_Source\PSoC4/CSD_SensingCSD_LL.c ****         {
 298:Generated_Source\PSoC4/CSD_SensingCSD_LL.c ****             uint32 newRegValue;
 299:Generated_Source\PSoC4/CSD_SensingCSD_LL.c **** 
 300:Generated_Source\PSoC4/CSD_SensingCSD_LL.c ****             /* Update the CSH_HSIOM register to connect Csh to AMUXBUS-B */
 301:Generated_Source\PSoC4/CSD_SensingCSD_LL.c ****             newRegValue = CY_GET_REG32(CSD_CSH_HSIOM_PTR);
 302:Generated_Source\PSoC4/CSD_SensingCSD_LL.c ****             newRegValue &= (uint32)(~(uint32)CSD_CSH_HSIOM_MASK);
 303:Generated_Source\PSoC4/CSD_SensingCSD_LL.c ****             newRegValue |= (CSD_CSH_TO_AMUXBUS_B_MASK << CSD_CSH_HSIOM_SHIFT);
 304:Generated_Source\PSoC4/CSD_SensingCSD_LL.c ****             CY_SET_REG32(CSD_CSH_HSIOM_PTR, newRegValue);
 305:Generated_Source\PSoC4/CSD_SensingCSD_LL.c **** 
ARM GAS  C:\Users\CHRIST~1\AppData\Local\Temp\ccGy5PUQ.s 			page 7


 306:Generated_Source\PSoC4/CSD_SensingCSD_LL.c ****             #if ((CSD_CSH_PRECHARGE_IO_BUF == CSD_CSD_CSH_PRECHARGE_SRC) &&\
 307:Generated_Source\PSoC4/CSD_SensingCSD_LL.c ****                  (CSD_DISABLE == CSD_CSDV2))
 308:Generated_Source\PSoC4/CSD_SensingCSD_LL.c ****                 /* Set Strong drive mode for Csh */
 309:Generated_Source\PSoC4/CSD_SensingCSD_LL.c ****                 newRegValue = CY_GET_REG32(CSD_CSH_PC_PTR);
 310:Generated_Source\PSoC4/CSD_SensingCSD_LL.c ****                 newRegValue &= (uint32)(~(CSD_CSH_PC_MASK << CSD_CSH_PC_SHIFT));
 311:Generated_Source\PSoC4/CSD_SensingCSD_LL.c ****                 newRegValue |= (CSD_CSH_PC_STRONG_MODE << CSD_CSH_PC_SHIFT);
 312:Generated_Source\PSoC4/CSD_SensingCSD_LL.c ****                 CY_SET_REG32(CSD_CSH_PC_PTR, newRegValue);
 313:Generated_Source\PSoC4/CSD_SensingCSD_LL.c **** 
 314:Generated_Source\PSoC4/CSD_SensingCSD_LL.c ****                 /* Appliy High level to Csh pin for Csh */
 315:Generated_Source\PSoC4/CSD_SensingCSD_LL.c ****                 newRegValue = CY_GET_REG32(CSD_CSH_DR_PTR);
 316:Generated_Source\PSoC4/CSD_SensingCSD_LL.c ****                 newRegValue &= (uint32)(~(CSD_DR_MASK << CSD_CSH_SHIFT));
 317:Generated_Source\PSoC4/CSD_SensingCSD_LL.c ****                 newRegValue |= (uint32)CSD_CSH_DR_CONFIG;
 318:Generated_Source\PSoC4/CSD_SensingCSD_LL.c ****                 CY_SET_REG32(CSD_CSH_DR_PTR, newRegValue);
 319:Generated_Source\PSoC4/CSD_SensingCSD_LL.c ****             #endif /* ((CSD_CSH_PRECHARGE_IO_BUF == CSD_CSD_CSH_PRECHARGE_SRC) &&\
 320:Generated_Source\PSoC4/CSD_SensingCSD_LL.c ****                        (CSD_DISABLE == CSD_CSDV2)) */
 321:Generated_Source\PSoC4/CSD_SensingCSD_LL.c ****         }
 322:Generated_Source\PSoC4/CSD_SensingCSD_LL.c ****     #endif /* (CSD_ENABLE == CSD_CSD_SHIELD_TANK_EN) */
 323:Generated_Source\PSoC4/CSD_SensingCSD_LL.c **** 
 324:Generated_Source\PSoC4/CSD_SensingCSD_LL.c ****     #if (0u != CSD_CSD_TOTAL_SHIELD_COUNT)
 325:Generated_Source\PSoC4/CSD_SensingCSD_LL.c ****         /*******************************************************************************
 326:Generated_Source\PSoC4/CSD_SensingCSD_LL.c ****         * Function Name: CSD_SsCSDEnableShieldElectrodes
 327:Generated_Source\PSoC4/CSD_SensingCSD_LL.c ****         ****************************************************************************//**
 328:Generated_Source\PSoC4/CSD_SensingCSD_LL.c ****         *
 329:Generated_Source\PSoC4/CSD_SensingCSD_LL.c ****         * \brief
 330:Generated_Source\PSoC4/CSD_SensingCSD_LL.c ****         *   This internal function initializes Shield Electrodes.
 331:Generated_Source\PSoC4/CSD_SensingCSD_LL.c ****         *
 332:Generated_Source\PSoC4/CSD_SensingCSD_LL.c ****         * \details
 333:Generated_Source\PSoC4/CSD_SensingCSD_LL.c ****         *   The function sets the bit in the HSIOM register which enables the shield electrode
 334:Generated_Source\PSoC4/CSD_SensingCSD_LL.c ****         *   functionality on the pin. The port and pin configurations are stored in
 335:Generated_Source\PSoC4/CSD_SensingCSD_LL.c ****         *   the CSD_shieldIoList structure.
 336:Generated_Source\PSoC4/CSD_SensingCSD_LL.c ****         *
 337:Generated_Source\PSoC4/CSD_SensingCSD_LL.c ****         *******************************************************************************/
 338:Generated_Source\PSoC4/CSD_SensingCSD_LL.c ****         static void CSD_SsCSDEnableShieldElectrodes(void)
 339:Generated_Source\PSoC4/CSD_SensingCSD_LL.c ****         {
 340:Generated_Source\PSoC4/CSD_SensingCSD_LL.c ****             uint32 newRegValue;
 341:Generated_Source\PSoC4/CSD_SensingCSD_LL.c ****             uint32 shieldIndex;
 342:Generated_Source\PSoC4/CSD_SensingCSD_LL.c **** 
 343:Generated_Source\PSoC4/CSD_SensingCSD_LL.c ****             for (shieldIndex = 0u; shieldIndex < CSD_CSD_TOTAL_SHIELD_COUNT; shieldIndex++)
 344:Generated_Source\PSoC4/CSD_SensingCSD_LL.c ****             {
 345:Generated_Source\PSoC4/CSD_SensingCSD_LL.c ****                 /* Set drive mode to Analog */
 346:Generated_Source\PSoC4/CSD_SensingCSD_LL.c ****                 CY_SET_REG32(CSD_shieldIoList[shieldIndex].pcPtr, CY_GET_REG32(CSD_shieldIoList[shi
 347:Generated_Source\PSoC4/CSD_SensingCSD_LL.c ****                            ~(CSD_GPIO_PC_MASK <<(CSD_shieldIoList[shieldIndex].shift)));
 348:Generated_Source\PSoC4/CSD_SensingCSD_LL.c **** 
 349:Generated_Source\PSoC4/CSD_SensingCSD_LL.c ****                 /* Set HSIOM register mode to CSD_SHIELD or AMUXBUS B connection */
 350:Generated_Source\PSoC4/CSD_SensingCSD_LL.c ****                 newRegValue = CY_GET_REG32(CSD_shieldIoList[shieldIndex].hsiomPtr);
 351:Generated_Source\PSoC4/CSD_SensingCSD_LL.c ****                 newRegValue &= ~(CSD_HSIOM_SEL_MASK << (CSD_shieldIoList[shieldIndex].hsiomShift));
 352:Generated_Source\PSoC4/CSD_SensingCSD_LL.c **** 
 353:Generated_Source\PSoC4/CSD_SensingCSD_LL.c ****                 /* Set HSIOM register mode to CSD_SHIELD */
 354:Generated_Source\PSoC4/CSD_SensingCSD_LL.c ****                 newRegValue |= (CSD_HSIOM_SEL_CSD_SHIELD << (CSD_shieldIoList[shieldIndex].hsiomShi
 355:Generated_Source\PSoC4/CSD_SensingCSD_LL.c **** 
 356:Generated_Source\PSoC4/CSD_SensingCSD_LL.c ****                 CY_SET_REG32(CSD_shieldIoList[shieldIndex].hsiomPtr, newRegValue);
 357:Generated_Source\PSoC4/CSD_SensingCSD_LL.c ****             }
 358:Generated_Source\PSoC4/CSD_SensingCSD_LL.c ****         }
 359:Generated_Source\PSoC4/CSD_SensingCSD_LL.c **** 
 360:Generated_Source\PSoC4/CSD_SensingCSD_LL.c **** 
 361:Generated_Source\PSoC4/CSD_SensingCSD_LL.c ****         /*******************************************************************************
 362:Generated_Source\PSoC4/CSD_SensingCSD_LL.c ****         * Function Name: CSD_SsCSDDisableShieldElectrodes
ARM GAS  C:\Users\CHRIST~1\AppData\Local\Temp\ccGy5PUQ.s 			page 8


 363:Generated_Source\PSoC4/CSD_SensingCSD_LL.c ****         ****************************************************************************//**
 364:Generated_Source\PSoC4/CSD_SensingCSD_LL.c ****         *
 365:Generated_Source\PSoC4/CSD_SensingCSD_LL.c ****         * \brief
 366:Generated_Source\PSoC4/CSD_SensingCSD_LL.c ****         *   This internal function disables Shield Electrodes.
 367:Generated_Source\PSoC4/CSD_SensingCSD_LL.c ****         *
 368:Generated_Source\PSoC4/CSD_SensingCSD_LL.c ****         * \details
 369:Generated_Source\PSoC4/CSD_SensingCSD_LL.c ****         *   The function resets the bit in the HSIOM register which disables the shield
 370:Generated_Source\PSoC4/CSD_SensingCSD_LL.c ****         *   electrode functionality on the pin. The port and pin configurations are
 371:Generated_Source\PSoC4/CSD_SensingCSD_LL.c ****         *   stored in  the CSD_shieldIoList structure.
 372:Generated_Source\PSoC4/CSD_SensingCSD_LL.c ****         *
 373:Generated_Source\PSoC4/CSD_SensingCSD_LL.c ****         *******************************************************************************/
 374:Generated_Source\PSoC4/CSD_SensingCSD_LL.c ****         void CSD_SsCSDDisableShieldElectrodes(void)
 375:Generated_Source\PSoC4/CSD_SensingCSD_LL.c ****         {
 376:Generated_Source\PSoC4/CSD_SensingCSD_LL.c ****             uint32 newRegValue;
 377:Generated_Source\PSoC4/CSD_SensingCSD_LL.c ****             uint32 shieldIndex;
 378:Generated_Source\PSoC4/CSD_SensingCSD_LL.c **** 
 379:Generated_Source\PSoC4/CSD_SensingCSD_LL.c ****             for (shieldIndex = 0u; shieldIndex < CSD_CSD_TOTAL_SHIELD_COUNT; shieldIndex++)
 380:Generated_Source\PSoC4/CSD_SensingCSD_LL.c ****             {
 381:Generated_Source\PSoC4/CSD_SensingCSD_LL.c ****                 /* Reset HSIOM register (to GPIO state) */
 382:Generated_Source\PSoC4/CSD_SensingCSD_LL.c ****                 CY_SET_REG32(CSD_shieldIoList[shieldIndex].hsiomPtr, CY_GET_REG32(CSD_shieldIoList[
 383:Generated_Source\PSoC4/CSD_SensingCSD_LL.c ****                              (uint32)~(uint32)(CSD_HSIOM_SEL_MASK << CSD_shieldIoList[shieldIndex].
 384:Generated_Source\PSoC4/CSD_SensingCSD_LL.c **** 
 385:Generated_Source\PSoC4/CSD_SensingCSD_LL.c ****                 /* Update port configuration register (drive mode to ground)  */
 386:Generated_Source\PSoC4/CSD_SensingCSD_LL.c ****                 newRegValue = CY_GET_REG32(CSD_shieldIoList[shieldIndex].pcPtr);
 387:Generated_Source\PSoC4/CSD_SensingCSD_LL.c ****                 newRegValue &= ~(CSD_GPIO_PC_MASK << CSD_shieldIoList[shieldIndex].shift);
 388:Generated_Source\PSoC4/CSD_SensingCSD_LL.c ****                 newRegValue |= (CSD_SNS_GROUND_CONNECT << CSD_shieldIoList[shieldIndex].shift);
 389:Generated_Source\PSoC4/CSD_SensingCSD_LL.c ****                 CY_SET_REG32(CSD_shieldIoList[shieldIndex].pcPtr, newRegValue);
 390:Generated_Source\PSoC4/CSD_SensingCSD_LL.c **** 
 391:Generated_Source\PSoC4/CSD_SensingCSD_LL.c ****                 /* Set logic 0 to port data register */
 392:Generated_Source\PSoC4/CSD_SensingCSD_LL.c ****                 CY_SET_REG32(CSD_shieldIoList[shieldIndex].drPtr, CY_GET_REG32(CSD_shieldIoList[shi
 393:Generated_Source\PSoC4/CSD_SensingCSD_LL.c ****                            (uint32)~(uint32)((uint32)1u << CSD_shieldIoList[shieldIndex].drShift));
 394:Generated_Source\PSoC4/CSD_SensingCSD_LL.c ****             }
 395:Generated_Source\PSoC4/CSD_SensingCSD_LL.c ****         }
 396:Generated_Source\PSoC4/CSD_SensingCSD_LL.c ****     #endif /* (0u != CSD_CSD_TOTAL_SHIELD_COUNT) */
 397:Generated_Source\PSoC4/CSD_SensingCSD_LL.c **** #endif /* (CSD_ENABLE == CSD_CSD_SHIELD_EN) */
 398:Generated_Source\PSoC4/CSD_SensingCSD_LL.c **** 
 399:Generated_Source\PSoC4/CSD_SensingCSD_LL.c **** 
 400:Generated_Source\PSoC4/CSD_SensingCSD_LL.c **** /*******************************************************************************
 401:Generated_Source\PSoC4/CSD_SensingCSD_LL.c **** * Function Name: CSD_SsCSDClearCSDSensors
 402:Generated_Source\PSoC4/CSD_SensingCSD_LL.c **** ****************************************************************************//**
 403:Generated_Source\PSoC4/CSD_SensingCSD_LL.c **** *
 404:Generated_Source\PSoC4/CSD_SensingCSD_LL.c **** * \brief
 405:Generated_Source\PSoC4/CSD_SensingCSD_LL.c **** *  Resets all the CSD sensors to the non-sampling state by sequentially
 406:Generated_Source\PSoC4/CSD_SensingCSD_LL.c **** *  disconnecting all the sensors from the Analog MUX bus and putting them to
 407:Generated_Source\PSoC4/CSD_SensingCSD_LL.c **** *  an inactive state.
 408:Generated_Source\PSoC4/CSD_SensingCSD_LL.c **** *
 409:Generated_Source\PSoC4/CSD_SensingCSD_LL.c **** * \details
 410:Generated_Source\PSoC4/CSD_SensingCSD_LL.c **** *   The function goes through all the widgets and updates appropriate bits in
 411:Generated_Source\PSoC4/CSD_SensingCSD_LL.c **** *   the IO HSIOM, PC and DR registers depending on the Inactive sensor connection
 412:Generated_Source\PSoC4/CSD_SensingCSD_LL.c **** *   parameter. DR register bits are set to zero when the Inactive sensor
 413:Generated_Source\PSoC4/CSD_SensingCSD_LL.c **** *   connection is Ground or Hi-Z.
 414:Generated_Source\PSoC4/CSD_SensingCSD_LL.c **** *
 415:Generated_Source\PSoC4/CSD_SensingCSD_LL.c **** *******************************************************************************/
 416:Generated_Source\PSoC4/CSD_SensingCSD_LL.c **** static void CSD_SsCSDClearCSDSensors(void)
 417:Generated_Source\PSoC4/CSD_SensingCSD_LL.c **** {
  38              		.loc 1 417 0
  39              		.cfi_startproc
ARM GAS  C:\Users\CHRIST~1\AppData\Local\Temp\ccGy5PUQ.s 			page 9


  40 0000 80B5     		push	{r7, lr}
  41              		.cfi_def_cfa_offset 8
  42              		.cfi_offset 7, -8
  43              		.cfi_offset 14, -4
  44 0002 82B0     		sub	sp, sp, #8
  45              		.cfi_def_cfa_offset 16
  46 0004 00AF     		add	r7, sp, #0
  47              		.cfi_def_cfa_register 7
 418:Generated_Source\PSoC4/CSD_SensingCSD_LL.c ****     uint32 wdgtIndex;
 419:Generated_Source\PSoC4/CSD_SensingCSD_LL.c ****     uint32 snsIndex;
 420:Generated_Source\PSoC4/CSD_SensingCSD_LL.c ****     #if (CSD_ENABLE == CSD_CSD_GANGED_SNS_EN)
 421:Generated_Source\PSoC4/CSD_SensingCSD_LL.c ****         /* Declare ptr to sensor IO structure */
 422:Generated_Source\PSoC4/CSD_SensingCSD_LL.c ****         CSD_FLASH_IO_STRUCT const *curDedicatedSnsIOPtr;
 423:Generated_Source\PSoC4/CSD_SensingCSD_LL.c ****     #endif /* (CSD_ENABLE == CSD_CSD_GANGED_SNS_EN)  */
 424:Generated_Source\PSoC4/CSD_SensingCSD_LL.c **** 
 425:Generated_Source\PSoC4/CSD_SensingCSD_LL.c ****     for (wdgtIndex = 0u; wdgtIndex < CSD_TOTAL_WIDGETS; wdgtIndex++)
  48              		.loc 1 425 0
  49 0006 0023     		mov	r3, #0
  50 0008 7B60     		str	r3, [r7, #4]
  51 000a 2AE0     		b	.L2
  52              	.L5:
 426:Generated_Source\PSoC4/CSD_SensingCSD_LL.c ****     {
 427:Generated_Source\PSoC4/CSD_SensingCSD_LL.c ****         if (CSD_SENSE_METHOD_CSD_E ==
 428:Generated_Source\PSoC4/CSD_SensingCSD_LL.c ****             (CSD_SENSE_METHOD_ENUM)CSD_GET_SENSE_METHOD(&CSD_dsFlash.wdgtArray[wdgtIndex]))
 429:Generated_Source\PSoC4/CSD_SensingCSD_LL.c ****         {
 430:Generated_Source\PSoC4/CSD_SensingCSD_LL.c ****             CSD_curSnsIOPtr = (CSD_FLASH_IO_STRUCT const *)
 431:Generated_Source\PSoC4/CSD_SensingCSD_LL.c ****                                             CSD_dsFlash.wdgtArray[wdgtIndex].ptr2SnsFlash;
  53              		.loc 1 431 0
  54 000c 1849     		ldr	r1, .L6
  55 000e 7A68     		ldr	r2, [r7, #4]
  56 0010 131C     		mov	r3, r2
  57 0012 DB00     		lsl	r3, r3, #3
  58 0014 9B1A     		sub	r3, r3, r2
  59 0016 9B00     		lsl	r3, r3, #2
  60 0018 5A58     		ldr	r2, [r3, r1]
 430:Generated_Source\PSoC4/CSD_SensingCSD_LL.c ****                                             CSD_dsFlash.wdgtArray[wdgtIndex].ptr2SnsFlash;
  61              		.loc 1 430 0
  62 001a 164B     		ldr	r3, .L6+4
  63 001c 1A60     		str	r2, [r3]
 432:Generated_Source\PSoC4/CSD_SensingCSD_LL.c **** 
 433:Generated_Source\PSoC4/CSD_SensingCSD_LL.c ****             /* Go through all sensors in widget */
 434:Generated_Source\PSoC4/CSD_SensingCSD_LL.c ****             for (snsIndex = 0u; snsIndex < (uint8)CSD_dsFlash.wdgtArray[(wdgtIndex)].totalNumSns; s
  64              		.loc 1 434 0
  65 001e 0023     		mov	r3, #0
  66 0020 3B60     		str	r3, [r7]
  67 0022 0DE0     		b	.L3
  68              	.L4:
 435:Generated_Source\PSoC4/CSD_SensingCSD_LL.c ****             {
 436:Generated_Source\PSoC4/CSD_SensingCSD_LL.c ****                 #if (CSD_ENABLE == CSD_CSD_GANGED_SNS_EN)
 437:Generated_Source\PSoC4/CSD_SensingCSD_LL.c ****                     /* Check ganged sns flag  */
 438:Generated_Source\PSoC4/CSD_SensingCSD_LL.c ****                     if (CSD_GANGED_SNS_MASK == (CSD_dsFlash.wdgtArray[wdgtIndex].staticConfig &
 439:Generated_Source\PSoC4/CSD_SensingCSD_LL.c ****                                                              CSD_GANGED_SNS_MASK))
 440:Generated_Source\PSoC4/CSD_SensingCSD_LL.c ****                     {
 441:Generated_Source\PSoC4/CSD_SensingCSD_LL.c ****                         /* Get sns pointer */
 442:Generated_Source\PSoC4/CSD_SensingCSD_LL.c ****                         CSD_curFlashSnsPtr = (CSD_FLASH_SNS_STRUCT const *)
 443:Generated_Source\PSoC4/CSD_SensingCSD_LL.c ****                                                            CSD_dsFlash.wdgtArray[wdgtIndex].ptr2Sns
 444:Generated_Source\PSoC4/CSD_SensingCSD_LL.c ****                                                            snsIndex;
ARM GAS  C:\Users\CHRIST~1\AppData\Local\Temp\ccGy5PUQ.s 			page 10


 445:Generated_Source\PSoC4/CSD_SensingCSD_LL.c **** 
 446:Generated_Source\PSoC4/CSD_SensingCSD_LL.c ****                         /* Get IO pointer for dedicated pin */
 447:Generated_Source\PSoC4/CSD_SensingCSD_LL.c ****                         curDedicatedSnsIOPtr = &CSD_ioList[CSD_curFlashSnsPtr->firstPinId];
 448:Generated_Source\PSoC4/CSD_SensingCSD_LL.c **** 
 449:Generated_Source\PSoC4/CSD_SensingCSD_LL.c ****                         /* Disconnect dedicated pin */
 450:Generated_Source\PSoC4/CSD_SensingCSD_LL.c ****                         CSD_CSDDisconnectSns(curDedicatedSnsIOPtr);
 451:Generated_Source\PSoC4/CSD_SensingCSD_LL.c ****                     }
 452:Generated_Source\PSoC4/CSD_SensingCSD_LL.c ****                     else
 453:Generated_Source\PSoC4/CSD_SensingCSD_LL.c ****                     {
 454:Generated_Source\PSoC4/CSD_SensingCSD_LL.c ****                         /* Disable sensor */
 455:Generated_Source\PSoC4/CSD_SensingCSD_LL.c ****                         CSD_CSDDisconnectSns(&CSD_curSnsIOPtr[snsIndex]);
 456:Generated_Source\PSoC4/CSD_SensingCSD_LL.c ****                     }
 457:Generated_Source\PSoC4/CSD_SensingCSD_LL.c ****                 #else
 458:Generated_Source\PSoC4/CSD_SensingCSD_LL.c ****                     /* Disable sensor */
 459:Generated_Source\PSoC4/CSD_SensingCSD_LL.c ****                     CSD_CSDDisconnectSns(&CSD_curSnsIOPtr[snsIndex]);
  69              		.loc 1 459 0 discriminator 3
  70 0024 134B     		ldr	r3, .L6+4
  71 0026 1968     		ldr	r1, [r3]
  72 0028 3A68     		ldr	r2, [r7]
  73 002a 131C     		mov	r3, r2
  74 002c DB00     		lsl	r3, r3, #3
  75 002e 9B1A     		sub	r3, r3, r2
  76 0030 9B00     		lsl	r3, r3, #2
  77 0032 CB18     		add	r3, r1, r3
  78 0034 181C     		mov	r0, r3
  79 0036 FFF7FEFF 		bl	CSD_CSDDisconnectSns
 434:Generated_Source\PSoC4/CSD_SensingCSD_LL.c ****             {
  80              		.loc 1 434 0 discriminator 3
  81 003a 3B68     		ldr	r3, [r7]
  82 003c 0133     		add	r3, r3, #1
  83 003e 3B60     		str	r3, [r7]
  84              	.L3:
 434:Generated_Source\PSoC4/CSD_SensingCSD_LL.c ****             {
  85              		.loc 1 434 0 is_stmt 0 discriminator 1
  86 0040 0B49     		ldr	r1, .L6
  87 0042 7A68     		ldr	r2, [r7, #4]
  88 0044 131C     		mov	r3, r2
  89 0046 DB00     		lsl	r3, r3, #3
  90 0048 9B1A     		sub	r3, r3, r2
  91 004a 9B00     		lsl	r3, r3, #2
  92 004c CB18     		add	r3, r1, r3
  93 004e 1033     		add	r3, r3, #16
  94 0050 DB88     		ldrh	r3, [r3, #6]
  95 0052 DBB2     		uxtb	r3, r3
  96 0054 1A1E     		sub	r2, r3, #0
  97 0056 3B68     		ldr	r3, [r7]
  98 0058 9A42     		cmp	r2, r3
  99 005a E3D8     		bhi	.L4
 425:Generated_Source\PSoC4/CSD_SensingCSD_LL.c ****     {
 100              		.loc 1 425 0 is_stmt 1 discriminator 2
 101 005c 7B68     		ldr	r3, [r7, #4]
 102 005e 0133     		add	r3, r3, #1
 103 0060 7B60     		str	r3, [r7, #4]
 104              	.L2:
 425:Generated_Source\PSoC4/CSD_SensingCSD_LL.c ****     {
 105              		.loc 1 425 0 is_stmt 0 discriminator 1
 106 0062 7B68     		ldr	r3, [r7, #4]
ARM GAS  C:\Users\CHRIST~1\AppData\Local\Temp\ccGy5PUQ.s 			page 11


 107 0064 002B     		cmp	r3, #0
 108 0066 D1D0     		beq	.L5
 460:Generated_Source\PSoC4/CSD_SensingCSD_LL.c ****                 #endif /* (CSD_ENABLE == CSD_CSD_GANGED_SNS_EN)  */
 461:Generated_Source\PSoC4/CSD_SensingCSD_LL.c ****             }
 462:Generated_Source\PSoC4/CSD_SensingCSD_LL.c ****         }
 463:Generated_Source\PSoC4/CSD_SensingCSD_LL.c ****     }
 464:Generated_Source\PSoC4/CSD_SensingCSD_LL.c **** }
 109              		.loc 1 464 0 is_stmt 1
 110 0068 BD46     		mov	sp, r7
 111 006a 02B0     		add	sp, sp, #8
 112              		@ sp needed
 113 006c 80BD     		pop	{r7, pc}
 114              	.L7:
 115 006e C046     		.align	2
 116              	.L6:
 117 0070 00000000 		.word	CSD_dsFlash
 118 0074 00000000 		.word	CSD_curSnsIOPtr
 119              		.cfi_endproc
 120              	.LFE1:
 121              		.size	CSD_SsCSDClearCSDSensors, .-CSD_SsCSDClearCSDSensors
 122              		.global	__aeabi_uidiv
 123              		.section	.text.CSD_SsCSDSetFilterDelay,"ax",%progbits
 124              		.align	2
 125              		.code	16
 126              		.thumb_func
 127              		.type	CSD_SsCSDSetFilterDelay, %function
 128              	CSD_SsCSDSetFilterDelay:
 129              	.LFB2:
 465:Generated_Source\PSoC4/CSD_SensingCSD_LL.c **** 
 466:Generated_Source\PSoC4/CSD_SensingCSD_LL.c **** 
 467:Generated_Source\PSoC4/CSD_SensingCSD_LL.c **** #if (CSD_CLK_SOURCE_PRSAUTO == CSD_CSD_SNS_CLK_SOURCE)
 468:Generated_Source\PSoC4/CSD_SensingCSD_LL.c ****     /*******************************************************************************
 469:Generated_Source\PSoC4/CSD_SensingCSD_LL.c ****     * Function Name: CSD_SsCSDCalcPrsSize
 470:Generated_Source\PSoC4/CSD_SensingCSD_LL.c ****     ****************************************************************************//**
 471:Generated_Source\PSoC4/CSD_SensingCSD_LL.c ****     *
 472:Generated_Source\PSoC4/CSD_SensingCSD_LL.c ****     * \brief
 473:Generated_Source\PSoC4/CSD_SensingCSD_LL.c ****     *   The function finds PRS polynomial size in the Auto mode.
 474:Generated_Source\PSoC4/CSD_SensingCSD_LL.c ****     *
 475:Generated_Source\PSoC4/CSD_SensingCSD_LL.c ****     * \details
 476:Generated_Source\PSoC4/CSD_SensingCSD_LL.c ****     *   The PRS polynomial size in the Auto mode is found based on the following
 477:Generated_Source\PSoC4/CSD_SensingCSD_LL.c ****     *   requirements:
 478:Generated_Source\PSoC4/CSD_SensingCSD_LL.c ****     *   - at least one full spread spectrum polynomial should pass during scan time.
 479:Generated_Source\PSoC4/CSD_SensingCSD_LL.c ****     *
 480:Generated_Source\PSoC4/CSD_SensingCSD_LL.c ****     * \param
 481:Generated_Source\PSoC4/CSD_SensingCSD_LL.c ****     *  snsClkDivider The divider value for the sense clock.
 482:Generated_Source\PSoC4/CSD_SensingCSD_LL.c ****     *  resolution The widget resolution.
 483:Generated_Source\PSoC4/CSD_SensingCSD_LL.c ****     *
 484:Generated_Source\PSoC4/CSD_SensingCSD_LL.c ****     * \return prsSize PRS value for SENSE_PERIOD register.
 485:Generated_Source\PSoC4/CSD_SensingCSD_LL.c ****     *
 486:Generated_Source\PSoC4/CSD_SensingCSD_LL.c ****     *******************************************************************************/
 487:Generated_Source\PSoC4/CSD_SensingCSD_LL.c ****     uint8 CSD_SsCSDCalcPrsSize(uint32 snsClkDivider, uint32 resolution)
 488:Generated_Source\PSoC4/CSD_SensingCSD_LL.c ****     {
 489:Generated_Source\PSoC4/CSD_SensingCSD_LL.c ****         uint32 prsSize;
 490:Generated_Source\PSoC4/CSD_SensingCSD_LL.c ****         uint32 modClkDivider;
 491:Generated_Source\PSoC4/CSD_SensingCSD_LL.c **** 
 492:Generated_Source\PSoC4/CSD_SensingCSD_LL.c ****         #if (CSD_ENABLE == CSD_CSDV2)
 493:Generated_Source\PSoC4/CSD_SensingCSD_LL.c ****             modClkDivider = 1uL;
ARM GAS  C:\Users\CHRIST~1\AppData\Local\Temp\ccGy5PUQ.s 			page 12


 494:Generated_Source\PSoC4/CSD_SensingCSD_LL.c ****         #else
 495:Generated_Source\PSoC4/CSD_SensingCSD_LL.c ****             #if (CSD_ENABLE == CSD_IS_M0S8PERI_BLOCK)
 496:Generated_Source\PSoC4/CSD_SensingCSD_LL.c ****                 modClkDivider = (uint32)CSD_dsRam.modCsdClk;
 497:Generated_Source\PSoC4/CSD_SensingCSD_LL.c ****             #else
 498:Generated_Source\PSoC4/CSD_SensingCSD_LL.c ****                 modClkDivider = 1uL;
 499:Generated_Source\PSoC4/CSD_SensingCSD_LL.c ****             #endif /* (CSD_ENABLE == CSD_IS_M0S8PERI_BLOCK) */
 500:Generated_Source\PSoC4/CSD_SensingCSD_LL.c ****         #endif /* (CSD_ENABLE == CSD_CSDV2) */
 501:Generated_Source\PSoC4/CSD_SensingCSD_LL.c **** 
 502:Generated_Source\PSoC4/CSD_SensingCSD_LL.c ****         if ((snsClkDivider * CSD_PRS_LENGTH_12_BITS) <
 503:Generated_Source\PSoC4/CSD_SensingCSD_LL.c ****             (modClkDivider * ((0x00000001Lu << resolution) - 1u)))
 504:Generated_Source\PSoC4/CSD_SensingCSD_LL.c ****         {
 505:Generated_Source\PSoC4/CSD_SensingCSD_LL.c ****             /* Set PRS12 mode */
 506:Generated_Source\PSoC4/CSD_SensingCSD_LL.c ****             prsSize = CSD_PRS_12_CONFIG;
 507:Generated_Source\PSoC4/CSD_SensingCSD_LL.c ****         }
 508:Generated_Source\PSoC4/CSD_SensingCSD_LL.c ****         else if ((snsClkDivider * CSD_PRS_LENGTH_8_BITS) <
 509:Generated_Source\PSoC4/CSD_SensingCSD_LL.c ****                  (modClkDivider * ((0x00000001Lu << resolution) - 1u)))
 510:Generated_Source\PSoC4/CSD_SensingCSD_LL.c ****         {
 511:Generated_Source\PSoC4/CSD_SensingCSD_LL.c ****             /* Set PRS8 mode */
 512:Generated_Source\PSoC4/CSD_SensingCSD_LL.c ****             prsSize = CSD_PRS_8_CONFIG;
 513:Generated_Source\PSoC4/CSD_SensingCSD_LL.c ****         }
 514:Generated_Source\PSoC4/CSD_SensingCSD_LL.c ****         else
 515:Generated_Source\PSoC4/CSD_SensingCSD_LL.c ****         {
 516:Generated_Source\PSoC4/CSD_SensingCSD_LL.c ****             /* Set Direct clock mode */
 517:Generated_Source\PSoC4/CSD_SensingCSD_LL.c ****             prsSize = CSD_CLK_SOURCE_DIRECT;
 518:Generated_Source\PSoC4/CSD_SensingCSD_LL.c ****         }
 519:Generated_Source\PSoC4/CSD_SensingCSD_LL.c **** 
 520:Generated_Source\PSoC4/CSD_SensingCSD_LL.c ****         return (uint8)prsSize;
 521:Generated_Source\PSoC4/CSD_SensingCSD_LL.c ****     }
 522:Generated_Source\PSoC4/CSD_SensingCSD_LL.c **** #endif /* (CSD_CLK_SOURCE_PRSAUTO == CSD_CSD_SNS_CLK_SOURCE) */
 523:Generated_Source\PSoC4/CSD_SensingCSD_LL.c **** 
 524:Generated_Source\PSoC4/CSD_SensingCSD_LL.c **** 
 525:Generated_Source\PSoC4/CSD_SensingCSD_LL.c **** #if (CSD_ENABLE == CSD_CSDV2)
 526:Generated_Source\PSoC4/CSD_SensingCSD_LL.c ****     /*******************************************************************************
 527:Generated_Source\PSoC4/CSD_SensingCSD_LL.c ****     * Function Name: CSD_SsCSDSetFilterDelay
 528:Generated_Source\PSoC4/CSD_SensingCSD_LL.c ****     ****************************************************************************//**
 529:Generated_Source\PSoC4/CSD_SensingCSD_LL.c ****     *
 530:Generated_Source\PSoC4/CSD_SensingCSD_LL.c ****     * \brief
 531:Generated_Source\PSoC4/CSD_SensingCSD_LL.c ****     *   Sets the filter delay for CSDv2 HW IP block.
 532:Generated_Source\PSoC4/CSD_SensingCSD_LL.c ****     *
 533:Generated_Source\PSoC4/CSD_SensingCSD_LL.c ****     * \details
 534:Generated_Source\PSoC4/CSD_SensingCSD_LL.c ****     *   This function updates CSDv2 configuration variable CSD_configCsd
 535:Generated_Source\PSoC4/CSD_SensingCSD_LL.c ****     *   with the filter delay which depends on the sample clock frequency.
 536:Generated_Source\PSoC4/CSD_SensingCSD_LL.c ****     *   This variable is written into CSDv2 CONFIG register during enabling
 537:Generated_Source\PSoC4/CSD_SensingCSD_LL.c ****     *   to CSDv2 block.
 538:Generated_Source\PSoC4/CSD_SensingCSD_LL.c ****     *
 539:Generated_Source\PSoC4/CSD_SensingCSD_LL.c ****     *******************************************************************************/
 540:Generated_Source\PSoC4/CSD_SensingCSD_LL.c ****     static void CSD_SsCSDSetFilterDelay(void)
 541:Generated_Source\PSoC4/CSD_SensingCSD_LL.c ****     {
 130              		.loc 1 541 0
 131              		.cfi_startproc
 132 0000 80B5     		push	{r7, lr}
 133              		.cfi_def_cfa_offset 8
 134              		.cfi_offset 7, -8
 135              		.cfi_offset 14, -4
 136 0002 82B0     		sub	sp, sp, #8
 137              		.cfi_def_cfa_offset 16
 138 0004 00AF     		add	r7, sp, #0
ARM GAS  C:\Users\CHRIST~1\AppData\Local\Temp\ccGy5PUQ.s 			page 13


 139              		.cfi_def_cfa_register 7
 542:Generated_Source\PSoC4/CSD_SensingCSD_LL.c ****         #if (CSD_MOD_CSD_CLK_12MHZ < CYDEV_BCLK__HFCLK__HZ)
 543:Generated_Source\PSoC4/CSD_SensingCSD_LL.c ****             uint32 sampleClkFreqHz;
 544:Generated_Source\PSoC4/CSD_SensingCSD_LL.c ****         #endif /* (CSD_MOD_CSD_CLK_12MHZ < CYDEV_BCLK__HFCLK__HZ) */
 545:Generated_Source\PSoC4/CSD_SensingCSD_LL.c **** 
 546:Generated_Source\PSoC4/CSD_SensingCSD_LL.c ****         CSD_configCsd &= ~CSD_CONFIG_FILTER_DELAY_MASK;
 140              		.loc 1 546 0
 141 0006 174B     		ldr	r3, .L12
 142 0008 1B68     		ldr	r3, [r3]
 143 000a 7022     		mov	r2, #112
 144 000c 9343     		bic	r3, r2
 145 000e 1A1C     		mov	r2, r3
 146 0010 144B     		ldr	r3, .L12
 147 0012 1A60     		str	r2, [r3]
 547:Generated_Source\PSoC4/CSD_SensingCSD_LL.c **** 
 548:Generated_Source\PSoC4/CSD_SensingCSD_LL.c ****         #if (CSD_MOD_CSD_CLK_12MHZ < CYDEV_BCLK__HFCLK__HZ)
 549:Generated_Source\PSoC4/CSD_SensingCSD_LL.c ****             sampleClkFreqHz = CYDEV_BCLK__HFCLK__HZ / (uint32)CSD_dsRam.modCsdClk;
 148              		.loc 1 549 0
 149 0014 144B     		ldr	r3, .L12+4
 150 0016 1B7E     		ldrb	r3, [r3, #24]
 151 0018 1448     		ldr	r0, .L12+8
 152 001a 191C     		mov	r1, r3
 153 001c FFF7FEFF 		bl	__aeabi_uidiv
 154 0020 031C     		mov	r3, r0
 155 0022 7B60     		str	r3, [r7, #4]
 550:Generated_Source\PSoC4/CSD_SensingCSD_LL.c ****             if(sampleClkFreqHz <= CSD_MOD_CSD_CLK_12MHZ)
 156              		.loc 1 550 0
 157 0024 7B68     		ldr	r3, [r7, #4]
 158 0026 124A     		ldr	r2, .L12+12
 159 0028 9342     		cmp	r3, r2
 160 002a 06D8     		bhi	.L9
 551:Generated_Source\PSoC4/CSD_SensingCSD_LL.c ****             {
 552:Generated_Source\PSoC4/CSD_SensingCSD_LL.c ****                 CSD_configCsd |= CSD_CONFIG_FILTER_DELAY_12MHZ;
 161              		.loc 1 552 0
 162 002c 0D4B     		ldr	r3, .L12
 163 002e 1B68     		ldr	r3, [r3]
 164 0030 2022     		mov	r2, #32
 165 0032 1A43     		orr	r2, r3
 166 0034 0B4B     		ldr	r3, .L12
 167 0036 1A60     		str	r2, [r3]
 168 0038 10E0     		b	.L8
 169              	.L9:
 553:Generated_Source\PSoC4/CSD_SensingCSD_LL.c ****             }
 554:Generated_Source\PSoC4/CSD_SensingCSD_LL.c ****             else if(sampleClkFreqHz <= CSD_MOD_CSD_CLK_24MHZ)
 170              		.loc 1 554 0
 171 003a 7B68     		ldr	r3, [r7, #4]
 172 003c 0D4A     		ldr	r2, .L12+16
 173 003e 9342     		cmp	r3, r2
 174 0040 06D8     		bhi	.L11
 555:Generated_Source\PSoC4/CSD_SensingCSD_LL.c ****             {
 556:Generated_Source\PSoC4/CSD_SensingCSD_LL.c ****                 CSD_configCsd |= CSD_CONFIG_FILTER_DELAY_24MHZ;
 175              		.loc 1 556 0
 176 0042 084B     		ldr	r3, .L12
 177 0044 1B68     		ldr	r3, [r3]
 178 0046 3022     		mov	r2, #48
 179 0048 1A43     		orr	r2, r3
 180 004a 064B     		ldr	r3, .L12
ARM GAS  C:\Users\CHRIST~1\AppData\Local\Temp\ccGy5PUQ.s 			page 14


 181 004c 1A60     		str	r2, [r3]
 182 004e 05E0     		b	.L8
 183              	.L11:
 557:Generated_Source\PSoC4/CSD_SensingCSD_LL.c ****             }
 558:Generated_Source\PSoC4/CSD_SensingCSD_LL.c ****             else
 559:Generated_Source\PSoC4/CSD_SensingCSD_LL.c ****             {
 560:Generated_Source\PSoC4/CSD_SensingCSD_LL.c ****                 CSD_configCsd |= CSD_CONFIG_FILTER_DELAY_48MHZ;
 184              		.loc 1 560 0
 185 0050 044B     		ldr	r3, .L12
 186 0052 1B68     		ldr	r3, [r3]
 187 0054 4022     		mov	r2, #64
 188 0056 1A43     		orr	r2, r3
 189 0058 024B     		ldr	r3, .L12
 190 005a 1A60     		str	r2, [r3]
 191              	.L8:
 561:Generated_Source\PSoC4/CSD_SensingCSD_LL.c ****             }
 562:Generated_Source\PSoC4/CSD_SensingCSD_LL.c ****         #else
 563:Generated_Source\PSoC4/CSD_SensingCSD_LL.c ****             CSD_configCsd |= CSD_CONFIG_FILTER_DELAY_12MHZ;
 564:Generated_Source\PSoC4/CSD_SensingCSD_LL.c ****         #endif /* (CSD_MOD_CSD_CLK_12MHZ < CYDEV_BCLK__HFCLK__HZ) */
 565:Generated_Source\PSoC4/CSD_SensingCSD_LL.c ****     }
 192              		.loc 1 565 0
 193 005c BD46     		mov	sp, r7
 194 005e 02B0     		add	sp, sp, #8
 195              		@ sp needed
 196 0060 80BD     		pop	{r7, pc}
 197              	.L13:
 198 0062 C046     		.align	2
 199              	.L12:
 200 0064 00000000 		.word	CSD_configCsd
 201 0068 00000000 		.word	CSD_dsRam
 202 006c 006CDC02 		.word	48000000
 203 0070 001BB700 		.word	12000000
 204 0074 00366E01 		.word	24000000
 205              		.cfi_endproc
 206              	.LFE2:
 207              		.size	CSD_SsCSDSetFilterDelay, .-CSD_SsCSDSetFilterDelay
 208              		.section	.text.CSD_SsCSDConfigIDACs,"ax",%progbits
 209              		.align	2
 210              		.code	16
 211              		.thumb_func
 212              		.type	CSD_SsCSDConfigIDACs, %function
 213              	CSD_SsCSDConfigIDACs:
 214              	.LFB3:
 566:Generated_Source\PSoC4/CSD_SensingCSD_LL.c **** #endif /* (CSD_ENABLE == CSD_CSD_GANGED_SNS_EN)  */
 567:Generated_Source\PSoC4/CSD_SensingCSD_LL.c **** 
 568:Generated_Source\PSoC4/CSD_SensingCSD_LL.c **** 
 569:Generated_Source\PSoC4/CSD_SensingCSD_LL.c **** /*******************************************************************************
 570:Generated_Source\PSoC4/CSD_SensingCSD_LL.c **** * Function Name: CSD_SsCSDConfigIDACs
 571:Generated_Source\PSoC4/CSD_SensingCSD_LL.c **** ****************************************************************************//**
 572:Generated_Source\PSoC4/CSD_SensingCSD_LL.c **** *
 573:Generated_Source\PSoC4/CSD_SensingCSD_LL.c **** * \brief
 574:Generated_Source\PSoC4/CSD_SensingCSD_LL.c **** *   Configures the mode for IDAC registers
 575:Generated_Source\PSoC4/CSD_SensingCSD_LL.c **** *
 576:Generated_Source\PSoC4/CSD_SensingCSD_LL.c **** * \details
 577:Generated_Source\PSoC4/CSD_SensingCSD_LL.c **** *   This function configures the IDAC modes depend on Compensation IDAC
 578:Generated_Source\PSoC4/CSD_SensingCSD_LL.c **** *   enabled or disabled.
 579:Generated_Source\PSoC4/CSD_SensingCSD_LL.c **** *
ARM GAS  C:\Users\CHRIST~1\AppData\Local\Temp\ccGy5PUQ.s 			page 15


 580:Generated_Source\PSoC4/CSD_SensingCSD_LL.c **** *******************************************************************************/
 581:Generated_Source\PSoC4/CSD_SensingCSD_LL.c **** static void CSD_SsCSDConfigIDACs(void)
 582:Generated_Source\PSoC4/CSD_SensingCSD_LL.c **** {
 215              		.loc 1 582 0
 216              		.cfi_startproc
 217 0000 80B5     		push	{r7, lr}
 218              		.cfi_def_cfa_offset 8
 219              		.cfi_offset 7, -8
 220              		.cfi_offset 14, -4
 221 0002 00AF     		add	r7, sp, #0
 222              		.cfi_def_cfa_register 7
 583:Generated_Source\PSoC4/CSD_SensingCSD_LL.c ****     #if (CSD_ENABLE == CSD_CSDV2)
 584:Generated_Source\PSoC4/CSD_SensingCSD_LL.c ****         CY_SET_REG32(CSD_IDAC_MOD_PTR, CSD_DEFAULT_IDAC_MOD);
 223              		.loc 1 584 0
 224 0004 044B     		ldr	r3, .L15
 225 0006 054A     		ldr	r2, .L15+4
 226 0008 1A60     		str	r2, [r3]
 585:Generated_Source\PSoC4/CSD_SensingCSD_LL.c ****         #if ((CSD_ENABLE == CSD_CSD_IDAC_COMP_EN) && \
 586:Generated_Source\PSoC4/CSD_SensingCSD_LL.c ****              (CSD_ENABLE == CSD_CSD_DEDICATED_IDAC_COMP_EN))
 587:Generated_Source\PSoC4/CSD_SensingCSD_LL.c ****             CY_SET_REG32(CSD_IDAC_COMP_PTR, CSD_DEFAULT_IDAC_COMP);
 227              		.loc 1 587 0
 228 000a 054B     		ldr	r3, .L15+8
 229 000c C122     		mov	r2, #193
 230 000e 5204     		lsl	r2, r2, #17
 231 0010 1A60     		str	r2, [r3]
 588:Generated_Source\PSoC4/CSD_SensingCSD_LL.c ****         #endif /* ((CSD_ENABLE == CSD_CSD_IDAC_COMP_EN) && \
 589:Generated_Source\PSoC4/CSD_SensingCSD_LL.c ****                    (CSD_ENABLE == CSD_CSD_DEDICATED_IDAC_COMP_EN)) */
 590:Generated_Source\PSoC4/CSD_SensingCSD_LL.c ****     #else
 591:Generated_Source\PSoC4/CSD_SensingCSD_LL.c ****         #if (CSD_ENABLE == CSD_CSD_IDAC_COMP_EN)
 592:Generated_Source\PSoC4/CSD_SensingCSD_LL.c ****             CY_SET_REG32(CSD_IDAC_PTR, CSD_DEFAULT_CSD_IDAC_CONFIG);
 593:Generated_Source\PSoC4/CSD_SensingCSD_LL.c ****         #else
 594:Generated_Source\PSoC4/CSD_SensingCSD_LL.c ****             CY_SET_REG32(CSD_IDAC_PTR, CY_GET_REG32(CSD_IDAC_PTR) &
 595:Generated_Source\PSoC4/CSD_SensingCSD_LL.c ****                                                                 ~(CSD_IDAC_MOD_MODE_MASK |
 596:Generated_Source\PSoC4/CSD_SensingCSD_LL.c ****                                                                   CSD_IDAC_MOD_MASK));
 597:Generated_Source\PSoC4/CSD_SensingCSD_LL.c ****             CY_SET_REG32(CSD_IDAC_PTR, CY_GET_REG32(CSD_IDAC_PTR) |
 598:Generated_Source\PSoC4/CSD_SensingCSD_LL.c ****                                                                  CSD_DEFAULT_CSD_IDAC_CONFIG);
 599:Generated_Source\PSoC4/CSD_SensingCSD_LL.c ****         #endif /* (CSD_ENABLE == CSD_CSD_IDAC_COMP_EN) */
 600:Generated_Source\PSoC4/CSD_SensingCSD_LL.c ****     #endif /* (CSD_ENABLE == CSD_CSDV2) */
 601:Generated_Source\PSoC4/CSD_SensingCSD_LL.c **** }
 232              		.loc 1 601 0
 233 0012 BD46     		mov	sp, r7
 234              		@ sp needed
 235 0014 80BD     		pop	{r7, pc}
 236              	.L16:
 237 0016 C046     		.align	2
 238              	.L15:
 239 0018 C0010C40 		.word	1074528704
 240 001c 00008301 		.word	25362432
 241 0020 C4010C40 		.word	1074528708
 242              		.cfi_endproc
 243              	.LFE3:
 244              		.size	CSD_SsCSDConfigIDACs, .-CSD_SsCSDConfigIDACs
 245              		.section	.text.CSD_SsCSDInitialize,"ax",%progbits
 246              		.align	2
 247              		.global	CSD_SsCSDInitialize
 248              		.code	16
 249              		.thumb_func
ARM GAS  C:\Users\CHRIST~1\AppData\Local\Temp\ccGy5PUQ.s 			page 16


 250              		.type	CSD_SsCSDInitialize, %function
 251              	CSD_SsCSDInitialize:
 252              	.LFB4:
 602:Generated_Source\PSoC4/CSD_SensingCSD_LL.c **** 
 603:Generated_Source\PSoC4/CSD_SensingCSD_LL.c **** 
 604:Generated_Source\PSoC4/CSD_SensingCSD_LL.c **** /*******************************************************************************
 605:Generated_Source\PSoC4/CSD_SensingCSD_LL.c **** * Function Name: CSD_SsCSDInitialize
 606:Generated_Source\PSoC4/CSD_SensingCSD_LL.c **** ****************************************************************************//**
 607:Generated_Source\PSoC4/CSD_SensingCSD_LL.c **** *
 608:Generated_Source\PSoC4/CSD_SensingCSD_LL.c **** * \brief
 609:Generated_Source\PSoC4/CSD_SensingCSD_LL.c **** *   This API initializes the CSD module.
 610:Generated_Source\PSoC4/CSD_SensingCSD_LL.c **** *
 611:Generated_Source\PSoC4/CSD_SensingCSD_LL.c **** * \details
 612:Generated_Source\PSoC4/CSD_SensingCSD_LL.c **** *   The function performs the following steps for CSDv2 HW block:
 613:Generated_Source\PSoC4/CSD_SensingCSD_LL.c **** *   1) Sets GPIO output to "0" for all sensor pins;
 614:Generated_Source\PSoC4/CSD_SensingCSD_LL.c **** *   2) Connects CMOD to AMUXBUS-A and to CSDBUS-A;
 615:Generated_Source\PSoC4/CSD_SensingCSD_LL.c **** *   3) Connects CMOD to (sense path) to CSDCOMP;
 616:Generated_Source\PSoC4/CSD_SensingCSD_LL.c **** *   4) Connects Csh_tank to AMUXBUS-B and to CSDBUS-B;
 617:Generated_Source\PSoC4/CSD_SensingCSD_LL.c **** *   5) Connects VREF to REFGEN;
 618:Generated_Source\PSoC4/CSD_SensingCSD_LL.c **** *   6) Configures REFGEN and sets the reference voltage;
 619:Generated_Source\PSoC4/CSD_SensingCSD_LL.c **** *   7) Connects VREF to CSDCOMP and HSCOMP;
 620:Generated_Source\PSoC4/CSD_SensingCSD_LL.c **** *   8) Configures IDAC and connect to CSDBUS-A (to drive CMOD);
 621:Generated_Source\PSoC4/CSD_SensingCSD_LL.c **** *   9) Configures ModClk;
 622:Generated_Source\PSoC4/CSD_SensingCSD_LL.c **** *   10) Configure SnsClk source;
 623:Generated_Source\PSoC4/CSD_SensingCSD_LL.c **** *   11) Sets other CSD configurations (Csd Auto Zero time,
 624:Generated_Source\PSoC4/CSD_SensingCSD_LL.c **** *       Sample Init period, interrupts,
 625:Generated_Source\PSoC4/CSD_SensingCSD_LL.c **** *       CMOD and Csh_tank/shield initialization switch resistance).
 626:Generated_Source\PSoC4/CSD_SensingCSD_LL.c **** *
 627:Generated_Source\PSoC4/CSD_SensingCSD_LL.c **** *   The function performs the following steps for CSDv1 HW block:
 628:Generated_Source\PSoC4/CSD_SensingCSD_LL.c **** *   1) Sets all the sensors to the inactive state;
 629:Generated_Source\PSoC4/CSD_SensingCSD_LL.c **** *   2) Enables Shield Electrodes;
 630:Generated_Source\PSoC4/CSD_SensingCSD_LL.c **** *   3) Configures the CSD block and IDACs;
 631:Generated_Source\PSoC4/CSD_SensingCSD_LL.c **** *   4) Connects Cmod to AMUXBUS-A;
 632:Generated_Source\PSoC4/CSD_SensingCSD_LL.c **** *   5) Enables the clocks;
 633:Generated_Source\PSoC4/CSD_SensingCSD_LL.c **** *   6) Sets the shield delay;
 634:Generated_Source\PSoC4/CSD_SensingCSD_LL.c **** *   7) Enables the CSD block; connects Vref Buffer to the AMUX bus;
 635:Generated_Source\PSoC4/CSD_SensingCSD_LL.c **** *   8) Enables the CSD interrupt;
 636:Generated_Source\PSoC4/CSD_SensingCSD_LL.c **** *
 637:Generated_Source\PSoC4/CSD_SensingCSD_LL.c **** *******************************************************************************/
 638:Generated_Source\PSoC4/CSD_SensingCSD_LL.c **** void CSD_SsCSDInitialize(void)
 639:Generated_Source\PSoC4/CSD_SensingCSD_LL.c **** {
 253              		.loc 1 639 0
 254              		.cfi_startproc
 255 0000 80B5     		push	{r7, lr}
 256              		.cfi_def_cfa_offset 8
 257              		.cfi_offset 7, -8
 258              		.cfi_offset 14, -4
 259 0002 82B0     		sub	sp, sp, #8
 260              		.cfi_def_cfa_offset 16
 261 0004 00AF     		add	r7, sp, #0
 262              		.cfi_def_cfa_register 7
 640:Generated_Source\PSoC4/CSD_SensingCSD_LL.c ****     uint32 newRegValue;
 641:Generated_Source\PSoC4/CSD_SensingCSD_LL.c **** 
 642:Generated_Source\PSoC4/CSD_SensingCSD_LL.c ****     /* Set all sensors to inactive state */
 643:Generated_Source\PSoC4/CSD_SensingCSD_LL.c ****     CSD_SsCSDClearCSDSensors();
 263              		.loc 1 643 0
 264 0006 FFF7FEFF 		bl	CSD_SsCSDClearCSDSensors
ARM GAS  C:\Users\CHRIST~1\AppData\Local\Temp\ccGy5PUQ.s 			page 17


 644:Generated_Source\PSoC4/CSD_SensingCSD_LL.c **** 
 645:Generated_Source\PSoC4/CSD_SensingCSD_LL.c ****     #if (CSD_ENABLE == CSD_CSD_SHIELD_EN)
 646:Generated_Source\PSoC4/CSD_SensingCSD_LL.c ****         /* Connect shields to AMUX-B bus (config HSIOM regs) */
 647:Generated_Source\PSoC4/CSD_SensingCSD_LL.c ****         #if (0u != CSD_CSD_TOTAL_SHIELD_COUNT)
 648:Generated_Source\PSoC4/CSD_SensingCSD_LL.c ****             CSD_SsCSDEnableShieldElectrodes();
 649:Generated_Source\PSoC4/CSD_SensingCSD_LL.c ****         #endif /* (0u != CSD_CSD_TOTAL_SHIELD_COUNT) */
 650:Generated_Source\PSoC4/CSD_SensingCSD_LL.c **** 
 651:Generated_Source\PSoC4/CSD_SensingCSD_LL.c ****         #if (CSD_ENABLE == CSD_CSD_SHIELD_TANK_EN)
 652:Generated_Source\PSoC4/CSD_SensingCSD_LL.c ****             /* Configure Csh */
 653:Generated_Source\PSoC4/CSD_SensingCSD_LL.c ****             CSD_SsCSDEnableShieldTank();
 654:Generated_Source\PSoC4/CSD_SensingCSD_LL.c ****         #endif /* (CSD_ENABLE == CSD_CSD_SHIELD_TANK_EN) */
 655:Generated_Source\PSoC4/CSD_SensingCSD_LL.c ****     #endif /* (CSD_ENABLE == CSD_CSD_SHIELD_EN) */
 656:Generated_Source\PSoC4/CSD_SensingCSD_LL.c **** 
 657:Generated_Source\PSoC4/CSD_SensingCSD_LL.c ****     #if (CSD_ENABLE == CSD_CSDV2)
 658:Generated_Source\PSoC4/CSD_SensingCSD_LL.c **** 
 659:Generated_Source\PSoC4/CSD_SensingCSD_LL.c ****         /* Initialize the unused CSD IP registers to defaut state */
 660:Generated_Source\PSoC4/CSD_SensingCSD_LL.c ****         CY_SET_REG32(CSD_INTR_SET_PTR,         CSD_DEFAULT_CSD_INTR_SET);
 265              		.loc 1 660 0
 266 000a 394B     		ldr	r3, .L18
 267 000c 0022     		mov	r2, #0
 268 000e 1A60     		str	r2, [r3]
 661:Generated_Source\PSoC4/CSD_SensingCSD_LL.c ****         CY_SET_REG32(CSD_SW_FW_TANK_SEL_PTR,   CSD_DEFAULT_CSD_SW_FW_TANK_SEL);
 269              		.loc 1 661 0
 270 0010 384B     		ldr	r3, .L18+4
 271 0012 0022     		mov	r2, #0
 272 0014 1A60     		str	r2, [r3]
 662:Generated_Source\PSoC4/CSD_SensingCSD_LL.c ****         CY_SET_REG32(CSD_SW_DSI_SEL_PTR,       CSD_DEFAULT_CSD_SW_DSI_SEL);
 273              		.loc 1 662 0
 274 0016 384B     		ldr	r3, .L18+8
 275 0018 1022     		mov	r2, #16
 276 001a 1A60     		str	r2, [r3]
 663:Generated_Source\PSoC4/CSD_SensingCSD_LL.c ****         CY_SET_REG32(CSD_ADC_CTL_PTR,          CSD_DEFAULT_CSD_ADC_CTL);
 277              		.loc 1 663 0
 278 001c 374B     		ldr	r3, .L18+12
 279 001e 0022     		mov	r2, #0
 280 0020 1A60     		str	r2, [r3]
 664:Generated_Source\PSoC4/CSD_SensingCSD_LL.c ****         CY_SET_REG32(CSD_AMBUF_PTR,            CSD_AMBUF_PWR_MODE_OFF);
 281              		.loc 1 664 0
 282 0022 374B     		ldr	r3, .L18+16
 283 0024 0022     		mov	r2, #0
 284 0026 1A60     		str	r2, [r3]
 665:Generated_Source\PSoC4/CSD_SensingCSD_LL.c ****         CY_SET_REG32(CSD_SW_SHIELD_SEL_PTR,    CSD_DEFAULT_SW_SHIELD_SEL);
 285              		.loc 1 665 0
 286 0028 364B     		ldr	r3, .L18+20
 287 002a 0022     		mov	r2, #0
 288 002c 1A60     		str	r2, [r3]
 666:Generated_Source\PSoC4/CSD_SensingCSD_LL.c ****         CY_SET_REG32(CSD_SW_HS_P_SEL_PTR,      CSD_DEFAULT_SW_HS_P_SEL);
 289              		.loc 1 666 0
 290 002e 364B     		ldr	r3, .L18+24
 291 0030 0022     		mov	r2, #0
 292 0032 1A60     		str	r2, [r3]
 667:Generated_Source\PSoC4/CSD_SensingCSD_LL.c ****         CY_SET_REG32(CSD_SW_HS_N_SEL_PTR,      CSD_DEFAULT_SW_HS_N_SEL);
 293              		.loc 1 667 0
 294 0034 354B     		ldr	r3, .L18+28
 295 0036 0022     		mov	r2, #0
 296 0038 1A60     		str	r2, [r3]
 668:Generated_Source\PSoC4/CSD_SensingCSD_LL.c ****         CY_SET_REG32(CSD_HSCMP_PTR,            CSD_DEFAULT_HSCMP_CFG);
ARM GAS  C:\Users\CHRIST~1\AppData\Local\Temp\ccGy5PUQ.s 			page 18


 297              		.loc 1 668 0
 298 003a 354B     		ldr	r3, .L18+32
 299 003c 0022     		mov	r2, #0
 300 003e 1A60     		str	r2, [r3]
 669:Generated_Source\PSoC4/CSD_SensingCSD_LL.c **** 
 670:Generated_Source\PSoC4/CSD_SensingCSD_LL.c ****         /* Connect CMOD to AMUXBUS-A */
 671:Generated_Source\PSoC4/CSD_SensingCSD_LL.c ****         newRegValue = CY_GET_REG32(CSD_CMOD_HSIOM_PTR);
 301              		.loc 1 671 0
 302 0040 344B     		ldr	r3, .L18+36
 303 0042 1B68     		ldr	r3, [r3]
 304 0044 7B60     		str	r3, [r7, #4]
 672:Generated_Source\PSoC4/CSD_SensingCSD_LL.c ****         newRegValue &= (uint32)(~(uint32)CSD_CMOD_HSIOM_MASK);
 305              		.loc 1 672 0
 306 0046 7B68     		ldr	r3, [r7, #4]
 307 0048 334A     		ldr	r2, .L18+40
 308 004a 1340     		and	r3, r2
 309 004c 7B60     		str	r3, [r7, #4]
 673:Generated_Source\PSoC4/CSD_SensingCSD_LL.c ****         newRegValue |= (CSD_HSIOM_SEL_AMUXA << CSD_CMOD_HSIOM_SHIFT);
 310              		.loc 1 673 0
 311 004e 7B68     		ldr	r3, [r7, #4]
 312 0050 C022     		mov	r2, #192
 313 0052 D200     		lsl	r2, r2, #3
 314 0054 1343     		orr	r3, r2
 315 0056 7B60     		str	r3, [r7, #4]
 674:Generated_Source\PSoC4/CSD_SensingCSD_LL.c ****         CY_SET_REG32(CSD_CMOD_HSIOM_PTR, newRegValue);
 316              		.loc 1 674 0
 317 0058 2E4B     		ldr	r3, .L18+36
 318 005a 7A68     		ldr	r2, [r7, #4]
 319 005c 1A60     		str	r2, [r3]
 675:Generated_Source\PSoC4/CSD_SensingCSD_LL.c **** 
 676:Generated_Source\PSoC4/CSD_SensingCSD_LL.c ****         /* Connect AMUXBUS-A to CSDBUS-A */
 677:Generated_Source\PSoC4/CSD_SensingCSD_LL.c ****         newRegValue = CY_GET_REG32(CSD_SW_BYP_SEL_PTR);
 320              		.loc 1 677 0
 321 005e 2F4B     		ldr	r3, .L18+44
 322 0060 1B68     		ldr	r3, [r3]
 323 0062 7B60     		str	r3, [r7, #4]
 678:Generated_Source\PSoC4/CSD_SensingCSD_LL.c ****         newRegValue |= CSD_SW_BYP_SEL_SW_BYA_MASK;
 324              		.loc 1 678 0
 325 0064 7B68     		ldr	r3, [r7, #4]
 326 0066 8022     		mov	r2, #128
 327 0068 5201     		lsl	r2, r2, #5
 328 006a 1343     		orr	r3, r2
 329 006c 7B60     		str	r3, [r7, #4]
 679:Generated_Source\PSoC4/CSD_SensingCSD_LL.c ****         CY_SET_REG32(CSD_SW_BYP_SEL_PTR, newRegValue);
 330              		.loc 1 679 0
 331 006e 2B4B     		ldr	r3, .L18+44
 332 0070 7A68     		ldr	r2, [r7, #4]
 333 0072 1A60     		str	r2, [r3]
 680:Generated_Source\PSoC4/CSD_SensingCSD_LL.c **** 
 681:Generated_Source\PSoC4/CSD_SensingCSD_LL.c ****         /* Connect CMOD to (sense path) to CSDCOMP */
 682:Generated_Source\PSoC4/CSD_SensingCSD_LL.c ****         #if (CSD_CMOD_PAD == CSD_CMOD_CONNECTION)
 683:Generated_Source\PSoC4/CSD_SensingCSD_LL.c ****             CY_SET_REG32(CSD_SW_CMP_P_SEL_PTR, CSD_SW_CMP_P_SEL_SW_SFPM_STATIC_CLOSE);
 334              		.loc 1 683 0
 335 0074 2A4B     		ldr	r3, .L18+48
 336 0076 0122     		mov	r2, #1
 337 0078 1A60     		str	r2, [r3]
 684:Generated_Source\PSoC4/CSD_SensingCSD_LL.c ****         #elif (CSD_CSHIELD_PAD == CSD_CMOD_CONNECTION)
ARM GAS  C:\Users\CHRIST~1\AppData\Local\Temp\ccGy5PUQ.s 			page 19


 685:Generated_Source\PSoC4/CSD_SensingCSD_LL.c ****             CY_SET_REG32(CSD_SW_CMP_P_SEL_PTR, CSD_SW_CMP_P_SEL_SW_SFPS_STATIC_CLOSE);
 686:Generated_Source\PSoC4/CSD_SensingCSD_LL.c ****         #else
 687:Generated_Source\PSoC4/CSD_SensingCSD_LL.c ****             CY_SET_REG32(CSD_SW_CMP_P_SEL_PTR, CSD_SW_CMP_P_SEL_SW_SFPT_STATIC_CLOSE);
 688:Generated_Source\PSoC4/CSD_SensingCSD_LL.c ****         #endif /* (CSD_CMOD_PAD == CSD_CMOD_CONNECTION) */
 689:Generated_Source\PSoC4/CSD_SensingCSD_LL.c **** 
 690:Generated_Source\PSoC4/CSD_SensingCSD_LL.c ****         /* Configure shield driving path */
 691:Generated_Source\PSoC4/CSD_SensingCSD_LL.c ****         #if (CSD_ENABLE == CSD_CSD_SHIELD_EN)
 692:Generated_Source\PSoC4/CSD_SensingCSD_LL.c ****             /* Connect AMUXBUS-B to CSDBUS-B (and AMUXBUS-A to CSDBUS-A ) */
 693:Generated_Source\PSoC4/CSD_SensingCSD_LL.c ****             CY_SET_REG32(CSD_SW_BYP_SEL_PTR, CSD_SW_BYP_SEL_SW_BYA_MASK | CSD_SW_BYP_SEL_SW_BYB_MAS
 694:Generated_Source\PSoC4/CSD_SensingCSD_LL.c **** 
 695:Generated_Source\PSoC4/CSD_SensingCSD_LL.c ****             /* Connect AMUXBUS-B to HSCMP positive input */
 696:Generated_Source\PSoC4/CSD_SensingCSD_LL.c ****             CY_SET_REG32(CSD_SW_HS_P_SEL_PTR, CSD_SW_HS_P_SEL_SW_HMMB_STATIC_CLOSE);
 697:Generated_Source\PSoC4/CSD_SensingCSD_LL.c ****         #endif /* (CSD_ENABLE == CSD_CSD_SHIELD_EN) */
 698:Generated_Source\PSoC4/CSD_SensingCSD_LL.c **** 
 699:Generated_Source\PSoC4/CSD_SensingCSD_LL.c ****         /* Configure VREF */
 700:Generated_Source\PSoC4/CSD_SensingCSD_LL.c ****         #if (CSD_ENABLE == CSD_CSD_IDAC_COMP_EN) && (CSD_ENABLE == CSD_CSD_DEDICATED_IDAC_COMP_EN)
 701:Generated_Source\PSoC4/CSD_SensingCSD_LL.c ****             /* Connect VREF to REFGEN. Connect IDACB to CSDBUSA */
 702:Generated_Source\PSoC4/CSD_SensingCSD_LL.c ****             newRegValue = CY_GET_REG32(CSD_SW_REFGEN_SEL_PTR);
 338              		.loc 1 702 0
 339 007a 2A4B     		ldr	r3, .L18+52
 340 007c 1B68     		ldr	r3, [r3]
 341 007e 7B60     		str	r3, [r7, #4]
 703:Generated_Source\PSoC4/CSD_SensingCSD_LL.c ****             newRegValue |= CSD_SW_REFGEN_SEL_SW_SGR_MASK | CSD_SW_REFGEN_SEL_SW_IAIB_MASK;
 342              		.loc 1 703 0
 343 0080 7B68     		ldr	r3, [r7, #4]
 344 0082 294A     		ldr	r2, .L18+56
 345 0084 1343     		orr	r3, r2
 346 0086 7B60     		str	r3, [r7, #4]
 704:Generated_Source\PSoC4/CSD_SensingCSD_LL.c ****             CY_SET_REG32(CSD_SW_REFGEN_SEL_PTR, newRegValue);
 347              		.loc 1 704 0
 348 0088 264B     		ldr	r3, .L18+52
 349 008a 7A68     		ldr	r2, [r7, #4]
 350 008c 1A60     		str	r2, [r3]
 705:Generated_Source\PSoC4/CSD_SensingCSD_LL.c ****         #else
 706:Generated_Source\PSoC4/CSD_SensingCSD_LL.c ****             /* Connect VREF to REFGEN (IAIB switch is open) */
 707:Generated_Source\PSoC4/CSD_SensingCSD_LL.c ****             newRegValue = CY_GET_REG32(CSD_SW_REFGEN_SEL_PTR);
 708:Generated_Source\PSoC4/CSD_SensingCSD_LL.c ****             newRegValue |= CSD_SW_REFGEN_SEL_SW_SGR_MASK;
 709:Generated_Source\PSoC4/CSD_SensingCSD_LL.c ****             CY_SET_REG32(CSD_SW_REFGEN_SEL_PTR, newRegValue);
 710:Generated_Source\PSoC4/CSD_SensingCSD_LL.c ****         #endif /* (CSD_ENABLE == CSD_CSD_IDAC_COMP_EN) && (CSD_ENABLE == CSD_CSD_DEDICATED_IDAC_COM
 711:Generated_Source\PSoC4/CSD_SensingCSD_LL.c **** 
 712:Generated_Source\PSoC4/CSD_SensingCSD_LL.c ****         #if (CSD_2000_MV > CSD_CYDEV_VDDA_MV)
 713:Generated_Source\PSoC4/CSD_SensingCSD_LL.c **** 
 714:Generated_Source\PSoC4/CSD_SensingCSD_LL.c ****             /* Connect VREFLOW (from AMBUF and RefGen is in bypass mode) to CSDCOMP when Vdda < 2 V
 715:Generated_Source\PSoC4/CSD_SensingCSD_LL.c ****             CY_SET_REG32(CSD_SW_CMP_N_SEL_PTR, CSD_SW_CMP_N_SEL_SW_SCRL_STATIC_CLOSE);
 716:Generated_Source\PSoC4/CSD_SensingCSD_LL.c **** 
 717:Generated_Source\PSoC4/CSD_SensingCSD_LL.c ****             /* Configure REFGEN to BYPASS mode when Vdda < 2 V */
 718:Generated_Source\PSoC4/CSD_SensingCSD_LL.c ****             CY_SET_REG32(CSD_REFGEN_PTR, CSD_REFGEN_REFGEN_EN_MASK |
 719:Generated_Source\PSoC4/CSD_SensingCSD_LL.c ****                                                       CSD_REFGEN_BYPASS_MASK |
 720:Generated_Source\PSoC4/CSD_SensingCSD_LL.c ****                                                       CSD_REFGEN_VREFLO_INT_MASK);
 721:Generated_Source\PSoC4/CSD_SensingCSD_LL.c **** 
 722:Generated_Source\PSoC4/CSD_SensingCSD_LL.c ****             /*  Connect Vrefhi to AMUBUF positive input when Vdaa < 2V
 723:Generated_Source\PSoC4/CSD_SensingCSD_LL.c ****              *  Connect AMUBUF to SCDCMP negative input when Vdaa < 2V
 724:Generated_Source\PSoC4/CSD_SensingCSD_LL.c ****              */
 725:Generated_Source\PSoC4/CSD_SensingCSD_LL.c ****             CY_SET_REG32(CSD_SW_AMUXBUF_SEL_PTR, CSD_SW_AMUXBUF_SEL_SW_IRH_STATIC_CLOSE |
 726:Generated_Source\PSoC4/CSD_SensingCSD_LL.c ****                                                               CSD_SW_AMUXBUF_SEL_SW_IRLB_STATIC_CLO
 727:Generated_Source\PSoC4/CSD_SensingCSD_LL.c **** 
 728:Generated_Source\PSoC4/CSD_SensingCSD_LL.c ****             /* Turn on CSD_AMBUF normal power level when Vdaa < 2V */
ARM GAS  C:\Users\CHRIST~1\AppData\Local\Temp\ccGy5PUQ.s 			page 20


 729:Generated_Source\PSoC4/CSD_SensingCSD_LL.c ****             CY_SET_REG32(CSD_AMBUF_PTR, CSD_AMBUF_PWR_MODE_NORM);
 730:Generated_Source\PSoC4/CSD_SensingCSD_LL.c ****         #else
 731:Generated_Source\PSoC4/CSD_SensingCSD_LL.c **** 
 732:Generated_Source\PSoC4/CSD_SensingCSD_LL.c ****             /* Connect VREFHI (from RefGen) to CSDCOMP when Vdda >= 2 V */
 733:Generated_Source\PSoC4/CSD_SensingCSD_LL.c ****             CY_SET_REG32(CSD_SW_CMP_N_SEL_PTR, CSD_SW_CMP_N_SEL_SW_SCRH_STATIC_CLOSE);
 351              		.loc 1 733 0
 352 008e 274B     		ldr	r3, .L18+60
 353 0090 8022     		mov	r2, #128
 354 0092 5204     		lsl	r2, r2, #17
 355 0094 1A60     		str	r2, [r3]
 734:Generated_Source\PSoC4/CSD_SensingCSD_LL.c **** 
 735:Generated_Source\PSoC4/CSD_SensingCSD_LL.c ****             #if (CSD_ENABLE == CSD_CSD_SHIELD_EN)
 736:Generated_Source\PSoC4/CSD_SensingCSD_LL.c **** 
 737:Generated_Source\PSoC4/CSD_SensingCSD_LL.c ****                 /* Configure REFGEN. Set reference voltage when Vdda >= 2 V */
 738:Generated_Source\PSoC4/CSD_SensingCSD_LL.c ****                 CY_SET_REG32(CSD_REFGEN_PTR, CSD_REFGEN_WITH_SHIELD);
 739:Generated_Source\PSoC4/CSD_SensingCSD_LL.c **** 
 740:Generated_Source\PSoC4/CSD_SensingCSD_LL.c ****                 /* Turn on CSD_AMBUF high power level when Vdaa >= 2V */
 741:Generated_Source\PSoC4/CSD_SensingCSD_LL.c ****                 CY_SET_REG32(CSD_AMBUF_PTR, CSD_AMBUF_PWR_MODE_HI);
 742:Generated_Source\PSoC4/CSD_SensingCSD_LL.c ****             #else
 743:Generated_Source\PSoC4/CSD_SensingCSD_LL.c **** 
 744:Generated_Source\PSoC4/CSD_SensingCSD_LL.c ****                 /* Configure REFGEN. Set reference voltage when Vdda >= 2 V */
 745:Generated_Source\PSoC4/CSD_SensingCSD_LL.c ****                 CY_SET_REG32(CSD_REFGEN_PTR, CSD_REFGEN_NO_SHIELD);
 356              		.loc 1 745 0
 357 0096 264B     		ldr	r3, .L18+64
 358 0098 264A     		ldr	r2, .L18+68
 359 009a 1A60     		str	r2, [r3]
 746:Generated_Source\PSoC4/CSD_SensingCSD_LL.c **** 
 747:Generated_Source\PSoC4/CSD_SensingCSD_LL.c ****                 /* Connect VREFHI to HSCOMP */
 748:Generated_Source\PSoC4/CSD_SensingCSD_LL.c ****                 CY_SET_REG32(CSD_SW_HS_N_SEL_PTR, CSD_SW_HS_N_SEL_SW_HCRH_STATIC_CLOSE);
 360              		.loc 1 748 0
 361 009c 1B4B     		ldr	r3, .L18+28
 362 009e 8022     		mov	r2, #128
 363 00a0 5204     		lsl	r2, r2, #17
 364 00a2 1A60     		str	r2, [r3]
 749:Generated_Source\PSoC4/CSD_SensingCSD_LL.c ****             #endif /* (CSD_ENABLE == CSD_CSD_SHIELD_EN) */
 750:Generated_Source\PSoC4/CSD_SensingCSD_LL.c **** 
 751:Generated_Source\PSoC4/CSD_SensingCSD_LL.c ****             /* Make sure that CSD_AMBUF is unconnected from Vrefhi and from Vreflo */
 752:Generated_Source\PSoC4/CSD_SensingCSD_LL.c ****             CY_SET_REG32(CSD_SW_AMUXBUF_SEL_PTR, CSD_SW_AMUXBUF_SEL_SW_DEFAULT);
 365              		.loc 1 752 0
 366 00a4 244B     		ldr	r3, .L18+72
 367 00a6 254A     		ldr	r2, .L18+76
 368 00a8 1A60     		str	r2, [r3]
 753:Generated_Source\PSoC4/CSD_SensingCSD_LL.c **** 
 754:Generated_Source\PSoC4/CSD_SensingCSD_LL.c ****         #endif /* (CSD_2000_MV > CSD_CYDEV_VDDA_MV) */
 755:Generated_Source\PSoC4/CSD_SensingCSD_LL.c **** 
 756:Generated_Source\PSoC4/CSD_SensingCSD_LL.c ****         /* Configure IDACs mode */
 757:Generated_Source\PSoC4/CSD_SensingCSD_LL.c ****         CSD_SsCSDConfigIDACs();
 369              		.loc 1 757 0
 370 00aa FFF7FEFF 		bl	CSD_SsCSDConfigIDACs
 758:Generated_Source\PSoC4/CSD_SensingCSD_LL.c **** 
 759:Generated_Source\PSoC4/CSD_SensingCSD_LL.c ****         /* Configure ModClk */
 760:Generated_Source\PSoC4/CSD_SensingCSD_LL.c ****         CSD_SsSetModClkClockDivider((uint32)CSD_dsRam.modCsdClk);
 371              		.loc 1 760 0
 372 00ae 244B     		ldr	r3, .L18+80
 373 00b0 1B7E     		ldrb	r3, [r3, #24]
 374 00b2 181C     		mov	r0, r3
 375 00b4 FFF7FEFF 		bl	CSD_SsSetModClkClockDivider
ARM GAS  C:\Users\CHRIST~1\AppData\Local\Temp\ccGy5PUQ.s 			page 21


 761:Generated_Source\PSoC4/CSD_SensingCSD_LL.c **** 
 762:Generated_Source\PSoC4/CSD_SensingCSD_LL.c ****         /* Set other CSD configurations */
 763:Generated_Source\PSoC4/CSD_SensingCSD_LL.c ****         #if (CSD_ENABLE == CSD_CSD_SHIELD_EN)
 764:Generated_Source\PSoC4/CSD_SensingCSD_LL.c ****             CSD_SsSetShieldDelay(CSD_CSD_SHIELD_DELAY);
 765:Generated_Source\PSoC4/CSD_SensingCSD_LL.c ****         #endif /* (CSD_ENABLE == CSD_CSD_SHIELD_EN) */
 766:Generated_Source\PSoC4/CSD_SensingCSD_LL.c **** 
 767:Generated_Source\PSoC4/CSD_SensingCSD_LL.c ****         /* Configure CSDv2 filter delay */
 768:Generated_Source\PSoC4/CSD_SensingCSD_LL.c ****         CSD_SsCSDSetFilterDelay();
 376              		.loc 1 768 0
 377 00b8 FFF7FEFF 		bl	CSD_SsCSDSetFilterDelay
 769:Generated_Source\PSoC4/CSD_SensingCSD_LL.c **** 
 770:Generated_Source\PSoC4/CSD_SensingCSD_LL.c ****         #if (CSD_DISABLE == CSD_BLOCK_OFF_AFTER_SCAN_EN)
 771:Generated_Source\PSoC4/CSD_SensingCSD_LL.c ****             /* Enable power to sub-blocks */
 772:Generated_Source\PSoC4/CSD_SensingCSD_LL.c ****             CY_SET_REG32(CSD_CONFIG_PTR, CSD_configCsd |
 378              		.loc 1 772 0
 379 00bc 214A     		ldr	r2, .L18+84
 380 00be 224B     		ldr	r3, .L18+88
 381 00c0 1B68     		ldr	r3, [r3]
 382 00c2 2249     		ldr	r1, .L18+92
 383 00c4 0B43     		orr	r3, r1
 384 00c6 1360     		str	r3, [r2]
 773:Generated_Source\PSoC4/CSD_SensingCSD_LL.c ****                                                       CSD_CONFIG_SENSE_EN_MASK |
 774:Generated_Source\PSoC4/CSD_SensingCSD_LL.c ****                                                       CSD_CONFIG_ENABLE_MASK);
 775:Generated_Source\PSoC4/CSD_SensingCSD_LL.c **** 
 776:Generated_Source\PSoC4/CSD_SensingCSD_LL.c ****             /*  Wait until CSD block powers ON */
 777:Generated_Source\PSoC4/CSD_SensingCSD_LL.c ****             CyDelayCycles(CSD_CSD_ON_DELAY);
 385              		.loc 1 777 0
 386 00c8 9020     		mov	r0, #144
 387 00ca FFF7FEFF 		bl	CyDelayCycles
 778:Generated_Source\PSoC4/CSD_SensingCSD_LL.c ****         #endif /* (CSD_ENABLE == CSD_BLOCK_OFF_AFTER_SCAN_EN) */
 779:Generated_Source\PSoC4/CSD_SensingCSD_LL.c **** 
 780:Generated_Source\PSoC4/CSD_SensingCSD_LL.c ****         /* Set Csd Auto Zero time (set AZ_TIME bitmask) */
 781:Generated_Source\PSoC4/CSD_SensingCSD_LL.c ****         CY_SET_REG32(CSD_SEQ_TIME_PTR, CSD_CSD_AUTO_ZERO_TIME);
 388              		.loc 1 781 0
 389 00ce 204B     		ldr	r3, .L18+96
 390 00d0 0122     		mov	r2, #1
 391 00d2 1A60     		str	r2, [r3]
 782:Generated_Source\PSoC4/CSD_SensingCSD_LL.c **** 
 783:Generated_Source\PSoC4/CSD_SensingCSD_LL.c ****         /* Select CMOD and Csh_tank/shield initialization switch resistance */
 784:Generated_Source\PSoC4/CSD_SensingCSD_LL.c ****         CY_SET_REG32(CSD_SW_RES_PTR, 0x00000000);
 392              		.loc 1 784 0
 393 00d4 1F4B     		ldr	r3, .L18+100
 394 00d6 0022     		mov	r2, #0
 395 00d8 1A60     		str	r2, [r3]
 785:Generated_Source\PSoC4/CSD_SensingCSD_LL.c **** 
 786:Generated_Source\PSoC4/CSD_SensingCSD_LL.c ****         /* Set the number of dummy fine initialization cycles */
 787:Generated_Source\PSoC4/CSD_SensingCSD_LL.c ****         CY_SET_REG32(CSD_SEQ_INIT_CNT_PTR, CSD_SEQ_INIT_CNT_CONV_CNT_FINE_INIT);
 396              		.loc 1 787 0
 397 00da 1F4B     		ldr	r3, .L18+104
 398 00dc 0422     		mov	r2, #4
 399 00de 1A60     		str	r2, [r3]
 788:Generated_Source\PSoC4/CSD_SensingCSD_LL.c **** 
 789:Generated_Source\PSoC4/CSD_SensingCSD_LL.c ****         /* Set Phi1 and Phi2 switches to non-overlapping (no low EMI)*/
 790:Generated_Source\PSoC4/CSD_SensingCSD_LL.c ****         CY_SET_REG32(CSD_SENSE_DUTY_PTR, CSD_SENSE_DUTY_OVERLAP_PHI1_MASK |
 400              		.loc 1 790 0
 401 00e0 1E4B     		ldr	r3, .L18+108
 402 00e2 C022     		mov	r2, #192
ARM GAS  C:\Users\CHRIST~1\AppData\Local\Temp\ccGy5PUQ.s 			page 22


 403 00e4 1203     		lsl	r2, r2, #12
 404 00e6 1A60     		str	r2, [r3]
 791:Generated_Source\PSoC4/CSD_SensingCSD_LL.c ****                                                       CSD_SENSE_DUTY_OVERLAP_PHI2_MASK);
 792:Generated_Source\PSoC4/CSD_SensingCSD_LL.c ****     #endif /* (CSD_ENABLE == CSD_CSDV2) */
 793:Generated_Source\PSoC4/CSD_SensingCSD_LL.c **** 
 794:Generated_Source\PSoC4/CSD_SensingCSD_LL.c ****     #if (CSD_DISABLE == CSD_CSDV2)
 795:Generated_Source\PSoC4/CSD_SensingCSD_LL.c **** 
 796:Generated_Source\PSoC4/CSD_SensingCSD_LL.c ****         /* Configure IDACs mode */
 797:Generated_Source\PSoC4/CSD_SensingCSD_LL.c ****         CSD_SsCSDConfigIDACs();
 798:Generated_Source\PSoC4/CSD_SensingCSD_LL.c **** 
 799:Generated_Source\PSoC4/CSD_SensingCSD_LL.c ****         /* Connect Cmod to AMUXBUS-A using HSIOM registers */
 800:Generated_Source\PSoC4/CSD_SensingCSD_LL.c ****         newRegValue = CY_GET_REG32(CSD_CMOD_HSIOM_PTR);
 801:Generated_Source\PSoC4/CSD_SensingCSD_LL.c ****         newRegValue &= (uint32)(~(uint32)CSD_CMOD_HSIOM_MASK);
 802:Generated_Source\PSoC4/CSD_SensingCSD_LL.c ****         newRegValue |= (CSD_HSIOM_SEL_AMUXA << CSD_CMOD_HSIOM_SHIFT);
 803:Generated_Source\PSoC4/CSD_SensingCSD_LL.c ****         CY_SET_REG32(CSD_CMOD_HSIOM_PTR, newRegValue);
 804:Generated_Source\PSoC4/CSD_SensingCSD_LL.c **** 
 805:Generated_Source\PSoC4/CSD_SensingCSD_LL.c ****         #if (CSD_ENABLE == CSD_CSD_SHIELD_EN)
 806:Generated_Source\PSoC4/CSD_SensingCSD_LL.c ****             CSD_SsSetShieldDelay(CSD_CSD_SHIELD_DELAY);
 807:Generated_Source\PSoC4/CSD_SensingCSD_LL.c ****         #endif /* (CSD_ENABLE == CSD_CSD_SHIELD_EN) */
 808:Generated_Source\PSoC4/CSD_SensingCSD_LL.c **** 
 809:Generated_Source\PSoC4/CSD_SensingCSD_LL.c ****         /* Enable CSD block. Connect Vref Buffer to AMUX bus to make sure that Cmod is charged befo
 810:Generated_Source\PSoC4/CSD_SensingCSD_LL.c ****         #if (CSD_ENABLE == CSD_BLOCK_OFF_AFTER_SCAN_EN)
 811:Generated_Source\PSoC4/CSD_SensingCSD_LL.c ****             CY_SET_REG32(CSD_CONFIG_PTR, CSD_configCsd);
 812:Generated_Source\PSoC4/CSD_SensingCSD_LL.c ****         #else
 813:Generated_Source\PSoC4/CSD_SensingCSD_LL.c ****             CY_SET_REG32(CSD_CONFIG_PTR, CSD_configCsd | CSD_CTANK_PRECHARGE_CONFIG_CSD_EN);
 814:Generated_Source\PSoC4/CSD_SensingCSD_LL.c ****         #endif /* (CSD_ENABLE == CSD_BLOCK_OFF_AFTER_SCAN_EN) */
 815:Generated_Source\PSoC4/CSD_SensingCSD_LL.c ****     #endif /* (CSD_DISABLE == CSD_CSDV2) */
 816:Generated_Source\PSoC4/CSD_SensingCSD_LL.c **** 
 817:Generated_Source\PSoC4/CSD_SensingCSD_LL.c ****     #if ((CSD_ENABLE == CSD_CSD_COMMON_SNS_CLK_EN) &&\
 818:Generated_Source\PSoC4/CSD_SensingCSD_LL.c ****          (CSD_CLK_SOURCE_DIRECT == CSD_CSD_SNS_CLK_SOURCE))
 819:Generated_Source\PSoC4/CSD_SensingCSD_LL.c ****          /* Set clock dividers and clock source mode */
 820:Generated_Source\PSoC4/CSD_SensingCSD_LL.c ****         CSD_SsCSDConfigClock();
 821:Generated_Source\PSoC4/CSD_SensingCSD_LL.c ****     #endif /* ((CSD_ENABLE == CSD_CSD_COMMON_SNS_CLK_EN) &&\
 822:Generated_Source\PSoC4/CSD_SensingCSD_LL.c ****                (CSD_CLK_SOURCE_DIRECT == CSD_CSD_SNS_CLK_SOURCE)) */
 823:Generated_Source\PSoC4/CSD_SensingCSD_LL.c **** }
 405              		.loc 1 823 0
 406 00e8 BD46     		mov	sp, r7
 407 00ea 02B0     		add	sp, sp, #8
 408              		@ sp needed
 409 00ec 80BD     		pop	{r7, pc}
 410              	.L19:
 411 00ee C046     		.align	2
 412              	.L18:
 413 00f0 F4000C40 		.word	1074528500
 414 00f4 B4020C40 		.word	1074528948
 415 00f8 C0020C40 		.word	1074528960
 416 00fc 20030C40 		.word	1074529056
 417 0100 84010C40 		.word	1074528644
 418 0104 88020C40 		.word	1074528904
 419 0108 80020C40 		.word	1074528896
 420 010c 84020C40 		.word	1074528900
 421 0110 80010C40 		.word	1074528640
 422 0114 00050240 		.word	1073874176
 423 0118 FFF0FFFF 		.word	-3841
 424 011c 94020C40 		.word	1074528916
 425 0120 A0020C40 		.word	1074528928
 426 0124 A8020C40 		.word	1074528936
ARM GAS  C:\Users\CHRIST~1\AppData\Local\Temp\ccGy5PUQ.s 			page 23


 427 0128 01000010 		.word	268435457
 428 012c A4020C40 		.word	1074528932
 429 0130 88010C40 		.word	1074528648
 430 0134 41110000 		.word	4417
 431 0138 90020C40 		.word	1074528912
 432 013c 00000301 		.word	16973824
 433 0140 00000000 		.word	CSD_dsRam
 434 0144 00000C40 		.word	1074528256
 435 0148 00000000 		.word	CSD_configCsd
 436 014c 00100080 		.word	-2147479552
 437 0150 00030C40 		.word	1074529024
 438 0154 F0010C40 		.word	1074528752
 439 0158 10030C40 		.word	1074529040
 440 015c 04020C40 		.word	1074528772
 441              		.cfi_endproc
 442              	.LFE4:
 443              		.size	CSD_SsCSDInitialize, .-CSD_SsCSDInitialize
 444              		.section	.text.CSD_SsCSDElectrodeCheck,"ax",%progbits
 445              		.align	2
 446              		.global	CSD_SsCSDElectrodeCheck
 447              		.code	16
 448              		.thumb_func
 449              		.type	CSD_SsCSDElectrodeCheck, %function
 450              	CSD_SsCSDElectrodeCheck:
 451              	.LFB5:
 824:Generated_Source\PSoC4/CSD_SensingCSD_LL.c **** 
 825:Generated_Source\PSoC4/CSD_SensingCSD_LL.c **** 
 826:Generated_Source\PSoC4/CSD_SensingCSD_LL.c **** /*******************************************************************************
 827:Generated_Source\PSoC4/CSD_SensingCSD_LL.c **** * Function Name: CSD_SsCSDElectrodeCheck
 828:Generated_Source\PSoC4/CSD_SensingCSD_LL.c **** ****************************************************************************//**
 829:Generated_Source\PSoC4/CSD_SensingCSD_LL.c **** *
 830:Generated_Source\PSoC4/CSD_SensingCSD_LL.c **** * \brief
 831:Generated_Source\PSoC4/CSD_SensingCSD_LL.c **** *   Checks if electrodes were previously connected using
 832:Generated_Source\PSoC4/CSD_SensingCSD_LL.c ****  * CSD_CSDSetupWidgetExt() API and if yes disconnects them.
 833:Generated_Source\PSoC4/CSD_SensingCSD_LL.c **** *
 834:Generated_Source\PSoC4/CSD_SensingCSD_LL.c **** * \details
 835:Generated_Source\PSoC4/CSD_SensingCSD_LL.c **** *   This function checks if CSD_eleCsdDisconnectFlag is set.
 836:Generated_Source\PSoC4/CSD_SensingCSD_LL.c **** *   If it set, the function disconnects the previously connected electrode.
 837:Generated_Source\PSoC4/CSD_SensingCSD_LL.c **** *   The previous IO is contained in CSD_curSnsIOPtr and
 838:Generated_Source\PSoC4/CSD_SensingCSD_LL.c **** *   CSD_curFlashSnsPtr contains the previous data for Ganged
 839:Generated_Source\PSoC4/CSD_SensingCSD_LL.c **** *   sensors.
 840:Generated_Source\PSoC4/CSD_SensingCSD_LL.c **** *
 841:Generated_Source\PSoC4/CSD_SensingCSD_LL.c **** *******************************************************************************/
 842:Generated_Source\PSoC4/CSD_SensingCSD_LL.c **** void CSD_SsCSDElectrodeCheck(void)
 843:Generated_Source\PSoC4/CSD_SensingCSD_LL.c **** {
 452              		.loc 1 843 0
 453              		.cfi_startproc
 454 0000 80B5     		push	{r7, lr}
 455              		.cfi_def_cfa_offset 8
 456              		.cfi_offset 7, -8
 457              		.cfi_offset 14, -4
 458 0002 00AF     		add	r7, sp, #0
 459              		.cfi_def_cfa_register 7
 844:Generated_Source\PSoC4/CSD_SensingCSD_LL.c ****     #if (CSD_ENABLE == CSD_CSD_GANGED_SNS_EN)
 845:Generated_Source\PSoC4/CSD_SensingCSD_LL.c ****         uint32 tempVal;
 846:Generated_Source\PSoC4/CSD_SensingCSD_LL.c ****     #endif /* (CSD_ENABLE == CSD_CSD_GANGED_SNS_EN) */
 847:Generated_Source\PSoC4/CSD_SensingCSD_LL.c **** 
ARM GAS  C:\Users\CHRIST~1\AppData\Local\Temp\ccGy5PUQ.s 			page 24


 848:Generated_Source\PSoC4/CSD_SensingCSD_LL.c ****     if (CSD_ENABLE == CSD_eleCsdDisconnectFlag)
 460              		.loc 1 848 0
 461 0004 064B     		ldr	r3, .L22
 462 0006 1B78     		ldrb	r3, [r3]
 463 0008 012B     		cmp	r3, #1
 464 000a 07D1     		bne	.L20
 849:Generated_Source\PSoC4/CSD_SensingCSD_LL.c ****     {
 850:Generated_Source\PSoC4/CSD_SensingCSD_LL.c ****         /* Disconnect if electrodes were previous connected by CSDSetupWidgetExt() API */
 851:Generated_Source\PSoC4/CSD_SensingCSD_LL.c ****         #if (CSD_ENABLE == CSD_CSD_GANGED_SNS_EN)
 852:Generated_Source\PSoC4/CSD_SensingCSD_LL.c ****             /* Check ganged sns flag  */
 853:Generated_Source\PSoC4/CSD_SensingCSD_LL.c ****             if (CSD_GANGED_SNS_MASK == (CSD_curFlashWdgtPtr->staticConfig & CSD_GANGED_SNS_MASK))
 854:Generated_Source\PSoC4/CSD_SensingCSD_LL.c ****             {
 855:Generated_Source\PSoC4/CSD_SensingCSD_LL.c ****                 /* Get number of ganged pins */
 856:Generated_Source\PSoC4/CSD_SensingCSD_LL.c ****                 tempVal = CSD_curFlashSnsPtr->numPins;
 857:Generated_Source\PSoC4/CSD_SensingCSD_LL.c **** 
 858:Generated_Source\PSoC4/CSD_SensingCSD_LL.c ****                 /* Get IO pointer  */
 859:Generated_Source\PSoC4/CSD_SensingCSD_LL.c ****                 CSD_curSnsIOPtr = &CSD_ioList[CSD_curFlashSnsPtr->firstPinId];
 860:Generated_Source\PSoC4/CSD_SensingCSD_LL.c **** 
 861:Generated_Source\PSoC4/CSD_SensingCSD_LL.c ****                 /* Disconnect all ganged sensors */
 862:Generated_Source\PSoC4/CSD_SensingCSD_LL.c ****                 do
 863:Generated_Source\PSoC4/CSD_SensingCSD_LL.c ****                 {
 864:Generated_Source\PSoC4/CSD_SensingCSD_LL.c ****                     CSD_CSDDisconnectSns(CSD_curSnsIOPtr);
 865:Generated_Source\PSoC4/CSD_SensingCSD_LL.c ****                     CSD_curSnsIOPtr++;
 866:Generated_Source\PSoC4/CSD_SensingCSD_LL.c ****                     tempVal--;
 867:Generated_Source\PSoC4/CSD_SensingCSD_LL.c ****                 } while (0u != tempVal);
 868:Generated_Source\PSoC4/CSD_SensingCSD_LL.c ****             }
 869:Generated_Source\PSoC4/CSD_SensingCSD_LL.c ****             else
 870:Generated_Source\PSoC4/CSD_SensingCSD_LL.c ****             {
 871:Generated_Source\PSoC4/CSD_SensingCSD_LL.c ****                 /* Disconnect ganged sensor */
 872:Generated_Source\PSoC4/CSD_SensingCSD_LL.c ****                 CSD_CSDDisconnectSns(CSD_curSnsIOPtr);
 873:Generated_Source\PSoC4/CSD_SensingCSD_LL.c ****             }
 874:Generated_Source\PSoC4/CSD_SensingCSD_LL.c ****         #else
 875:Generated_Source\PSoC4/CSD_SensingCSD_LL.c ****             /* Disable sensor */
 876:Generated_Source\PSoC4/CSD_SensingCSD_LL.c ****             CSD_CSDDisconnectSns(CSD_curSnsIOPtr);
 465              		.loc 1 876 0
 466 000c 054B     		ldr	r3, .L22+4
 467 000e 1B68     		ldr	r3, [r3]
 468 0010 181C     		mov	r0, r3
 469 0012 FFF7FEFF 		bl	CSD_CSDDisconnectSns
 877:Generated_Source\PSoC4/CSD_SensingCSD_LL.c ****         #endif /* (CSD_ENABLE == CSD_CSD_GANGED_SNS_EN)  */
 878:Generated_Source\PSoC4/CSD_SensingCSD_LL.c **** 
 879:Generated_Source\PSoC4/CSD_SensingCSD_LL.c ****         CSD_eleCsdDisconnectFlag = 0u;
 470              		.loc 1 879 0
 471 0016 024B     		ldr	r3, .L22
 472 0018 0022     		mov	r2, #0
 473 001a 1A70     		strb	r2, [r3]
 474              	.L20:
 880:Generated_Source\PSoC4/CSD_SensingCSD_LL.c ****     }
 881:Generated_Source\PSoC4/CSD_SensingCSD_LL.c **** }
 475              		.loc 1 881 0
 476 001c BD46     		mov	sp, r7
 477              		@ sp needed
 478 001e 80BD     		pop	{r7, pc}
 479              	.L23:
 480              		.align	2
 481              	.L22:
 482 0020 04000000 		.word	CSD_eleCsdDisconnectFlag
ARM GAS  C:\Users\CHRIST~1\AppData\Local\Temp\ccGy5PUQ.s 			page 25


 483 0024 00000000 		.word	CSD_curSnsIOPtr
 484              		.cfi_endproc
 485              	.LFE5:
 486              		.size	CSD_SsCSDElectrodeCheck, .-CSD_SsCSDElectrodeCheck
 487              		.section	.text.CSD_SsCSDSetUpIdacs,"ax",%progbits
 488              		.align	2
 489              		.global	CSD_SsCSDSetUpIdacs
 490              		.code	16
 491              		.thumb_func
 492              		.type	CSD_SsCSDSetUpIdacs, %function
 493              	CSD_SsCSDSetUpIdacs:
 494              	.LFB6:
 882:Generated_Source\PSoC4/CSD_SensingCSD_LL.c **** 
 883:Generated_Source\PSoC4/CSD_SensingCSD_LL.c **** 
 884:Generated_Source\PSoC4/CSD_SensingCSD_LL.c **** /*******************************************************************************
 885:Generated_Source\PSoC4/CSD_SensingCSD_LL.c **** * Function Name: CSD_SsCSDSetUpIdacs
 886:Generated_Source\PSoC4/CSD_SensingCSD_LL.c **** ****************************************************************************//**
 887:Generated_Source\PSoC4/CSD_SensingCSD_LL.c **** *
 888:Generated_Source\PSoC4/CSD_SensingCSD_LL.c **** * \brief
 889:Generated_Source\PSoC4/CSD_SensingCSD_LL.c **** *  This internal function changes the IDACs values.
 890:Generated_Source\PSoC4/CSD_SensingCSD_LL.c **** *
 891:Generated_Source\PSoC4/CSD_SensingCSD_LL.c **** * \details
 892:Generated_Source\PSoC4/CSD_SensingCSD_LL.c **** *  If Compensation IDAC is enabled, it updates two IDACs.
 893:Generated_Source\PSoC4/CSD_SensingCSD_LL.c **** *  The Modulator IDAC is common for all the sensors of the widget.
 894:Generated_Source\PSoC4/CSD_SensingCSD_LL.c **** *  The Compensation IDAC is updated for the sensor of the widget which
 895:Generated_Source\PSoC4/CSD_SensingCSD_LL.c **** *  is available in the RAM_SNS_STRUCT structure.
 896:Generated_Source\PSoC4/CSD_SensingCSD_LL.c **** *  If the Compensation IDAC is disabled, the function updates the Modulator IDAC
 897:Generated_Source\PSoC4/CSD_SensingCSD_LL.c **** *  value only in the RAM_WD_BASE_STRUCT structure.
 898:Generated_Source\PSoC4/CSD_SensingCSD_LL.c **** *
 899:Generated_Source\PSoC4/CSD_SensingCSD_LL.c **** * \param
 900:Generated_Source\PSoC4/CSD_SensingCSD_LL.c **** *  ptrWdgt The pointer to the RAM_WD_BASE_STRUCT structure.
 901:Generated_Source\PSoC4/CSD_SensingCSD_LL.c **** *
 902:Generated_Source\PSoC4/CSD_SensingCSD_LL.c **** *******************************************************************************/
 903:Generated_Source\PSoC4/CSD_SensingCSD_LL.c **** void CSD_SsCSDSetUpIdacs(CSD_RAM_WD_BASE_STRUCT const *ptrWdgt)
 904:Generated_Source\PSoC4/CSD_SensingCSD_LL.c **** {
 495              		.loc 1 904 0
 496              		.cfi_startproc
 497 0000 90B5     		push	{r4, r7, lr}
 498              		.cfi_def_cfa_offset 12
 499              		.cfi_offset 4, -12
 500              		.cfi_offset 7, -8
 501              		.cfi_offset 14, -4
 502 0002 87B0     		sub	sp, sp, #28
 503              		.cfi_def_cfa_offset 40
 504 0004 00AF     		add	r7, sp, #0
 505              		.cfi_def_cfa_register 7
 506 0006 7860     		str	r0, [r7, #4]
 905:Generated_Source\PSoC4/CSD_SensingCSD_LL.c **** 
 906:Generated_Source\PSoC4/CSD_SensingCSD_LL.c ****     uint8 interruptState;
 907:Generated_Source\PSoC4/CSD_SensingCSD_LL.c **** 
 908:Generated_Source\PSoC4/CSD_SensingCSD_LL.c **** #if (CSD_ENABLE == CSD_CSDV2)
 909:Generated_Source\PSoC4/CSD_SensingCSD_LL.c ****     uint32 idacARegValue;
 910:Generated_Source\PSoC4/CSD_SensingCSD_LL.c ****     #if ((CSD_ENABLE == CSD_CSD_IDAC_COMP_EN) && \
 911:Generated_Source\PSoC4/CSD_SensingCSD_LL.c ****          (CSD_ENABLE == CSD_CSD_DEDICATED_IDAC_COMP_EN))
 912:Generated_Source\PSoC4/CSD_SensingCSD_LL.c ****         uint32 idacBRegValue;
 913:Generated_Source\PSoC4/CSD_SensingCSD_LL.c ****     #endif /* ((CSD_ENABLE == CSD_CSD_IDAC_COMP_EN) && \
 914:Generated_Source\PSoC4/CSD_SensingCSD_LL.c ****                (CSD_ENABLE == CSD_CSD_DEDICATED_IDAC_COMP_EN)) */
ARM GAS  C:\Users\CHRIST~1\AppData\Local\Temp\ccGy5PUQ.s 			page 26


 915:Generated_Source\PSoC4/CSD_SensingCSD_LL.c **** 
 916:Generated_Source\PSoC4/CSD_SensingCSD_LL.c ****     interruptState = CyEnterCriticalSection();
 507              		.loc 1 916 0
 508 0008 1723     		mov	r3, #23
 509 000a FC18     		add	r4, r7, r3
 510 000c FFF7FEFF 		bl	CyEnterCriticalSection
 511 0010 031C     		mov	r3, r0
 512 0012 2370     		strb	r3, [r4]
 917:Generated_Source\PSoC4/CSD_SensingCSD_LL.c **** 
 918:Generated_Source\PSoC4/CSD_SensingCSD_LL.c ****     /* Get IDACA Value */
 919:Generated_Source\PSoC4/CSD_SensingCSD_LL.c ****     idacARegValue = CY_GET_REG32(CSD_IDAC_MOD_PTR);
 513              		.loc 1 919 0
 514 0014 184B     		ldr	r3, .L25
 515 0016 1B68     		ldr	r3, [r3]
 516 0018 3B61     		str	r3, [r7, #16]
 920:Generated_Source\PSoC4/CSD_SensingCSD_LL.c **** 
 921:Generated_Source\PSoC4/CSD_SensingCSD_LL.c ****     /* Set IDACA Value mask */
 922:Generated_Source\PSoC4/CSD_SensingCSD_LL.c ****     idacARegValue &= ~(CSD_IDAC_MOD_VAL_MASK);
 517              		.loc 1 922 0
 518 001a 3B69     		ldr	r3, [r7, #16]
 519 001c 7F22     		mov	r2, #127
 520 001e 9343     		bic	r3, r2
 521 0020 3B61     		str	r3, [r7, #16]
 923:Generated_Source\PSoC4/CSD_SensingCSD_LL.c **** 
 924:Generated_Source\PSoC4/CSD_SensingCSD_LL.c ****     /* Set IDACA value */
 925:Generated_Source\PSoC4/CSD_SensingCSD_LL.c ****     #if (CSD_CSD_MATRIX_WIDGET_EN | CSD_CSD_TOUCHPAD_WIDGET_EN)
 926:Generated_Source\PSoC4/CSD_SensingCSD_LL.c ****         if (CSD_dsFlash.wdgtArray[(CSD_widgetIndex)].numCols <= CSD_sensorIndex)
 927:Generated_Source\PSoC4/CSD_SensingCSD_LL.c ****         {
 928:Generated_Source\PSoC4/CSD_SensingCSD_LL.c ****             idacARegValue |= (uint32)ptrWdgt->rowIdacMod[CSD_scanFreqIndex];
 929:Generated_Source\PSoC4/CSD_SensingCSD_LL.c ****         }
 930:Generated_Source\PSoC4/CSD_SensingCSD_LL.c ****         else
 931:Generated_Source\PSoC4/CSD_SensingCSD_LL.c ****         {
 932:Generated_Source\PSoC4/CSD_SensingCSD_LL.c ****             idacARegValue |= (uint32)ptrWdgt->idacMod[CSD_scanFreqIndex];
 933:Generated_Source\PSoC4/CSD_SensingCSD_LL.c ****         }
 934:Generated_Source\PSoC4/CSD_SensingCSD_LL.c ****     #else
 935:Generated_Source\PSoC4/CSD_SensingCSD_LL.c ****         idacARegValue |= (uint32)ptrWdgt->idacMod[CSD_scanFreqIndex];
 522              		.loc 1 935 0
 523 0022 164B     		ldr	r3, .L25+4
 524 0024 1B78     		ldrb	r3, [r3]
 525 0026 1A1C     		mov	r2, r3
 526 0028 7B68     		ldr	r3, [r7, #4]
 527 002a 9B18     		add	r3, r3, r2
 528 002c 9B7A     		ldrb	r3, [r3, #10]
 529 002e 1A1C     		mov	r2, r3
 530 0030 3B69     		ldr	r3, [r7, #16]
 531 0032 1343     		orr	r3, r2
 532 0034 3B61     		str	r3, [r7, #16]
 936:Generated_Source\PSoC4/CSD_SensingCSD_LL.c ****     #endif /* (CSD_CSD_MATRIX_WIDGET_EN | CSD_CSD_TOUCHPAD_WIDGET_EN) */
 937:Generated_Source\PSoC4/CSD_SensingCSD_LL.c **** 
 938:Generated_Source\PSoC4/CSD_SensingCSD_LL.c ****     /* Update IDACA register with new value */
 939:Generated_Source\PSoC4/CSD_SensingCSD_LL.c ****     CY_SET_REG32(CSD_IDAC_MOD_PTR, idacARegValue);
 533              		.loc 1 939 0
 534 0036 104B     		ldr	r3, .L25
 535 0038 3A69     		ldr	r2, [r7, #16]
 536 003a 1A60     		str	r2, [r3]
 940:Generated_Source\PSoC4/CSD_SensingCSD_LL.c **** 
 941:Generated_Source\PSoC4/CSD_SensingCSD_LL.c ****     #if ((CSD_ENABLE == CSD_CSD_IDAC_COMP_EN) && \
ARM GAS  C:\Users\CHRIST~1\AppData\Local\Temp\ccGy5PUQ.s 			page 27


 942:Generated_Source\PSoC4/CSD_SensingCSD_LL.c ****          (CSD_ENABLE == CSD_CSD_DEDICATED_IDAC_COMP_EN))
 943:Generated_Source\PSoC4/CSD_SensingCSD_LL.c ****         /* Get IDACB Value */
 944:Generated_Source\PSoC4/CSD_SensingCSD_LL.c ****         idacBRegValue = CY_GET_REG32(CSD_IDAC_COMP_PTR);
 537              		.loc 1 944 0
 538 003c 104B     		ldr	r3, .L25+8
 539 003e 1B68     		ldr	r3, [r3]
 540 0040 FB60     		str	r3, [r7, #12]
 945:Generated_Source\PSoC4/CSD_SensingCSD_LL.c **** 
 946:Generated_Source\PSoC4/CSD_SensingCSD_LL.c ****         /* Set IDACB Value mask */
 947:Generated_Source\PSoC4/CSD_SensingCSD_LL.c ****         idacBRegValue &= ~(CSD_IDAC_COMP_VAL_MASK);
 541              		.loc 1 947 0
 542 0042 FB68     		ldr	r3, [r7, #12]
 543 0044 7F22     		mov	r2, #127
 544 0046 9343     		bic	r3, r2
 545 0048 FB60     		str	r3, [r7, #12]
 948:Generated_Source\PSoC4/CSD_SensingCSD_LL.c **** 
 949:Generated_Source\PSoC4/CSD_SensingCSD_LL.c ****         /* Set IDACB value */
 950:Generated_Source\PSoC4/CSD_SensingCSD_LL.c ****         idacBRegValue |= (uint32)CSD_curRamSnsPtr->idacComp[CSD_scanFreqIndex];
 546              		.loc 1 950 0
 547 004a 0E4B     		ldr	r3, .L25+12
 548 004c 1B68     		ldr	r3, [r3]
 549 004e 0B4A     		ldr	r2, .L25+4
 550 0050 1278     		ldrb	r2, [r2]
 551 0052 9B18     		add	r3, r3, r2
 552 0054 5B79     		ldrb	r3, [r3, #5]
 553 0056 1A1C     		mov	r2, r3
 554 0058 FB68     		ldr	r3, [r7, #12]
 555 005a 1343     		orr	r3, r2
 556 005c FB60     		str	r3, [r7, #12]
 951:Generated_Source\PSoC4/CSD_SensingCSD_LL.c **** 
 952:Generated_Source\PSoC4/CSD_SensingCSD_LL.c ****         /* Update IDACA register with new value */
 953:Generated_Source\PSoC4/CSD_SensingCSD_LL.c ****         CY_SET_REG32(CSD_IDAC_COMP_PTR, idacBRegValue);
 557              		.loc 1 953 0
 558 005e 084B     		ldr	r3, .L25+8
 559 0060 FA68     		ldr	r2, [r7, #12]
 560 0062 1A60     		str	r2, [r3]
 954:Generated_Source\PSoC4/CSD_SensingCSD_LL.c ****     #endif /* ((CSD_ENABLE == CSD_CSD_IDAC_COMP_EN) && \
 955:Generated_Source\PSoC4/CSD_SensingCSD_LL.c ****                (CSD_ENABLE == CSD_CSD_DEDICATED_IDAC_COMP_EN)) */
 956:Generated_Source\PSoC4/CSD_SensingCSD_LL.c **** 
 957:Generated_Source\PSoC4/CSD_SensingCSD_LL.c ****     CyExitCriticalSection(interruptState);
 561              		.loc 1 957 0
 562 0064 1723     		mov	r3, #23
 563 0066 FB18     		add	r3, r7, r3
 564 0068 1B78     		ldrb	r3, [r3]
 565 006a 181C     		mov	r0, r3
 566 006c FFF7FEFF 		bl	CyExitCriticalSection
 958:Generated_Source\PSoC4/CSD_SensingCSD_LL.c **** 
 959:Generated_Source\PSoC4/CSD_SensingCSD_LL.c **** #else
 960:Generated_Source\PSoC4/CSD_SensingCSD_LL.c **** 
 961:Generated_Source\PSoC4/CSD_SensingCSD_LL.c ****     uint32 newRegValue;
 962:Generated_Source\PSoC4/CSD_SensingCSD_LL.c ****     uint8 const *ptrIdacMod = ptrWdgt->idacMod;
 963:Generated_Source\PSoC4/CSD_SensingCSD_LL.c **** 
 964:Generated_Source\PSoC4/CSD_SensingCSD_LL.c ****     #if (CSD_CSD_MATRIX_WIDGET_EN  | CSD_CSD_TOUCHPAD_WIDGET_EN)
 965:Generated_Source\PSoC4/CSD_SensingCSD_LL.c ****         if (CSD_dsFlash.wdgtArray[(CSD_widgetIndex)].numCols <= CSD_sensorIndex)
 966:Generated_Source\PSoC4/CSD_SensingCSD_LL.c ****         {
 967:Generated_Source\PSoC4/CSD_SensingCSD_LL.c ****             ptrIdacMod = &ptrWdgt->rowIdacMod[0u];
 968:Generated_Source\PSoC4/CSD_SensingCSD_LL.c ****         }
ARM GAS  C:\Users\CHRIST~1\AppData\Local\Temp\ccGy5PUQ.s 			page 28


 969:Generated_Source\PSoC4/CSD_SensingCSD_LL.c ****     #endif /* (CSD_CSD_MATRIX_WIDGET_EN  | CSD_CSD_TOUCHPAD_WIDGET_EN) */
 970:Generated_Source\PSoC4/CSD_SensingCSD_LL.c **** 
 971:Generated_Source\PSoC4/CSD_SensingCSD_LL.c ****     interruptState = CyEnterCriticalSection();
 972:Generated_Source\PSoC4/CSD_SensingCSD_LL.c **** 
 973:Generated_Source\PSoC4/CSD_SensingCSD_LL.c ****     /* Get Idac Value */
 974:Generated_Source\PSoC4/CSD_SensingCSD_LL.c ****     newRegValue = CY_GET_REG32(CSD_IDAC_PTR);
 975:Generated_Source\PSoC4/CSD_SensingCSD_LL.c **** 
 976:Generated_Source\PSoC4/CSD_SensingCSD_LL.c ****     /* Set Idac Value mask */
 977:Generated_Source\PSoC4/CSD_SensingCSD_LL.c ****     #if (CSD_ENABLE == CSD_CSD_IDAC_COMP_EN)
 978:Generated_Source\PSoC4/CSD_SensingCSD_LL.c ****         newRegValue &= ~(CSD_IDAC_MOD_MASK | CSD_IDAC_COMP_MASK);
 979:Generated_Source\PSoC4/CSD_SensingCSD_LL.c ****     #else
 980:Generated_Source\PSoC4/CSD_SensingCSD_LL.c ****         newRegValue &= ~(CSD_IDAC_MOD_MASK);
 981:Generated_Source\PSoC4/CSD_SensingCSD_LL.c ****     #endif /* (CSD_ENABLE == CSD_CSD_IDAC_COMP_EN) */
 982:Generated_Source\PSoC4/CSD_SensingCSD_LL.c **** 
 983:Generated_Source\PSoC4/CSD_SensingCSD_LL.c ****     /* Set Idac value */
 984:Generated_Source\PSoC4/CSD_SensingCSD_LL.c ****     #if (CSD_ENABLE == CSD_CSD_IDAC_COMP_EN)
 985:Generated_Source\PSoC4/CSD_SensingCSD_LL.c ****         newRegValue |= (ptrIdacMod[CSD_scanFreqIndex] |
 986:Generated_Source\PSoC4/CSD_SensingCSD_LL.c ****                        (uint32)((uint32)CSD_curRamSnsPtr->idacComp[CSD_scanFreqIndex] <<
 987:Generated_Source\PSoC4/CSD_SensingCSD_LL.c ****                        CSD_IDAC_COMP_DATA_OFFSET));
 988:Generated_Source\PSoC4/CSD_SensingCSD_LL.c ****     #else
 989:Generated_Source\PSoC4/CSD_SensingCSD_LL.c ****         newRegValue |= ptrIdacMod[CSD_scanFreqIndex];
 990:Generated_Source\PSoC4/CSD_SensingCSD_LL.c ****     #endif /* (CSD_ENABLE == CSD_CSD_IDAC_COMP_EN) */
 991:Generated_Source\PSoC4/CSD_SensingCSD_LL.c ****     CY_SET_REG32(CSD_IDAC_PTR, newRegValue);
 992:Generated_Source\PSoC4/CSD_SensingCSD_LL.c **** 
 993:Generated_Source\PSoC4/CSD_SensingCSD_LL.c ****     CyExitCriticalSection(interruptState);
 994:Generated_Source\PSoC4/CSD_SensingCSD_LL.c **** 
 995:Generated_Source\PSoC4/CSD_SensingCSD_LL.c **** #endif /* (CSD_ENABLE == CSD_CSDV2) */
 996:Generated_Source\PSoC4/CSD_SensingCSD_LL.c **** }
 567              		.loc 1 996 0
 568 0070 BD46     		mov	sp, r7
 569 0072 07B0     		add	sp, sp, #28
 570              		@ sp needed
 571 0074 90BD     		pop	{r4, r7, pc}
 572              	.L26:
 573 0076 C046     		.align	2
 574              	.L25:
 575 0078 C0010C40 		.word	1074528704
 576 007c 00000000 		.word	CSD_scanFreqIndex
 577 0080 C4010C40 		.word	1074528708
 578 0084 00000000 		.word	CSD_curRamSnsPtr
 579              		.cfi_endproc
 580              	.LFE6:
 581              		.size	CSD_SsCSDSetUpIdacs, .-CSD_SsCSDSetUpIdacs
 582              		.section	.text.CSD_SsCSDGetNumberOfConversions,"ax",%progbits
 583              		.align	2
 584              		.global	CSD_SsCSDGetNumberOfConversions
 585              		.code	16
 586              		.thumb_func
 587              		.type	CSD_SsCSDGetNumberOfConversions, %function
 588              	CSD_SsCSDGetNumberOfConversions:
 589              	.LFB7:
 997:Generated_Source\PSoC4/CSD_SensingCSD_LL.c **** 
 998:Generated_Source\PSoC4/CSD_SensingCSD_LL.c **** 
 999:Generated_Source\PSoC4/CSD_SensingCSD_LL.c **** #if (CSD_ENABLE == CSD_CSDV2)
1000:Generated_Source\PSoC4/CSD_SensingCSD_LL.c ****     /*******************************************************************************
1001:Generated_Source\PSoC4/CSD_SensingCSD_LL.c ****     * Function Name: CSD_SsCSDGetNumberOfConversions
1002:Generated_Source\PSoC4/CSD_SensingCSD_LL.c ****     ****************************************************************************//**
ARM GAS  C:\Users\CHRIST~1\AppData\Local\Temp\ccGy5PUQ.s 			page 29


1003:Generated_Source\PSoC4/CSD_SensingCSD_LL.c ****     *
1004:Generated_Source\PSoC4/CSD_SensingCSD_LL.c ****     * \brief
1005:Generated_Source\PSoC4/CSD_SensingCSD_LL.c ****     *  This function gets Number of conversions.
1006:Generated_Source\PSoC4/CSD_SensingCSD_LL.c ****     *
1007:Generated_Source\PSoC4/CSD_SensingCSD_LL.c ****     * \details
1008:Generated_Source\PSoC4/CSD_SensingCSD_LL.c ****     *  This function gets Number of conversions using foll.owing equation:
1009:Generated_Source\PSoC4/CSD_SensingCSD_LL.c ****     *   conversionsNum = (2^resolution - 1) / snsClkDivider.
1010:Generated_Source\PSoC4/CSD_SensingCSD_LL.c ****     *
1011:Generated_Source\PSoC4/CSD_SensingCSD_LL.c ****     * \param
1012:Generated_Source\PSoC4/CSD_SensingCSD_LL.c ****     *  snsClkDivider The divider value for the sense clock.
1013:Generated_Source\PSoC4/CSD_SensingCSD_LL.c ****     *  resolution The widget resolution.
1014:Generated_Source\PSoC4/CSD_SensingCSD_LL.c ****     *
1015:Generated_Source\PSoC4/CSD_SensingCSD_LL.c ****     * \return Returns the Number of conversions.
1016:Generated_Source\PSoC4/CSD_SensingCSD_LL.c ****     *
1017:Generated_Source\PSoC4/CSD_SensingCSD_LL.c ****     *******************************************************************************/
1018:Generated_Source\PSoC4/CSD_SensingCSD_LL.c ****     uint32 CSD_SsCSDGetNumberOfConversions(uint32 snsClkDivider, uint32 resolution)
1019:Generated_Source\PSoC4/CSD_SensingCSD_LL.c ****     {
 590              		.loc 1 1019 0
 591              		.cfi_startproc
 592 0000 80B5     		push	{r7, lr}
 593              		.cfi_def_cfa_offset 8
 594              		.cfi_offset 7, -8
 595              		.cfi_offset 14, -4
 596 0002 84B0     		sub	sp, sp, #16
 597              		.cfi_def_cfa_offset 24
 598 0004 00AF     		add	r7, sp, #0
 599              		.cfi_def_cfa_register 7
 600 0006 7860     		str	r0, [r7, #4]
 601 0008 3960     		str	r1, [r7]
1020:Generated_Source\PSoC4/CSD_SensingCSD_LL.c ****         uint32 conversionsNum;
1021:Generated_Source\PSoC4/CSD_SensingCSD_LL.c ****         #if ((CSD_MOD_CSD_CLK_12MHZ < CYDEV_BCLK__HFCLK__HZ) && (CSD_ENABLE != CSD_CSDV2_REF9P6UA_E
1022:Generated_Source\PSoC4/CSD_SensingCSD_LL.c ****             uint32 sampleClkFreqHz;
1023:Generated_Source\PSoC4/CSD_SensingCSD_LL.c ****         #endif /* ((CSD_MOD_CSD_CLK_12MHZ < CYDEV_BCLK__HFCLK__HZ) && (CSD_ENABLE != CSD_CSDV2_REF9
1024:Generated_Source\PSoC4/CSD_SensingCSD_LL.c ****         #if (CSD_CLK_SOURCE_PRSAUTO == CSD_CSD_SNS_CLK_SOURCE)
1025:Generated_Source\PSoC4/CSD_SensingCSD_LL.c ****             uint32 sourceSenseClk;
1026:Generated_Source\PSoC4/CSD_SensingCSD_LL.c ****         #endif /* (CSD_CLK_SOURCE_PRSAUTO == CSD_CSD_SNS_CLK_SOURCE) */
1027:Generated_Source\PSoC4/CSD_SensingCSD_LL.c **** 
1028:Generated_Source\PSoC4/CSD_SensingCSD_LL.c ****         #if (CSD_CLK_SOURCE_PRSAUTO == CSD_CSD_SNS_CLK_SOURCE)
1029:Generated_Source\PSoC4/CSD_SensingCSD_LL.c ****             CSD_RAM_WD_BASE_STRUCT *ptrWdgt = (CSD_RAM_WD_BASE_STRUCT *)
1030:Generated_Source\PSoC4/CSD_SensingCSD_LL.c ****                                                         CSD_dsFlash.wdgtArray[CSD_widgetIndex].ptr2
1031:Generated_Source\PSoC4/CSD_SensingCSD_LL.c ****         #endif /* (CSD_CLK_SOURCE_PRSAUTO == CSD_CSD_SNS_CLK_SOURCE) */
1032:Generated_Source\PSoC4/CSD_SensingCSD_LL.c **** 
1033:Generated_Source\PSoC4/CSD_SensingCSD_LL.c ****         /* Calculate scanning resolution value in register */
1034:Generated_Source\PSoC4/CSD_SensingCSD_LL.c ****         conversionsNum = (uint32)((1uL << resolution) - 1uL);
 602              		.loc 1 1034 0
 603 000a 3B68     		ldr	r3, [r7]
 604 000c 0122     		mov	r2, #1
 605 000e 9A40     		lsl	r2, r2, r3
 606 0010 131C     		mov	r3, r2
 607 0012 013B     		sub	r3, r3, #1
 608 0014 FB60     		str	r3, [r7, #12]
1035:Generated_Source\PSoC4/CSD_SensingCSD_LL.c **** 
1036:Generated_Source\PSoC4/CSD_SensingCSD_LL.c ****         #if(CSD_ENABLE != CSD_CSDV2_REF9P6UA_EN)
1037:Generated_Source\PSoC4/CSD_SensingCSD_LL.c ****             /* Apply correction to oveflow for 16 bit resolution */
1038:Generated_Source\PSoC4/CSD_SensingCSD_LL.c ****             if (CSD_RES16BIT == resolution)
 609              		.loc 1 1038 0
 610 0016 3B68     		ldr	r3, [r7]
ARM GAS  C:\Users\CHRIST~1\AppData\Local\Temp\ccGy5PUQ.s 			page 30


 611 0018 102B     		cmp	r3, #16
 612 001a 20D1     		bne	.L28
1039:Generated_Source\PSoC4/CSD_SensingCSD_LL.c ****             {
1040:Generated_Source\PSoC4/CSD_SensingCSD_LL.c ****                 conversionsNum -= ((snsClkDivider + 1u) >> 1u);
 613              		.loc 1 1040 0
 614 001c 7B68     		ldr	r3, [r7, #4]
 615 001e 0133     		add	r3, r3, #1
 616 0020 5B08     		lsr	r3, r3, #1
 617 0022 FA68     		ldr	r2, [r7, #12]
 618 0024 D31A     		sub	r3, r2, r3
 619 0026 FB60     		str	r3, [r7, #12]
1041:Generated_Source\PSoC4/CSD_SensingCSD_LL.c **** 
1042:Generated_Source\PSoC4/CSD_SensingCSD_LL.c ****                 #if (CSD_MOD_CSD_CLK_12MHZ < CYDEV_BCLK__HFCLK__HZ)
1043:Generated_Source\PSoC4/CSD_SensingCSD_LL.c ****                     sampleClkFreqHz = CYDEV_BCLK__HFCLK__HZ / (uint32)CSD_dsRam.modCsdClk;
 620              		.loc 1 1043 0
 621 0028 144B     		ldr	r3, .L33
 622 002a 1B7E     		ldrb	r3, [r3, #24]
 623 002c 1448     		ldr	r0, .L33+4
 624 002e 191C     		mov	r1, r3
 625 0030 FFF7FEFF 		bl	__aeabi_uidiv
 626 0034 031C     		mov	r3, r0
 627 0036 BB60     		str	r3, [r7, #8]
1044:Generated_Source\PSoC4/CSD_SensingCSD_LL.c **** 
1045:Generated_Source\PSoC4/CSD_SensingCSD_LL.c ****                     if (sampleClkFreqHz <= CSD_MOD_CSD_CLK_12MHZ)
 628              		.loc 1 1045 0
 629 0038 BB68     		ldr	r3, [r7, #8]
 630 003a 124A     		ldr	r2, .L33+8
 631 003c 9342     		cmp	r3, r2
 632 003e 03D8     		bhi	.L29
1046:Generated_Source\PSoC4/CSD_SensingCSD_LL.c ****                     {
1047:Generated_Source\PSoC4/CSD_SensingCSD_LL.c ****                         conversionsNum -= CSD_CONFIG_FILTER_DELAY_2_CYCLES;
 633              		.loc 1 1047 0
 634 0040 FB68     		ldr	r3, [r7, #12]
 635 0042 023B     		sub	r3, r3, #2
 636 0044 FB60     		str	r3, [r7, #12]
 637 0046 0AE0     		b	.L28
 638              	.L29:
1048:Generated_Source\PSoC4/CSD_SensingCSD_LL.c ****                     }
1049:Generated_Source\PSoC4/CSD_SensingCSD_LL.c ****                     else if (sampleClkFreqHz <= CSD_MOD_CSD_CLK_24MHZ)
 639              		.loc 1 1049 0
 640 0048 BB68     		ldr	r3, [r7, #8]
 641 004a 0F4A     		ldr	r2, .L33+12
 642 004c 9342     		cmp	r3, r2
 643 004e 03D8     		bhi	.L30
1050:Generated_Source\PSoC4/CSD_SensingCSD_LL.c ****                     {
1051:Generated_Source\PSoC4/CSD_SensingCSD_LL.c ****                         conversionsNum -= CSD_CONFIG_FILTER_DELAY_3_CYCLES;
 644              		.loc 1 1051 0
 645 0050 FB68     		ldr	r3, [r7, #12]
 646 0052 033B     		sub	r3, r3, #3
 647 0054 FB60     		str	r3, [r7, #12]
 648 0056 02E0     		b	.L28
 649              	.L30:
1052:Generated_Source\PSoC4/CSD_SensingCSD_LL.c ****                     }
1053:Generated_Source\PSoC4/CSD_SensingCSD_LL.c ****                     else
1054:Generated_Source\PSoC4/CSD_SensingCSD_LL.c ****                     {
1055:Generated_Source\PSoC4/CSD_SensingCSD_LL.c ****                         conversionsNum -= CSD_CONFIG_FILTER_DELAY_4_CYCLES;
 650              		.loc 1 1055 0
ARM GAS  C:\Users\CHRIST~1\AppData\Local\Temp\ccGy5PUQ.s 			page 31


 651 0058 FB68     		ldr	r3, [r7, #12]
 652 005a 043B     		sub	r3, r3, #4
 653 005c FB60     		str	r3, [r7, #12]
 654              	.L28:
1056:Generated_Source\PSoC4/CSD_SensingCSD_LL.c ****                     }
1057:Generated_Source\PSoC4/CSD_SensingCSD_LL.c ****                 #else
1058:Generated_Source\PSoC4/CSD_SensingCSD_LL.c ****                     conversionsNum -= CSD_CONFIG_FILTER_DELAY_2_CYCLES;
1059:Generated_Source\PSoC4/CSD_SensingCSD_LL.c ****                 #endif /* (INSTANCE_NAME`_MOD_CSD_CLK_12MHZ < CYDEV_BCLK__HFCLK__HZ) */
1060:Generated_Source\PSoC4/CSD_SensingCSD_LL.c ****             }
1061:Generated_Source\PSoC4/CSD_SensingCSD_LL.c ****         #endif /* (CSD_ENABLE != CSD_CSDV2_REF9P6UA_EN) */
1062:Generated_Source\PSoC4/CSD_SensingCSD_LL.c **** 
1063:Generated_Source\PSoC4/CSD_SensingCSD_LL.c ****         if (0u < snsClkDivider)
 655              		.loc 1 1063 0
 656 005e 7B68     		ldr	r3, [r7, #4]
 657 0060 002B     		cmp	r3, #0
 658 0062 05D0     		beq	.L31
1064:Generated_Source\PSoC4/CSD_SensingCSD_LL.c ****         {
1065:Generated_Source\PSoC4/CSD_SensingCSD_LL.c ****             conversionsNum /= snsClkDivider;
 659              		.loc 1 1065 0
 660 0064 F868     		ldr	r0, [r7, #12]
 661 0066 7968     		ldr	r1, [r7, #4]
 662 0068 FFF7FEFF 		bl	__aeabi_uidiv
 663 006c 031C     		mov	r3, r0
 664 006e FB60     		str	r3, [r7, #12]
 665              	.L31:
1066:Generated_Source\PSoC4/CSD_SensingCSD_LL.c ****         }
1067:Generated_Source\PSoC4/CSD_SensingCSD_LL.c **** 
1068:Generated_Source\PSoC4/CSD_SensingCSD_LL.c ****         #if (CSD_CSD_SS_DIS != CSD_CSD_AUTOTUNE)
1069:Generated_Source\PSoC4/CSD_SensingCSD_LL.c ****             /* Use direct clock if pre-scalers have not been tuned */
1070:Generated_Source\PSoC4/CSD_SensingCSD_LL.c ****             if (CSD_ENABLE == CSD_prescalersTuningDone)
1071:Generated_Source\PSoC4/CSD_SensingCSD_LL.c ****             {
1072:Generated_Source\PSoC4/CSD_SensingCSD_LL.c ****         #endif /* (CSD_CSD_SS_DIS != CSD_CSD_AUTOTUNE) */
1073:Generated_Source\PSoC4/CSD_SensingCSD_LL.c ****             #if ((CSD_CLK_SOURCE_PRS12 == CSD_CSD_SNS_CLK_SOURCE) || \
1074:Generated_Source\PSoC4/CSD_SensingCSD_LL.c ****                  (CSD_CLK_SOURCE_PRS8 == CSD_CSD_SNS_CLK_SOURCE))
1075:Generated_Source\PSoC4/CSD_SensingCSD_LL.c ****                  /* Divide by 4 for PRS8/PRS12 mode */
1076:Generated_Source\PSoC4/CSD_SensingCSD_LL.c ****                  conversionsNum >>= 2u;
1077:Generated_Source\PSoC4/CSD_SensingCSD_LL.c ****             #elif (CSD_CLK_SOURCE_PRSAUTO == CSD_CSD_SNS_CLK_SOURCE)
1078:Generated_Source\PSoC4/CSD_SensingCSD_LL.c ****                  snsClkDivider = snsClkDivider * (uint32)CSD_dsRam.modCsdClk;
1079:Generated_Source\PSoC4/CSD_SensingCSD_LL.c **** 
1080:Generated_Source\PSoC4/CSD_SensingCSD_LL.c ****                  /* Get sense clk source calculated in CSD_SsCSDInitialize() before */
1081:Generated_Source\PSoC4/CSD_SensingCSD_LL.c ****                  sourceSenseClk = ptrWdgt->snsClkSource;
1082:Generated_Source\PSoC4/CSD_SensingCSD_LL.c **** 
1083:Generated_Source\PSoC4/CSD_SensingCSD_LL.c ****                  /* Check if PRS8/12 mode was set */
1084:Generated_Source\PSoC4/CSD_SensingCSD_LL.c ****                  if (((CSD_CLK_SOURCE_PRS8 == sourceSenseClk) ||
1085:Generated_Source\PSoC4/CSD_SensingCSD_LL.c ****                       (CSD_CLK_SOURCE_PRS12 == sourceSenseClk)) &&
1086:Generated_Source\PSoC4/CSD_SensingCSD_LL.c ****                      (CSD_HFCLK_SNSCLK_FACTOR >= snsClkDivider))
1087:Generated_Source\PSoC4/CSD_SensingCSD_LL.c ****                  {
1088:Generated_Source\PSoC4/CSD_SensingCSD_LL.c ****                      /* Divide by 4 for PRS8/PRS12 mode */
1089:Generated_Source\PSoC4/CSD_SensingCSD_LL.c ****                      conversionsNum >>= 2u;
1090:Generated_Source\PSoC4/CSD_SensingCSD_LL.c ****                  }
1091:Generated_Source\PSoC4/CSD_SensingCSD_LL.c ****             #else
1092:Generated_Source\PSoC4/CSD_SensingCSD_LL.c ****                  /* SSC or Direct Clock mode  */
1093:Generated_Source\PSoC4/CSD_SensingCSD_LL.c ****             #endif /* ((CSD_CLK_SOURCE_PRS12 == CSD_CSD_SNS_CLK_SOURCE) || \
1094:Generated_Source\PSoC4/CSD_SensingCSD_LL.c ****                        (CSD_CLK_SOURCE_PRS8 == CSD_CSD_SNS_CLK_SOURCE)) */
1095:Generated_Source\PSoC4/CSD_SensingCSD_LL.c ****         #if (CSD_CSD_SS_DIS != CSD_CSD_AUTOTUNE)
1096:Generated_Source\PSoC4/CSD_SensingCSD_LL.c ****             }
1097:Generated_Source\PSoC4/CSD_SensingCSD_LL.c ****         #endif /* (CSD_CSD_SS_DIS != CSD_CSD_AUTOTUNE) */
ARM GAS  C:\Users\CHRIST~1\AppData\Local\Temp\ccGy5PUQ.s 			page 32


1098:Generated_Source\PSoC4/CSD_SensingCSD_LL.c **** 
1099:Generated_Source\PSoC4/CSD_SensingCSD_LL.c ****         return conversionsNum;
 666              		.loc 1 1099 0
 667 0070 FB68     		ldr	r3, [r7, #12]
1100:Generated_Source\PSoC4/CSD_SensingCSD_LL.c ****     }
 668              		.loc 1 1100 0
 669 0072 181C     		mov	r0, r3
 670 0074 BD46     		mov	sp, r7
 671 0076 04B0     		add	sp, sp, #16
 672              		@ sp needed
 673 0078 80BD     		pop	{r7, pc}
 674              	.L34:
 675 007a C046     		.align	2
 676              	.L33:
 677 007c 00000000 		.word	CSD_dsRam
 678 0080 006CDC02 		.word	48000000
 679 0084 001BB700 		.word	12000000
 680 0088 00366E01 		.word	24000000
 681              		.cfi_endproc
 682              	.LFE7:
 683              		.size	CSD_SsCSDGetNumberOfConversions, .-CSD_SsCSDGetNumberOfConversions
 684              		.section	.text.CSD_SsCSDGetColSnsClkDivider,"ax",%progbits
 685              		.align	2
 686              		.global	CSD_SsCSDGetColSnsClkDivider
 687              		.code	16
 688              		.thumb_func
 689              		.type	CSD_SsCSDGetColSnsClkDivider, %function
 690              	CSD_SsCSDGetColSnsClkDivider:
 691              	.LFB8:
1101:Generated_Source\PSoC4/CSD_SensingCSD_LL.c **** #endif /* (CSD_ENABLE == CSD_CSDV2) */
1102:Generated_Source\PSoC4/CSD_SensingCSD_LL.c **** 
1103:Generated_Source\PSoC4/CSD_SensingCSD_LL.c **** 
1104:Generated_Source\PSoC4/CSD_SensingCSD_LL.c **** 
1105:Generated_Source\PSoC4/CSD_SensingCSD_LL.c **** /*******************************************************************************
1106:Generated_Source\PSoC4/CSD_SensingCSD_LL.c **** * Function Name: CSD_SsCSDGetColSnsClkDivider
1107:Generated_Source\PSoC4/CSD_SensingCSD_LL.c **** ****************************************************************************//**
1108:Generated_Source\PSoC4/CSD_SensingCSD_LL.c **** *
1109:Generated_Source\PSoC4/CSD_SensingCSD_LL.c **** * \brief
1110:Generated_Source\PSoC4/CSD_SensingCSD_LL.c **** *  This function gets the Sense Clock Divider value for one-dimension widgets
1111:Generated_Source\PSoC4/CSD_SensingCSD_LL.c **** *  and Column Sense Clock divider value for two-dimension widgets.
1112:Generated_Source\PSoC4/CSD_SensingCSD_LL.c **** *
1113:Generated_Source\PSoC4/CSD_SensingCSD_LL.c **** * \details
1114:Generated_Source\PSoC4/CSD_SensingCSD_LL.c **** *  This function gets the Sense Clock Divider value based on the component
1115:Generated_Source\PSoC4/CSD_SensingCSD_LL.c **** *  configuration. The function is applicable for one-dimension widgets and for
1116:Generated_Source\PSoC4/CSD_SensingCSD_LL.c **** *  two-dimension widgets.
1117:Generated_Source\PSoC4/CSD_SensingCSD_LL.c **** *
1118:Generated_Source\PSoC4/CSD_SensingCSD_LL.c **** * \param
1119:Generated_Source\PSoC4/CSD_SensingCSD_LL.c **** *  wdgtIndex Specifies the ID of the widget.
1120:Generated_Source\PSoC4/CSD_SensingCSD_LL.c **** *
1121:Generated_Source\PSoC4/CSD_SensingCSD_LL.c **** * \return The Sense Clock Divider value for one-dimension widgets
1122:Generated_Source\PSoC4/CSD_SensingCSD_LL.c **** *         and the Column Sense Clock divider value for two-dimension widgets.
1123:Generated_Source\PSoC4/CSD_SensingCSD_LL.c **** *
1124:Generated_Source\PSoC4/CSD_SensingCSD_LL.c **** *******************************************************************************/
1125:Generated_Source\PSoC4/CSD_SensingCSD_LL.c **** uint32 CSD_SsCSDGetColSnsClkDivider(uint32 wdgtIndex)
1126:Generated_Source\PSoC4/CSD_SensingCSD_LL.c **** {
 692              		.loc 1 1126 0
 693              		.cfi_startproc
ARM GAS  C:\Users\CHRIST~1\AppData\Local\Temp\ccGy5PUQ.s 			page 33


 694 0000 80B5     		push	{r7, lr}
 695              		.cfi_def_cfa_offset 8
 696              		.cfi_offset 7, -8
 697              		.cfi_offset 14, -4
 698 0002 84B0     		sub	sp, sp, #16
 699              		.cfi_def_cfa_offset 24
 700 0004 00AF     		add	r7, sp, #0
 701              		.cfi_def_cfa_register 7
 702 0006 7860     		str	r0, [r7, #4]
1127:Generated_Source\PSoC4/CSD_SensingCSD_LL.c ****     uint32 retVal;
1128:Generated_Source\PSoC4/CSD_SensingCSD_LL.c **** 
1129:Generated_Source\PSoC4/CSD_SensingCSD_LL.c ****     /* Get sense divider based on configuration */
1130:Generated_Source\PSoC4/CSD_SensingCSD_LL.c ****     #if (CSD_ENABLE != CSD_CSD_COMMON_SNS_CLK_EN)
1131:Generated_Source\PSoC4/CSD_SensingCSD_LL.c ****         CSD_RAM_WD_BASE_STRUCT *ptrWdgt;
1132:Generated_Source\PSoC4/CSD_SensingCSD_LL.c **** 
1133:Generated_Source\PSoC4/CSD_SensingCSD_LL.c ****         ptrWdgt = (CSD_RAM_WD_BASE_STRUCT *)
 703              		.loc 1 1133 0
 704 0008 0849     		ldr	r1, .L37
 705 000a 7A68     		ldr	r2, [r7, #4]
 706 000c 131C     		mov	r3, r2
 707 000e DB00     		lsl	r3, r3, #3
 708 0010 9B1A     		sub	r3, r3, r2
 709 0012 9B00     		lsl	r3, r3, #2
 710 0014 CB18     		add	r3, r1, r3
 711 0016 5B68     		ldr	r3, [r3, #4]
 712 0018 FB60     		str	r3, [r7, #12]
1134:Generated_Source\PSoC4/CSD_SensingCSD_LL.c ****         CSD_dsFlash.wdgtArray[wdgtIndex].ptr2WdgtRam;
1135:Generated_Source\PSoC4/CSD_SensingCSD_LL.c **** 
1136:Generated_Source\PSoC4/CSD_SensingCSD_LL.c ****         retVal = (uint32)(ptrWdgt->snsClk);
 713              		.loc 1 1136 0
 714 001a FB68     		ldr	r3, [r7, #12]
 715 001c DB7A     		ldrb	r3, [r3, #11]
 716 001e BB60     		str	r3, [r7, #8]
1137:Generated_Source\PSoC4/CSD_SensingCSD_LL.c ****     #else
1138:Generated_Source\PSoC4/CSD_SensingCSD_LL.c ****         retVal = (uint32)CSD_dsRam.snsCsdClk;
1139:Generated_Source\PSoC4/CSD_SensingCSD_LL.c ****     #endif /* (CSD_ENABLE == CSD_CSD_COMMON_SNS_CLK_EN) */
1140:Generated_Source\PSoC4/CSD_SensingCSD_LL.c **** 
1141:Generated_Source\PSoC4/CSD_SensingCSD_LL.c ****     if(wdgtIndex == 0uL)
1142:Generated_Source\PSoC4/CSD_SensingCSD_LL.c ****     {
1143:Generated_Source\PSoC4/CSD_SensingCSD_LL.c ****         ;
1144:Generated_Source\PSoC4/CSD_SensingCSD_LL.c ****     }
1145:Generated_Source\PSoC4/CSD_SensingCSD_LL.c **** 
1146:Generated_Source\PSoC4/CSD_SensingCSD_LL.c ****     return (retVal);
 717              		.loc 1 1146 0
 718 0020 BB68     		ldr	r3, [r7, #8]
1147:Generated_Source\PSoC4/CSD_SensingCSD_LL.c **** }
 719              		.loc 1 1147 0
 720 0022 181C     		mov	r0, r3
 721 0024 BD46     		mov	sp, r7
 722 0026 04B0     		add	sp, sp, #16
 723              		@ sp needed
 724 0028 80BD     		pop	{r7, pc}
 725              	.L38:
 726 002a C046     		.align	2
 727              	.L37:
 728 002c 00000000 		.word	CSD_dsFlash
 729              		.cfi_endproc
ARM GAS  C:\Users\CHRIST~1\AppData\Local\Temp\ccGy5PUQ.s 			page 34


 730              	.LFE8:
 731              		.size	CSD_SsCSDGetColSnsClkDivider, .-CSD_SsCSDGetColSnsClkDivider
 732              		.section	.text.CSD_SsCSDConfigClock,"ax",%progbits
 733              		.align	2
 734              		.global	CSD_SsCSDConfigClock
 735              		.code	16
 736              		.thumb_func
 737              		.type	CSD_SsCSDConfigClock, %function
 738              	CSD_SsCSDConfigClock:
 739              	.LFB9:
1148:Generated_Source\PSoC4/CSD_SensingCSD_LL.c **** 
1149:Generated_Source\PSoC4/CSD_SensingCSD_LL.c **** 
1150:Generated_Source\PSoC4/CSD_SensingCSD_LL.c **** #if (CSD_ENABLE == (CSD_CSD_MATRIX_WIDGET_EN | CSD_CSD_TOUCHPAD_WIDGET_EN))
1151:Generated_Source\PSoC4/CSD_SensingCSD_LL.c ****     /*******************************************************************************
1152:Generated_Source\PSoC4/CSD_SensingCSD_LL.c ****     * Function Name: CSD_SsCSDGetRowSnsClkDivider
1153:Generated_Source\PSoC4/CSD_SensingCSD_LL.c ****     ****************************************************************************//**
1154:Generated_Source\PSoC4/CSD_SensingCSD_LL.c ****     *
1155:Generated_Source\PSoC4/CSD_SensingCSD_LL.c ****     * \brief
1156:Generated_Source\PSoC4/CSD_SensingCSD_LL.c ****     *  This function gets the Sense Clock Divider value for one-dimension widgets
1157:Generated_Source\PSoC4/CSD_SensingCSD_LL.c ****     *  and the Column Sense Clock divider value for two-dimension widgets.
1158:Generated_Source\PSoC4/CSD_SensingCSD_LL.c ****     *
1159:Generated_Source\PSoC4/CSD_SensingCSD_LL.c ****     * \details
1160:Generated_Source\PSoC4/CSD_SensingCSD_LL.c ****     *  This function gets the Sense Clock Divider value based on the component
1161:Generated_Source\PSoC4/CSD_SensingCSD_LL.c ****     *  configuration. The function is applicable for one-dimension widgets and for
1162:Generated_Source\PSoC4/CSD_SensingCSD_LL.c ****     *  two-dimension widgets.
1163:Generated_Source\PSoC4/CSD_SensingCSD_LL.c ****     *
1164:Generated_Source\PSoC4/CSD_SensingCSD_LL.c ****     * \param
1165:Generated_Source\PSoC4/CSD_SensingCSD_LL.c ****     *  wdgtIndex Specifies the ID of the widget.
1166:Generated_Source\PSoC4/CSD_SensingCSD_LL.c ****     *
1167:Generated_Source\PSoC4/CSD_SensingCSD_LL.c ****     * \return The Sense Clock Divider value for one-dimension widgets
1168:Generated_Source\PSoC4/CSD_SensingCSD_LL.c ****     *         and Column Sense Clock divider value for two-dimension widgets.
1169:Generated_Source\PSoC4/CSD_SensingCSD_LL.c ****     *
1170:Generated_Source\PSoC4/CSD_SensingCSD_LL.c ****     *******************************************************************************/
1171:Generated_Source\PSoC4/CSD_SensingCSD_LL.c ****     uint32 CSD_SsCSDGetRowSnsClkDivider(uint32 wdgtIndex)
1172:Generated_Source\PSoC4/CSD_SensingCSD_LL.c ****     {
1173:Generated_Source\PSoC4/CSD_SensingCSD_LL.c ****         uint32 retVal;
1174:Generated_Source\PSoC4/CSD_SensingCSD_LL.c **** 
1175:Generated_Source\PSoC4/CSD_SensingCSD_LL.c ****         /* Get sense divider based on configuration */
1176:Generated_Source\PSoC4/CSD_SensingCSD_LL.c ****         #if (CSD_ENABLE != CSD_CSD_COMMON_SNS_CLK_EN)
1177:Generated_Source\PSoC4/CSD_SensingCSD_LL.c ****             CSD_RAM_WD_BASE_STRUCT *ptrWdgt;
1178:Generated_Source\PSoC4/CSD_SensingCSD_LL.c **** 
1179:Generated_Source\PSoC4/CSD_SensingCSD_LL.c ****             ptrWdgt = (CSD_RAM_WD_BASE_STRUCT *)
1180:Generated_Source\PSoC4/CSD_SensingCSD_LL.c ****             CSD_dsFlash.wdgtArray[wdgtIndex].ptr2WdgtRam;
1181:Generated_Source\PSoC4/CSD_SensingCSD_LL.c **** 
1182:Generated_Source\PSoC4/CSD_SensingCSD_LL.c ****             retVal = ptrWdgt->rowSnsClk;
1183:Generated_Source\PSoC4/CSD_SensingCSD_LL.c ****         #else
1184:Generated_Source\PSoC4/CSD_SensingCSD_LL.c ****             retVal = (uint32)CSD_dsRam.snsCsdClk;
1185:Generated_Source\PSoC4/CSD_SensingCSD_LL.c ****         #endif /* (CSD_ENABLE == CSD_CSD_COMMON_SNS_CLK_EN) */
1186:Generated_Source\PSoC4/CSD_SensingCSD_LL.c **** 
1187:Generated_Source\PSoC4/CSD_SensingCSD_LL.c ****         if(wdgtIndex == 0uL)
1188:Generated_Source\PSoC4/CSD_SensingCSD_LL.c ****         {
1189:Generated_Source\PSoC4/CSD_SensingCSD_LL.c ****             ;
1190:Generated_Source\PSoC4/CSD_SensingCSD_LL.c ****         }
1191:Generated_Source\PSoC4/CSD_SensingCSD_LL.c **** 
1192:Generated_Source\PSoC4/CSD_SensingCSD_LL.c ****         return (retVal);
1193:Generated_Source\PSoC4/CSD_SensingCSD_LL.c ****     }
1194:Generated_Source\PSoC4/CSD_SensingCSD_LL.c **** #endif /* (CSD_ENABLE == (CSD_CSD_MATRIX_WIDGET_EN | CSD_CSD_TOUCHPAD_WIDGET_EN)) */
ARM GAS  C:\Users\CHRIST~1\AppData\Local\Temp\ccGy5PUQ.s 			page 35


1195:Generated_Source\PSoC4/CSD_SensingCSD_LL.c **** 
1196:Generated_Source\PSoC4/CSD_SensingCSD_LL.c **** 
1197:Generated_Source\PSoC4/CSD_SensingCSD_LL.c **** /*******************************************************************************
1198:Generated_Source\PSoC4/CSD_SensingCSD_LL.c **** * Function Name: CSD_SsCSDConfigClock
1199:Generated_Source\PSoC4/CSD_SensingCSD_LL.c **** ****************************************************************************//**
1200:Generated_Source\PSoC4/CSD_SensingCSD_LL.c **** *
1201:Generated_Source\PSoC4/CSD_SensingCSD_LL.c **** * \brief
1202:Generated_Source\PSoC4/CSD_SensingCSD_LL.c **** *  This function configure sense clock for different modes.
1203:Generated_Source\PSoC4/CSD_SensingCSD_LL.c **** *
1204:Generated_Source\PSoC4/CSD_SensingCSD_LL.c **** * \details
1205:Generated_Source\PSoC4/CSD_SensingCSD_LL.c **** *  Function sets the clock divider and configures the mode based on configuration.
1206:Generated_Source\PSoC4/CSD_SensingCSD_LL.c **** *
1207:Generated_Source\PSoC4/CSD_SensingCSD_LL.c **** *******************************************************************************/
1208:Generated_Source\PSoC4/CSD_SensingCSD_LL.c **** void CSD_SsCSDConfigClock(void)
1209:Generated_Source\PSoC4/CSD_SensingCSD_LL.c **** {
 740              		.loc 1 1209 0
 741              		.cfi_startproc
 742 0000 80B5     		push	{r7, lr}
 743              		.cfi_def_cfa_offset 8
 744              		.cfi_offset 7, -8
 745              		.cfi_offset 14, -4
 746 0002 84B0     		sub	sp, sp, #16
 747              		.cfi_def_cfa_offset 24
 748 0004 00AF     		add	r7, sp, #0
 749              		.cfi_def_cfa_register 7
1210:Generated_Source\PSoC4/CSD_SensingCSD_LL.c ****     uint32 snsClkDivider;
1211:Generated_Source\PSoC4/CSD_SensingCSD_LL.c ****     uint32 newRegValue;
1212:Generated_Source\PSoC4/CSD_SensingCSD_LL.c **** 
1213:Generated_Source\PSoC4/CSD_SensingCSD_LL.c ****     #if ((CSD_DISABLE == CSD_CSD_COMMON_SNS_CLK_EN) || \
1214:Generated_Source\PSoC4/CSD_SensingCSD_LL.c ****          (CSD_CLK_SOURCE_PRSAUTO == CSD_CSD_SNS_CLK_SOURCE))
1215:Generated_Source\PSoC4/CSD_SensingCSD_LL.c ****         CSD_RAM_WD_BASE_STRUCT const *ptrWdgt = (CSD_RAM_WD_BASE_STRUCT *)
1216:Generated_Source\PSoC4/CSD_SensingCSD_LL.c ****                  CSD_dsFlash.wdgtArray[CSD_widgetIndex].ptr2WdgtRam;
 750              		.loc 1 1216 0
 751 0006 154B     		ldr	r3, .L43
 752 0008 1B78     		ldrb	r3, [r3]
 753 000a DBB2     		uxtb	r3, r3
 754 000c 191C     		mov	r1, r3
1215:Generated_Source\PSoC4/CSD_SensingCSD_LL.c ****                  CSD_dsFlash.wdgtArray[CSD_widgetIndex].ptr2WdgtRam;
 755              		.loc 1 1215 0
 756 000e 144A     		ldr	r2, .L43+4
 757 0010 0B1C     		mov	r3, r1
 758 0012 DB00     		lsl	r3, r3, #3
 759 0014 5B1A     		sub	r3, r3, r1
 760 0016 9B00     		lsl	r3, r3, #2
 761 0018 D318     		add	r3, r2, r3
 762 001a 5B68     		ldr	r3, [r3, #4]
 763 001c BB60     		str	r3, [r7, #8]
1217:Generated_Source\PSoC4/CSD_SensingCSD_LL.c ****     #endif /* ((CSD_DISABLE == CSD_CSD_COMMON_SNS_CLK_EN) || \
1218:Generated_Source\PSoC4/CSD_SensingCSD_LL.c ****                (CSD_CLK_SOURCE_PRSAUTO == CSD_CSD_SNS_CLK_SOURCE)) */
1219:Generated_Source\PSoC4/CSD_SensingCSD_LL.c **** 
1220:Generated_Source\PSoC4/CSD_SensingCSD_LL.c ****     /* Get sense divider based on configuration */
1221:Generated_Source\PSoC4/CSD_SensingCSD_LL.c ****     #if (CSD_ENABLE == CSD_CSD_COMMON_SNS_CLK_EN)
1222:Generated_Source\PSoC4/CSD_SensingCSD_LL.c ****         snsClkDivider = (uint32)CSD_dsRam.snsCsdClk;
1223:Generated_Source\PSoC4/CSD_SensingCSD_LL.c ****     #else
1224:Generated_Source\PSoC4/CSD_SensingCSD_LL.c ****         #if (CSD_ENABLE == (CSD_CSD_MATRIX_WIDGET_EN | \
1225:Generated_Source\PSoC4/CSD_SensingCSD_LL.c ****                                          CSD_CSD_TOUCHPAD_WIDGET_EN))
1226:Generated_Source\PSoC4/CSD_SensingCSD_LL.c ****             /*  Get SnsClck divider for rows or columns */
ARM GAS  C:\Users\CHRIST~1\AppData\Local\Temp\ccGy5PUQ.s 			page 36


1227:Generated_Source\PSoC4/CSD_SensingCSD_LL.c ****             if (CSD_dsFlash.wdgtArray[CSD_widgetIndex].numCols <= CSD_sensorIndex)
1228:Generated_Source\PSoC4/CSD_SensingCSD_LL.c ****             {
1229:Generated_Source\PSoC4/CSD_SensingCSD_LL.c ****                 snsClkDivider = (uint32)(ptrWdgt->rowSnsClk);
1230:Generated_Source\PSoC4/CSD_SensingCSD_LL.c ****             }
1231:Generated_Source\PSoC4/CSD_SensingCSD_LL.c ****             else
1232:Generated_Source\PSoC4/CSD_SensingCSD_LL.c ****             {
1233:Generated_Source\PSoC4/CSD_SensingCSD_LL.c ****                 snsClkDivider = (uint32)(ptrWdgt->snsClk);
1234:Generated_Source\PSoC4/CSD_SensingCSD_LL.c ****             }
1235:Generated_Source\PSoC4/CSD_SensingCSD_LL.c ****         #else
1236:Generated_Source\PSoC4/CSD_SensingCSD_LL.c ****             snsClkDivider = (uint32)(ptrWdgt->snsClk);
 764              		.loc 1 1236 0
 765 001e BB68     		ldr	r3, [r7, #8]
 766 0020 DB7A     		ldrb	r3, [r3, #11]
 767 0022 7B60     		str	r3, [r7, #4]
1237:Generated_Source\PSoC4/CSD_SensingCSD_LL.c ****         #endif /*  (CSD_ENABLE == (CSD_CSD_MATRIX_WIDGET_EN | \
1238:Generated_Source\PSoC4/CSD_SensingCSD_LL.c ****                                                 CSD_CSD_TOUCHPAD_WIDGET_EN)) */
1239:Generated_Source\PSoC4/CSD_SensingCSD_LL.c ****     #endif /* (CSD_ENABLE == CSD_CSD_COMMON_SNS_CLK_EN) */
1240:Generated_Source\PSoC4/CSD_SensingCSD_LL.c **** 
1241:Generated_Source\PSoC4/CSD_SensingCSD_LL.c ****     #if (CSD_CLK_SOURCE_PRSAUTO == CSD_CSD_SNS_CLK_SOURCE)
1242:Generated_Source\PSoC4/CSD_SensingCSD_LL.c ****         /* Get sense clk source calculated in CSD_SsCSDInitialize() before */
1243:Generated_Source\PSoC4/CSD_SensingCSD_LL.c ****         #if (CSD_ENABLE == (CSD_CSD_MATRIX_WIDGET_EN | \
1244:Generated_Source\PSoC4/CSD_SensingCSD_LL.c ****                                          CSD_CSD_TOUCHPAD_WIDGET_EN))
1245:Generated_Source\PSoC4/CSD_SensingCSD_LL.c ****             /*  Get SnsClc Source for rows or columns */
1246:Generated_Source\PSoC4/CSD_SensingCSD_LL.c ****             if (CSD_dsFlash.wdgtArray[CSD_widgetIndex].numCols <= CSD_sensorIndex)
1247:Generated_Source\PSoC4/CSD_SensingCSD_LL.c ****             {
1248:Generated_Source\PSoC4/CSD_SensingCSD_LL.c ****                 newRegValue = (uint32)ptrWdgt->rowSnsClkSource;
1249:Generated_Source\PSoC4/CSD_SensingCSD_LL.c ****             }
1250:Generated_Source\PSoC4/CSD_SensingCSD_LL.c ****             else
1251:Generated_Source\PSoC4/CSD_SensingCSD_LL.c ****             {
1252:Generated_Source\PSoC4/CSD_SensingCSD_LL.c ****                 newRegValue = (uint32)ptrWdgt->snsClkSource;
1253:Generated_Source\PSoC4/CSD_SensingCSD_LL.c ****             }
1254:Generated_Source\PSoC4/CSD_SensingCSD_LL.c ****         #else
1255:Generated_Source\PSoC4/CSD_SensingCSD_LL.c ****             newRegValue = (uint32)ptrWdgt->snsClkSource;
1256:Generated_Source\PSoC4/CSD_SensingCSD_LL.c ****         #endif /*  (CSD_ENABLE == (CSD_CSD_MATRIX_WIDGET_EN | \
1257:Generated_Source\PSoC4/CSD_SensingCSD_LL.c ****                                                 CSD_CSD_TOUCHPAD_WIDGET_EN)) */
1258:Generated_Source\PSoC4/CSD_SensingCSD_LL.c ****     #else
1259:Generated_Source\PSoC4/CSD_SensingCSD_LL.c ****         newRegValue = CSD_DEFAULT_MODULATION_MODE;
 768              		.loc 1 1259 0
 769 0024 0023     		mov	r3, #0
 770 0026 FB60     		str	r3, [r7, #12]
1260:Generated_Source\PSoC4/CSD_SensingCSD_LL.c ****     #endif /* (CSD_CLK_SOURCE_DIRECT == CSD_CSD_SNS_CLK_SOURCE) */
1261:Generated_Source\PSoC4/CSD_SensingCSD_LL.c **** 
1262:Generated_Source\PSoC4/CSD_SensingCSD_LL.c ****     #if (CSD_ENABLE == CSD_CSDV2)
1263:Generated_Source\PSoC4/CSD_SensingCSD_LL.c ****         if ((CSD_CLK_SOURCE_PRS8 == newRegValue) ||
 771              		.loc 1 1263 0
 772 0028 FB68     		ldr	r3, [r7, #12]
 773 002a 052B     		cmp	r3, #5
 774 002c 02D0     		beq	.L40
 775              		.loc 1 1263 0 is_stmt 0 discriminator 1
 776 002e FB68     		ldr	r3, [r7, #12]
 777 0030 062B     		cmp	r3, #6
 778 0032 06D1     		bne	.L41
 779              	.L40:
1264:Generated_Source\PSoC4/CSD_SensingCSD_LL.c ****             (CSD_CLK_SOURCE_PRS12 == newRegValue))
1265:Generated_Source\PSoC4/CSD_SensingCSD_LL.c ****         {
1266:Generated_Source\PSoC4/CSD_SensingCSD_LL.c ****             newRegValue = (newRegValue << CSD_SENSE_PERIOD_LFSR_SIZE_SHIFT) |
 780              		.loc 1 1266 0 is_stmt 1
ARM GAS  C:\Users\CHRIST~1\AppData\Local\Temp\ccGy5PUQ.s 			page 37


 781 0034 FB68     		ldr	r3, [r7, #12]
 782 0036 1B04     		lsl	r3, r3, #16
 783 0038 8022     		mov	r2, #128
 784 003a 9204     		lsl	r2, r2, #18
 785 003c 1343     		orr	r3, r2
 786 003e FB60     		str	r3, [r7, #12]
 787 0040 02E0     		b	.L42
 788              	.L41:
1267:Generated_Source\PSoC4/CSD_SensingCSD_LL.c ****                            CSD_SENSE_PERIOD_SEL_LFSR_MSB_MASK;
1268:Generated_Source\PSoC4/CSD_SensingCSD_LL.c ****         }
1269:Generated_Source\PSoC4/CSD_SensingCSD_LL.c ****         else
1270:Generated_Source\PSoC4/CSD_SensingCSD_LL.c ****         {
1271:Generated_Source\PSoC4/CSD_SensingCSD_LL.c ****             newRegValue = (newRegValue << CSD_SENSE_PERIOD_LFSR_SIZE_SHIFT);
 789              		.loc 1 1271 0
 790 0042 FB68     		ldr	r3, [r7, #12]
 791 0044 1B04     		lsl	r3, r3, #16
 792 0046 FB60     		str	r3, [r7, #12]
 793              	.L42:
1272:Generated_Source\PSoC4/CSD_SensingCSD_LL.c ****         }
1273:Generated_Source\PSoC4/CSD_SensingCSD_LL.c ****     #endif /* (CSD_CLK_SOURCE_DIRECT == CSD_CSD_SNS_CLK_SOURCE) */
1274:Generated_Source\PSoC4/CSD_SensingCSD_LL.c **** 
1275:Generated_Source\PSoC4/CSD_SensingCSD_LL.c ****     #if (CSD_CSD_SS_DIS != CSD_CSD_AUTOTUNE)
1276:Generated_Source\PSoC4/CSD_SensingCSD_LL.c ****         /* Use direct clock if pre-scalers have not been tuned */
1277:Generated_Source\PSoC4/CSD_SensingCSD_LL.c ****         if (CSD_ENABLE == CSD_prescalersTuningDone)
1278:Generated_Source\PSoC4/CSD_SensingCSD_LL.c ****         {
1279:Generated_Source\PSoC4/CSD_SensingCSD_LL.c ****             CSD_SsCSDSetModeSnsClockDivider(newRegValue, snsClkDivider);
1280:Generated_Source\PSoC4/CSD_SensingCSD_LL.c ****         }
1281:Generated_Source\PSoC4/CSD_SensingCSD_LL.c ****         else
1282:Generated_Source\PSoC4/CSD_SensingCSD_LL.c ****         {
1283:Generated_Source\PSoC4/CSD_SensingCSD_LL.c ****             CSD_SsSetSnsClockDivider(snsClkDivider);
1284:Generated_Source\PSoC4/CSD_SensingCSD_LL.c ****         }
1285:Generated_Source\PSoC4/CSD_SensingCSD_LL.c ****     #else
1286:Generated_Source\PSoC4/CSD_SensingCSD_LL.c ****         CSD_SsCSDSetModeSnsClockDivider(newRegValue, snsClkDivider);
 794              		.loc 1 1286 0
 795 0048 FA68     		ldr	r2, [r7, #12]
 796 004a 7B68     		ldr	r3, [r7, #4]
 797 004c 101C     		mov	r0, r2
 798 004e 191C     		mov	r1, r3
 799 0050 FFF7FEFF 		bl	CSD_SsCSDSetModeSnsClockDivider
1287:Generated_Source\PSoC4/CSD_SensingCSD_LL.c ****     #endif /* (CSD_CSD_SS_DIS != CSD_CSD_AUTOTUNE) */
1288:Generated_Source\PSoC4/CSD_SensingCSD_LL.c **** }
 800              		.loc 1 1288 0
 801 0054 BD46     		mov	sp, r7
 802 0056 04B0     		add	sp, sp, #16
 803              		@ sp needed
 804 0058 80BD     		pop	{r7, pc}
 805              	.L44:
 806 005a C046     		.align	2
 807              	.L43:
 808 005c 00000000 		.word	CSD_widgetIndex
 809 0060 00000000 		.word	CSD_dsFlash
 810              		.cfi_endproc
 811              	.LFE9:
 812              		.size	CSD_SsCSDConfigClock, .-CSD_SsCSDConfigClock
 813              		.section	.text.CSD_SsCSDSetModeSnsClockDivider,"ax",%progbits
 814              		.align	2
 815              		.code	16
ARM GAS  C:\Users\CHRIST~1\AppData\Local\Temp\ccGy5PUQ.s 			page 38


 816              		.thumb_func
 817              		.type	CSD_SsCSDSetModeSnsClockDivider, %function
 818              	CSD_SsCSDSetModeSnsClockDivider:
 819              	.LFB10:
1289:Generated_Source\PSoC4/CSD_SensingCSD_LL.c **** 
1290:Generated_Source\PSoC4/CSD_SensingCSD_LL.c **** 
1291:Generated_Source\PSoC4/CSD_SensingCSD_LL.c **** /*******************************************************************************
1292:Generated_Source\PSoC4/CSD_SensingCSD_LL.c **** * Function Name: CSD_SsCSDSetModeSnsClockDivider
1293:Generated_Source\PSoC4/CSD_SensingCSD_LL.c **** ****************************************************************************//**
1294:Generated_Source\PSoC4/CSD_SensingCSD_LL.c **** *
1295:Generated_Source\PSoC4/CSD_SensingCSD_LL.c **** * \brief
1296:Generated_Source\PSoC4/CSD_SensingCSD_LL.c **** *   Sets sense source and Sense Clock Divider
1297:Generated_Source\PSoC4/CSD_SensingCSD_LL.c **** *
1298:Generated_Source\PSoC4/CSD_SensingCSD_LL.c **** * \details
1299:Generated_Source\PSoC4/CSD_SensingCSD_LL.c **** *   For CSDv2: Updates CSD_SENSE_PERIOD register with
1300:Generated_Source\PSoC4/CSD_SensingCSD_LL.c **** *   sense source and Sense Clock Divider.
1301:Generated_Source\PSoC4/CSD_SensingCSD_LL.c **** *   For CSDv1: Updates CSD_configCsd variable with
1302:Generated_Source\PSoC4/CSD_SensingCSD_LL.c **** *   sense source and sets sense clock divider.
1303:Generated_Source\PSoC4/CSD_SensingCSD_LL.c **** *
1304:Generated_Source\PSoC4/CSD_SensingCSD_LL.c **** * \param
1305:Generated_Source\PSoC4/CSD_SensingCSD_LL.c **** *   snsClkSource The sense source for the sense clock.
1306:Generated_Source\PSoC4/CSD_SensingCSD_LL.c **** * \param
1307:Generated_Source\PSoC4/CSD_SensingCSD_LL.c **** *   snsClkDivider The divider value for the sense clock.
1308:Generated_Source\PSoC4/CSD_SensingCSD_LL.c **** *
1309:Generated_Source\PSoC4/CSD_SensingCSD_LL.c **** *******************************************************************************/
1310:Generated_Source\PSoC4/CSD_SensingCSD_LL.c **** static void CSD_SsCSDSetModeSnsClockDivider(uint32 snsClkSource, uint32 snsClkDivider)
1311:Generated_Source\PSoC4/CSD_SensingCSD_LL.c **** {
 820              		.loc 1 1311 0
 821              		.cfi_startproc
 822 0000 80B5     		push	{r7, lr}
 823              		.cfi_def_cfa_offset 8
 824              		.cfi_offset 7, -8
 825              		.cfi_offset 14, -4
 826 0002 82B0     		sub	sp, sp, #8
 827              		.cfi_def_cfa_offset 16
 828 0004 00AF     		add	r7, sp, #0
 829              		.cfi_def_cfa_register 7
 830 0006 7860     		str	r0, [r7, #4]
 831 0008 3960     		str	r1, [r7]
1312:Generated_Source\PSoC4/CSD_SensingCSD_LL.c ****     #if (CSD_ENABLE == CSD_CSDV2)
1313:Generated_Source\PSoC4/CSD_SensingCSD_LL.c ****         /* Update reg value with divider and configuration */
1314:Generated_Source\PSoC4/CSD_SensingCSD_LL.c ****         CY_SET_REG32(CSD_SENSE_PERIOD_PTR, snsClkSource | (snsClkDivider - 1u));
 832              		.loc 1 1314 0
 833 000a 044B     		ldr	r3, .L46
 834 000c 3A68     		ldr	r2, [r7]
 835 000e 511E     		sub	r1, r2, #1
 836 0010 7A68     		ldr	r2, [r7, #4]
 837 0012 0A43     		orr	r2, r1
 838 0014 1A60     		str	r2, [r3]
1315:Generated_Source\PSoC4/CSD_SensingCSD_LL.c ****     #else
1316:Generated_Source\PSoC4/CSD_SensingCSD_LL.c ****         /* Set configuration */
1317:Generated_Source\PSoC4/CSD_SensingCSD_LL.c ****         CSD_configCsd &= ~(CSD_CONFIG_PRS_SELECT_MASK | CSD_CSD_PRS_12_BIT);
1318:Generated_Source\PSoC4/CSD_SensingCSD_LL.c ****         CSD_configCsd |= snsClkSource;
1319:Generated_Source\PSoC4/CSD_SensingCSD_LL.c **** 
1320:Generated_Source\PSoC4/CSD_SensingCSD_LL.c ****         /* Set sense clock divider */
1321:Generated_Source\PSoC4/CSD_SensingCSD_LL.c ****         CSD_SsSetSnsClockDivider(snsClkDivider);
1322:Generated_Source\PSoC4/CSD_SensingCSD_LL.c ****     #endif /* (CSD_ENABLE == CSD_CSDV2) */
ARM GAS  C:\Users\CHRIST~1\AppData\Local\Temp\ccGy5PUQ.s 			page 39


1323:Generated_Source\PSoC4/CSD_SensingCSD_LL.c **** }
 839              		.loc 1 1323 0
 840 0016 BD46     		mov	sp, r7
 841 0018 02B0     		add	sp, sp, #8
 842              		@ sp needed
 843 001a 80BD     		pop	{r7, pc}
 844              	.L47:
 845              		.align	2
 846              	.L46:
 847 001c 00020C40 		.word	1074528768
 848              		.cfi_endproc
 849              	.LFE10:
 850              		.size	CSD_SsCSDSetModeSnsClockDivider, .-CSD_SsCSDSetModeSnsClockDivider
 851              		.section	.text.CSD_SsCSDCalculateScanDuration,"ax",%progbits
 852              		.align	2
 853              		.global	CSD_SsCSDCalculateScanDuration
 854              		.code	16
 855              		.thumb_func
 856              		.type	CSD_SsCSDCalculateScanDuration, %function
 857              	CSD_SsCSDCalculateScanDuration:
 858              	.LFB11:
1324:Generated_Source\PSoC4/CSD_SensingCSD_LL.c **** 
1325:Generated_Source\PSoC4/CSD_SensingCSD_LL.c **** 
1326:Generated_Source\PSoC4/CSD_SensingCSD_LL.c **** /*******************************************************************************
1327:Generated_Source\PSoC4/CSD_SensingCSD_LL.c **** * Function Name: CSD_SsCSDCalculateScanDuration
1328:Generated_Source\PSoC4/CSD_SensingCSD_LL.c **** ****************************************************************************//**
1329:Generated_Source\PSoC4/CSD_SensingCSD_LL.c **** *
1330:Generated_Source\PSoC4/CSD_SensingCSD_LL.c **** * \brief
1331:Generated_Source\PSoC4/CSD_SensingCSD_LL.c **** *   Calculates Scan Duration which is defined by scan resolution
1332:Generated_Source\PSoC4/CSD_SensingCSD_LL.c **** *
1333:Generated_Source\PSoC4/CSD_SensingCSD_LL.c **** * \details
1334:Generated_Source\PSoC4/CSD_SensingCSD_LL.c **** *   For CSDv2: The function calculates the number of conversions and updates
1335:Generated_Source\PSoC4/CSD_SensingCSD_LL.c **** *   SEQ_NORM_CNT register. The number of conversions depends on resolution and
1336:Generated_Source\PSoC4/CSD_SensingCSD_LL.c **** *   snsClk divider.
1337:Generated_Source\PSoC4/CSD_SensingCSD_LL.c **** *   For CSDv1: The function recalculate the resolution using following equation:
1338:Generated_Source\PSoC4/CSD_SensingCSD_LL.c **** *   2^resolution - 1. The calculated value is contained in
1339:Generated_Source\PSoC4/CSD_SensingCSD_LL.c **** *   CSD_counterResolution global variable and used in
1340:Generated_Source\PSoC4/CSD_SensingCSD_LL.c **** *   CSD_SsCSDStartSample() function to trigger the scan process.
1341:Generated_Source\PSoC4/CSD_SensingCSD_LL.c **** *
1342:Generated_Source\PSoC4/CSD_SensingCSD_LL.c **** * \param  wdgtIndex
1343:Generated_Source\PSoC4/CSD_SensingCSD_LL.c **** *  ptrWdgt The pointer to the RAM_WD_BASE_STRUCT structure.
1344:Generated_Source\PSoC4/CSD_SensingCSD_LL.c **** *
1345:Generated_Source\PSoC4/CSD_SensingCSD_LL.c **** *******************************************************************************/
1346:Generated_Source\PSoC4/CSD_SensingCSD_LL.c **** void CSD_SsCSDCalculateScanDuration(CSD_RAM_WD_BASE_STRUCT const *ptrWdgt)
1347:Generated_Source\PSoC4/CSD_SensingCSD_LL.c **** {
 859              		.loc 1 1347 0
 860              		.cfi_startproc
 861 0000 80B5     		push	{r7, lr}
 862              		.cfi_def_cfa_offset 8
 863              		.cfi_offset 7, -8
 864              		.cfi_offset 14, -4
 865 0002 84B0     		sub	sp, sp, #16
 866              		.cfi_def_cfa_offset 24
 867 0004 00AF     		add	r7, sp, #0
 868              		.cfi_def_cfa_register 7
 869 0006 7860     		str	r0, [r7, #4]
1348:Generated_Source\PSoC4/CSD_SensingCSD_LL.c ****     #if (CSD_ENABLE == CSD_CSDV2)
ARM GAS  C:\Users\CHRIST~1\AppData\Local\Temp\ccGy5PUQ.s 			page 40


1349:Generated_Source\PSoC4/CSD_SensingCSD_LL.c ****         uint32 conversionsNum;
1350:Generated_Source\PSoC4/CSD_SensingCSD_LL.c ****         uint32 snsClkDivider;
1351:Generated_Source\PSoC4/CSD_SensingCSD_LL.c **** 
1352:Generated_Source\PSoC4/CSD_SensingCSD_LL.c ****         /* Get Number Of Conversions */
1353:Generated_Source\PSoC4/CSD_SensingCSD_LL.c ****         #if (CSD_ENABLE == CSD_CSD_COMMON_SNS_CLK_EN)
1354:Generated_Source\PSoC4/CSD_SensingCSD_LL.c ****             snsClkDivider = CSD_dsRam.snsCsdClk;
1355:Generated_Source\PSoC4/CSD_SensingCSD_LL.c ****         #else
1356:Generated_Source\PSoC4/CSD_SensingCSD_LL.c ****             #if (CSD_ENABLE == (CSD_CSD_MATRIX_WIDGET_EN | CSD_CSD_TOUCHPAD_WIDGET_EN))
1357:Generated_Source\PSoC4/CSD_SensingCSD_LL.c ****                 /*  Get SnsClck divider for rows or columns */
1358:Generated_Source\PSoC4/CSD_SensingCSD_LL.c ****                 if (CSD_dsFlash.wdgtArray[CSD_widgetIndex].numCols <= CSD_sensorIndex)
1359:Generated_Source\PSoC4/CSD_SensingCSD_LL.c ****                 {
1360:Generated_Source\PSoC4/CSD_SensingCSD_LL.c ****                     snsClkDivider = (uint32)(ptrWdgt->rowSnsClk);
1361:Generated_Source\PSoC4/CSD_SensingCSD_LL.c ****                 }
1362:Generated_Source\PSoC4/CSD_SensingCSD_LL.c ****                 else
1363:Generated_Source\PSoC4/CSD_SensingCSD_LL.c ****                 {
1364:Generated_Source\PSoC4/CSD_SensingCSD_LL.c ****                     snsClkDivider = (uint32)(ptrWdgt->snsClk);
1365:Generated_Source\PSoC4/CSD_SensingCSD_LL.c ****                 }
1366:Generated_Source\PSoC4/CSD_SensingCSD_LL.c ****             #else
1367:Generated_Source\PSoC4/CSD_SensingCSD_LL.c ****                 snsClkDivider = (uint32)(ptrWdgt->snsClk);
 870              		.loc 1 1367 0
 871 0008 7B68     		ldr	r3, [r7, #4]
 872 000a DB7A     		ldrb	r3, [r3, #11]
 873 000c FB60     		str	r3, [r7, #12]
1368:Generated_Source\PSoC4/CSD_SensingCSD_LL.c ****             #endif /*  (CSD_ENABLE == (CSD_CSD_MATRIX_WIDGET_EN | CSD_CSD_TOUCHPAD_WIDGET_EN)) */
1369:Generated_Source\PSoC4/CSD_SensingCSD_LL.c ****         #endif /* (CSD_ENABLE == CSD_CSDV2) */
1370:Generated_Source\PSoC4/CSD_SensingCSD_LL.c **** 
1371:Generated_Source\PSoC4/CSD_SensingCSD_LL.c ****         conversionsNum = CSD_SsCSDGetNumberOfConversions(snsClkDivider, (uint32)ptrWdgt->resolution
 874              		.loc 1 1371 0
 875 000e 7B68     		ldr	r3, [r7, #4]
 876 0010 1B88     		ldrh	r3, [r3]
 877 0012 1A1C     		mov	r2, r3
 878 0014 FB68     		ldr	r3, [r7, #12]
 879 0016 181C     		mov	r0, r3
 880 0018 111C     		mov	r1, r2
 881 001a FFF7FEFF 		bl	CSD_SsCSDGetNumberOfConversions
 882 001e 031C     		mov	r3, r0
 883 0020 BB60     		str	r3, [r7, #8]
1372:Generated_Source\PSoC4/CSD_SensingCSD_LL.c **** 
1373:Generated_Source\PSoC4/CSD_SensingCSD_LL.c ****         /* Set Number Of Conversions based on scanning resolution */
1374:Generated_Source\PSoC4/CSD_SensingCSD_LL.c ****         CY_SET_REG32(CSD_SEQ_NORM_CNT_PTR, (conversionsNum & CSD_SEQ_NORM_CNT_CONV_CNT_MASK));
 884              		.loc 1 1374 0
 885 0022 044B     		ldr	r3, .L49
 886 0024 BA68     		ldr	r2, [r7, #8]
 887 0026 1204     		lsl	r2, r2, #16
 888 0028 120C     		lsr	r2, r2, #16
 889 002a 1A60     		str	r2, [r3]
1375:Generated_Source\PSoC4/CSD_SensingCSD_LL.c ****     #else
1376:Generated_Source\PSoC4/CSD_SensingCSD_LL.c ****         /*  Set up scanning resolution  */
1377:Generated_Source\PSoC4/CSD_SensingCSD_LL.c ****         CSD_counterResolution = (uint32)((0x00000001Lu << ptrWdgt->resolution) - 1u) << CSD_RESOLUT
1378:Generated_Source\PSoC4/CSD_SensingCSD_LL.c ****     #endif /* (CSD_ENABLE == CSD_CSDV2) */
1379:Generated_Source\PSoC4/CSD_SensingCSD_LL.c **** }
 890              		.loc 1 1379 0
 891 002c BD46     		mov	sp, r7
 892 002e 04B0     		add	sp, sp, #16
 893              		@ sp needed
 894 0030 80BD     		pop	{r7, pc}
 895              	.L50:
ARM GAS  C:\Users\CHRIST~1\AppData\Local\Temp\ccGy5PUQ.s 			page 41


 896 0032 C046     		.align	2
 897              	.L49:
 898 0034 14030C40 		.word	1074529044
 899              		.cfi_endproc
 900              	.LFE11:
 901              		.size	CSD_SsCSDCalculateScanDuration, .-CSD_SsCSDCalculateScanDuration
 902              		.section	.text.CSD_CSDSetupWidget,"ax",%progbits
 903              		.align	2
 904              		.global	CSD_CSDSetupWidget
 905              		.code	16
 906              		.thumb_func
 907              		.type	CSD_CSDSetupWidget, %function
 908              	CSD_CSDSetupWidget:
 909              	.LFB12:
1380:Generated_Source\PSoC4/CSD_SensingCSD_LL.c **** 
1381:Generated_Source\PSoC4/CSD_SensingCSD_LL.c **** 
1382:Generated_Source\PSoC4/CSD_SensingCSD_LL.c **** /*******************************************************************************
1383:Generated_Source\PSoC4/CSD_SensingCSD_LL.c **** * Function Name: CSD_CSDSetupWidget
1384:Generated_Source\PSoC4/CSD_SensingCSD_LL.c **** ****************************************************************************//**
1385:Generated_Source\PSoC4/CSD_SensingCSD_LL.c **** *
1386:Generated_Source\PSoC4/CSD_SensingCSD_LL.c **** * \brief
1387:Generated_Source\PSoC4/CSD_SensingCSD_LL.c **** *  Performs hardware and firmware initialization required for scanning sensors
1388:Generated_Source\PSoC4/CSD_SensingCSD_LL.c **** *  in a specific widget using the CSD sensing method. The
1389:Generated_Source\PSoC4/CSD_SensingCSD_LL.c **** *  CSD_CSDScan() function should be used to start scanning when
1390:Generated_Source\PSoC4/CSD_SensingCSD_LL.c **** *  using this function.
1391:Generated_Source\PSoC4/CSD_SensingCSD_LL.c **** *
1392:Generated_Source\PSoC4/CSD_SensingCSD_LL.c **** * \details
1393:Generated_Source\PSoC4/CSD_SensingCSD_LL.c **** *  This function initializes the specific widget common parameters to perform
1394:Generated_Source\PSoC4/CSD_SensingCSD_LL.c **** *  the CSD scanning. The initialization includes setting up a Modulator and
1395:Generated_Source\PSoC4/CSD_SensingCSD_LL.c **** *  Sense clock frequency and scanning resolution.
1396:Generated_Source\PSoC4/CSD_SensingCSD_LL.c **** *
1397:Generated_Source\PSoC4/CSD_SensingCSD_LL.c **** *  This function does not connect any specific sensors to the scanning hardware
1398:Generated_Source\PSoC4/CSD_SensingCSD_LL.c **** *  and also does not start a scanning process. The CSD_CSDScan()
1399:Generated_Source\PSoC4/CSD_SensingCSD_LL.c **** *  API must be called after initializing the widget to start scanning.
1400:Generated_Source\PSoC4/CSD_SensingCSD_LL.c **** *
1401:Generated_Source\PSoC4/CSD_SensingCSD_LL.c **** *  This function should be called when no scanning in progress. I.e.
1402:Generated_Source\PSoC4/CSD_SensingCSD_LL.c **** *  CSD_IsBusy() returns a non-busy status.
1403:Generated_Source\PSoC4/CSD_SensingCSD_LL.c **** *
1404:Generated_Source\PSoC4/CSD_SensingCSD_LL.c **** *  This function is called by the CSD_SetupWidget() API if the
1405:Generated_Source\PSoC4/CSD_SensingCSD_LL.c **** *  given widget uses the CSD sensing method.
1406:Generated_Source\PSoC4/CSD_SensingCSD_LL.c **** *
1407:Generated_Source\PSoC4/CSD_SensingCSD_LL.c **** *  It is not recommended to call this function directly from the application
1408:Generated_Source\PSoC4/CSD_SensingCSD_LL.c **** *  layer. This function should be used to implement only the users specific
1409:Generated_Source\PSoC4/CSD_SensingCSD_LL.c **** *  use cases (for faster execution time or pipeline scanning for example).
1410:Generated_Source\PSoC4/CSD_SensingCSD_LL.c **** *
1411:Generated_Source\PSoC4/CSD_SensingCSD_LL.c **** * \param  wdgtIndex
1412:Generated_Source\PSoC4/CSD_SensingCSD_LL.c **** *  Specify the ID number of the widget to perform hardware and firmware
1413:Generated_Source\PSoC4/CSD_SensingCSD_LL.c **** *  initialization required for scanning sensors in the specific widget.
1414:Generated_Source\PSoC4/CSD_SensingCSD_LL.c **** *  A macro for the widget ID can be found in CSD_Configuration.h
1415:Generated_Source\PSoC4/CSD_SensingCSD_LL.c **** *  file defined as CSD_<WidgetName>_WDGT_ID.
1416:Generated_Source\PSoC4/CSD_SensingCSD_LL.c **** *
1417:Generated_Source\PSoC4/CSD_SensingCSD_LL.c **** *******************************************************************************/
1418:Generated_Source\PSoC4/CSD_SensingCSD_LL.c **** void CSD_CSDSetupWidget(uint32 wdgtIndex)
1419:Generated_Source\PSoC4/CSD_SensingCSD_LL.c **** {
 910              		.loc 1 1419 0
 911              		.cfi_startproc
 912 0000 80B5     		push	{r7, lr}
ARM GAS  C:\Users\CHRIST~1\AppData\Local\Temp\ccGy5PUQ.s 			page 42


 913              		.cfi_def_cfa_offset 8
 914              		.cfi_offset 7, -8
 915              		.cfi_offset 14, -4
 916 0002 84B0     		sub	sp, sp, #16
 917              		.cfi_def_cfa_offset 24
 918 0004 00AF     		add	r7, sp, #0
 919              		.cfi_def_cfa_register 7
 920 0006 7860     		str	r0, [r7, #4]
1420:Generated_Source\PSoC4/CSD_SensingCSD_LL.c **** 
1421:Generated_Source\PSoC4/CSD_SensingCSD_LL.c ****     CSD_RAM_WD_BASE_STRUCT const *ptrWdgt = (CSD_RAM_WD_BASE_STRUCT *)
 921              		.loc 1 1421 0
 922 0008 1949     		ldr	r1, .L52
 923 000a 7A68     		ldr	r2, [r7, #4]
 924 000c 131C     		mov	r3, r2
 925 000e DB00     		lsl	r3, r3, #3
 926 0010 9B1A     		sub	r3, r3, r2
 927 0012 9B00     		lsl	r3, r3, #2
 928 0014 CB18     		add	r3, r1, r3
 929 0016 5B68     		ldr	r3, [r3, #4]
 930 0018 FB60     		str	r3, [r7, #12]
1422:Generated_Source\PSoC4/CSD_SensingCSD_LL.c ****                                                     CSD_dsFlash.wdgtArray[wdgtIndex].ptr2WdgtRam;
1423:Generated_Source\PSoC4/CSD_SensingCSD_LL.c **** 
1424:Generated_Source\PSoC4/CSD_SensingCSD_LL.c ****     #if ((CSD_ENABLE == CSD_CSD_CSX_EN) || \
1425:Generated_Source\PSoC4/CSD_SensingCSD_LL.c ****         (CSD_ENABLE == CSD_ADC_EN))
1426:Generated_Source\PSoC4/CSD_SensingCSD_LL.c ****          CSD_SsSwitchSensingMode(CSD_SENSE_METHOD_CSD_E);
1427:Generated_Source\PSoC4/CSD_SensingCSD_LL.c ****     #endif /* ((CSD_ENABLE == CSD_CSD_CSX_EN) || \
1428:Generated_Source\PSoC4/CSD_SensingCSD_LL.c ****                (CSD_ENABLE == CSD_ADC_EN)) */
1429:Generated_Source\PSoC4/CSD_SensingCSD_LL.c **** 
1430:Generated_Source\PSoC4/CSD_SensingCSD_LL.c ****     /* Disconnect previous electrode if it has been connected */
1431:Generated_Source\PSoC4/CSD_SensingCSD_LL.c ****     CSD_SsCSDElectrodeCheck();
 931              		.loc 1 1431 0
 932 001a FFF7FEFF 		bl	CSD_SsCSDElectrodeCheck
1432:Generated_Source\PSoC4/CSD_SensingCSD_LL.c **** 
1433:Generated_Source\PSoC4/CSD_SensingCSD_LL.c ****     /* Save widget Id to have assess to it after scanning  */
1434:Generated_Source\PSoC4/CSD_SensingCSD_LL.c ****     CSD_widgetIndex = (uint8)wdgtIndex;
 933              		.loc 1 1434 0
 934 001e 7B68     		ldr	r3, [r7, #4]
 935 0020 DAB2     		uxtb	r2, r3
 936 0022 144B     		ldr	r3, .L52+4
 937 0024 1A70     		strb	r2, [r3]
1435:Generated_Source\PSoC4/CSD_SensingCSD_LL.c **** 
1436:Generated_Source\PSoC4/CSD_SensingCSD_LL.c ****     /* Initialize IO Sns electrode structure pointer to current widget */
1437:Generated_Source\PSoC4/CSD_SensingCSD_LL.c ****     CSD_curSnsIOPtr = (CSD_FLASH_IO_STRUCT const *)
1438:Generated_Source\PSoC4/CSD_SensingCSD_LL.c ****                                     CSD_dsFlash.wdgtArray[CSD_widgetIndex].ptr2SnsFlash;
 938              		.loc 1 1438 0
 939 0026 134B     		ldr	r3, .L52+4
 940 0028 1B78     		ldrb	r3, [r3]
 941 002a DBB2     		uxtb	r3, r3
 942 002c 191C     		mov	r1, r3
 943 002e 104A     		ldr	r2, .L52
 944 0030 0B1C     		mov	r3, r1
 945 0032 DB00     		lsl	r3, r3, #3
 946 0034 5B1A     		sub	r3, r3, r1
 947 0036 9B00     		lsl	r3, r3, #2
 948 0038 9A58     		ldr	r2, [r3, r2]
1437:Generated_Source\PSoC4/CSD_SensingCSD_LL.c ****                                     CSD_dsFlash.wdgtArray[CSD_widgetIndex].ptr2SnsFlash;
 949              		.loc 1 1437 0
ARM GAS  C:\Users\CHRIST~1\AppData\Local\Temp\ccGy5PUQ.s 			page 43


 950 003a 0F4B     		ldr	r3, .L52+8
 951 003c 1A60     		str	r2, [r3]
1439:Generated_Source\PSoC4/CSD_SensingCSD_LL.c **** 
1440:Generated_Source\PSoC4/CSD_SensingCSD_LL.c ****     /* Update status register in Data structure */
1441:Generated_Source\PSoC4/CSD_SensingCSD_LL.c ****     CSD_dsRam.status &= ~CSD_STATUS_WDGT0_MASK;
 952              		.loc 1 1441 0
 953 003e 0F4B     		ldr	r3, .L52+12
 954 0040 9B68     		ldr	r3, [r3, #8]
 955 0042 7F22     		mov	r2, #127
 956 0044 9343     		bic	r3, r2
 957 0046 1A1C     		mov	r2, r3
 958 0048 0C4B     		ldr	r3, .L52+12
 959 004a 9A60     		str	r2, [r3, #8]
1442:Generated_Source\PSoC4/CSD_SensingCSD_LL.c ****     CSD_dsRam.status |= CSD_widgetIndex;
 960              		.loc 1 1442 0
 961 004c 094B     		ldr	r3, .L52+4
 962 004e 1B78     		ldrb	r3, [r3]
 963 0050 DAB2     		uxtb	r2, r3
 964 0052 0A4B     		ldr	r3, .L52+12
 965 0054 9B68     		ldr	r3, [r3, #8]
 966 0056 1A43     		orr	r2, r3
 967 0058 084B     		ldr	r3, .L52+12
 968 005a 9A60     		str	r2, [r3, #8]
1443:Generated_Source\PSoC4/CSD_SensingCSD_LL.c **** 
1444:Generated_Source\PSoC4/CSD_SensingCSD_LL.c ****     /* Set up scanning resolution (Number ofconversion for CSDv2) */
1445:Generated_Source\PSoC4/CSD_SensingCSD_LL.c ****     CSD_SsCSDCalculateScanDuration(ptrWdgt);
 969              		.loc 1 1445 0
 970 005c FB68     		ldr	r3, [r7, #12]
 971 005e 181C     		mov	r0, r3
 972 0060 FFF7FEFF 		bl	CSD_SsCSDCalculateScanDuration
1446:Generated_Source\PSoC4/CSD_SensingCSD_LL.c **** 
1447:Generated_Source\PSoC4/CSD_SensingCSD_LL.c ****     #if ((CSD_DISABLE == CSD_CSD_COMMON_SNS_CLK_EN) ||\
1448:Generated_Source\PSoC4/CSD_SensingCSD_LL.c ****          (CSD_CLK_SOURCE_DIRECT != CSD_CSD_SNS_CLK_SOURCE))
1449:Generated_Source\PSoC4/CSD_SensingCSD_LL.c ****         CSD_SsCSDConfigClock();
 973              		.loc 1 1449 0
 974 0064 FFF7FEFF 		bl	CSD_SsCSDConfigClock
1450:Generated_Source\PSoC4/CSD_SensingCSD_LL.c ****     #endif /* ((CSD_DISABLE == CSD_CSD_COMMON_SNS_CLK_EN) ||\
1451:Generated_Source\PSoC4/CSD_SensingCSD_LL.c ****                (CSD_CLK_SOURCE_DIRECT != CSD_CSD_SNS_CLK_SOURCE)) */
1452:Generated_Source\PSoC4/CSD_SensingCSD_LL.c **** }
 975              		.loc 1 1452 0
 976 0068 BD46     		mov	sp, r7
 977 006a 04B0     		add	sp, sp, #16
 978              		@ sp needed
 979 006c 80BD     		pop	{r7, pc}
 980              	.L53:
 981 006e C046     		.align	2
 982              	.L52:
 983 0070 00000000 		.word	CSD_dsFlash
 984 0074 00000000 		.word	CSD_widgetIndex
 985 0078 00000000 		.word	CSD_curSnsIOPtr
 986 007c 00000000 		.word	CSD_dsRam
 987              		.cfi_endproc
 988              	.LFE12:
 989              		.size	CSD_CSDSetupWidget, .-CSD_CSDSetupWidget
 990              		.section	.text.CSD_CSDSetupWidgetExt,"ax",%progbits
 991              		.align	2
 992              		.global	CSD_CSDSetupWidgetExt
ARM GAS  C:\Users\CHRIST~1\AppData\Local\Temp\ccGy5PUQ.s 			page 44


 993              		.code	16
 994              		.thumb_func
 995              		.type	CSD_CSDSetupWidgetExt, %function
 996              	CSD_CSDSetupWidgetExt:
 997              	.LFB13:
1453:Generated_Source\PSoC4/CSD_SensingCSD_LL.c **** 
1454:Generated_Source\PSoC4/CSD_SensingCSD_LL.c **** 
1455:Generated_Source\PSoC4/CSD_SensingCSD_LL.c **** /*******************************************************************************
1456:Generated_Source\PSoC4/CSD_SensingCSD_LL.c **** * Function Name: CSD_CSDSetupWidgetExt
1457:Generated_Source\PSoC4/CSD_SensingCSD_LL.c **** ****************************************************************************//**
1458:Generated_Source\PSoC4/CSD_SensingCSD_LL.c **** *
1459:Generated_Source\PSoC4/CSD_SensingCSD_LL.c **** * \brief
1460:Generated_Source\PSoC4/CSD_SensingCSD_LL.c **** *  Performs extended initialization for the CSD widget and also performs
1461:Generated_Source\PSoC4/CSD_SensingCSD_LL.c **** *  initialization required for a specific sensor in the widget. The
1462:Generated_Source\PSoC4/CSD_SensingCSD_LL.c **** *  CSD_CSXScanExt() function should be called to initiate a scan
1463:Generated_Source\PSoC4/CSD_SensingCSD_LL.c **** *  when using this function.
1464:Generated_Source\PSoC4/CSD_SensingCSD_LL.c **** *
1465:Generated_Source\PSoC4/CSD_SensingCSD_LL.c **** * \details
1466:Generated_Source\PSoC4/CSD_SensingCSD_LL.c **** *  This function does the same as CSD_CSDSetupWidget() and also
1467:Generated_Source\PSoC4/CSD_SensingCSD_LL.c **** *  the following tasks:
1468:Generated_Source\PSoC4/CSD_SensingCSD_LL.c **** *    1. Connects the first sensor of the widget.
1469:Generated_Source\PSoC4/CSD_SensingCSD_LL.c **** *    2. Configures the IDAC value.
1470:Generated_Source\PSoC4/CSD_SensingCSD_LL.c **** *    3. Initializes an interrupt callback function to initialize a scan of the
1471:Generated_Source\PSoC4/CSD_SensingCSD_LL.c **** *  next sensors in a widget.
1472:Generated_Source\PSoC4/CSD_SensingCSD_LL.c **** *
1473:Generated_Source\PSoC4/CSD_SensingCSD_LL.c **** *  Once this function is called to initialize a widget and a sensor, the
1474:Generated_Source\PSoC4/CSD_SensingCSD_LL.c **** *  CSD_CSDScanExt() function should be called to scan the sensor.
1475:Generated_Source\PSoC4/CSD_SensingCSD_LL.c **** *
1476:Generated_Source\PSoC4/CSD_SensingCSD_LL.c **** *  This function should be called when no scanning in progress. I.e.
1477:Generated_Source\PSoC4/CSD_SensingCSD_LL.c **** *  CSD_IsBusy() returns a non-busy status.
1478:Generated_Source\PSoC4/CSD_SensingCSD_LL.c **** *
1479:Generated_Source\PSoC4/CSD_SensingCSD_LL.c **** *  It is not recommended to call this function directly from the application
1480:Generated_Source\PSoC4/CSD_SensingCSD_LL.c **** *  layer. This function should be used to implement only the users specific
1481:Generated_Source\PSoC4/CSD_SensingCSD_LL.c **** *  use cases (for faster execution time or pipeline scanning for example).
1482:Generated_Source\PSoC4/CSD_SensingCSD_LL.c **** *
1483:Generated_Source\PSoC4/CSD_SensingCSD_LL.c **** * \param  wdgtIndex
1484:Generated_Source\PSoC4/CSD_SensingCSD_LL.c **** *  Specify the ID number of the widget to perform hardware and firmware
1485:Generated_Source\PSoC4/CSD_SensingCSD_LL.c **** *  initialization required for scanning the specific sensor in the specific
1486:Generated_Source\PSoC4/CSD_SensingCSD_LL.c **** *  widget.
1487:Generated_Source\PSoC4/CSD_SensingCSD_LL.c **** *  A macro for the widget ID can be found in CSD_Configuration.h
1488:Generated_Source\PSoC4/CSD_SensingCSD_LL.c **** *  file defined as CSD_<WidgetName>_WDGT_ID.
1489:Generated_Source\PSoC4/CSD_SensingCSD_LL.c **** *
1490:Generated_Source\PSoC4/CSD_SensingCSD_LL.c **** * \param snsIndex
1491:Generated_Source\PSoC4/CSD_SensingCSD_LL.c **** *  Specify the ID number of the sensor within the widget to perform hardware
1492:Generated_Source\PSoC4/CSD_SensingCSD_LL.c **** *  and firmware initialization required for scanning a specific sensor in a
1493:Generated_Source\PSoC4/CSD_SensingCSD_LL.c **** *  specific widget.
1494:Generated_Source\PSoC4/CSD_SensingCSD_LL.c **** *  A macro for the sensor ID within a specified widget can be found in the
1495:Generated_Source\PSoC4/CSD_SensingCSD_LL.c **** *  CSD_Configuration.h file defined as
1496:Generated_Source\PSoC4/CSD_SensingCSD_LL.c **** *  CSD_<WidgetName>_SNS<SensorNumber>_ID
1497:Generated_Source\PSoC4/CSD_SensingCSD_LL.c **** *
1498:Generated_Source\PSoC4/CSD_SensingCSD_LL.c **** *******************************************************************************/
1499:Generated_Source\PSoC4/CSD_SensingCSD_LL.c **** void CSD_CSDSetupWidgetExt(uint32 wdgtIndex, uint32 snsIndex)
1500:Generated_Source\PSoC4/CSD_SensingCSD_LL.c **** {
 998              		.loc 1 1500 0
 999              		.cfi_startproc
 1000 0000 80B5     		push	{r7, lr}
 1001              		.cfi_def_cfa_offset 8
ARM GAS  C:\Users\CHRIST~1\AppData\Local\Temp\ccGy5PUQ.s 			page 45


 1002              		.cfi_offset 7, -8
 1003              		.cfi_offset 14, -4
 1004 0002 84B0     		sub	sp, sp, #16
 1005              		.cfi_def_cfa_offset 24
 1006 0004 00AF     		add	r7, sp, #0
 1007              		.cfi_def_cfa_register 7
 1008 0006 7860     		str	r0, [r7, #4]
 1009 0008 3960     		str	r1, [r7]
1501:Generated_Source\PSoC4/CSD_SensingCSD_LL.c ****     CSD_RAM_WD_BASE_STRUCT const *ptrWdgt = (CSD_RAM_WD_BASE_STRUCT *)
 1010              		.loc 1 1501 0
 1011 000a 2249     		ldr	r1, .L55
 1012 000c 7A68     		ldr	r2, [r7, #4]
 1013 000e 131C     		mov	r3, r2
 1014 0010 DB00     		lsl	r3, r3, #3
 1015 0012 9B1A     		sub	r3, r3, r2
 1016 0014 9B00     		lsl	r3, r3, #2
 1017 0016 CB18     		add	r3, r1, r3
 1018 0018 5B68     		ldr	r3, [r3, #4]
 1019 001a FB60     		str	r3, [r7, #12]
1502:Generated_Source\PSoC4/CSD_SensingCSD_LL.c ****                                                     CSD_dsFlash.wdgtArray[wdgtIndex].ptr2WdgtRam;
1503:Generated_Source\PSoC4/CSD_SensingCSD_LL.c **** 
1504:Generated_Source\PSoC4/CSD_SensingCSD_LL.c ****     /* Save widget and sensor Ids to have access to it after scanning  */
1505:Generated_Source\PSoC4/CSD_SensingCSD_LL.c ****     CSD_sensorIndex = (uint8)snsIndex;
 1020              		.loc 1 1505 0
 1021 001c 3B68     		ldr	r3, [r7]
 1022 001e DAB2     		uxtb	r2, r3
 1023 0020 1D4B     		ldr	r3, .L55+4
 1024 0022 1A70     		strb	r2, [r3]
1506:Generated_Source\PSoC4/CSD_SensingCSD_LL.c **** 
1507:Generated_Source\PSoC4/CSD_SensingCSD_LL.c ****     /*  Update global pointer to CSD_RAM_SNS_STRUCT to current sensor  */
1508:Generated_Source\PSoC4/CSD_SensingCSD_LL.c ****     CSD_curRamSnsPtr = (CSD_RAM_SNS_STRUCT *)
1509:Generated_Source\PSoC4/CSD_SensingCSD_LL.c ****                                               CSD_dsFlash.wdgtArray[wdgtIndex].ptr2SnsRam
 1025              		.loc 1 1509 0
 1026 0024 1B49     		ldr	r1, .L55
 1027 0026 7A68     		ldr	r2, [r7, #4]
 1028 0028 131C     		mov	r3, r2
 1029 002a DB00     		lsl	r3, r3, #3
 1030 002c 9B1A     		sub	r3, r3, r2
 1031 002e 9B00     		lsl	r3, r3, #2
 1032 0030 CB18     		add	r3, r1, r3
 1033 0032 0833     		add	r3, r3, #8
 1034 0034 1A68     		ldr	r2, [r3]
1510:Generated_Source\PSoC4/CSD_SensingCSD_LL.c ****                                               + CSD_sensorIndex;
 1035              		.loc 1 1510 0
 1036 0036 184B     		ldr	r3, .L55+4
 1037 0038 1B78     		ldrb	r3, [r3]
 1038 003a DBB2     		uxtb	r3, r3
 1039 003c 191C     		mov	r1, r3
 1040 003e 0B1C     		mov	r3, r1
 1041 0040 9B00     		lsl	r3, r3, #2
 1042 0042 5B18     		add	r3, r3, r1
 1043 0044 5B00     		lsl	r3, r3, #1
 1044 0046 D218     		add	r2, r2, r3
1508:Generated_Source\PSoC4/CSD_SensingCSD_LL.c ****                                               CSD_dsFlash.wdgtArray[wdgtIndex].ptr2SnsRam
 1045              		.loc 1 1508 0
 1046 0048 144B     		ldr	r3, .L55+8
 1047 004a 1A60     		str	r2, [r3]
ARM GAS  C:\Users\CHRIST~1\AppData\Local\Temp\ccGy5PUQ.s 			page 46


1511:Generated_Source\PSoC4/CSD_SensingCSD_LL.c **** 
1512:Generated_Source\PSoC4/CSD_SensingCSD_LL.c ****     CSD_CSDSetupWidget(wdgtIndex);
 1048              		.loc 1 1512 0
 1049 004c 7B68     		ldr	r3, [r7, #4]
 1050 004e 181C     		mov	r0, r3
 1051 0050 FFF7FEFF 		bl	CSD_CSDSetupWidget
1513:Generated_Source\PSoC4/CSD_SensingCSD_LL.c **** 
1514:Generated_Source\PSoC4/CSD_SensingCSD_LL.c ****      /* Setup Idac Value */
1515:Generated_Source\PSoC4/CSD_SensingCSD_LL.c ****     CSD_SsCSDSetUpIdacs(ptrWdgt);
 1052              		.loc 1 1515 0
 1053 0054 FB68     		ldr	r3, [r7, #12]
 1054 0056 181C     		mov	r0, r3
 1055 0058 FFF7FEFF 		bl	CSD_SsCSDSetUpIdacs
1516:Generated_Source\PSoC4/CSD_SensingCSD_LL.c **** 
1517:Generated_Source\PSoC4/CSD_SensingCSD_LL.c ****     #if (CSD_ENABLE == CSD_CSD_GANGED_SNS_EN)
1518:Generated_Source\PSoC4/CSD_SensingCSD_LL.c ****         /*  Initialise access pointers for current pointer to widget configuration in Flash */
1519:Generated_Source\PSoC4/CSD_SensingCSD_LL.c ****         CSD_curFlashWdgtPtr = &CSD_dsFlash.wdgtArray[wdgtIndex];
1520:Generated_Source\PSoC4/CSD_SensingCSD_LL.c ****     #endif /* (CSD_ENABLE == CSD_CSD_GANGED_SNS_EN)  */
1521:Generated_Source\PSoC4/CSD_SensingCSD_LL.c **** 
1522:Generated_Source\PSoC4/CSD_SensingCSD_LL.c ****     #if (CSD_ENABLE == CSD_CSD_GANGED_SNS_EN)
1523:Generated_Source\PSoC4/CSD_SensingCSD_LL.c ****         CSD_SsCSDConnectSensorExt(wdgtIndex, snsIndex);
1524:Generated_Source\PSoC4/CSD_SensingCSD_LL.c ****     #else
1525:Generated_Source\PSoC4/CSD_SensingCSD_LL.c ****         /* Enable sensor */
1526:Generated_Source\PSoC4/CSD_SensingCSD_LL.c ****         CSD_curSnsIOPtr += CSD_sensorIndex;
 1056              		.loc 1 1526 0
 1057 005c 0E4B     		ldr	r3, .L55+4
 1058 005e 1B78     		ldrb	r3, [r3]
 1059 0060 D9B2     		uxtb	r1, r3
 1060 0062 0F4B     		ldr	r3, .L55+12
 1061 0064 1A68     		ldr	r2, [r3]
 1062 0066 0B1C     		mov	r3, r1
 1063 0068 DB00     		lsl	r3, r3, #3
 1064 006a 5B1A     		sub	r3, r3, r1
 1065 006c 9B00     		lsl	r3, r3, #2
 1066 006e D218     		add	r2, r2, r3
 1067 0070 0B4B     		ldr	r3, .L55+12
 1068 0072 1A60     		str	r2, [r3]
1527:Generated_Source\PSoC4/CSD_SensingCSD_LL.c ****         CSD_CSDConnectSns(CSD_curSnsIOPtr);
 1069              		.loc 1 1527 0
 1070 0074 0A4B     		ldr	r3, .L55+12
 1071 0076 1B68     		ldr	r3, [r3]
 1072 0078 181C     		mov	r0, r3
 1073 007a FFF7FEFF 		bl	CSD_CSDConnectSns
1528:Generated_Source\PSoC4/CSD_SensingCSD_LL.c ****     #endif /* (CSD_ENABLE == CSD_CSD_GANGED_SNS_EN)  */
1529:Generated_Source\PSoC4/CSD_SensingCSD_LL.c **** 
1530:Generated_Source\PSoC4/CSD_SensingCSD_LL.c ****     #if (CSD_ENABLE == CSD_CSD_GANGED_SNS_EN)
1531:Generated_Source\PSoC4/CSD_SensingCSD_LL.c ****         /* Save sns pointer */
1532:Generated_Source\PSoC4/CSD_SensingCSD_LL.c ****         CSD_curFlashSnsPtr = (CSD_FLASH_SNS_STRUCT const *)
1533:Generated_Source\PSoC4/CSD_SensingCSD_LL.c ****                                            CSD_dsFlash.wdgtArray[CSD_widgetIndex].ptr2SnsFlash +
1534:Generated_Source\PSoC4/CSD_SensingCSD_LL.c ****                                            CSD_sensorIndex;
1535:Generated_Source\PSoC4/CSD_SensingCSD_LL.c ****     #endif /* (CSD_ENABLE == CSD_CSD_GANGED_SNS_EN) */
1536:Generated_Source\PSoC4/CSD_SensingCSD_LL.c **** 
1537:Generated_Source\PSoC4/CSD_SensingCSD_LL.c ****     CSD_eleCsdDisconnectFlag = CSD_DISCONNECT_IO_FLAG;
 1074              		.loc 1 1537 0
 1075 007e 094B     		ldr	r3, .L55+16
 1076 0080 0122     		mov	r2, #1
 1077 0082 1A70     		strb	r2, [r3]
ARM GAS  C:\Users\CHRIST~1\AppData\Local\Temp\ccGy5PUQ.s 			page 47


1538:Generated_Source\PSoC4/CSD_SensingCSD_LL.c **** 
1539:Generated_Source\PSoC4/CSD_SensingCSD_LL.c ****     /*  Setup ISR handler to single-sensor scan function */
1540:Generated_Source\PSoC4/CSD_SensingCSD_LL.c ****     CSD_ISR_StartEx(&CSD_CSDPostSingleScan);
 1078              		.loc 1 1540 0
 1079 0084 084B     		ldr	r3, .L55+20
 1080 0086 181C     		mov	r0, r3
 1081 0088 FFF7FEFF 		bl	CSD_ISR_StartEx
1541:Generated_Source\PSoC4/CSD_SensingCSD_LL.c **** }
 1082              		.loc 1 1541 0
 1083 008c BD46     		mov	sp, r7
 1084 008e 04B0     		add	sp, sp, #16
 1085              		@ sp needed
 1086 0090 80BD     		pop	{r7, pc}
 1087              	.L56:
 1088 0092 C046     		.align	2
 1089              	.L55:
 1090 0094 00000000 		.word	CSD_dsFlash
 1091 0098 00000000 		.word	CSD_sensorIndex
 1092 009c 00000000 		.word	CSD_curRamSnsPtr
 1093 00a0 00000000 		.word	CSD_curSnsIOPtr
 1094 00a4 04000000 		.word	CSD_eleCsdDisconnectFlag
 1095 00a8 00000000 		.word	CSD_CSDPostSingleScan
 1096              		.cfi_endproc
 1097              	.LFE13:
 1098              		.size	CSD_CSDSetupWidgetExt, .-CSD_CSDSetupWidgetExt
 1099              		.section	.text.CSD_SsCSDStartSample,"ax",%progbits
 1100              		.align	2
 1101              		.global	CSD_SsCSDStartSample
 1102              		.code	16
 1103              		.thumb_func
 1104              		.type	CSD_SsCSDStartSample, %function
 1105              	CSD_SsCSDStartSample:
 1106              	.LFB14:
1542:Generated_Source\PSoC4/CSD_SensingCSD_LL.c **** 
1543:Generated_Source\PSoC4/CSD_SensingCSD_LL.c **** 
1544:Generated_Source\PSoC4/CSD_SensingCSD_LL.c **** /*******************************************************************************
1545:Generated_Source\PSoC4/CSD_SensingCSD_LL.c **** * Function Name: CSD_SsCSDStartSample
1546:Generated_Source\PSoC4/CSD_SensingCSD_LL.c **** ****************************************************************************//**
1547:Generated_Source\PSoC4/CSD_SensingCSD_LL.c **** *
1548:Generated_Source\PSoC4/CSD_SensingCSD_LL.c **** * \brief
1549:Generated_Source\PSoC4/CSD_SensingCSD_LL.c **** *   Starts the CSD conversion.
1550:Generated_Source\PSoC4/CSD_SensingCSD_LL.c **** *
1551:Generated_Source\PSoC4/CSD_SensingCSD_LL.c **** * \details
1552:Generated_Source\PSoC4/CSD_SensingCSD_LL.c **** *   This function assumes that the CSD block is already set up using
1553:Generated_Source\PSoC4/CSD_SensingCSD_LL.c **** *   the CSD_CSDSetupWidget API and the sensor port-pin is connected to the CSD
1554:Generated_Source\PSoC4/CSD_SensingCSD_LL.c **** *   block using CSD_CSDConnectSns.
1555:Generated_Source\PSoC4/CSD_SensingCSD_LL.c **** *   For CSDv1 the function performs the following tasks:
1556:Generated_Source\PSoC4/CSD_SensingCSD_LL.c **** *   1. Disconnects the Vref buffer from AMUX;
1557:Generated_Source\PSoC4/CSD_SensingCSD_LL.c **** *   2. Precharges Cmod;
1558:Generated_Source\PSoC4/CSD_SensingCSD_LL.c **** *   3. Makes the PreSettling delay to have a stable Vref voltage;
1559:Generated_Source\PSoC4/CSD_SensingCSD_LL.c **** *   4. Sets the resolution to the Counter register to start scanning.
1560:Generated_Source\PSoC4/CSD_SensingCSD_LL.c **** *
1561:Generated_Source\PSoC4/CSD_SensingCSD_LL.c **** *******************************************************************************/
1562:Generated_Source\PSoC4/CSD_SensingCSD_LL.c **** void CSD_SsCSDStartSample(void)
1563:Generated_Source\PSoC4/CSD_SensingCSD_LL.c **** {
 1107              		.loc 1 1563 0
 1108              		.cfi_startproc
ARM GAS  C:\Users\CHRIST~1\AppData\Local\Temp\ccGy5PUQ.s 			page 48


 1109 0000 80B5     		push	{r7, lr}
 1110              		.cfi_def_cfa_offset 8
 1111              		.cfi_offset 7, -8
 1112              		.cfi_offset 14, -4
 1113 0002 00AF     		add	r7, sp, #0
 1114              		.cfi_def_cfa_register 7
1564:Generated_Source\PSoC4/CSD_SensingCSD_LL.c **** #if (CSD_ENABLE == CSD_CSDV2)
1565:Generated_Source\PSoC4/CSD_SensingCSD_LL.c ****     /* CSDv2 HW IP block section */
1566:Generated_Source\PSoC4/CSD_SensingCSD_LL.c **** 
1567:Generated_Source\PSoC4/CSD_SensingCSD_LL.c ****     /* Disable CSD interrupt to prevent it during coarse initialization */
1568:Generated_Source\PSoC4/CSD_SensingCSD_LL.c ****     CyIntDisable(CSD_ISR_NUMBER);
 1115              		.loc 1 1568 0
 1116 0004 0E20     		mov	r0, #14
 1117 0006 FFF7FEFF 		bl	CyIntDisable
1569:Generated_Source\PSoC4/CSD_SensingCSD_LL.c **** 
1570:Generated_Source\PSoC4/CSD_SensingCSD_LL.c ****     /* Enable power to sub-blocks */
1571:Generated_Source\PSoC4/CSD_SensingCSD_LL.c ****     CY_SET_REG32(CSD_HSCMP_PTR, CSD_HSCMP_INIT_MASK);
 1118              		.loc 1 1571 0
 1119 000a 064B     		ldr	r3, .L58
 1120 000c 0122     		mov	r2, #1
 1121 000e 1A60     		str	r2, [r3]
1572:Generated_Source\PSoC4/CSD_SensingCSD_LL.c **** 
1573:Generated_Source\PSoC4/CSD_SensingCSD_LL.c ****     #if (CSD_ENABLE == CSD_BLOCK_OFF_AFTER_SCAN_EN)
1574:Generated_Source\PSoC4/CSD_SensingCSD_LL.c ****         CY_SET_REG32(CSD_CONFIG_PTR, CSD_configCsd |
1575:Generated_Source\PSoC4/CSD_SensingCSD_LL.c ****                                                   CSD_CONFIG_SENSE_EN_MASK |
1576:Generated_Source\PSoC4/CSD_SensingCSD_LL.c ****                                                   CSD_CONFIG_ENABLE_MASK);
1577:Generated_Source\PSoC4/CSD_SensingCSD_LL.c **** 
1578:Generated_Source\PSoC4/CSD_SensingCSD_LL.c ****         /*  Wait until CSD block powers ON */
1579:Generated_Source\PSoC4/CSD_SensingCSD_LL.c ****         CyDelayCycles(CSD_CSD_ON_DELAY);
1580:Generated_Source\PSoC4/CSD_SensingCSD_LL.c ****     #else
1581:Generated_Source\PSoC4/CSD_SensingCSD_LL.c ****         /*  Wait until HSCMP powers ON */
1582:Generated_Source\PSoC4/CSD_SensingCSD_LL.c ****         CyDelayCycles(CSD_HSCMP_ON_DELAY);
 1122              		.loc 1 1582 0
 1123 0010 3020     		mov	r0, #48
 1124 0012 FFF7FEFF 		bl	CyDelayCycles
1583:Generated_Source\PSoC4/CSD_SensingCSD_LL.c ****     #endif /* (CSD_ENABLE == CSD_BLOCK_OFF_AFTER_SCAN_EN) */
1584:Generated_Source\PSoC4/CSD_SensingCSD_LL.c **** 
1585:Generated_Source\PSoC4/CSD_SensingCSD_LL.c ****     /* Precharging Cmod and Csh */
1586:Generated_Source\PSoC4/CSD_SensingCSD_LL.c ****     CSD_SsCSDCmodPrecharge();
 1125              		.loc 1 1586 0
 1126 0016 FFF7FEFF 		bl	CSD_SsCSDCmodPrecharge
1587:Generated_Source\PSoC4/CSD_SensingCSD_LL.c **** 
1588:Generated_Source\PSoC4/CSD_SensingCSD_LL.c ****     /* Trigger Scan */
1589:Generated_Source\PSoC4/CSD_SensingCSD_LL.c ****     CSD_SsCSDTriggerScan();
 1127              		.loc 1 1589 0
 1128 001a FFF7FEFF 		bl	CSD_SsCSDTriggerScan
1590:Generated_Source\PSoC4/CSD_SensingCSD_LL.c **** 
1591:Generated_Source\PSoC4/CSD_SensingCSD_LL.c **** #else
1592:Generated_Source\PSoC4/CSD_SensingCSD_LL.c ****     /* CSDv1 HW IP block section */
1593:Generated_Source\PSoC4/CSD_SensingCSD_LL.c **** 
1594:Generated_Source\PSoC4/CSD_SensingCSD_LL.c ****     uint8 interruptState;
1595:Generated_Source\PSoC4/CSD_SensingCSD_LL.c **** 
1596:Generated_Source\PSoC4/CSD_SensingCSD_LL.c ****     interruptState = CyEnterCriticalSection();
1597:Generated_Source\PSoC4/CSD_SensingCSD_LL.c **** 
1598:Generated_Source\PSoC4/CSD_SensingCSD_LL.c ****     /*  Enable CSD block. Disconnect Vref Buffer from AMUX */
1599:Generated_Source\PSoC4/CSD_SensingCSD_LL.c ****     #if ((CSD_CSH_PRECHARGE_IO_BUF == CSD_CSD_CSH_PRECHARGE_SRC) &&\
1600:Generated_Source\PSoC4/CSD_SensingCSD_LL.c ****          (CSD_ENABLE == CSD_CSD_SHIELD_TANK_EN))
ARM GAS  C:\Users\CHRIST~1\AppData\Local\Temp\ccGy5PUQ.s 			page 49


1601:Generated_Source\PSoC4/CSD_SensingCSD_LL.c ****         CY_SET_REG32(CSD_CONFIG_PTR, CSD_configCsd | CSD_CMOD_PRECHARGE_CONFIG_CSD_EN);
1602:Generated_Source\PSoC4/CSD_SensingCSD_LL.c ****     #else
1603:Generated_Source\PSoC4/CSD_SensingCSD_LL.c ****         CY_SET_REG32(CSD_CONFIG_PTR, CSD_configCsd | CSD_CTANK_PRECHARGE_CONFIG_CSD_EN);
1604:Generated_Source\PSoC4/CSD_SensingCSD_LL.c ****     #endif /* ((CSD_CSH_PRECHARGE_IO_BUF == CSD_CSD_CSH_PRECHARGE_SRC) &&\
1605:Generated_Source\PSoC4/CSD_SensingCSD_LL.c ****                (CSD_ENABLE == CSD_CSD_SHIELD_TANK_EN)) */
1606:Generated_Source\PSoC4/CSD_SensingCSD_LL.c **** 
1607:Generated_Source\PSoC4/CSD_SensingCSD_LL.c ****     /* Restart the clocks. Scan one cycle to reset the flip-flop for Direct clock mode */
1608:Generated_Source\PSoC4/CSD_SensingCSD_LL.c ****     CSD_SsCSDClockRestart();
1609:Generated_Source\PSoC4/CSD_SensingCSD_LL.c **** 
1610:Generated_Source\PSoC4/CSD_SensingCSD_LL.c ****     /* Precharging Cmod to Vref */
1611:Generated_Source\PSoC4/CSD_SensingCSD_LL.c ****     CSD_SsCSDCmodPrecharge();
1612:Generated_Source\PSoC4/CSD_SensingCSD_LL.c **** 
1613:Generated_Source\PSoC4/CSD_SensingCSD_LL.c ****     #if (CSD_CLK_SOURCE_DIRECT != CSD_CSD_SNS_CLK_SOURCE)
1614:Generated_Source\PSoC4/CSD_SensingCSD_LL.c ****         /* Set PreSettling delay to skip IDAC glitch before scanning */
1615:Generated_Source\PSoC4/CSD_SensingCSD_LL.c ****         CyDelayCycles(CSD_GLITCH_ELIMINATION_CYCLES);
1616:Generated_Source\PSoC4/CSD_SensingCSD_LL.c ****     #endif /* (CSD_CSD_SNS_CLK_SOURCE != CSD_CLK_SOURCE_DIRECT) */
1617:Generated_Source\PSoC4/CSD_SensingCSD_LL.c **** 
1618:Generated_Source\PSoC4/CSD_SensingCSD_LL.c ****     /* Trigger Scan */
1619:Generated_Source\PSoC4/CSD_SensingCSD_LL.c ****     CSD_SsCSDTriggerScan();
1620:Generated_Source\PSoC4/CSD_SensingCSD_LL.c **** 
1621:Generated_Source\PSoC4/CSD_SensingCSD_LL.c ****     CyExitCriticalSection(interruptState);
1622:Generated_Source\PSoC4/CSD_SensingCSD_LL.c **** #endif /* (CSD_ENABLE == CSD_CSDV2) */
1623:Generated_Source\PSoC4/CSD_SensingCSD_LL.c **** }
 1129              		.loc 1 1623 0
 1130 001e BD46     		mov	sp, r7
 1131              		@ sp needed
 1132 0020 80BD     		pop	{r7, pc}
 1133              	.L59:
 1134 0022 C046     		.align	2
 1135              	.L58:
 1136 0024 80010C40 		.word	1074528640
 1137              		.cfi_endproc
 1138              	.LFE14:
 1139              		.size	CSD_SsCSDStartSample, .-CSD_SsCSDStartSample
 1140              		.section	.text.CSD_CSDScanExt,"ax",%progbits
 1141              		.align	2
 1142              		.global	CSD_CSDScanExt
 1143              		.code	16
 1144              		.thumb_func
 1145              		.type	CSD_CSDScanExt, %function
 1146              	CSD_CSDScanExt:
 1147              	.LFB15:
1624:Generated_Source\PSoC4/CSD_SensingCSD_LL.c **** 
1625:Generated_Source\PSoC4/CSD_SensingCSD_LL.c **** 
1626:Generated_Source\PSoC4/CSD_SensingCSD_LL.c **** /*******************************************************************************
1627:Generated_Source\PSoC4/CSD_SensingCSD_LL.c **** * Function Name: CSD_CSDScanExt
1628:Generated_Source\PSoC4/CSD_SensingCSD_LL.c **** ****************************************************************************//**
1629:Generated_Source\PSoC4/CSD_SensingCSD_LL.c **** *
1630:Generated_Source\PSoC4/CSD_SensingCSD_LL.c **** * \brief
1631:Generated_Source\PSoC4/CSD_SensingCSD_LL.c **** *  Starts the CSD conversion on the preconfigured sensor.
1632:Generated_Source\PSoC4/CSD_SensingCSD_LL.c **** *  CSD_CSXSetupWidgetExt() function should be used to setup the
1633:Generated_Source\PSoC4/CSD_SensingCSD_LL.c **** *  widget when using this function.
1634:Generated_Source\PSoC4/CSD_SensingCSD_LL.c **** *
1635:Generated_Source\PSoC4/CSD_SensingCSD_LL.c **** * \details
1636:Generated_Source\PSoC4/CSD_SensingCSD_LL.c **** *  This function performs single scanning of one sensor in the widget configured
1637:Generated_Source\PSoC4/CSD_SensingCSD_LL.c **** *  by the CSD_CSDSetupWidgetExt() function. It does the following
1638:Generated_Source\PSoC4/CSD_SensingCSD_LL.c **** *  tasks:
ARM GAS  C:\Users\CHRIST~1\AppData\Local\Temp\ccGy5PUQ.s 			page 50


1639:Generated_Source\PSoC4/CSD_SensingCSD_LL.c **** *    1. Sets the busy flag in the CSD_dsRam structure.
1640:Generated_Source\PSoC4/CSD_SensingCSD_LL.c **** *    2. Performs the clock-phase alignment of the sense and modulator clocks.
1641:Generated_Source\PSoC4/CSD_SensingCSD_LL.c **** *    3. Performs Cmod pre-charging.
1642:Generated_Source\PSoC4/CSD_SensingCSD_LL.c **** *    4. Starts single scanning.
1643:Generated_Source\PSoC4/CSD_SensingCSD_LL.c **** *
1644:Generated_Source\PSoC4/CSD_SensingCSD_LL.c **** *  It is not recommended to call this function directly from the application
1645:Generated_Source\PSoC4/CSD_SensingCSD_LL.c **** *  layer. This function should be used to implement only the users specific
1646:Generated_Source\PSoC4/CSD_SensingCSD_LL.c **** *  use cases (for faster execution time or pipeline scanning for example).
1647:Generated_Source\PSoC4/CSD_SensingCSD_LL.c **** *  This function should be called when no scanning in progress. I.e.
1648:Generated_Source\PSoC4/CSD_SensingCSD_LL.c **** *  CSD_IsBusy() returns a non-busy status.
1649:Generated_Source\PSoC4/CSD_SensingCSD_LL.c **** *
1650:Generated_Source\PSoC4/CSD_SensingCSD_LL.c **** *  The sensor must be preconfigured by using the
1651:Generated_Source\PSoC4/CSD_SensingCSD_LL.c **** *  CSD_CSDSetupWidgetExt() API prior to calling this function.
1652:Generated_Source\PSoC4/CSD_SensingCSD_LL.c **** *  The sensor remains ready for the next scan if a previous scan was triggered
1653:Generated_Source\PSoC4/CSD_SensingCSD_LL.c **** *  by using the CSD_CSDScanExt() function. In this case, calling
1654:Generated_Source\PSoC4/CSD_SensingCSD_LL.c **** *  CSD_CSDSetupWidgetExt() is not required every time before the
1655:Generated_Source\PSoC4/CSD_SensingCSD_LL.c **** *  CSD_CSDScanExt() function. If a previous scan was triggered in
1656:Generated_Source\PSoC4/CSD_SensingCSD_LL.c **** *  any other way: CSD_Scan(), CSD_ScanAllWidgets() or
1657:Generated_Source\PSoC4/CSD_SensingCSD_LL.c **** *  CSD_RunTuner() (see the CSD_RunTuner() function
1658:Generated_Source\PSoC4/CSD_SensingCSD_LL.c **** *  description for more details), the sensor must be preconfigured again by
1659:Generated_Source\PSoC4/CSD_SensingCSD_LL.c **** *  using the CSD_CSDSetupWidgetExt() API prior to calling the
1660:Generated_Source\PSoC4/CSD_SensingCSD_LL.c **** *  CSD_CSDScanExt() function.
1661:Generated_Source\PSoC4/CSD_SensingCSD_LL.c **** *
1662:Generated_Source\PSoC4/CSD_SensingCSD_LL.c **** *  If disconnection of the sensors is required after calling
1663:Generated_Source\PSoC4/CSD_SensingCSD_LL.c **** *  CSD_CSDScanExt(), the CSD_CSDDisconnectSns()
1664:Generated_Source\PSoC4/CSD_SensingCSD_LL.c **** *  function can be used.
1665:Generated_Source\PSoC4/CSD_SensingCSD_LL.c **** *
1666:Generated_Source\PSoC4/CSD_SensingCSD_LL.c **** *******************************************************************************/
1667:Generated_Source\PSoC4/CSD_SensingCSD_LL.c **** void CSD_CSDScanExt(void)
1668:Generated_Source\PSoC4/CSD_SensingCSD_LL.c **** {
 1148              		.loc 1 1668 0
 1149              		.cfi_startproc
 1150 0000 80B5     		push	{r7, lr}
 1151              		.cfi_def_cfa_offset 8
 1152              		.cfi_offset 7, -8
 1153              		.cfi_offset 14, -4
 1154 0002 00AF     		add	r7, sp, #0
 1155              		.cfi_def_cfa_register 7
1669:Generated_Source\PSoC4/CSD_SensingCSD_LL.c ****     /* Set Start of sensor scan flag */
1670:Generated_Source\PSoC4/CSD_SensingCSD_LL.c ****     CSD_dsRam.status |= (CSD_SW_STS_BUSY | CSD_WDGT_SW_STS_BUSY);
 1156              		.loc 1 1670 0
 1157 0004 044B     		ldr	r3, .L61
 1158 0006 9B68     		ldr	r3, [r3, #8]
 1159 0008 044A     		ldr	r2, .L61+4
 1160 000a 1A43     		orr	r2, r3
 1161 000c 024B     		ldr	r3, .L61
 1162 000e 9A60     		str	r2, [r3, #8]
1671:Generated_Source\PSoC4/CSD_SensingCSD_LL.c **** 
1672:Generated_Source\PSoC4/CSD_SensingCSD_LL.c ****     CSD_SsCSDStartSample();
 1163              		.loc 1 1672 0
 1164 0010 FFF7FEFF 		bl	CSD_SsCSDStartSample
1673:Generated_Source\PSoC4/CSD_SensingCSD_LL.c **** }
 1165              		.loc 1 1673 0
 1166 0014 BD46     		mov	sp, r7
 1167              		@ sp needed
 1168 0016 80BD     		pop	{r7, pc}
 1169              	.L62:
ARM GAS  C:\Users\CHRIST~1\AppData\Local\Temp\ccGy5PUQ.s 			page 51


 1170              		.align	2
 1171              	.L61:
 1172 0018 00000000 		.word	CSD_dsRam
 1173 001c 80000100 		.word	65664
 1174              		.cfi_endproc
 1175              	.LFE15:
 1176              		.size	CSD_CSDScanExt, .-CSD_CSDScanExt
 1177              		.section	.text.CSD_CSDScan,"ax",%progbits
 1178              		.align	2
 1179              		.global	CSD_CSDScan
 1180              		.code	16
 1181              		.thumb_func
 1182              		.type	CSD_CSDScan, %function
 1183              	CSD_CSDScan:
 1184              	.LFB16:
1674:Generated_Source\PSoC4/CSD_SensingCSD_LL.c **** 
1675:Generated_Source\PSoC4/CSD_SensingCSD_LL.c **** 
1676:Generated_Source\PSoC4/CSD_SensingCSD_LL.c **** /*******************************************************************************
1677:Generated_Source\PSoC4/CSD_SensingCSD_LL.c **** * Function Name: CSD_CSDScan
1678:Generated_Source\PSoC4/CSD_SensingCSD_LL.c **** ****************************************************************************//**
1679:Generated_Source\PSoC4/CSD_SensingCSD_LL.c **** *
1680:Generated_Source\PSoC4/CSD_SensingCSD_LL.c **** * \brief
1681:Generated_Source\PSoC4/CSD_SensingCSD_LL.c **** *  This function initiates the scan for sensors of the widget initialized by the
1682:Generated_Source\PSoC4/CSD_SensingCSD_LL.c **** *  CSD_CSDSetupWidget() function.
1683:Generated_Source\PSoC4/CSD_SensingCSD_LL.c **** *
1684:Generated_Source\PSoC4/CSD_SensingCSD_LL.c **** * \details
1685:Generated_Source\PSoC4/CSD_SensingCSD_LL.c **** *  This function performs scanning of all sensors in the widget configured by
1686:Generated_Source\PSoC4/CSD_SensingCSD_LL.c **** *  the CSD_CSDSetupWidget() function. It does the following tasks:
1687:Generated_Source\PSoC4/CSD_SensingCSD_LL.c **** *    1. Connects the first sensor of the widget.
1688:Generated_Source\PSoC4/CSD_SensingCSD_LL.c **** *    2. Configures the IDAC value.
1689:Generated_Source\PSoC4/CSD_SensingCSD_LL.c **** *    3. Initializes the interrupt callback function to initialize a scan of
1690:Generated_Source\PSoC4/CSD_SensingCSD_LL.c **** *       the next sensors in a widget.
1691:Generated_Source\PSoC4/CSD_SensingCSD_LL.c **** *    4. Starts scanning for the first sensor in the widget.
1692:Generated_Source\PSoC4/CSD_SensingCSD_LL.c **** *
1693:Generated_Source\PSoC4/CSD_SensingCSD_LL.c **** *  This function is called by the CSD_Scan() API if the given
1694:Generated_Source\PSoC4/CSD_SensingCSD_LL.c **** *  widget uses the CSD sensing method.
1695:Generated_Source\PSoC4/CSD_SensingCSD_LL.c **** *
1696:Generated_Source\PSoC4/CSD_SensingCSD_LL.c **** *  It is not recommended to call this function directly from the application
1697:Generated_Source\PSoC4/CSD_SensingCSD_LL.c **** *  layer. This function should be used to implement only the users specific
1698:Generated_Source\PSoC4/CSD_SensingCSD_LL.c **** *  use cases (for faster execution time or pipeline scanning for example).
1699:Generated_Source\PSoC4/CSD_SensingCSD_LL.c **** *
1700:Generated_Source\PSoC4/CSD_SensingCSD_LL.c **** *  This function should be called when no scanning in progress. I.e.
1701:Generated_Source\PSoC4/CSD_SensingCSD_LL.c **** *  CSD_IsBusy() returns a non-busy status. The widget must be
1702:Generated_Source\PSoC4/CSD_SensingCSD_LL.c **** *  preconfigured by the CSD_CSDSetupWidget() function if other
1703:Generated_Source\PSoC4/CSD_SensingCSD_LL.c **** *  widget was previously scanned or other type of scan functions were used.
1704:Generated_Source\PSoC4/CSD_SensingCSD_LL.c **** *
1705:Generated_Source\PSoC4/CSD_SensingCSD_LL.c **** *******************************************************************************/
1706:Generated_Source\PSoC4/CSD_SensingCSD_LL.c **** void CSD_CSDScan(void)
1707:Generated_Source\PSoC4/CSD_SensingCSD_LL.c **** {
 1185              		.loc 1 1707 0
 1186              		.cfi_startproc
 1187 0000 80B5     		push	{r7, lr}
 1188              		.cfi_def_cfa_offset 8
 1189              		.cfi_offset 7, -8
 1190              		.cfi_offset 14, -4
 1191 0002 82B0     		sub	sp, sp, #8
 1192              		.cfi_def_cfa_offset 16
ARM GAS  C:\Users\CHRIST~1\AppData\Local\Temp\ccGy5PUQ.s 			page 52


 1193 0004 00AF     		add	r7, sp, #0
 1194              		.cfi_def_cfa_register 7
1708:Generated_Source\PSoC4/CSD_SensingCSD_LL.c ****     CSD_RAM_WD_BASE_STRUCT const *ptrWdgt = (CSD_RAM_WD_BASE_STRUCT *)
1709:Generated_Source\PSoC4/CSD_SensingCSD_LL.c ****                                                     CSD_dsFlash.wdgtArray[CSD_widgetIndex].ptr2Wdgt
 1195              		.loc 1 1709 0
 1196 0006 264B     		ldr	r3, .L64
 1197 0008 1B78     		ldrb	r3, [r3]
 1198 000a DBB2     		uxtb	r3, r3
 1199 000c 191C     		mov	r1, r3
1708:Generated_Source\PSoC4/CSD_SensingCSD_LL.c ****     CSD_RAM_WD_BASE_STRUCT const *ptrWdgt = (CSD_RAM_WD_BASE_STRUCT *)
 1200              		.loc 1 1708 0
 1201 000e 254A     		ldr	r2, .L64+4
 1202 0010 0B1C     		mov	r3, r1
 1203 0012 DB00     		lsl	r3, r3, #3
 1204 0014 5B1A     		sub	r3, r3, r1
 1205 0016 9B00     		lsl	r3, r3, #2
 1206 0018 D318     		add	r3, r2, r3
 1207 001a 5B68     		ldr	r3, [r3, #4]
 1208 001c 7B60     		str	r3, [r7, #4]
1710:Generated_Source\PSoC4/CSD_SensingCSD_LL.c **** 
1711:Generated_Source\PSoC4/CSD_SensingCSD_LL.c ****      /*
1712:Generated_Source\PSoC4/CSD_SensingCSD_LL.c ****       * Update CSD_sensorIndex with the first sensor in
1713:Generated_Source\PSoC4/CSD_SensingCSD_LL.c ****       * widget to use it in ISR handler to configure the next sensor
1714:Generated_Source\PSoC4/CSD_SensingCSD_LL.c ****       */
1715:Generated_Source\PSoC4/CSD_SensingCSD_LL.c ****     CSD_sensorIndex = 0u;
 1209              		.loc 1 1715 0
 1210 001e 224B     		ldr	r3, .L64+8
 1211 0020 0022     		mov	r2, #0
 1212 0022 1A70     		strb	r2, [r3]
1716:Generated_Source\PSoC4/CSD_SensingCSD_LL.c **** 
1717:Generated_Source\PSoC4/CSD_SensingCSD_LL.c ****     /*  Update global pointer to CSD_RAM_SNS_STRUCT to current sensor  */
1718:Generated_Source\PSoC4/CSD_SensingCSD_LL.c ****     CSD_curRamSnsPtr = (CSD_RAM_SNS_STRUCT *)
1719:Generated_Source\PSoC4/CSD_SensingCSD_LL.c ****                                               CSD_dsFlash.wdgtArray[CSD_widgetIndex].ptr2SnsRam
 1213              		.loc 1 1719 0
 1214 0024 1E4B     		ldr	r3, .L64
 1215 0026 1B78     		ldrb	r3, [r3]
 1216 0028 DBB2     		uxtb	r3, r3
 1217 002a 191C     		mov	r1, r3
 1218 002c 1D4A     		ldr	r2, .L64+4
 1219 002e 0B1C     		mov	r3, r1
 1220 0030 DB00     		lsl	r3, r3, #3
 1221 0032 5B1A     		sub	r3, r3, r1
 1222 0034 9B00     		lsl	r3, r3, #2
 1223 0036 D318     		add	r3, r2, r3
 1224 0038 0833     		add	r3, r3, #8
 1225 003a 1A68     		ldr	r2, [r3]
1720:Generated_Source\PSoC4/CSD_SensingCSD_LL.c ****                                               + CSD_sensorIndex;
 1226              		.loc 1 1720 0
 1227 003c 1A4B     		ldr	r3, .L64+8
 1228 003e 1B78     		ldrb	r3, [r3]
 1229 0040 DBB2     		uxtb	r3, r3
 1230 0042 191C     		mov	r1, r3
 1231 0044 0B1C     		mov	r3, r1
 1232 0046 9B00     		lsl	r3, r3, #2
 1233 0048 5B18     		add	r3, r3, r1
 1234 004a 5B00     		lsl	r3, r3, #1
 1235 004c D218     		add	r2, r2, r3
ARM GAS  C:\Users\CHRIST~1\AppData\Local\Temp\ccGy5PUQ.s 			page 53


1718:Generated_Source\PSoC4/CSD_SensingCSD_LL.c ****                                               CSD_dsFlash.wdgtArray[CSD_widgetIndex].ptr2SnsRam
 1236              		.loc 1 1718 0
 1237 004e 174B     		ldr	r3, .L64+12
 1238 0050 1A60     		str	r2, [r3]
1721:Generated_Source\PSoC4/CSD_SensingCSD_LL.c **** 
1722:Generated_Source\PSoC4/CSD_SensingCSD_LL.c ****     /* Setup Idac Value */
1723:Generated_Source\PSoC4/CSD_SensingCSD_LL.c ****    CSD_SsCSDSetUpIdacs(ptrWdgt);
 1239              		.loc 1 1723 0
 1240 0052 7B68     		ldr	r3, [r7, #4]
 1241 0054 181C     		mov	r0, r3
 1242 0056 FFF7FEFF 		bl	CSD_SsCSDSetUpIdacs
1724:Generated_Source\PSoC4/CSD_SensingCSD_LL.c **** 
1725:Generated_Source\PSoC4/CSD_SensingCSD_LL.c ****     #if (CSD_ENABLE == CSD_CSD_GANGED_SNS_EN)
1726:Generated_Source\PSoC4/CSD_SensingCSD_LL.c ****         /* Check ganged sns flag  */
1727:Generated_Source\PSoC4/CSD_SensingCSD_LL.c ****         if (CSD_GANGED_SNS_MASK == (CSD_dsFlash.wdgtArray[CSD_widgetIndex].staticConfig &
1728:Generated_Source\PSoC4/CSD_SensingCSD_LL.c ****             CSD_GANGED_SNS_MASK))
1729:Generated_Source\PSoC4/CSD_SensingCSD_LL.c ****         {
1730:Generated_Source\PSoC4/CSD_SensingCSD_LL.c ****             /*  Setup ISR handler to multiple sensor scan function with ganged sensors */
1731:Generated_Source\PSoC4/CSD_SensingCSD_LL.c ****             CSD_ISR_StartEx(&CSD_CSDPostMultiScanGanged);
1732:Generated_Source\PSoC4/CSD_SensingCSD_LL.c ****         }
1733:Generated_Source\PSoC4/CSD_SensingCSD_LL.c ****         else
1734:Generated_Source\PSoC4/CSD_SensingCSD_LL.c ****         {
1735:Generated_Source\PSoC4/CSD_SensingCSD_LL.c ****             /*  Set up ISR handler to multiple sensor scan function without ganged sensors */
1736:Generated_Source\PSoC4/CSD_SensingCSD_LL.c ****             CSD_ISR_StartEx(&CSD_CSDPostMultiScan);
1737:Generated_Source\PSoC4/CSD_SensingCSD_LL.c ****         }
1738:Generated_Source\PSoC4/CSD_SensingCSD_LL.c **** 
1739:Generated_Source\PSoC4/CSD_SensingCSD_LL.c ****         CSD_SsCSDConnectSensorExt((uint32)CSD_widgetIndex, (uint32)CSD_sensorIndex);
1740:Generated_Source\PSoC4/CSD_SensingCSD_LL.c ****     #else
1741:Generated_Source\PSoC4/CSD_SensingCSD_LL.c ****         /* Initialise ptr to sensor IO structure to appropriate address */
1742:Generated_Source\PSoC4/CSD_SensingCSD_LL.c ****         CSD_curSnsIOPtr = (CSD_FLASH_IO_STRUCT const *)
 1243              		.loc 1 1742 0
 1244 005a 114B     		ldr	r3, .L64
 1245 005c 1B78     		ldrb	r3, [r3]
 1246 005e DBB2     		uxtb	r3, r3
 1247 0060 191C     		mov	r1, r3
1743:Generated_Source\PSoC4/CSD_SensingCSD_LL.c ****                                         CSD_dsFlash.wdgtArray[CSD_widgetIndex].ptr2SnsFlash
 1248              		.loc 1 1743 0
 1249 0062 104A     		ldr	r2, .L64+4
 1250 0064 0B1C     		mov	r3, r1
 1251 0066 DB00     		lsl	r3, r3, #3
 1252 0068 5B1A     		sub	r3, r3, r1
 1253 006a 9B00     		lsl	r3, r3, #2
 1254 006c 9A58     		ldr	r2, [r3, r2]
1744:Generated_Source\PSoC4/CSD_SensingCSD_LL.c ****                                         + CSD_sensorIndex;
 1255              		.loc 1 1744 0
 1256 006e 0E4B     		ldr	r3, .L64+8
 1257 0070 1B78     		ldrb	r3, [r3]
 1258 0072 DBB2     		uxtb	r3, r3
 1259 0074 191C     		mov	r1, r3
 1260 0076 0B1C     		mov	r3, r1
 1261 0078 DB00     		lsl	r3, r3, #3
 1262 007a 5B1A     		sub	r3, r3, r1
 1263 007c 9B00     		lsl	r3, r3, #2
 1264 007e D218     		add	r2, r2, r3
1742:Generated_Source\PSoC4/CSD_SensingCSD_LL.c ****                                         CSD_dsFlash.wdgtArray[CSD_widgetIndex].ptr2SnsFlash
 1265              		.loc 1 1742 0
 1266 0080 0B4B     		ldr	r3, .L64+16
ARM GAS  C:\Users\CHRIST~1\AppData\Local\Temp\ccGy5PUQ.s 			page 54


 1267 0082 1A60     		str	r2, [r3]
1745:Generated_Source\PSoC4/CSD_SensingCSD_LL.c **** 
1746:Generated_Source\PSoC4/CSD_SensingCSD_LL.c ****         /* Enable sensor */
1747:Generated_Source\PSoC4/CSD_SensingCSD_LL.c ****         CSD_CSDConnectSns(CSD_curSnsIOPtr);
 1268              		.loc 1 1747 0
 1269 0084 0A4B     		ldr	r3, .L64+16
 1270 0086 1B68     		ldr	r3, [r3]
 1271 0088 181C     		mov	r0, r3
 1272 008a FFF7FEFF 		bl	CSD_CSDConnectSns
1748:Generated_Source\PSoC4/CSD_SensingCSD_LL.c **** 
1749:Generated_Source\PSoC4/CSD_SensingCSD_LL.c ****         /*  Set-up ISR handler to multiple sensor scan function without ganged sensors */
1750:Generated_Source\PSoC4/CSD_SensingCSD_LL.c ****         CSD_ISR_StartEx(&CSD_CSDPostMultiScan);
 1273              		.loc 1 1750 0
 1274 008e 094B     		ldr	r3, .L64+20
 1275 0090 181C     		mov	r0, r3
 1276 0092 FFF7FEFF 		bl	CSD_ISR_StartEx
1751:Generated_Source\PSoC4/CSD_SensingCSD_LL.c ****     #endif /* (CSD_ENABLE == CSD_CSD_GANGED_SNS_EN)  */
1752:Generated_Source\PSoC4/CSD_SensingCSD_LL.c **** 
1753:Generated_Source\PSoC4/CSD_SensingCSD_LL.c ****     /* Start scanning */
1754:Generated_Source\PSoC4/CSD_SensingCSD_LL.c ****     CSD_CSDScanExt();
 1277              		.loc 1 1754 0
 1278 0096 FFF7FEFF 		bl	CSD_CSDScanExt
1755:Generated_Source\PSoC4/CSD_SensingCSD_LL.c **** }
 1279              		.loc 1 1755 0
 1280 009a BD46     		mov	sp, r7
 1281 009c 02B0     		add	sp, sp, #8
 1282              		@ sp needed
 1283 009e 80BD     		pop	{r7, pc}
 1284              	.L65:
 1285              		.align	2
 1286              	.L64:
 1287 00a0 00000000 		.word	CSD_widgetIndex
 1288 00a4 00000000 		.word	CSD_dsFlash
 1289 00a8 00000000 		.word	CSD_sensorIndex
 1290 00ac 00000000 		.word	CSD_curRamSnsPtr
 1291 00b0 00000000 		.word	CSD_curSnsIOPtr
 1292 00b4 00000000 		.word	CSD_CSDPostMultiScan
 1293              		.cfi_endproc
 1294              	.LFE16:
 1295              		.size	CSD_CSDScan, .-CSD_CSDScan
 1296              		.section	.text.CSD_SsCSDConnectSensorExt,"ax",%progbits
 1297              		.align	2
 1298              		.global	CSD_SsCSDConnectSensorExt
 1299              		.code	16
 1300              		.thumb_func
 1301              		.type	CSD_SsCSDConnectSensorExt, %function
 1302              	CSD_SsCSDConnectSensorExt:
 1303              	.LFB17:
1756:Generated_Source\PSoC4/CSD_SensingCSD_LL.c **** 
1757:Generated_Source\PSoC4/CSD_SensingCSD_LL.c **** 
1758:Generated_Source\PSoC4/CSD_SensingCSD_LL.c **** /*******************************************************************************
1759:Generated_Source\PSoC4/CSD_SensingCSD_LL.c **** * Function Name: CSD_SsCSDConnectSensorExt
1760:Generated_Source\PSoC4/CSD_SensingCSD_LL.c **** ****************************************************************************//**
1761:Generated_Source\PSoC4/CSD_SensingCSD_LL.c **** *
1762:Generated_Source\PSoC4/CSD_SensingCSD_LL.c **** * \brief
1763:Generated_Source\PSoC4/CSD_SensingCSD_LL.c **** *  Connects a ganged sensor port-pin to the CapSense block via the AMUX bus.
1764:Generated_Source\PSoC4/CSD_SensingCSD_LL.c **** *
ARM GAS  C:\Users\CHRIST~1\AppData\Local\Temp\ccGy5PUQ.s 			page 55


1765:Generated_Source\PSoC4/CSD_SensingCSD_LL.c **** * \details
1766:Generated_Source\PSoC4/CSD_SensingCSD_LL.c **** *   The function gets the IO configuration registers addresses, their shifts and
1767:Generated_Source\PSoC4/CSD_SensingCSD_LL.c **** *   masks from the FLASH_IO_STRUCT object. Basing on this data, it updates the HSIOM and
1768:Generated_Source\PSoC4/CSD_SensingCSD_LL.c **** *   PC registers.
1769:Generated_Source\PSoC4/CSD_SensingCSD_LL.c **** *
1770:Generated_Source\PSoC4/CSD_SensingCSD_LL.c **** * \param
1771:Generated_Source\PSoC4/CSD_SensingCSD_LL.c **** *   wdgtIndex Specifies ID of the widget.
1772:Generated_Source\PSoC4/CSD_SensingCSD_LL.c **** *   sensorIndex Specifies ID of the sensor in the widget.
1773:Generated_Source\PSoC4/CSD_SensingCSD_LL.c **** *
1774:Generated_Source\PSoC4/CSD_SensingCSD_LL.c **** *******************************************************************************/
1775:Generated_Source\PSoC4/CSD_SensingCSD_LL.c **** void CSD_SsCSDConnectSensorExt(uint32 wdgtIndex, uint32 sensorIndex)
1776:Generated_Source\PSoC4/CSD_SensingCSD_LL.c **** {
 1304              		.loc 1 1776 0
 1305              		.cfi_startproc
 1306 0000 80B5     		push	{r7, lr}
 1307              		.cfi_def_cfa_offset 8
 1308              		.cfi_offset 7, -8
 1309              		.cfi_offset 14, -4
 1310 0002 82B0     		sub	sp, sp, #8
 1311              		.cfi_def_cfa_offset 16
 1312 0004 00AF     		add	r7, sp, #0
 1313              		.cfi_def_cfa_register 7
 1314 0006 7860     		str	r0, [r7, #4]
 1315 0008 3960     		str	r1, [r7]
1777:Generated_Source\PSoC4/CSD_SensingCSD_LL.c ****     #if (CSD_ENABLE == CSD_CSD_GANGED_SNS_EN)
1778:Generated_Source\PSoC4/CSD_SensingCSD_LL.c ****         uint32 tempVal;
1779:Generated_Source\PSoC4/CSD_SensingCSD_LL.c ****     #endif /* (CSD_ENABLE == CSD_CSD_GANGED_SNS_EN) */
1780:Generated_Source\PSoC4/CSD_SensingCSD_LL.c **** 
1781:Generated_Source\PSoC4/CSD_SensingCSD_LL.c ****     /*  Initialise ptr to sensor IO structure to appropriate address */
1782:Generated_Source\PSoC4/CSD_SensingCSD_LL.c ****     CSD_curSnsIOPtr = (CSD_FLASH_IO_STRUCT const *)
1783:Generated_Source\PSoC4/CSD_SensingCSD_LL.c ****                                                       CSD_dsFlash.wdgtArray[wdgtIndex].ptr2SnsFlash
 1316              		.loc 1 1783 0
 1317 000a 0B49     		ldr	r1, .L67
 1318 000c 7A68     		ldr	r2, [r7, #4]
 1319 000e 131C     		mov	r3, r2
 1320 0010 DB00     		lsl	r3, r3, #3
 1321 0012 9B1A     		sub	r3, r3, r2
 1322 0014 9B00     		lsl	r3, r3, #2
 1323 0016 5958     		ldr	r1, [r3, r1]
1784:Generated_Source\PSoC4/CSD_SensingCSD_LL.c ****                                                       + sensorIndex;
 1324              		.loc 1 1784 0
 1325 0018 3A68     		ldr	r2, [r7]
 1326 001a 131C     		mov	r3, r2
 1327 001c DB00     		lsl	r3, r3, #3
 1328 001e 9B1A     		sub	r3, r3, r2
 1329 0020 9B00     		lsl	r3, r3, #2
 1330 0022 CA18     		add	r2, r1, r3
1782:Generated_Source\PSoC4/CSD_SensingCSD_LL.c ****                                                       CSD_dsFlash.wdgtArray[wdgtIndex].ptr2SnsFlash
 1331              		.loc 1 1782 0
 1332 0024 054B     		ldr	r3, .L67+4
 1333 0026 1A60     		str	r2, [r3]
1785:Generated_Source\PSoC4/CSD_SensingCSD_LL.c **** 
1786:Generated_Source\PSoC4/CSD_SensingCSD_LL.c ****     #if (CSD_ENABLE == CSD_CSD_GANGED_SNS_EN)
1787:Generated_Source\PSoC4/CSD_SensingCSD_LL.c ****         /* Check ganged sns flag  */
1788:Generated_Source\PSoC4/CSD_SensingCSD_LL.c ****         if (CSD_GANGED_SNS_MASK ==
1789:Generated_Source\PSoC4/CSD_SensingCSD_LL.c ****            (CSD_dsFlash.wdgtArray[wdgtIndex].staticConfig &
1790:Generated_Source\PSoC4/CSD_SensingCSD_LL.c ****             CSD_GANGED_SNS_MASK))
ARM GAS  C:\Users\CHRIST~1\AppData\Local\Temp\ccGy5PUQ.s 			page 56


1791:Generated_Source\PSoC4/CSD_SensingCSD_LL.c ****         {
1792:Generated_Source\PSoC4/CSD_SensingCSD_LL.c ****             /* Get sns pointer */
1793:Generated_Source\PSoC4/CSD_SensingCSD_LL.c ****             CSD_curFlashSnsPtr = (CSD_FLASH_SNS_STRUCT const *)
1794:Generated_Source\PSoC4/CSD_SensingCSD_LL.c ****                                                CSD_dsFlash.wdgtArray[wdgtIndex].ptr2SnsFlash +
1795:Generated_Source\PSoC4/CSD_SensingCSD_LL.c ****                                                sensorIndex;
1796:Generated_Source\PSoC4/CSD_SensingCSD_LL.c **** 
1797:Generated_Source\PSoC4/CSD_SensingCSD_LL.c ****             /* Get number of ganged pins */
1798:Generated_Source\PSoC4/CSD_SensingCSD_LL.c ****             tempVal = CSD_curFlashSnsPtr->numPins;
1799:Generated_Source\PSoC4/CSD_SensingCSD_LL.c **** 
1800:Generated_Source\PSoC4/CSD_SensingCSD_LL.c ****             /* Get IO pointer  */
1801:Generated_Source\PSoC4/CSD_SensingCSD_LL.c ****             CSD_curSnsIOPtr = &CSD_ioList[CSD_curFlashSnsPtr->firstPinId];
1802:Generated_Source\PSoC4/CSD_SensingCSD_LL.c **** 
1803:Generated_Source\PSoC4/CSD_SensingCSD_LL.c ****             /* Connect all ganged sensors  */
1804:Generated_Source\PSoC4/CSD_SensingCSD_LL.c ****             do
1805:Generated_Source\PSoC4/CSD_SensingCSD_LL.c ****             {
1806:Generated_Source\PSoC4/CSD_SensingCSD_LL.c ****                 CSD_CSDConnectSns(CSD_curSnsIOPtr);
1807:Generated_Source\PSoC4/CSD_SensingCSD_LL.c ****                 CSD_curSnsIOPtr++;
1808:Generated_Source\PSoC4/CSD_SensingCSD_LL.c ****                 tempVal--;
1809:Generated_Source\PSoC4/CSD_SensingCSD_LL.c ****             } while (0u != tempVal);
1810:Generated_Source\PSoC4/CSD_SensingCSD_LL.c ****         }
1811:Generated_Source\PSoC4/CSD_SensingCSD_LL.c ****         else
1812:Generated_Source\PSoC4/CSD_SensingCSD_LL.c ****         {
1813:Generated_Source\PSoC4/CSD_SensingCSD_LL.c ****             /* Connect sensor */
1814:Generated_Source\PSoC4/CSD_SensingCSD_LL.c ****             CSD_CSDConnectSns(CSD_curSnsIOPtr);
1815:Generated_Source\PSoC4/CSD_SensingCSD_LL.c ****         }
1816:Generated_Source\PSoC4/CSD_SensingCSD_LL.c ****     #else
1817:Generated_Source\PSoC4/CSD_SensingCSD_LL.c ****         /* Connect sensor */
1818:Generated_Source\PSoC4/CSD_SensingCSD_LL.c ****         CSD_CSDConnectSns(CSD_curSnsIOPtr);
 1334              		.loc 1 1818 0
 1335 0028 044B     		ldr	r3, .L67+4
 1336 002a 1B68     		ldr	r3, [r3]
 1337 002c 181C     		mov	r0, r3
 1338 002e FFF7FEFF 		bl	CSD_CSDConnectSns
1819:Generated_Source\PSoC4/CSD_SensingCSD_LL.c ****     #endif /* (CSD_ENABLE == CSD_CSD_GANGED_SNS_EN) */
1820:Generated_Source\PSoC4/CSD_SensingCSD_LL.c **** }
 1339              		.loc 1 1820 0
 1340 0032 BD46     		mov	sp, r7
 1341 0034 02B0     		add	sp, sp, #8
 1342              		@ sp needed
 1343 0036 80BD     		pop	{r7, pc}
 1344              	.L68:
 1345              		.align	2
 1346              	.L67:
 1347 0038 00000000 		.word	CSD_dsFlash
 1348 003c 00000000 		.word	CSD_curSnsIOPtr
 1349              		.cfi_endproc
 1350              	.LFE17:
 1351              		.size	CSD_SsCSDConnectSensorExt, .-CSD_SsCSDConnectSensorExt
 1352              		.section	.text.CSD_SsCSDDisconnectSnsExt,"ax",%progbits
 1353              		.align	2
 1354              		.global	CSD_SsCSDDisconnectSnsExt
 1355              		.code	16
 1356              		.thumb_func
 1357              		.type	CSD_SsCSDDisconnectSnsExt, %function
 1358              	CSD_SsCSDDisconnectSnsExt:
 1359              	.LFB18:
1821:Generated_Source\PSoC4/CSD_SensingCSD_LL.c **** 
ARM GAS  C:\Users\CHRIST~1\AppData\Local\Temp\ccGy5PUQ.s 			page 57


1822:Generated_Source\PSoC4/CSD_SensingCSD_LL.c **** 
1823:Generated_Source\PSoC4/CSD_SensingCSD_LL.c **** /*******************************************************************************
1824:Generated_Source\PSoC4/CSD_SensingCSD_LL.c **** * Function Name: CSD_SsCSDDisconnectSnsExt
1825:Generated_Source\PSoC4/CSD_SensingCSD_LL.c **** ****************************************************************************//**
1826:Generated_Source\PSoC4/CSD_SensingCSD_LL.c **** *
1827:Generated_Source\PSoC4/CSD_SensingCSD_LL.c **** * \brief
1828:Generated_Source\PSoC4/CSD_SensingCSD_LL.c **** *  Disconnects a ganged sensor port-pin from the CapSense block and AMUX bus.
1829:Generated_Source\PSoC4/CSD_SensingCSD_LL.c **** *  Sets the default state of the un-scanned sensor.
1830:Generated_Source\PSoC4/CSD_SensingCSD_LL.c **** *
1831:Generated_Source\PSoC4/CSD_SensingCSD_LL.c **** * \details
1832:Generated_Source\PSoC4/CSD_SensingCSD_LL.c **** *   The function gets the IO configuration registers addresses, their shifts and
1833:Generated_Source\PSoC4/CSD_SensingCSD_LL.c **** *   masks from the FLASH_IO_STRUCT object. Basing on this data and Inactive sensor
1834:Generated_Source\PSoC4/CSD_SensingCSD_LL.c **** *   connection parameter, it updates the HSIOM, PC and DR registers.
1835:Generated_Source\PSoC4/CSD_SensingCSD_LL.c **** *   The HSIOM register is updated only when the Inactive sensor connection parameter
1836:Generated_Source\PSoC4/CSD_SensingCSD_LL.c **** *   is set to Shield.
1837:Generated_Source\PSoC4/CSD_SensingCSD_LL.c **** *
1838:Generated_Source\PSoC4/CSD_SensingCSD_LL.c **** * \param  snsAddrPtr
1839:Generated_Source\PSoC4/CSD_SensingCSD_LL.c **** *   wdgtIndex Specifies ID of the widget.
1840:Generated_Source\PSoC4/CSD_SensingCSD_LL.c **** *   sensorIndex Specifies ID of the sensor in the widget.
1841:Generated_Source\PSoC4/CSD_SensingCSD_LL.c **** *
1842:Generated_Source\PSoC4/CSD_SensingCSD_LL.c **** *******************************************************************************/
1843:Generated_Source\PSoC4/CSD_SensingCSD_LL.c **** void CSD_SsCSDDisconnectSnsExt(uint32 wdgtIndex, uint32 sensorIndex)
1844:Generated_Source\PSoC4/CSD_SensingCSD_LL.c **** {
 1360              		.loc 1 1844 0
 1361              		.cfi_startproc
 1362 0000 80B5     		push	{r7, lr}
 1363              		.cfi_def_cfa_offset 8
 1364              		.cfi_offset 7, -8
 1365              		.cfi_offset 14, -4
 1366 0002 82B0     		sub	sp, sp, #8
 1367              		.cfi_def_cfa_offset 16
 1368 0004 00AF     		add	r7, sp, #0
 1369              		.cfi_def_cfa_register 7
 1370 0006 7860     		str	r0, [r7, #4]
 1371 0008 3960     		str	r1, [r7]
1845:Generated_Source\PSoC4/CSD_SensingCSD_LL.c ****     #if (CSD_ENABLE == CSD_CSD_GANGED_SNS_EN)
1846:Generated_Source\PSoC4/CSD_SensingCSD_LL.c ****         uint32 tempVal;
1847:Generated_Source\PSoC4/CSD_SensingCSD_LL.c ****     #endif /* (CSD_ENABLE == CSD_CSD_GANGED_SNS_EN) */
1848:Generated_Source\PSoC4/CSD_SensingCSD_LL.c **** 
1849:Generated_Source\PSoC4/CSD_SensingCSD_LL.c ****     /*  Initialise ptr to sensor IO structure to appropriate address        */
1850:Generated_Source\PSoC4/CSD_SensingCSD_LL.c ****     CSD_curSnsIOPtr = (CSD_FLASH_IO_STRUCT const *)
1851:Generated_Source\PSoC4/CSD_SensingCSD_LL.c ****                                                       CSD_dsFlash.wdgtArray[wdgtIndex].ptr2SnsFlash
 1372              		.loc 1 1851 0
 1373 000a 0B49     		ldr	r1, .L70
 1374 000c 7A68     		ldr	r2, [r7, #4]
 1375 000e 131C     		mov	r3, r2
 1376 0010 DB00     		lsl	r3, r3, #3
 1377 0012 9B1A     		sub	r3, r3, r2
 1378 0014 9B00     		lsl	r3, r3, #2
 1379 0016 5958     		ldr	r1, [r3, r1]
1852:Generated_Source\PSoC4/CSD_SensingCSD_LL.c ****                                                       + sensorIndex;
 1380              		.loc 1 1852 0
 1381 0018 3A68     		ldr	r2, [r7]
 1382 001a 131C     		mov	r3, r2
 1383 001c DB00     		lsl	r3, r3, #3
 1384 001e 9B1A     		sub	r3, r3, r2
 1385 0020 9B00     		lsl	r3, r3, #2
ARM GAS  C:\Users\CHRIST~1\AppData\Local\Temp\ccGy5PUQ.s 			page 58


 1386 0022 CA18     		add	r2, r1, r3
1850:Generated_Source\PSoC4/CSD_SensingCSD_LL.c ****                                                       CSD_dsFlash.wdgtArray[wdgtIndex].ptr2SnsFlash
 1387              		.loc 1 1850 0
 1388 0024 054B     		ldr	r3, .L70+4
 1389 0026 1A60     		str	r2, [r3]
1853:Generated_Source\PSoC4/CSD_SensingCSD_LL.c **** 
1854:Generated_Source\PSoC4/CSD_SensingCSD_LL.c ****     #if (CSD_ENABLE == CSD_CSD_GANGED_SNS_EN)
1855:Generated_Source\PSoC4/CSD_SensingCSD_LL.c ****         /* Check ganged sns flag  */
1856:Generated_Source\PSoC4/CSD_SensingCSD_LL.c ****         if ((CSD_dsFlash.wdgtArray[wdgtIndex].staticConfig &
1857:Generated_Source\PSoC4/CSD_SensingCSD_LL.c ****             CSD_GANGED_SNS_MASK) == CSD_GANGED_SNS_MASK)
1858:Generated_Source\PSoC4/CSD_SensingCSD_LL.c ****         {
1859:Generated_Source\PSoC4/CSD_SensingCSD_LL.c ****             /* Get sns pointer */
1860:Generated_Source\PSoC4/CSD_SensingCSD_LL.c ****             CSD_curFlashSnsPtr = (CSD_FLASH_SNS_STRUCT const *)
1861:Generated_Source\PSoC4/CSD_SensingCSD_LL.c ****                                                CSD_dsFlash.wdgtArray[wdgtIndex].ptr2SnsFlash +
1862:Generated_Source\PSoC4/CSD_SensingCSD_LL.c ****                                                sensorIndex;
1863:Generated_Source\PSoC4/CSD_SensingCSD_LL.c **** 
1864:Generated_Source\PSoC4/CSD_SensingCSD_LL.c ****             /* Get number of ganged pins */
1865:Generated_Source\PSoC4/CSD_SensingCSD_LL.c ****             tempVal = CSD_curFlashSnsPtr->numPins;
1866:Generated_Source\PSoC4/CSD_SensingCSD_LL.c **** 
1867:Generated_Source\PSoC4/CSD_SensingCSD_LL.c ****             /* Get IO pointer  */
1868:Generated_Source\PSoC4/CSD_SensingCSD_LL.c ****             CSD_curSnsIOPtr = &CSD_ioList[CSD_curFlashSnsPtr->firstPinId];
1869:Generated_Source\PSoC4/CSD_SensingCSD_LL.c **** 
1870:Generated_Source\PSoC4/CSD_SensingCSD_LL.c ****             /* Disconnect all ganged sensors */
1871:Generated_Source\PSoC4/CSD_SensingCSD_LL.c ****             do
1872:Generated_Source\PSoC4/CSD_SensingCSD_LL.c ****             {
1873:Generated_Source\PSoC4/CSD_SensingCSD_LL.c ****                 CSD_CSDDisconnectSns(CSD_curSnsIOPtr);
1874:Generated_Source\PSoC4/CSD_SensingCSD_LL.c ****                 CSD_curSnsIOPtr++;
1875:Generated_Source\PSoC4/CSD_SensingCSD_LL.c ****                 tempVal--;
1876:Generated_Source\PSoC4/CSD_SensingCSD_LL.c ****             } while (0u != tempVal);
1877:Generated_Source\PSoC4/CSD_SensingCSD_LL.c ****         }
1878:Generated_Source\PSoC4/CSD_SensingCSD_LL.c ****         else
1879:Generated_Source\PSoC4/CSD_SensingCSD_LL.c ****         {
1880:Generated_Source\PSoC4/CSD_SensingCSD_LL.c ****             /* Disconnect ganged sensor */
1881:Generated_Source\PSoC4/CSD_SensingCSD_LL.c ****             CSD_CSDDisconnectSns(CSD_curSnsIOPtr);
1882:Generated_Source\PSoC4/CSD_SensingCSD_LL.c ****         }
1883:Generated_Source\PSoC4/CSD_SensingCSD_LL.c ****     #else
1884:Generated_Source\PSoC4/CSD_SensingCSD_LL.c ****         /* Disconnect ganged sensor */
1885:Generated_Source\PSoC4/CSD_SensingCSD_LL.c ****         CSD_CSDDisconnectSns(CSD_curSnsIOPtr);
 1390              		.loc 1 1885 0
 1391 0028 044B     		ldr	r3, .L70+4
 1392 002a 1B68     		ldr	r3, [r3]
 1393 002c 181C     		mov	r0, r3
 1394 002e FFF7FEFF 		bl	CSD_CSDDisconnectSns
1886:Generated_Source\PSoC4/CSD_SensingCSD_LL.c ****     #endif /* (CSD_ENABLE == CSD_CSD_GANGED_SNS_EN) */
1887:Generated_Source\PSoC4/CSD_SensingCSD_LL.c **** }
 1395              		.loc 1 1887 0
 1396 0032 BD46     		mov	sp, r7
 1397 0034 02B0     		add	sp, sp, #8
 1398              		@ sp needed
 1399 0036 80BD     		pop	{r7, pc}
 1400              	.L71:
 1401              		.align	2
 1402              	.L70:
 1403 0038 00000000 		.word	CSD_dsFlash
 1404 003c 00000000 		.word	CSD_curSnsIOPtr
 1405              		.cfi_endproc
 1406              	.LFE18:
ARM GAS  C:\Users\CHRIST~1\AppData\Local\Temp\ccGy5PUQ.s 			page 59


 1407              		.size	CSD_SsCSDDisconnectSnsExt, .-CSD_SsCSDDisconnectSnsExt
 1408              		.section	.text.CSD_CSDConnectSns,"ax",%progbits
 1409              		.align	2
 1410              		.global	CSD_CSDConnectSns
 1411              		.code	16
 1412              		.thumb_func
 1413              		.type	CSD_CSDConnectSns, %function
 1414              	CSD_CSDConnectSns:
 1415              	.LFB19:
1888:Generated_Source\PSoC4/CSD_SensingCSD_LL.c **** 
1889:Generated_Source\PSoC4/CSD_SensingCSD_LL.c **** 
1890:Generated_Source\PSoC4/CSD_SensingCSD_LL.c **** /*******************************************************************************
1891:Generated_Source\PSoC4/CSD_SensingCSD_LL.c **** * Function Name: CSD_CSDConnectSns
1892:Generated_Source\PSoC4/CSD_SensingCSD_LL.c **** ****************************************************************************//**
1893:Generated_Source\PSoC4/CSD_SensingCSD_LL.c **** *
1894:Generated_Source\PSoC4/CSD_SensingCSD_LL.c **** * \brief
1895:Generated_Source\PSoC4/CSD_SensingCSD_LL.c **** *  Connects a port-pin used by the sensor to AMUX bus of CapSense block.
1896:Generated_Source\PSoC4/CSD_SensingCSD_LL.c **** *
1897:Generated_Source\PSoC4/CSD_SensingCSD_LL.c **** * \details
1898:Generated_Source\PSoC4/CSD_SensingCSD_LL.c **** *  Connects a port-pin used by the sensor to the AMUX bus of the CapSense block
1899:Generated_Source\PSoC4/CSD_SensingCSD_LL.c **** *  while a sensor is being scanned. The function does not take into account if
1900:Generated_Source\PSoC4/CSD_SensingCSD_LL.c **** *  the sensor is a ganged sensor and connects only a specified pin.
1901:Generated_Source\PSoC4/CSD_SensingCSD_LL.c **** *
1902:Generated_Source\PSoC4/CSD_SensingCSD_LL.c **** *  Scanning should be completed before calling this API.
1903:Generated_Source\PSoC4/CSD_SensingCSD_LL.c **** *
1904:Generated_Source\PSoC4/CSD_SensingCSD_LL.c **** *  It is not recommended to call this function directly from the application
1905:Generated_Source\PSoC4/CSD_SensingCSD_LL.c **** *  layer. This function should be used to implement only the users specific
1906:Generated_Source\PSoC4/CSD_SensingCSD_LL.c **** *  use cases. Functions that perform a setup and scan of sensor/widget
1907:Generated_Source\PSoC4/CSD_SensingCSD_LL.c **** *  automatically set the needed pin states and perform the sensor connection.
1908:Generated_Source\PSoC4/CSD_SensingCSD_LL.c **** *  They do not take into account changes in the design made by the
1909:Generated_Source\PSoC4/CSD_SensingCSD_LL.c **** *  CSD_CSDConnectSns() function.
1910:Generated_Source\PSoC4/CSD_SensingCSD_LL.c **** *
1911:Generated_Source\PSoC4/CSD_SensingCSD_LL.c **** * \param  snsAddrPtr
1912:Generated_Source\PSoC4/CSD_SensingCSD_LL.c **** *  Specify the pointer to the FLASH_IO_STRUCT object belonging to a sensor
1913:Generated_Source\PSoC4/CSD_SensingCSD_LL.c **** *  which should be connected to the CapSense block.
1914:Generated_Source\PSoC4/CSD_SensingCSD_LL.c **** *
1915:Generated_Source\PSoC4/CSD_SensingCSD_LL.c **** *******************************************************************************/
1916:Generated_Source\PSoC4/CSD_SensingCSD_LL.c **** void CSD_CSDConnectSns(CSD_FLASH_IO_STRUCT const *snsAddrPtr)
1917:Generated_Source\PSoC4/CSD_SensingCSD_LL.c **** {
 1416              		.loc 1 1917 0
 1417              		.cfi_startproc
 1418 0000 90B5     		push	{r4, r7, lr}
 1419              		.cfi_def_cfa_offset 12
 1420              		.cfi_offset 4, -12
 1421              		.cfi_offset 7, -8
 1422              		.cfi_offset 14, -4
 1423 0002 87B0     		sub	sp, sp, #28
 1424              		.cfi_def_cfa_offset 40
 1425 0004 00AF     		add	r7, sp, #0
 1426              		.cfi_def_cfa_register 7
 1427 0006 7860     		str	r0, [r7, #4]
1918:Generated_Source\PSoC4/CSD_SensingCSD_LL.c ****     uint32 newRegisterValue;
1919:Generated_Source\PSoC4/CSD_SensingCSD_LL.c ****     uint8  interruptState;
1920:Generated_Source\PSoC4/CSD_SensingCSD_LL.c ****     uint32 pinModeShift;
1921:Generated_Source\PSoC4/CSD_SensingCSD_LL.c ****     uint32 pinHSIOMShift;
1922:Generated_Source\PSoC4/CSD_SensingCSD_LL.c **** 
1923:Generated_Source\PSoC4/CSD_SensingCSD_LL.c ****     /* Get offsets for sensor */
ARM GAS  C:\Users\CHRIST~1\AppData\Local\Temp\ccGy5PUQ.s 			page 60


1924:Generated_Source\PSoC4/CSD_SensingCSD_LL.c ****     pinModeShift = (uint32)snsAddrPtr->shift;
 1428              		.loc 1 1924 0
 1429 0008 7B68     		ldr	r3, [r7, #4]
 1430 000a 9B7E     		ldrb	r3, [r3, #26]
 1431 000c 7B61     		str	r3, [r7, #20]
1925:Generated_Source\PSoC4/CSD_SensingCSD_LL.c ****     pinHSIOMShift = (uint32)snsAddrPtr->hsiomShift;
 1432              		.loc 1 1925 0
 1433 000e 7B68     		ldr	r3, [r7, #4]
 1434 0010 1B7E     		ldrb	r3, [r3, #24]
 1435 0012 3B61     		str	r3, [r7, #16]
1926:Generated_Source\PSoC4/CSD_SensingCSD_LL.c **** 
1927:Generated_Source\PSoC4/CSD_SensingCSD_LL.c ****     interruptState = CyEnterCriticalSection();
 1436              		.loc 1 1927 0
 1437 0014 0F23     		mov	r3, #15
 1438 0016 FC18     		add	r4, r7, r3
 1439 0018 FFF7FEFF 		bl	CyEnterCriticalSection
 1440 001c 031C     		mov	r3, r0
 1441 001e 2370     		strb	r3, [r4]
1928:Generated_Source\PSoC4/CSD_SensingCSD_LL.c **** 
1929:Generated_Source\PSoC4/CSD_SensingCSD_LL.c ****     /* Use temporary variable to update registers without multiple writings to them */
1930:Generated_Source\PSoC4/CSD_SensingCSD_LL.c ****     newRegisterValue = CY_GET_REG32(snsAddrPtr->hsiomPtr);
 1442              		.loc 1 1930 0
 1443 0020 7B68     		ldr	r3, [r7, #4]
 1444 0022 1B68     		ldr	r3, [r3]
 1445 0024 1B68     		ldr	r3, [r3]
 1446 0026 BB60     		str	r3, [r7, #8]
1931:Generated_Source\PSoC4/CSD_SensingCSD_LL.c ****     newRegisterValue &= ~(CSD_HSIOM_SEL_MASK << pinHSIOMShift);
 1447              		.loc 1 1931 0
 1448 0028 3B69     		ldr	r3, [r7, #16]
 1449 002a 0F22     		mov	r2, #15
 1450 002c 9A40     		lsl	r2, r2, r3
 1451 002e 131C     		mov	r3, r2
 1452 0030 DA43     		mvn	r2, r3
 1453 0032 BB68     		ldr	r3, [r7, #8]
 1454 0034 1340     		and	r3, r2
 1455 0036 BB60     		str	r3, [r7, #8]
1932:Generated_Source\PSoC4/CSD_SensingCSD_LL.c ****     newRegisterValue |= (uint32)((uint32)CSD_HSIOM_SEL_CSD_SENSE << pinHSIOMShift);
 1456              		.loc 1 1932 0
 1457 0038 3B69     		ldr	r3, [r7, #16]
 1458 003a 0422     		mov	r2, #4
 1459 003c 9A40     		lsl	r2, r2, r3
 1460 003e 131C     		mov	r3, r2
 1461 0040 BA68     		ldr	r2, [r7, #8]
 1462 0042 1343     		orr	r3, r2
 1463 0044 BB60     		str	r3, [r7, #8]
1933:Generated_Source\PSoC4/CSD_SensingCSD_LL.c **** 
1934:Generated_Source\PSoC4/CSD_SensingCSD_LL.c ****     /* Update port configuration register (drive mode) for sensor */
1935:Generated_Source\PSoC4/CSD_SensingCSD_LL.c ****     CY_SET_REG32(snsAddrPtr->pcPtr, CY_GET_REG32(snsAddrPtr->pcPtr) & (uint32)~((uint32)CSD_GPIO_PC
 1464              		.loc 1 1935 0
 1465 0046 7B68     		ldr	r3, [r7, #4]
 1466 0048 5B68     		ldr	r3, [r3, #4]
 1467 004a 7A68     		ldr	r2, [r7, #4]
 1468 004c 5268     		ldr	r2, [r2, #4]
 1469 004e 1268     		ldr	r2, [r2]
 1470 0050 7969     		ldr	r1, [r7, #20]
 1471 0052 0720     		mov	r0, #7
 1472 0054 8840     		lsl	r0, r0, r1
ARM GAS  C:\Users\CHRIST~1\AppData\Local\Temp\ccGy5PUQ.s 			page 61


 1473 0056 011C     		mov	r1, r0
 1474 0058 C943     		mvn	r1, r1
 1475 005a 0A40     		and	r2, r1
 1476 005c 1A60     		str	r2, [r3]
1936:Generated_Source\PSoC4/CSD_SensingCSD_LL.c **** 
1937:Generated_Source\PSoC4/CSD_SensingCSD_LL.c ****     /* Update HSIOM register for sensor */
1938:Generated_Source\PSoC4/CSD_SensingCSD_LL.c ****     CY_SET_REG32(snsAddrPtr->hsiomPtr, newRegisterValue);
 1477              		.loc 1 1938 0
 1478 005e 7B68     		ldr	r3, [r7, #4]
 1479 0060 1B68     		ldr	r3, [r3]
 1480 0062 BA68     		ldr	r2, [r7, #8]
 1481 0064 1A60     		str	r2, [r3]
1939:Generated_Source\PSoC4/CSD_SensingCSD_LL.c **** 
1940:Generated_Source\PSoC4/CSD_SensingCSD_LL.c ****     CyExitCriticalSection(interruptState);
 1482              		.loc 1 1940 0
 1483 0066 0F23     		mov	r3, #15
 1484 0068 FB18     		add	r3, r7, r3
 1485 006a 1B78     		ldrb	r3, [r3]
 1486 006c 181C     		mov	r0, r3
 1487 006e FFF7FEFF 		bl	CyExitCriticalSection
1941:Generated_Source\PSoC4/CSD_SensingCSD_LL.c **** }
 1488              		.loc 1 1941 0
 1489 0072 BD46     		mov	sp, r7
 1490 0074 07B0     		add	sp, sp, #28
 1491              		@ sp needed
 1492 0076 90BD     		pop	{r4, r7, pc}
 1493              		.cfi_endproc
 1494              	.LFE19:
 1495              		.size	CSD_CSDConnectSns, .-CSD_CSDConnectSns
 1496              		.section	.text.CSD_CSDDisconnectSns,"ax",%progbits
