ARM GAS  C:\Users\CHRIST~1\AppData\Local\Temp\ccIPpNky.s 			page 1


   1              		.cpu cortex-m0plus
   2              		.fpu softvfp
   3              		.eabi_attribute 20, 1
   4              		.eabi_attribute 21, 1
   5              		.eabi_attribute 23, 3
   6              		.eabi_attribute 24, 1
   7              		.eabi_attribute 25, 1
   8              		.eabi_attribute 26, 1
   9              		.eabi_attribute 30, 6
  10              		.eabi_attribute 34, 0
  11              		.eabi_attribute 18, 4
  12              		.code	16
  13              		.file	"CSD_Sensing.c"
  14              		.text
  15              	.Ltext0:
  16              		.cfi_sections	.debug_frame
  17              		.global	CSD_scanFreqIndex
  18              		.section	.rodata
  19              		.type	CSD_scanFreqIndex, %object
  20              		.size	CSD_scanFreqIndex, 1
  21              	CSD_scanFreqIndex:
  22 0000 00       		.space	1
  23              		.global	CSD_widgetIndex
  24              		.bss
  25              		.type	CSD_widgetIndex, %object
  26              		.size	CSD_widgetIndex, 1
  27              	CSD_widgetIndex:
  28 0000 00       		.space	1
  29              		.global	CSD_sensorIndex
  30              		.type	CSD_sensorIndex, %object
  31              		.size	CSD_sensorIndex, 1
  32              	CSD_sensorIndex:
  33 0001 00       		.space	1
  34              		.global	CSD_requestScanAllWidget
  35              		.type	CSD_requestScanAllWidget, %object
  36              		.size	CSD_requestScanAllWidget, 1
  37              	CSD_requestScanAllWidget:
  38 0002 00       		.space	1
  39              		.comm	CSD_curRamSnsPtr,4,4
  40              		.section	.text.CSD_IsBusy,"ax",%progbits
  41              		.align	2
  42              		.global	CSD_IsBusy
  43              		.code	16
  44              		.thumb_func
  45              		.type	CSD_IsBusy, %function
  46              	CSD_IsBusy:
  47              	.LFB1:
  48              		.file 1 "Generated_Source\\PSoC4\\CSD_Sensing.c"
   1:Generated_Source\PSoC4/CSD_Sensing.c **** /***************************************************************************//**
   2:Generated_Source\PSoC4/CSD_Sensing.c **** * \file CSD_Sensing.c
   3:Generated_Source\PSoC4/CSD_Sensing.c **** * \version 3.0
   4:Generated_Source\PSoC4/CSD_Sensing.c **** *
   5:Generated_Source\PSoC4/CSD_Sensing.c **** * \brief
   6:Generated_Source\PSoC4/CSD_Sensing.c **** *   This file contains the source of functions common for
   7:Generated_Source\PSoC4/CSD_Sensing.c **** *   different sensing methods.
   8:Generated_Source\PSoC4/CSD_Sensing.c **** *
   9:Generated_Source\PSoC4/CSD_Sensing.c **** * \see CapSense P4 v3.0 Datasheet
ARM GAS  C:\Users\CHRIST~1\AppData\Local\Temp\ccIPpNky.s 			page 2


  10:Generated_Source\PSoC4/CSD_Sensing.c **** *
  11:Generated_Source\PSoC4/CSD_Sensing.c **** *//*****************************************************************************
  12:Generated_Source\PSoC4/CSD_Sensing.c **** * Copyright (2016), Cypress Semiconductor Corporation.
  13:Generated_Source\PSoC4/CSD_Sensing.c **** ********************************************************************************
  14:Generated_Source\PSoC4/CSD_Sensing.c **** * This software is owned by Cypress Semiconductor Corporation (Cypress) and is
  15:Generated_Source\PSoC4/CSD_Sensing.c **** * protected by and subject to worldwide patent protection (United States and
  16:Generated_Source\PSoC4/CSD_Sensing.c **** * foreign), United States copyright laws and international treaty provisions.
  17:Generated_Source\PSoC4/CSD_Sensing.c **** * Cypress hereby grants to licensee a personal, non-exclusive, non-transferable
  18:Generated_Source\PSoC4/CSD_Sensing.c **** * license to copy, use, modify, create derivative works of, and compile the
  19:Generated_Source\PSoC4/CSD_Sensing.c **** * Cypress Source Code and derivative works for the sole purpose of creating
  20:Generated_Source\PSoC4/CSD_Sensing.c **** * custom software in support of licensee product to be used only in conjunction
  21:Generated_Source\PSoC4/CSD_Sensing.c **** * with a Cypress integrated circuit as specified in the applicable agreement.
  22:Generated_Source\PSoC4/CSD_Sensing.c **** * Any reproduction, modification, translation, compilation, or representation of
  23:Generated_Source\PSoC4/CSD_Sensing.c **** * this software except as specified above is prohibited without the express
  24:Generated_Source\PSoC4/CSD_Sensing.c **** * written permission of Cypress.
  25:Generated_Source\PSoC4/CSD_Sensing.c **** *
  26:Generated_Source\PSoC4/CSD_Sensing.c **** * Disclaimer: CYPRESS MAKES NO WARRANTY OF ANY KIND, EXPRESS OR IMPLIED, WITH
  27:Generated_Source\PSoC4/CSD_Sensing.c **** * REGARD TO THIS MATERIAL, INCLUDING, BUT NOT LIMITED TO, THE IMPLIED
  28:Generated_Source\PSoC4/CSD_Sensing.c **** * WARRANTIES OF MERCHANTABILITY AND FITNESS FOR A PARTICULAR PURPOSE.
  29:Generated_Source\PSoC4/CSD_Sensing.c **** * Cypress reserves the right to make changes without further notice to the
  30:Generated_Source\PSoC4/CSD_Sensing.c **** * materials described herein. Cypress does not assume any liability arising out
  31:Generated_Source\PSoC4/CSD_Sensing.c **** * of the application or use of any product or circuit described herein. Cypress
  32:Generated_Source\PSoC4/CSD_Sensing.c **** * does not authorize its products for use as critical components in life-support
  33:Generated_Source\PSoC4/CSD_Sensing.c **** * systems where a malfunction or failure may reasonably be expected to result in
  34:Generated_Source\PSoC4/CSD_Sensing.c **** * significant injury to the user. The inclusion of Cypress' product in a life-
  35:Generated_Source\PSoC4/CSD_Sensing.c **** * support systems application implies that the manufacturer assumes all risk of
  36:Generated_Source\PSoC4/CSD_Sensing.c **** * such use and in doing so indemnifies Cypress against all charges. Use may be
  37:Generated_Source\PSoC4/CSD_Sensing.c **** * limited by and subject to the applicable Cypress software license agreement.
  38:Generated_Source\PSoC4/CSD_Sensing.c **** *******************************************************************************/
  39:Generated_Source\PSoC4/CSD_Sensing.c **** 
  40:Generated_Source\PSoC4/CSD_Sensing.c **** #include "CSD_Sensing.h"
  41:Generated_Source\PSoC4/CSD_Sensing.c **** #include "CSD_Structure.h"
  42:Generated_Source\PSoC4/CSD_Sensing.c **** #include "cyfitter.h"
  43:Generated_Source\PSoC4/CSD_Sensing.c **** 
  44:Generated_Source\PSoC4/CSD_Sensing.c **** /***************************************
  45:Generated_Source\PSoC4/CSD_Sensing.c **** * API Constants
  46:Generated_Source\PSoC4/CSD_Sensing.c **** ***************************************/
  47:Generated_Source\PSoC4/CSD_Sensing.c **** 
  48:Generated_Source\PSoC4/CSD_Sensing.c **** #define CSD_WIDGET_NUM_32                          (32u)
  49:Generated_Source\PSoC4/CSD_Sensing.c **** #define CSD_WIDGET_NUM_32_DIV_SHIFT                (5u)
  50:Generated_Source\PSoC4/CSD_Sensing.c **** #define CSD_WIDGET_NUM_32_MASK                     (0x0000001FLu)
  51:Generated_Source\PSoC4/CSD_Sensing.c **** #define CSD_CALIBRATION_RESOLUTION                 (12u)
  52:Generated_Source\PSoC4/CSD_Sensing.c **** #define CSD_COARSE_TRIM_THRESHOLD_1                (40u)
  53:Generated_Source\PSoC4/CSD_Sensing.c **** #define CSD_COARSE_TRIM_THRESHOLD_2                (215u)
  54:Generated_Source\PSoC4/CSD_Sensing.c **** #define CSD_FREQUENCY_OFFSET_5                     (20u)
  55:Generated_Source\PSoC4/CSD_Sensing.c **** #define CSD_FREQUENCY_OFFSET_10                    (40u)
  56:Generated_Source\PSoC4/CSD_Sensing.c **** #define CSD_CALIBRATION_FREQ_KHZ                   (1500u)
  57:Generated_Source\PSoC4/CSD_Sensing.c **** #define CSD_CALIBRATION_MD                         (2u)
  58:Generated_Source\PSoC4/CSD_Sensing.c **** #define CSD_MIN_IMO_FREQ_KHZ                       (6000u)
  59:Generated_Source\PSoC4/CSD_Sensing.c **** #define CSD_CSD_AUTOTUNE_CAL_LEVEL                 (CSD_CSD_RAWCOUNT_CAL_LEVEL)
  60:Generated_Source\PSoC4/CSD_Sensing.c **** #define CSD_CP_MIN                                 (0u)
  61:Generated_Source\PSoC4/CSD_Sensing.c **** #define CSD_CP_MAX                                 (65000Lu)
  62:Generated_Source\PSoC4/CSD_Sensing.c **** #define CSD_CP_ERROR                               (4000Lu)
  63:Generated_Source\PSoC4/CSD_Sensing.c **** #define CSD_CLK_SOURCE_LFSR_SCALE_OFFSET           (4u)
  64:Generated_Source\PSoC4/CSD_Sensing.c **** 
  65:Generated_Source\PSoC4/CSD_Sensing.c **** #if (CSD_CLK_SOURCE_DIRECT != CSD_CSD_SNS_CLK_SOURCE)
  66:Generated_Source\PSoC4/CSD_Sensing.c ****     #if (CSD_ENABLE == CSD_CSDV2)
ARM GAS  C:\Users\CHRIST~1\AppData\Local\Temp\ccIPpNky.s 			page 3


  67:Generated_Source\PSoC4/CSD_Sensing.c ****         #define CSD_PRS_FACTOR_DIV                 (2u)
  68:Generated_Source\PSoC4/CSD_Sensing.c ****     #else
  69:Generated_Source\PSoC4/CSD_Sensing.c ****         #define CSD_PRS_FACTOR_DIV                 (1u)
  70:Generated_Source\PSoC4/CSD_Sensing.c ****     #endif /* (CSD_ENABLE == CSD_CSDV2) */
  71:Generated_Source\PSoC4/CSD_Sensing.c **** #else
  72:Generated_Source\PSoC4/CSD_Sensing.c ****     #define CSD_PRS_FACTOR_DIV                     (0u)
  73:Generated_Source\PSoC4/CSD_Sensing.c **** #endif /* (CSD_CLK_SOURCE_DIRECT != CSD_CSD_SNS_CLK_SOURCE) */
  74:Generated_Source\PSoC4/CSD_Sensing.c **** 
  75:Generated_Source\PSoC4/CSD_Sensing.c **** #define CSD_FLIP_FLOP_DIV                          (1u)
  76:Generated_Source\PSoC4/CSD_Sensing.c **** 
  77:Generated_Source\PSoC4/CSD_Sensing.c **** #define CSD_MOD_CSD_CLK_12000KHZ                   (12000uL)
  78:Generated_Source\PSoC4/CSD_Sensing.c **** #define CSD_MOD_CSD_CLK_24000KHZ                   (24000uL)
  79:Generated_Source\PSoC4/CSD_Sensing.c **** #define CSD_MOD_CSD_CLK_48000KHZ                   (48000uL)
  80:Generated_Source\PSoC4/CSD_Sensing.c **** 
  81:Generated_Source\PSoC4/CSD_Sensing.c **** #if ((CSD_CLK_SOURCE_PRS8 == CSD_CSD_SNS_CLK_SOURCE) || \
  82:Generated_Source\PSoC4/CSD_Sensing.c ****     (CSD_CLK_SOURCE_PRS12 == CSD_CSD_SNS_CLK_SOURCE) || \
  83:Generated_Source\PSoC4/CSD_Sensing.c ****     (CSD_CLK_SOURCE_PRSAUTO == CSD_CSD_SNS_CLK_SOURCE))
  84:Generated_Source\PSoC4/CSD_Sensing.c ****     #define CSD_FACTOR_FILTER_DELAY_12MHZ          (2u)
  85:Generated_Source\PSoC4/CSD_Sensing.c **** #else
  86:Generated_Source\PSoC4/CSD_Sensing.c ****     #define CSD_FACTOR_FILTER_DELAY_12MHZ          (4u)
  87:Generated_Source\PSoC4/CSD_Sensing.c **** #endif /* (CSD_CLK_SOURCE_DIRECT != CSD_CSD_SNS_CLK_SOURCE) */
  88:Generated_Source\PSoC4/CSD_Sensing.c **** 
  89:Generated_Source\PSoC4/CSD_Sensing.c **** #define CSD_FACTOR_MOD_SNS                         (8u)
  90:Generated_Source\PSoC4/CSD_Sensing.c **** #define CSD_UINT8_MAX_VAL                          (0xFFu)
  91:Generated_Source\PSoC4/CSD_Sensing.c **** #define CSD_MSB_OFFSET                             (8u)
  92:Generated_Source\PSoC4/CSD_Sensing.c **** 
  93:Generated_Source\PSoC4/CSD_Sensing.c **** /*****************************************************************************/
  94:Generated_Source\PSoC4/CSD_Sensing.c **** /* Enumeration types definition                                               */
  95:Generated_Source\PSoC4/CSD_Sensing.c **** /*****************************************************************************/
  96:Generated_Source\PSoC4/CSD_Sensing.c **** 
  97:Generated_Source\PSoC4/CSD_Sensing.c **** typedef enum
  98:Generated_Source\PSoC4/CSD_Sensing.c **** {
  99:Generated_Source\PSoC4/CSD_Sensing.c ****     CSD_RES_PULLUP_E   = 0x02u,
 100:Generated_Source\PSoC4/CSD_Sensing.c ****     CSD_RES_PULLDOWN_E = 0x03u
 101:Generated_Source\PSoC4/CSD_Sensing.c **** } CSD_PORT_TEST_DM;
 102:Generated_Source\PSoC4/CSD_Sensing.c **** 
 103:Generated_Source\PSoC4/CSD_Sensing.c **** typedef enum
 104:Generated_Source\PSoC4/CSD_Sensing.c **** {
 105:Generated_Source\PSoC4/CSD_Sensing.c ****     CSD_STS_RESET      = 0x01u,
 106:Generated_Source\PSoC4/CSD_Sensing.c ****     CSD_STS_NO_RESET   = 0x02u
 107:Generated_Source\PSoC4/CSD_Sensing.c **** } CSD_TEST_TYPE;
 108:Generated_Source\PSoC4/CSD_Sensing.c **** 
 109:Generated_Source\PSoC4/CSD_Sensing.c **** 
 110:Generated_Source\PSoC4/CSD_Sensing.c **** /*******************************************************************************
 111:Generated_Source\PSoC4/CSD_Sensing.c **** * Static Function Prototypes
 112:Generated_Source\PSoC4/CSD_Sensing.c **** *******************************************************************************/
 113:Generated_Source\PSoC4/CSD_Sensing.c **** /**
 114:Generated_Source\PSoC4/CSD_Sensing.c **** * \if SECTION_CAPSENSE_INTERNAL
 115:Generated_Source\PSoC4/CSD_Sensing.c **** * \addtogroup group_capsense_internal
 116:Generated_Source\PSoC4/CSD_Sensing.c **** * \{
 117:Generated_Source\PSoC4/CSD_Sensing.c **** */
 118:Generated_Source\PSoC4/CSD_Sensing.c **** 
 119:Generated_Source\PSoC4/CSD_Sensing.c **** #if (CSD_DISABLE == CSD_CSDV2)
 120:Generated_Source\PSoC4/CSD_Sensing.c ****     static void CSD_SsTrimIdacs(void);
 121:Generated_Source\PSoC4/CSD_Sensing.c ****     #if ((CSD_ENABLE == CSD_CSX_EN) || \
 122:Generated_Source\PSoC4/CSD_Sensing.c ****          (CSD_IDAC_SINKING == CSD_CSD_IDAC_CONFIG))
 123:Generated_Source\PSoC4/CSD_Sensing.c ****         static void CSD_SsTrimIdacsSinking(void);
ARM GAS  C:\Users\CHRIST~1\AppData\Local\Temp\ccIPpNky.s 			page 4


 124:Generated_Source\PSoC4/CSD_Sensing.c ****     #endif /* ((CSD_ENABLE == CSD_CSX_EN) || \
 125:Generated_Source\PSoC4/CSD_Sensing.c ****                (CSD_IDAC_SINKING == CSD_CSD_IDAC_CONFIG)) */
 126:Generated_Source\PSoC4/CSD_Sensing.c ****     #if ((CSD_ENABLE == CSD_CSX_EN) || \
 127:Generated_Source\PSoC4/CSD_Sensing.c ****          (CSD_IDAC_SOURCING == CSD_CSD_IDAC_CONFIG))
 128:Generated_Source\PSoC4/CSD_Sensing.c ****         static void CSD_SsTrimIdacsSourcing(void);
 129:Generated_Source\PSoC4/CSD_Sensing.c ****     #endif /* ((CSD_ENABLE == CSD_CSX_EN) || \
 130:Generated_Source\PSoC4/CSD_Sensing.c ****                (CSD_IDAC_SOURCING == CSD_CSD_IDAC_CONFIG)) */
 131:Generated_Source\PSoC4/CSD_Sensing.c **** #endif /* (CSD_ENABLE == CSD_CSDV2) */
 132:Generated_Source\PSoC4/CSD_Sensing.c **** #if ((CSD_ENABLE == CSD_CSD_CSX_EN) || \
 133:Generated_Source\PSoC4/CSD_Sensing.c ****      (CSD_ENABLE == CSD_ADC_EN))
 134:Generated_Source\PSoC4/CSD_Sensing.c ****     #if (CSD_ENABLE == CSD_CSD_EN)
 135:Generated_Source\PSoC4/CSD_Sensing.c ****         static void CSD_SsCSDDisableMode(void);
 136:Generated_Source\PSoC4/CSD_Sensing.c ****     #endif /* (CSD_ENABLE == CSD_CSD_EN) */
 137:Generated_Source\PSoC4/CSD_Sensing.c ****     #if (CSD_ENABLE == CSD_CSX_EN)
 138:Generated_Source\PSoC4/CSD_Sensing.c ****         static void CSD_SsDisableCSXMode(void);
 139:Generated_Source\PSoC4/CSD_Sensing.c ****     #endif /* (CSD_ENABLE == CSD_CSX_EN) */
 140:Generated_Source\PSoC4/CSD_Sensing.c **** #endif /* ((CSD_ENABLE == CSD_CSD_CSX_EN) || \
 141:Generated_Source\PSoC4/CSD_Sensing.c ****            (CSD_ENABLE == CSD_ADC_EN)) */
 142:Generated_Source\PSoC4/CSD_Sensing.c **** #if (CSD_CSD_SS_DIS != CSD_CSD_AUTOTUNE)
 143:Generated_Source\PSoC4/CSD_Sensing.c ****     static void CSD_SsSetDirectClockMode(void);
 144:Generated_Source\PSoC4/CSD_Sensing.c **** #endif /* (CSD_CSD_SS_DIS != CSD_CSD_AUTOTUNE) */
 145:Generated_Source\PSoC4/CSD_Sensing.c **** 
 146:Generated_Source\PSoC4/CSD_Sensing.c **** 
 147:Generated_Source\PSoC4/CSD_Sensing.c **** /** \}
 148:Generated_Source\PSoC4/CSD_Sensing.c **** * \endif */
 149:Generated_Source\PSoC4/CSD_Sensing.c **** 
 150:Generated_Source\PSoC4/CSD_Sensing.c **** /*******************************************************************************
 151:Generated_Source\PSoC4/CSD_Sensing.c **** * Define module variables
 152:Generated_Source\PSoC4/CSD_Sensing.c **** *******************************************************************************/
 153:Generated_Source\PSoC4/CSD_Sensing.c **** 
 154:Generated_Source\PSoC4/CSD_Sensing.c **** #if ((CSD_ENABLE == CSD_CSD_CSX_EN) || \
 155:Generated_Source\PSoC4/CSD_Sensing.c ****      (CSD_ENABLE == CSD_ADC_EN))
 156:Generated_Source\PSoC4/CSD_Sensing.c ****     CSD_SENSE_METHOD_ENUM CSD_currentSenseMethod = CSD_UNDEFINED_E;
 157:Generated_Source\PSoC4/CSD_Sensing.c **** #endif /* ((CSD_ENABLE == CSD_CSD_CSX_EN) || \
 158:Generated_Source\PSoC4/CSD_Sensing.c ****            (CSD_ENABLE == CSD_ADC_EN))) */
 159:Generated_Source\PSoC4/CSD_Sensing.c **** 
 160:Generated_Source\PSoC4/CSD_Sensing.c **** #if(CSD_ENABLE == CSD_MULTI_FREQ_SCAN_EN)
 161:Generated_Source\PSoC4/CSD_Sensing.c ****     /*  Module variable keep track of frequency hopping channel index   */
 162:Generated_Source\PSoC4/CSD_Sensing.c ****     uint8 CSD_scanFreqIndex = 0u;
 163:Generated_Source\PSoC4/CSD_Sensing.c ****     /*  Variable keep frequency offsets */
 164:Generated_Source\PSoC4/CSD_Sensing.c ****     uint8 CSD_immunity[CSD_NUM_SCAN_FREQS] = {0u, 0u, 0u};
 165:Generated_Source\PSoC4/CSD_Sensing.c **** #else
 166:Generated_Source\PSoC4/CSD_Sensing.c ****     /* const allows C-compiler to do optimization */
 167:Generated_Source\PSoC4/CSD_Sensing.c ****     const uint8 CSD_scanFreqIndex = 0u;
 168:Generated_Source\PSoC4/CSD_Sensing.c **** #endif /* (CSD_ENABLE == CSD_MULTI_FREQ_SCAN_EN) */
 169:Generated_Source\PSoC4/CSD_Sensing.c **** 
 170:Generated_Source\PSoC4/CSD_Sensing.c **** /* Global software variables */
 171:Generated_Source\PSoC4/CSD_Sensing.c **** volatile uint8 CSD_widgetIndex = 0u;    /* Index of the scanning widget */
 172:Generated_Source\PSoC4/CSD_Sensing.c **** volatile uint8 CSD_sensorIndex = 0u;    /* Index of the scanning sensor */
 173:Generated_Source\PSoC4/CSD_Sensing.c **** uint8 CSD_requestScanAllWidget = 0u;
 174:Generated_Source\PSoC4/CSD_Sensing.c **** #if (CSD_CSD_SS_DIS != CSD_CSD_AUTOTUNE)
 175:Generated_Source\PSoC4/CSD_Sensing.c ****     uint8 CSD_prescalersTuningDone = 0u;
 176:Generated_Source\PSoC4/CSD_Sensing.c **** #endif /* (CSD_CSD_SS_DIS != CSD_CSD_AUTOTUNE) */
 177:Generated_Source\PSoC4/CSD_Sensing.c **** 
 178:Generated_Source\PSoC4/CSD_Sensing.c **** /* Pointer to RAM_SNS_STRUCT structure  */
 179:Generated_Source\PSoC4/CSD_Sensing.c **** CSD_RAM_SNS_STRUCT *CSD_curRamSnsPtr;
 180:Generated_Source\PSoC4/CSD_Sensing.c **** 
ARM GAS  C:\Users\CHRIST~1\AppData\Local\Temp\ccIPpNky.s 			page 5


 181:Generated_Source\PSoC4/CSD_Sensing.c **** #if ((CSD_ENABLE == CSD_CSD_GANGED_SNS_EN) || \
 182:Generated_Source\PSoC4/CSD_Sensing.c ****      (CSD_ENABLE == CSD_CSX_EN))
 183:Generated_Source\PSoC4/CSD_Sensing.c ****     /*  Pointer to Flash structure holding configuration of widget to be scanned  */
 184:Generated_Source\PSoC4/CSD_Sensing.c ****     CSD_FLASH_WD_STRUCT const *CSD_curFlashWdgtPtr = 0u;
 185:Generated_Source\PSoC4/CSD_Sensing.c **** #endif /* ((CSD_ENABLE == CSD_CSD_GANGED_SNS_EN) || \
 186:Generated_Source\PSoC4/CSD_Sensing.c ****            (CSD_ENABLE == CSD_CSX_EN))  */
 187:Generated_Source\PSoC4/CSD_Sensing.c **** #if (CSD_ENABLE == CSD_CSD_GANGED_SNS_EN)
 188:Generated_Source\PSoC4/CSD_Sensing.c ****     /*  Pointer to Flash structure holding info of sensor to be scanned  */
 189:Generated_Source\PSoC4/CSD_Sensing.c ****     CSD_FLASH_SNS_STRUCT const *CSD_curFlashSnsPtr = 0u;
 190:Generated_Source\PSoC4/CSD_Sensing.c **** #endif /* (CSD_ENABLE == CSD_CSD_GANGED_SNS_EN) */
 191:Generated_Source\PSoC4/CSD_Sensing.c **** 
 192:Generated_Source\PSoC4/CSD_Sensing.c **** #if(((CSD_ENABLE == CSD_CSX_EN) && (CSD_ENABLE == CSD_CSDV2) && (CSD_CLK_SOURCE_PRSAUTO == CSD_CSX_
 193:Generated_Source\PSoC4/CSD_Sensing.c ****     ((CSD_ENABLE == CSD_CSD_EN) && (CSD_ENABLE == CSD_CSDV2) && (CSD_CLK_SOURCE_PRSAUTO == CSD_CSD_
 194:Generated_Source\PSoC4/CSD_Sensing.c ****     static CY_INLINE uint8 CSD_SsCalcLfsrSize(uint32 modClkDivider, uint32 snsClkDivider, uint32 co
 195:Generated_Source\PSoC4/CSD_Sensing.c ****     static CY_INLINE uint8 CSD_SsCalcLfsrScale(uint32 snsClkDivider, uint8 lfsrSize);
 196:Generated_Source\PSoC4/CSD_Sensing.c **** #endif /* (((CSD_ENABLE == CSD_CSX_EN) && (CSD_ENABLE == CSD_CSDV2) && (CSD_CLK_SOURCE_PRSAUTO == C
 197:Generated_Source\PSoC4/CSD_Sensing.c ****     ((CSD_ENABLE == CSD_CSD_EN) && (CSD_ENABLE == CSD_CSDV2) && (CSD_CLK_SOURCE_PRSAUTO == CSD_CSD_
 198:Generated_Source\PSoC4/CSD_Sensing.c **** 
 199:Generated_Source\PSoC4/CSD_Sensing.c **** #if (CSD_ENABLE == CSD_CSD_EN)
 200:Generated_Source\PSoC4/CSD_Sensing.c ****     void CSD_SsSetWidgetSenseClkSrc(uint32 wdgtIndex, CSD_RAM_WD_BASE_STRUCT * ptrWdgt);
 201:Generated_Source\PSoC4/CSD_Sensing.c **** #endif /* (CSD_ENABLE == CSD_CSD_EN) */
 202:Generated_Source\PSoC4/CSD_Sensing.c **** 
 203:Generated_Source\PSoC4/CSD_Sensing.c **** #if ((CSD_ENABLE == CSD_CSX_EN) && (CSD_ENABLE == CSD_CSDV2))
 204:Generated_Source\PSoC4/CSD_Sensing.c ****     void CSD_SsSetWidgetTxClkSrc(uint32 wdgtIndex, CSD_RAM_WD_BASE_STRUCT * ptrWdgt);
 205:Generated_Source\PSoC4/CSD_Sensing.c **** #endif /* ((CSD_ENABLE == CSD_CSX_EN) && (CSD_ENABLE == CSD_CSDV2)) */
 206:Generated_Source\PSoC4/CSD_Sensing.c **** 
 207:Generated_Source\PSoC4/CSD_Sensing.c **** /*******************************************************************************
 208:Generated_Source\PSoC4/CSD_Sensing.c **** * Function Name: CSD_IsBusy
 209:Generated_Source\PSoC4/CSD_Sensing.c **** ****************************************************************************//**
 210:Generated_Source\PSoC4/CSD_Sensing.c **** *
 211:Generated_Source\PSoC4/CSD_Sensing.c **** * \brief
 212:Generated_Source\PSoC4/CSD_Sensing.c **** *  Returns the current status of the component (scan completed or scan in
 213:Generated_Source\PSoC4/CSD_Sensing.c **** *  progress).
 214:Generated_Source\PSoC4/CSD_Sensing.c **** *
 215:Generated_Source\PSoC4/CSD_Sensing.c **** * \details
 216:Generated_Source\PSoC4/CSD_Sensing.c **** *  This function returns the status of the hardware block whether a scan is
 217:Generated_Source\PSoC4/CSD_Sensing.c **** *  currently in progress or not. If the component is busy, no new scan or setup
 218:Generated_Source\PSoC4/CSD_Sensing.c **** *  widgets should be made. It is recommended to use the critical section (i.e.
 219:Generated_Source\PSoC4/CSD_Sensing.c **** *  disable global interrupt) in the application when the device transitions from
 220:Generated_Source\PSoC4/CSD_Sensing.c **** *  the active mode to sleep or deep sleep mode.
 221:Generated_Source\PSoC4/CSD_Sensing.c **** *
 222:Generated_Source\PSoC4/CSD_Sensing.c **** * \return
 223:Generated_Source\PSoC4/CSD_Sensing.c **** *  Returns the current status of the component:
 224:Generated_Source\PSoC4/CSD_Sensing.c **** *    - CSD_NOT_BUSY if there is no scan in progress and a next scan
 225:Generated_Source\PSoC4/CSD_Sensing.c **** *      can be initiated.
 226:Generated_Source\PSoC4/CSD_Sensing.c **** *    - CSD_SW_STS_BUSY if the previous scanning is not completed
 227:Generated_Source\PSoC4/CSD_Sensing.c **** *      and the hardware block is busy.
 228:Generated_Source\PSoC4/CSD_Sensing.c **** *
 229:Generated_Source\PSoC4/CSD_Sensing.c **** *******************************************************************************/
 230:Generated_Source\PSoC4/CSD_Sensing.c **** uint32 CSD_IsBusy(void)
 231:Generated_Source\PSoC4/CSD_Sensing.c **** {
  49              		.loc 1 231 0
  50              		.cfi_startproc
  51 0000 80B5     		push	{r7, lr}
  52              		.cfi_def_cfa_offset 8
  53              		.cfi_offset 7, -8
  54              		.cfi_offset 14, -4
ARM GAS  C:\Users\CHRIST~1\AppData\Local\Temp\ccIPpNky.s 			page 6


  55 0002 00AF     		add	r7, sp, #0
  56              		.cfi_def_cfa_register 7
 232:Generated_Source\PSoC4/CSD_Sensing.c ****     return ((*(volatile uint8 *)&CSD_dsRam.status) & CSD_SW_STS_BUSY);
  57              		.loc 1 232 0
  58 0004 044B     		ldr	r3, .L3
  59 0006 1B78     		ldrb	r3, [r3]
  60 0008 DBB2     		uxtb	r3, r3
  61 000a 1A1C     		mov	r2, r3
  62 000c 8023     		mov	r3, #128
  63 000e 1340     		and	r3, r2
 233:Generated_Source\PSoC4/CSD_Sensing.c **** }
  64              		.loc 1 233 0
  65 0010 181C     		mov	r0, r3
  66 0012 BD46     		mov	sp, r7
  67              		@ sp needed
  68 0014 80BD     		pop	{r7, pc}
  69              	.L4:
  70 0016 C046     		.align	2
  71              	.L3:
  72 0018 08000000 		.word	CSD_dsRam+8
  73              		.cfi_endproc
  74              	.LFE1:
  75              		.size	CSD_IsBusy, .-CSD_IsBusy
  76              		.section	.text.CSD_SetupWidget,"ax",%progbits
  77              		.align	2
  78              		.global	CSD_SetupWidget
  79              		.code	16
  80              		.thumb_func
  81              		.type	CSD_SetupWidget, %function
  82              	CSD_SetupWidget:
  83              	.LFB2:
 234:Generated_Source\PSoC4/CSD_Sensing.c **** 
 235:Generated_Source\PSoC4/CSD_Sensing.c **** /*******************************************************************************
 236:Generated_Source\PSoC4/CSD_Sensing.c **** * Function Name: CSD_SetupWidget
 237:Generated_Source\PSoC4/CSD_Sensing.c **** ****************************************************************************//**
 238:Generated_Source\PSoC4/CSD_Sensing.c **** *
 239:Generated_Source\PSoC4/CSD_Sensing.c **** * \brief
 240:Generated_Source\PSoC4/CSD_Sensing.c **** *  Performs the initialization required to scan the specified widget.
 241:Generated_Source\PSoC4/CSD_Sensing.c **** *
 242:Generated_Source\PSoC4/CSD_Sensing.c **** * \details
 243:Generated_Source\PSoC4/CSD_Sensing.c **** *  This function prepares the component to scan all sensors in the specified
 244:Generated_Source\PSoC4/CSD_Sensing.c **** *  widget, by executing the following tasks.
 245:Generated_Source\PSoC4/CSD_Sensing.c **** *    1. Re-initialize the hardware if it is not configured to perform the
 246:Generated_Source\PSoC4/CSD_Sensing.c **** *       sensing method used by the specified widget, this happens only if the
 247:Generated_Source\PSoC4/CSD_Sensing.c **** *       CSD and CSX methods are used in the component.
 248:Generated_Source\PSoC4/CSD_Sensing.c **** *    2. Initialize the hardware with specific sensing configuration (e.g.
 249:Generated_Source\PSoC4/CSD_Sensing.c **** *       sensor clock, scan resolution) used by the widget.
 250:Generated_Source\PSoC4/CSD_Sensing.c **** *    3. Disconnect all previously connected electrodes, if the electrodes
 251:Generated_Source\PSoC4/CSD_Sensing.c **** *       connected by the CSD_CSDSetupWidgetExt(),
 252:Generated_Source\PSoC4/CSD_Sensing.c **** *       CSD_CSXSetupWidgetExt() or CSD_CSDConnectSns()
 253:Generated_Source\PSoC4/CSD_Sensing.c **** *       functions and not disconnected.
 254:Generated_Source\PSoC4/CSD_Sensing.c **** *
 255:Generated_Source\PSoC4/CSD_Sensing.c **** *  This function does not start sensor scanning, the CSD_Scan()
 256:Generated_Source\PSoC4/CSD_Sensing.c **** *  function must be called to start the scan sensors in the widget. If this
 257:Generated_Source\PSoC4/CSD_Sensing.c **** *  function is called more than once, it does not break the component operation,
 258:Generated_Source\PSoC4/CSD_Sensing.c **** *  but only the last initialized widget is in effect.
 259:Generated_Source\PSoC4/CSD_Sensing.c **** 
ARM GAS  C:\Users\CHRIST~1\AppData\Local\Temp\ccIPpNky.s 			page 7


 260:Generated_Source\PSoC4/CSD_Sensing.c **** *
 261:Generated_Source\PSoC4/CSD_Sensing.c **** * \param wdgtIndex
 262:Generated_Source\PSoC4/CSD_Sensing.c **** *  Specify the ID number of the widget to be initialized for scanning.
 263:Generated_Source\PSoC4/CSD_Sensing.c **** *  A macro for the widget ID can be found in the
 264:Generated_Source\PSoC4/CSD_Sensing.c **** *  CSD_Configuration.h file defined as
 265:Generated_Source\PSoC4/CSD_Sensing.c **** *  CSD_<WidgetName>_WDGT_ID
 266:Generated_Source\PSoC4/CSD_Sensing.c **** *
 267:Generated_Source\PSoC4/CSD_Sensing.c **** * \return
 268:Generated_Source\PSoC4/CSD_Sensing.c **** *  Returns the status of the widget setting up operation:
 269:Generated_Source\PSoC4/CSD_Sensing.c **** *    - CYRET_SUCCESS if the operation is successfully completed.
 270:Generated_Source\PSoC4/CSD_Sensing.c **** *    - CYRET_BAD_PARAM if the widget is invalid or if the specified widget is
 271:Generated_Source\PSoC4/CSD_Sensing.c **** *      disabled
 272:Generated_Source\PSoC4/CSD_Sensing.c **** *    - CYRET_INVALID_STATE if the previous scanning is not completed and the
 273:Generated_Source\PSoC4/CSD_Sensing.c **** *      hardware block is busy.
 274:Generated_Source\PSoC4/CSD_Sensing.c **** *    - CYRET_UNKNOWN if an unknown sensing method is used by the widget or
 275:Generated_Source\PSoC4/CSD_Sensing.c **** *      other spurious errors.
 276:Generated_Source\PSoC4/CSD_Sensing.c **** *
 277:Generated_Source\PSoC4/CSD_Sensing.c **** **********************************************************************************/
 278:Generated_Source\PSoC4/CSD_Sensing.c **** cystatus CSD_SetupWidget(uint32 wdgtIndex)
 279:Generated_Source\PSoC4/CSD_Sensing.c **** {
  84              		.loc 1 279 0
  85              		.cfi_startproc
  86 0000 80B5     		push	{r7, lr}
  87              		.cfi_def_cfa_offset 8
  88              		.cfi_offset 7, -8
  89              		.cfi_offset 14, -4
  90 0002 84B0     		sub	sp, sp, #16
  91              		.cfi_def_cfa_offset 24
  92 0004 00AF     		add	r7, sp, #0
  93              		.cfi_def_cfa_register 7
  94 0006 7860     		str	r0, [r7, #4]
 280:Generated_Source\PSoC4/CSD_Sensing.c ****     cystatus widgetStatus;
 281:Generated_Source\PSoC4/CSD_Sensing.c **** 
 282:Generated_Source\PSoC4/CSD_Sensing.c ****     if (CSD_WDGT_SW_STS_BUSY == (CSD_dsRam.status & CSD_WDGT_SW_STS_BUSY))
  95              		.loc 1 282 0
  96 0008 154B     		ldr	r3, .L11
  97 000a 9A68     		ldr	r2, [r3, #8]
  98 000c 8023     		mov	r3, #128
  99 000e 5B02     		lsl	r3, r3, #9
 100 0010 1340     		and	r3, r2
 101 0012 02D0     		beq	.L6
 283:Generated_Source\PSoC4/CSD_Sensing.c ****     {
 284:Generated_Source\PSoC4/CSD_Sensing.c ****         /* Previous widget is being scanned. Return error. */
 285:Generated_Source\PSoC4/CSD_Sensing.c ****         widgetStatus = CYRET_INVALID_STATE;
 102              		.loc 1 285 0
 103 0014 1123     		mov	r3, #17
 104 0016 FB60     		str	r3, [r7, #12]
 105 0018 16E0     		b	.L7
 106              	.L6:
 286:Generated_Source\PSoC4/CSD_Sensing.c ****     }
 287:Generated_Source\PSoC4/CSD_Sensing.c ****     /*
 288:Generated_Source\PSoC4/CSD_Sensing.c ****      *  Check if widget id is valid, specified widget is enabled and widget did not
 289:Generated_Source\PSoC4/CSD_Sensing.c ****      *  detect any fault conditions if BIST is enabled. If all conditions are met,
 290:Generated_Source\PSoC4/CSD_Sensing.c ****      *  set widgetStatus as good, if not, set widgetStatus as bad.
 291:Generated_Source\PSoC4/CSD_Sensing.c ****      */
 292:Generated_Source\PSoC4/CSD_Sensing.c ****     else if ((CSD_TOTAL_WIDGETS > wdgtIndex) &&
 107              		.loc 1 292 0
ARM GAS  C:\Users\CHRIST~1\AppData\Local\Temp\ccIPpNky.s 			page 8


 108 001a 7B68     		ldr	r3, [r7, #4]
 109 001c 002B     		cmp	r3, #0
 110 001e 11D1     		bne	.L8
 293:Generated_Source\PSoC4/CSD_Sensing.c ****         (0u != CSD_GET_WIDGET_EN_STATUS(wdgtIndex)))
 111              		.loc 1 293 0 discriminator 1
 112 0020 7B68     		ldr	r3, [r7, #4]
 113 0022 5B09     		lsr	r3, r3, #5
 114 0024 0E4A     		ldr	r2, .L11
 115 0026 0233     		add	r3, r3, #2
 116 0028 9B00     		lsl	r3, r3, #2
 117 002a D318     		add	r3, r2, r3
 118 002c 5A68     		ldr	r2, [r3, #4]
 119 002e 7B68     		ldr	r3, [r7, #4]
 120 0030 1F21     		mov	r1, #31
 121 0032 0B40     		and	r3, r1
 122 0034 DA40     		lsr	r2, r2, r3
 123 0036 131C     		mov	r3, r2
 124 0038 0122     		mov	r2, #1
 125 003a 1340     		and	r3, r2
 292:Generated_Source\PSoC4/CSD_Sensing.c ****         (0u != CSD_GET_WIDGET_EN_STATUS(wdgtIndex)))
 126              		.loc 1 292 0 discriminator 1
 127 003c 02D0     		beq	.L8
 294:Generated_Source\PSoC4/CSD_Sensing.c **** 
 295:Generated_Source\PSoC4/CSD_Sensing.c ****     {
 296:Generated_Source\PSoC4/CSD_Sensing.c ****         widgetStatus = CYRET_SUCCESS;
 128              		.loc 1 296 0
 129 003e 0023     		mov	r3, #0
 130 0040 FB60     		str	r3, [r7, #12]
 131 0042 01E0     		b	.L7
 132              	.L8:
 297:Generated_Source\PSoC4/CSD_Sensing.c ****     }
 298:Generated_Source\PSoC4/CSD_Sensing.c ****     else
 299:Generated_Source\PSoC4/CSD_Sensing.c ****     {
 300:Generated_Source\PSoC4/CSD_Sensing.c ****         widgetStatus = CYRET_BAD_PARAM;
 133              		.loc 1 300 0
 134 0044 0123     		mov	r3, #1
 135 0046 FB60     		str	r3, [r7, #12]
 136              	.L7:
 301:Generated_Source\PSoC4/CSD_Sensing.c ****     }
 302:Generated_Source\PSoC4/CSD_Sensing.c **** 
 303:Generated_Source\PSoC4/CSD_Sensing.c ****     /*
 304:Generated_Source\PSoC4/CSD_Sensing.c ****      * Check widgetStatus flag that is set earlier, if flag is good, then set up only
 305:Generated_Source\PSoC4/CSD_Sensing.c ****      * widget
 306:Generated_Source\PSoC4/CSD_Sensing.c ****      */
 307:Generated_Source\PSoC4/CSD_Sensing.c ****     if (CYRET_SUCCESS == widgetStatus)
 137              		.loc 1 307 0
 138 0048 FB68     		ldr	r3, [r7, #12]
 139 004a 002B     		cmp	r3, #0
 140 004c 03D1     		bne	.L9
 308:Generated_Source\PSoC4/CSD_Sensing.c ****     {
 309:Generated_Source\PSoC4/CSD_Sensing.c ****         /*  Check if CSD2X is enabled   */
 310:Generated_Source\PSoC4/CSD_Sensing.c ****         #if (CSD_ENABLE == CSD_CSD2X_EN)
 311:Generated_Source\PSoC4/CSD_Sensing.c ****             /******************************
 312:Generated_Source\PSoC4/CSD_Sensing.c ****             * This is the place where CSD_SetupWidget2x(uint32 slotIndex)
 313:Generated_Source\PSoC4/CSD_Sensing.c ****             * API should be implemented.
 314:Generated_Source\PSoC4/CSD_Sensing.c ****             * CSD2X will be implemented
 315:Generated_Source\PSoC4/CSD_Sensing.c ****             * in the next component version.
ARM GAS  C:\Users\CHRIST~1\AppData\Local\Temp\ccIPpNky.s 			page 9


 316:Generated_Source\PSoC4/CSD_Sensing.c ****             *********************************/
 317:Generated_Source\PSoC4/CSD_Sensing.c ****             widgetStatus = CYRET_UNKNOWN;
 318:Generated_Source\PSoC4/CSD_Sensing.c ****             #error "CSD2x not implemented in this version of component"
 319:Generated_Source\PSoC4/CSD_Sensing.c **** 
 320:Generated_Source\PSoC4/CSD_Sensing.c ****         #elif (CSD_ENABLE == CSD_CSD_CSX_EN)
 321:Generated_Source\PSoC4/CSD_Sensing.c ****             /*  Check widget sensing method is CSX and call CSX APIs    */
 322:Generated_Source\PSoC4/CSD_Sensing.c ****             if (CSD_SENSE_METHOD_CSX_E ==
 323:Generated_Source\PSoC4/CSD_Sensing.c ****                 (CSD_SENSE_METHOD_ENUM)CSD_GET_SENSE_METHOD(&CSD_dsFlash.wdgtArray[wdgtIndex]))
 324:Generated_Source\PSoC4/CSD_Sensing.c ****             {
 325:Generated_Source\PSoC4/CSD_Sensing.c ****                 /*  Set up widget for CSX scan  */
 326:Generated_Source\PSoC4/CSD_Sensing.c ****                 CSD_CSXSetupWidget(wdgtIndex);
 327:Generated_Source\PSoC4/CSD_Sensing.c ****             }
 328:Generated_Source\PSoC4/CSD_Sensing.c ****             /*  Check widget sensing method is CSD and call appropriate API */
 329:Generated_Source\PSoC4/CSD_Sensing.c ****             else if (CSD_SENSE_METHOD_CSD_E ==
 330:Generated_Source\PSoC4/CSD_Sensing.c ****                      (CSD_SENSE_METHOD_ENUM)CSD_GET_SENSE_METHOD(&CSD_dsFlash.wdgtArray[wdgtIndex])
 331:Generated_Source\PSoC4/CSD_Sensing.c ****             {
 332:Generated_Source\PSoC4/CSD_Sensing.c ****                 /*  Set up widget for CSD scan  */
 333:Generated_Source\PSoC4/CSD_Sensing.c ****                 CSD_CSDSetupWidget(wdgtIndex);
 334:Generated_Source\PSoC4/CSD_Sensing.c ****             }
 335:Generated_Source\PSoC4/CSD_Sensing.c ****             else
 336:Generated_Source\PSoC4/CSD_Sensing.c ****             {
 337:Generated_Source\PSoC4/CSD_Sensing.c ****                 /*  Sensing method is invalid, return error to caller  */
 338:Generated_Source\PSoC4/CSD_Sensing.c ****                 widgetStatus = CYRET_UNKNOWN;
 339:Generated_Source\PSoC4/CSD_Sensing.c ****             }
 340:Generated_Source\PSoC4/CSD_Sensing.c ****         #elif (CSD_ENABLE == CSD_CSD_EN)
 341:Generated_Source\PSoC4/CSD_Sensing.c ****             /*  Set up widget for scan */
 342:Generated_Source\PSoC4/CSD_Sensing.c ****             CSD_CSDSetupWidget(wdgtIndex);
 141              		.loc 1 342 0
 142 004e 7B68     		ldr	r3, [r7, #4]
 143 0050 181C     		mov	r0, r3
 144 0052 FFF7FEFF 		bl	CSD_CSDSetupWidget
 145              	.L9:
 343:Generated_Source\PSoC4/CSD_Sensing.c ****         #elif (CSD_ENABLE == CSD_CSX_EN)
 344:Generated_Source\PSoC4/CSD_Sensing.c ****             /*  Set up widgets for scan     */
 345:Generated_Source\PSoC4/CSD_Sensing.c ****             CSD_CSXSetupWidget(wdgtIndex);
 346:Generated_Source\PSoC4/CSD_Sensing.c ****         #else
 347:Generated_Source\PSoC4/CSD_Sensing.c ****             widgetStatus = CYRET_UNKNOWN;
 348:Generated_Source\PSoC4/CSD_Sensing.c ****             #error "No sensing method enabled, component cannot work in this mode"
 349:Generated_Source\PSoC4/CSD_Sensing.c ****         #endif  /* (CSD_ENABLE == CSD_CSD2X_EN) */
 350:Generated_Source\PSoC4/CSD_Sensing.c ****     }
 351:Generated_Source\PSoC4/CSD_Sensing.c **** 
 352:Generated_Source\PSoC4/CSD_Sensing.c ****     return (widgetStatus);
 146              		.loc 1 352 0
 147 0056 FB68     		ldr	r3, [r7, #12]
 353:Generated_Source\PSoC4/CSD_Sensing.c **** }
 148              		.loc 1 353 0
 149 0058 181C     		mov	r0, r3
 150 005a BD46     		mov	sp, r7
 151 005c 04B0     		add	sp, sp, #16
 152              		@ sp needed
 153 005e 80BD     		pop	{r7, pc}
 154              	.L12:
 155              		.align	2
 156              	.L11:
 157 0060 00000000 		.word	CSD_dsRam
 158              		.cfi_endproc
 159              	.LFE2:
ARM GAS  C:\Users\CHRIST~1\AppData\Local\Temp\ccIPpNky.s 			page 10


 160              		.size	CSD_SetupWidget, .-CSD_SetupWidget
 161              		.section	.text.CSD_Scan,"ax",%progbits
 162              		.align	2
 163              		.global	CSD_Scan
 164              		.code	16
 165              		.thumb_func
 166              		.type	CSD_Scan, %function
 167              	CSD_Scan:
 168              	.LFB3:
 354:Generated_Source\PSoC4/CSD_Sensing.c **** 
 355:Generated_Source\PSoC4/CSD_Sensing.c **** 
 356:Generated_Source\PSoC4/CSD_Sensing.c **** /*******************************************************************************
 357:Generated_Source\PSoC4/CSD_Sensing.c **** * Function Name: CSD_Scan
 358:Generated_Source\PSoC4/CSD_Sensing.c **** ****************************************************************************//**
 359:Generated_Source\PSoC4/CSD_Sensing.c **** *
 360:Generated_Source\PSoC4/CSD_Sensing.c **** * \brief
 361:Generated_Source\PSoC4/CSD_Sensing.c **** *  Initiates scan of all sensors in the widget which is initialized by
 362:Generated_Source\PSoC4/CSD_Sensing.c **** *  CSD_SetupWidget(), if the no scan is in progress.
 363:Generated_Source\PSoC4/CSD_Sensing.c **** *
 364:Generated_Source\PSoC4/CSD_Sensing.c **** * \details
 365:Generated_Source\PSoC4/CSD_Sensing.c **** *  This function should be called only after the CSD_SetupWidget()
 366:Generated_Source\PSoC4/CSD_Sensing.c **** *  function is called to start the scanning of the sensors in the widget. The
 367:Generated_Source\PSoC4/CSD_Sensing.c **** *  status of a sensor scan must be checked using the CSD_IsBusy()
 368:Generated_Source\PSoC4/CSD_Sensing.c **** *  API prior to starting a next scan or setting up another widget.
 369:Generated_Source\PSoC4/CSD_Sensing.c **** *
 370:Generated_Source\PSoC4/CSD_Sensing.c **** * \return
 371:Generated_Source\PSoC4/CSD_Sensing.c **** *  Returns the status of the scan initiation operation:
 372:Generated_Source\PSoC4/CSD_Sensing.c **** *    - CYRET_SUCCESS if scanning is successfully started.
 373:Generated_Source\PSoC4/CSD_Sensing.c **** *    - CYRET_INVALID_STATE if the previous scanning is not completed and the
 374:Generated_Source\PSoC4/CSD_Sensing.c **** *      hardware block is busy.
 375:Generated_Source\PSoC4/CSD_Sensing.c **** *    - CYRET_UNKNOWN if an unknown sensing method is used by the widget.
 376:Generated_Source\PSoC4/CSD_Sensing.c **** *
 377:Generated_Source\PSoC4/CSD_Sensing.c **** ********************************************************************************/
 378:Generated_Source\PSoC4/CSD_Sensing.c **** cystatus CSD_Scan(void)
 379:Generated_Source\PSoC4/CSD_Sensing.c **** {
 169              		.loc 1 379 0
 170              		.cfi_startproc
 171 0000 80B5     		push	{r7, lr}
 172              		.cfi_def_cfa_offset 8
 173              		.cfi_offset 7, -8
 174              		.cfi_offset 14, -4
 175 0002 82B0     		sub	sp, sp, #8
 176              		.cfi_def_cfa_offset 16
 177 0004 00AF     		add	r7, sp, #0
 178              		.cfi_def_cfa_register 7
 380:Generated_Source\PSoC4/CSD_Sensing.c ****     cystatus scanStatus = CYRET_SUCCESS;
 179              		.loc 1 380 0
 180 0006 0023     		mov	r3, #0
 181 0008 7B60     		str	r3, [r7, #4]
 381:Generated_Source\PSoC4/CSD_Sensing.c **** 
 382:Generated_Source\PSoC4/CSD_Sensing.c ****     if (CSD_WDGT_SW_STS_BUSY == (CSD_dsRam.status & CSD_WDGT_SW_STS_BUSY))
 182              		.loc 1 382 0
 183 000a 084B     		ldr	r3, .L17
 184 000c 9A68     		ldr	r2, [r3, #8]
 185 000e 8023     		mov	r3, #128
 186 0010 5B02     		lsl	r3, r3, #9
 187 0012 1340     		and	r3, r2
ARM GAS  C:\Users\CHRIST~1\AppData\Local\Temp\ccIPpNky.s 			page 11


 188 0014 02D0     		beq	.L14
 383:Generated_Source\PSoC4/CSD_Sensing.c ****     {
 384:Generated_Source\PSoC4/CSD_Sensing.c ****         /* Previous widget is being scanned. Return error. */
 385:Generated_Source\PSoC4/CSD_Sensing.c ****         scanStatus = CYRET_INVALID_STATE;
 189              		.loc 1 385 0
 190 0016 1123     		mov	r3, #17
 191 0018 7B60     		str	r3, [r7, #4]
 192 001a 01E0     		b	.L15
 193              	.L14:
 386:Generated_Source\PSoC4/CSD_Sensing.c ****     }
 387:Generated_Source\PSoC4/CSD_Sensing.c ****     else
 388:Generated_Source\PSoC4/CSD_Sensing.c ****     {
 389:Generated_Source\PSoC4/CSD_Sensing.c ****         /*  If CSD2X is enabled, call CSD2X scan    */
 390:Generated_Source\PSoC4/CSD_Sensing.c ****     #if (CSD_ENABLE == CSD_CSD2X_EN)
 391:Generated_Source\PSoC4/CSD_Sensing.c ****         scanStatus = CSD_Scan2x();
 392:Generated_Source\PSoC4/CSD_Sensing.c **** 
 393:Generated_Source\PSoC4/CSD_Sensing.c ****     /*  If both CSD and CSX are enabled, call scan API based on widget sensing method    */
 394:Generated_Source\PSoC4/CSD_Sensing.c ****     #elif (CSD_ENABLE == CSD_CSD_CSX_EN)
 395:Generated_Source\PSoC4/CSD_Sensing.c ****         /*  Check widget sensing method and call appropriate APIs   */
 396:Generated_Source\PSoC4/CSD_Sensing.c ****         switch (CSD_currentSenseMethod)
 397:Generated_Source\PSoC4/CSD_Sensing.c ****         {
 398:Generated_Source\PSoC4/CSD_Sensing.c ****             case CSD_SENSE_METHOD_CSX_E:
 399:Generated_Source\PSoC4/CSD_Sensing.c ****                 CSD_CSXScan();
 400:Generated_Source\PSoC4/CSD_Sensing.c ****                 break;
 401:Generated_Source\PSoC4/CSD_Sensing.c **** 
 402:Generated_Source\PSoC4/CSD_Sensing.c ****             case CSD_SENSE_METHOD_CSD_E:
 403:Generated_Source\PSoC4/CSD_Sensing.c ****                  CSD_CSDScan();
 404:Generated_Source\PSoC4/CSD_Sensing.c ****                 break;
 405:Generated_Source\PSoC4/CSD_Sensing.c **** 
 406:Generated_Source\PSoC4/CSD_Sensing.c ****             default:
 407:Generated_Source\PSoC4/CSD_Sensing.c ****                 scanStatus = CYRET_UNKNOWN;
 408:Generated_Source\PSoC4/CSD_Sensing.c ****                 break;
 409:Generated_Source\PSoC4/CSD_Sensing.c ****         }
 410:Generated_Source\PSoC4/CSD_Sensing.c **** 
 411:Generated_Source\PSoC4/CSD_Sensing.c ****     /*  If only CSD is enabled, call CSD scan   */
 412:Generated_Source\PSoC4/CSD_Sensing.c ****     #elif (CSD_ENABLE == CSD_CSD_EN)
 413:Generated_Source\PSoC4/CSD_Sensing.c ****         CSD_CSDScan();
 194              		.loc 1 413 0
 195 001c FFF7FEFF 		bl	CSD_CSDScan
 196              	.L15:
 414:Generated_Source\PSoC4/CSD_Sensing.c **** 
 415:Generated_Source\PSoC4/CSD_Sensing.c ****     /*  If only CSX is enabled, call CSX scan   */
 416:Generated_Source\PSoC4/CSD_Sensing.c ****     #elif (CSD_ENABLE == CSD_CSX_EN)
 417:Generated_Source\PSoC4/CSD_Sensing.c ****         CSD_CSXScan();
 418:Generated_Source\PSoC4/CSD_Sensing.c **** 
 419:Generated_Source\PSoC4/CSD_Sensing.c ****     #else
 420:Generated_Source\PSoC4/CSD_Sensing.c ****         scanStatus = CYRET_UNKNOWN;
 421:Generated_Source\PSoC4/CSD_Sensing.c ****         #error "No sensing method enabled, component cannot work in this mode"
 422:Generated_Source\PSoC4/CSD_Sensing.c ****     #endif  /* (CSD_ENABLE == CSD_CSD2X_EN) */
 423:Generated_Source\PSoC4/CSD_Sensing.c ****     }
 424:Generated_Source\PSoC4/CSD_Sensing.c **** 
 425:Generated_Source\PSoC4/CSD_Sensing.c ****     return (scanStatus);
 197              		.loc 1 425 0
 198 0020 7B68     		ldr	r3, [r7, #4]
 426:Generated_Source\PSoC4/CSD_Sensing.c **** }
 199              		.loc 1 426 0
 200 0022 181C     		mov	r0, r3
ARM GAS  C:\Users\CHRIST~1\AppData\Local\Temp\ccIPpNky.s 			page 12


 201 0024 BD46     		mov	sp, r7
 202 0026 02B0     		add	sp, sp, #8
 203              		@ sp needed
 204 0028 80BD     		pop	{r7, pc}
 205              	.L18:
 206 002a C046     		.align	2
 207              	.L17:
 208 002c 00000000 		.word	CSD_dsRam
 209              		.cfi_endproc
 210              	.LFE3:
 211              		.size	CSD_Scan, .-CSD_Scan
 212              		.section	.text.CSD_ScanAllWidgets,"ax",%progbits
 213              		.align	2
 214              		.global	CSD_ScanAllWidgets
 215              		.code	16
 216              		.thumb_func
 217              		.type	CSD_ScanAllWidgets, %function
 218              	CSD_ScanAllWidgets:
 219              	.LFB4:
 427:Generated_Source\PSoC4/CSD_Sensing.c **** 
 428:Generated_Source\PSoC4/CSD_Sensing.c **** 
 429:Generated_Source\PSoC4/CSD_Sensing.c **** /*******************************************************************************
 430:Generated_Source\PSoC4/CSD_Sensing.c **** * Function Name: CSD_ScanAllWidgets
 431:Generated_Source\PSoC4/CSD_Sensing.c **** ****************************************************************************//**
 432:Generated_Source\PSoC4/CSD_Sensing.c **** *
 433:Generated_Source\PSoC4/CSD_Sensing.c **** * \brief
 434:Generated_Source\PSoC4/CSD_Sensing.c **** *  Initializes the first enabled widget and scans of all the sensors in the
 435:Generated_Source\PSoC4/CSD_Sensing.c **** *  widget, then the same process is repeated for all widgets in the component.
 436:Generated_Source\PSoC4/CSD_Sensing.c **** *  I.e. scan all the widgets in the component.
 437:Generated_Source\PSoC4/CSD_Sensing.c **** *
 438:Generated_Source\PSoC4/CSD_Sensing.c **** * \details
 439:Generated_Source\PSoC4/CSD_Sensing.c **** *  This function initializes a widget and scans all the sensors in the widget,
 440:Generated_Source\PSoC4/CSD_Sensing.c **** *  and then repeats the same for all the widgets in the component. The tasks of
 441:Generated_Source\PSoC4/CSD_Sensing.c **** *  the CSD_SetupWidget() and CSD_Scan() functions are
 442:Generated_Source\PSoC4/CSD_Sensing.c **** *  executed by these functions. The status of a sensor scan must be checked
 443:Generated_Source\PSoC4/CSD_Sensing.c **** *  using the the CSD_IsBusy() API prior to starting a next scan
 444:Generated_Source\PSoC4/CSD_Sensing.c **** *  or setting up another widget.
 445:Generated_Source\PSoC4/CSD_Sensing.c **** *
 446:Generated_Source\PSoC4/CSD_Sensing.c **** * \return
 447:Generated_Source\PSoC4/CSD_Sensing.c **** *  Returns the status of operation:
 448:Generated_Source\PSoC4/CSD_Sensing.c **** *    - CYRET_SUCCESS if scanning is successfully started.
 449:Generated_Source\PSoC4/CSD_Sensing.c **** *    - CYRET_BAD_PARAM if all the widgets are disabled.
 450:Generated_Source\PSoC4/CSD_Sensing.c **** *    - CYRET_INVALID_STATE if the previous scanning is not completed and the HW block is busy.
 451:Generated_Source\PSoC4/CSD_Sensing.c **** *    - CYRET_UNKNOWN if there are unknown errors.
 452:Generated_Source\PSoC4/CSD_Sensing.c **** *
 453:Generated_Source\PSoC4/CSD_Sensing.c **** *******************************************************************************/
 454:Generated_Source\PSoC4/CSD_Sensing.c **** cystatus CSD_ScanAllWidgets(void)
 455:Generated_Source\PSoC4/CSD_Sensing.c **** {
 220              		.loc 1 455 0
 221              		.cfi_startproc
 222 0000 80B5     		push	{r7, lr}
 223              		.cfi_def_cfa_offset 8
 224              		.cfi_offset 7, -8
 225              		.cfi_offset 14, -4
 226 0002 82B0     		sub	sp, sp, #8
 227              		.cfi_def_cfa_offset 16
 228 0004 00AF     		add	r7, sp, #0
ARM GAS  C:\Users\CHRIST~1\AppData\Local\Temp\ccIPpNky.s 			page 13


 229              		.cfi_def_cfa_register 7
 456:Generated_Source\PSoC4/CSD_Sensing.c ****     cystatus scanStatus = CYRET_UNKNOWN;
 230              		.loc 1 456 0
 231 0006 0123     		mov	r3, #1
 232 0008 5B42     		neg	r3, r3
 233 000a 7B60     		str	r3, [r7, #4]
 457:Generated_Source\PSoC4/CSD_Sensing.c **** 
 458:Generated_Source\PSoC4/CSD_Sensing.c ****     #if (CSD_DISABLE == CSD_CSD2X_EN)
 459:Generated_Source\PSoC4/CSD_Sensing.c ****         uint32 wdgtIndex;
 460:Generated_Source\PSoC4/CSD_Sensing.c **** 
 461:Generated_Source\PSoC4/CSD_Sensing.c ****         if (CSD_SW_STS_BUSY == (CSD_dsRam.status & CSD_SW_STS_BUSY))
 234              		.loc 1 461 0
 235 000c 134B     		ldr	r3, .L26
 236 000e 9B68     		ldr	r3, [r3, #8]
 237 0010 8022     		mov	r2, #128
 238 0012 1340     		and	r3, r2
 239 0014 02D0     		beq	.L20
 462:Generated_Source\PSoC4/CSD_Sensing.c ****         {
 463:Generated_Source\PSoC4/CSD_Sensing.c ****             /* Previous widget is being scanned. Return error. */
 464:Generated_Source\PSoC4/CSD_Sensing.c ****             scanStatus = CYRET_INVALID_STATE;
 240              		.loc 1 464 0
 241 0016 1123     		mov	r3, #17
 242 0018 7B60     		str	r3, [r7, #4]
 243 001a 19E0     		b	.L21
 244              	.L20:
 465:Generated_Source\PSoC4/CSD_Sensing.c ****         }
 466:Generated_Source\PSoC4/CSD_Sensing.c ****         else
 467:Generated_Source\PSoC4/CSD_Sensing.c ****         {
 468:Generated_Source\PSoC4/CSD_Sensing.c ****             /*
 469:Generated_Source\PSoC4/CSD_Sensing.c ****              *  Set up widget first widget.
 470:Generated_Source\PSoC4/CSD_Sensing.c ****              *  If widget returned error, set up next, continue same until widget does not return e
 471:Generated_Source\PSoC4/CSD_Sensing.c ****              */
 472:Generated_Source\PSoC4/CSD_Sensing.c ****             for (wdgtIndex = 0u;
 245              		.loc 1 472 0
 246 001c 0023     		mov	r3, #0
 247 001e 3B60     		str	r3, [r7]
 248 0020 13E0     		b	.L22
 249              	.L24:
 473:Generated_Source\PSoC4/CSD_Sensing.c ****                  wdgtIndex < CSD_TOTAL_WIDGETS;
 474:Generated_Source\PSoC4/CSD_Sensing.c ****                  wdgtIndex++)
 475:Generated_Source\PSoC4/CSD_Sensing.c ****             {
 476:Generated_Source\PSoC4/CSD_Sensing.c **** 
 477:Generated_Source\PSoC4/CSD_Sensing.c ****                 scanStatus = CSD_SetupWidget(wdgtIndex);
 250              		.loc 1 477 0
 251 0022 3B68     		ldr	r3, [r7]
 252 0024 181C     		mov	r0, r3
 253 0026 FFF7FEFF 		bl	CSD_SetupWidget
 254 002a 031C     		mov	r3, r0
 255 002c 7B60     		str	r3, [r7, #4]
 478:Generated_Source\PSoC4/CSD_Sensing.c **** 
 479:Generated_Source\PSoC4/CSD_Sensing.c ****                 if (CYRET_SUCCESS == scanStatus)
 256              		.loc 1 479 0
 257 002e 7B68     		ldr	r3, [r7, #4]
 258 0030 002B     		cmp	r3, #0
 259 0032 07D1     		bne	.L23
 480:Generated_Source\PSoC4/CSD_Sensing.c ****                 {
 481:Generated_Source\PSoC4/CSD_Sensing.c ****                     #if (0u != (CSD_TOTAL_WIDGETS - 1u))
ARM GAS  C:\Users\CHRIST~1\AppData\Local\Temp\ccIPpNky.s 			page 14


 482:Generated_Source\PSoC4/CSD_Sensing.c ****                         /* If there are more than one widget to be scanned, request callback to sca
 483:Generated_Source\PSoC4/CSD_Sensing.c ****                         if ((CSD_TOTAL_WIDGETS - 1u) > wdgtIndex)
 484:Generated_Source\PSoC4/CSD_Sensing.c ****                         {
 485:Generated_Source\PSoC4/CSD_Sensing.c ****                              /* Request callback to scan next widget in ISR */
 486:Generated_Source\PSoC4/CSD_Sensing.c ****                             CSD_requestScanAllWidget = CSD_ENABLE;
 487:Generated_Source\PSoC4/CSD_Sensing.c ****                         }
 488:Generated_Source\PSoC4/CSD_Sensing.c ****                         else
 489:Generated_Source\PSoC4/CSD_Sensing.c ****                         {
 490:Generated_Source\PSoC4/CSD_Sensing.c ****                             /* Request to exit in ISR (Do not scan the next widgets) */
 491:Generated_Source\PSoC4/CSD_Sensing.c ****                             CSD_requestScanAllWidget = CSD_DISABLE;
 492:Generated_Source\PSoC4/CSD_Sensing.c ****                         }
 493:Generated_Source\PSoC4/CSD_Sensing.c ****                     #else
 494:Generated_Source\PSoC4/CSD_Sensing.c ****                         {
 495:Generated_Source\PSoC4/CSD_Sensing.c ****                             /* Request to exit in ISR (We have only one widget) */
 496:Generated_Source\PSoC4/CSD_Sensing.c ****                             CSD_requestScanAllWidget = CSD_DISABLE;
 260              		.loc 1 496 0
 261 0034 0A4B     		ldr	r3, .L26+4
 262 0036 0022     		mov	r2, #0
 263 0038 1A70     		strb	r2, [r3]
 497:Generated_Source\PSoC4/CSD_Sensing.c ****                         }
 498:Generated_Source\PSoC4/CSD_Sensing.c ****                     #endif  /* (0u != (CSD_TOTAL_WIDGETS - 1u)) */
 499:Generated_Source\PSoC4/CSD_Sensing.c **** 
 500:Generated_Source\PSoC4/CSD_Sensing.c ****                     /*  Initiate scan and quit loop */
 501:Generated_Source\PSoC4/CSD_Sensing.c ****                     scanStatus = CSD_Scan();
 264              		.loc 1 501 0
 265 003a FFF7FEFF 		bl	CSD_Scan
 266 003e 031C     		mov	r3, r0
 267 0040 7B60     		str	r3, [r7, #4]
 502:Generated_Source\PSoC4/CSD_Sensing.c **** 
 503:Generated_Source\PSoC4/CSD_Sensing.c ****                     break;
 268              		.loc 1 503 0
 269 0042 05E0     		b	.L21
 270              	.L23:
 474:Generated_Source\PSoC4/CSD_Sensing.c ****             {
 271              		.loc 1 474 0
 272 0044 3B68     		ldr	r3, [r7]
 273 0046 0133     		add	r3, r3, #1
 274 0048 3B60     		str	r3, [r7]
 275              	.L22:
 472:Generated_Source\PSoC4/CSD_Sensing.c ****                  wdgtIndex < CSD_TOTAL_WIDGETS;
 276              		.loc 1 472 0 discriminator 1
 277 004a 3B68     		ldr	r3, [r7]
 278 004c 002B     		cmp	r3, #0
 279 004e E8D0     		beq	.L24
 280              	.L21:
 504:Generated_Source\PSoC4/CSD_Sensing.c ****                 }
 505:Generated_Source\PSoC4/CSD_Sensing.c ****             }
 506:Generated_Source\PSoC4/CSD_Sensing.c ****         }
 507:Generated_Source\PSoC4/CSD_Sensing.c ****     #else
 508:Generated_Source\PSoC4/CSD_Sensing.c ****         /******************************
 509:Generated_Source\PSoC4/CSD_Sensing.c ****         * This is the place where the Scan2x
 510:Generated_Source\PSoC4/CSD_Sensing.c ****         * setup should be implemented.
 511:Generated_Source\PSoC4/CSD_Sensing.c ****         * Scan2x will be implemented
 512:Generated_Source\PSoC4/CSD_Sensing.c ****         * in the next component version.
 513:Generated_Source\PSoC4/CSD_Sensing.c ****         *********************************/
 514:Generated_Source\PSoC4/CSD_Sensing.c ****     #endif /* (CSD_DISABLE == CSD_CSD2X_EN) */
 515:Generated_Source\PSoC4/CSD_Sensing.c **** 
ARM GAS  C:\Users\CHRIST~1\AppData\Local\Temp\ccIPpNky.s 			page 15


 516:Generated_Source\PSoC4/CSD_Sensing.c ****     return (scanStatus);
 281              		.loc 1 516 0
 282 0050 7B68     		ldr	r3, [r7, #4]
 517:Generated_Source\PSoC4/CSD_Sensing.c **** }
 283              		.loc 1 517 0
 284 0052 181C     		mov	r0, r3
 285 0054 BD46     		mov	sp, r7
 286 0056 02B0     		add	sp, sp, #8
 287              		@ sp needed
 288 0058 80BD     		pop	{r7, pc}
 289              	.L27:
 290 005a C046     		.align	2
 291              	.L26:
 292 005c 00000000 		.word	CSD_dsRam
 293 0060 00000000 		.word	CSD_requestScanAllWidget
 294              		.cfi_endproc
 295              	.LFE4:
 296              		.size	CSD_ScanAllWidgets, .-CSD_ScanAllWidgets
 297              		.section	.text.CSD_SsInitialize,"ax",%progbits
 298              		.align	2
 299              		.global	CSD_SsInitialize
 300              		.code	16
 301              		.thumb_func
 302              		.type	CSD_SsInitialize, %function
 303              	CSD_SsInitialize:
 304              	.LFB5:
 518:Generated_Source\PSoC4/CSD_Sensing.c **** 
 519:Generated_Source\PSoC4/CSD_Sensing.c **** 
 520:Generated_Source\PSoC4/CSD_Sensing.c **** /*******************************************************************************
 521:Generated_Source\PSoC4/CSD_Sensing.c **** * Function Name: CSD_SsInitialize
 522:Generated_Source\PSoC4/CSD_Sensing.c **** ****************************************************************************//**
 523:Generated_Source\PSoC4/CSD_Sensing.c **** *
 524:Generated_Source\PSoC4/CSD_Sensing.c **** * \brief
 525:Generated_Source\PSoC4/CSD_Sensing.c **** *   Performs hardware and firmware initialization required for proper operation
 526:Generated_Source\PSoC4/CSD_Sensing.c **** *   of the CSD component. This function is called from
 527:Generated_Source\PSoC4/CSD_Sensing.c **** *   the CSD_Start() API prior to calling any other APIs of the component.
 528:Generated_Source\PSoC4/CSD_Sensing.c **** *
 529:Generated_Source\PSoC4/CSD_Sensing.c **** * \details
 530:Generated_Source\PSoC4/CSD_Sensing.c **** *   Performs hardware and firmware initialization required for proper operation
 531:Generated_Source\PSoC4/CSD_Sensing.c **** *   of the CSD component. This function is called from
 532:Generated_Source\PSoC4/CSD_Sensing.c **** *   the CSD_Start() API prior to calling any other APIs of the component.
 533:Generated_Source\PSoC4/CSD_Sensing.c **** *   1. The function initializes immunity offsets when the frequency hopping is
 534:Generated_Source\PSoC4/CSD_Sensing.c **** *      enabled.
 535:Generated_Source\PSoC4/CSD_Sensing.c **** *   2. Depending on the configuration, the function initializes the CSD block
 536:Generated_Source\PSoC4/CSD_Sensing.c **** *      for the CSD2X, CSD, CSX, or CSD+CSX modes.
 537:Generated_Source\PSoC4/CSD_Sensing.c **** *   3. The function updates the dsRam.wdgtWorking variable with 1 when Self Test
 538:Generated_Source\PSoC4/CSD_Sensing.c **** *      is enabled.
 539:Generated_Source\PSoC4/CSD_Sensing.c **** *
 540:Generated_Source\PSoC4/CSD_Sensing.c **** *   Calling the CSD_Start API is the recommended method to initialize
 541:Generated_Source\PSoC4/CSD_Sensing.c **** *   the CSD component at power-up. The CSD_SsInitialize()
 542:Generated_Source\PSoC4/CSD_Sensing.c **** *   API should not be used for initialization, resume, or wake-up operations.
 543:Generated_Source\PSoC4/CSD_Sensing.c **** *   The dsRam.wdgtWorking variable is updated.
 544:Generated_Source\PSoC4/CSD_Sensing.c **** *
 545:Generated_Source\PSoC4/CSD_Sensing.c **** * \return status
 546:Generated_Source\PSoC4/CSD_Sensing.c **** *   Returns status of operation:
 547:Generated_Source\PSoC4/CSD_Sensing.c **** *   - Zero        - Indicates successful initialization.
 548:Generated_Source\PSoC4/CSD_Sensing.c **** *   - Non-zero    - One or more errors occurred in the initialization process.
ARM GAS  C:\Users\CHRIST~1\AppData\Local\Temp\ccIPpNky.s 			page 16


 549:Generated_Source\PSoC4/CSD_Sensing.c **** *
 550:Generated_Source\PSoC4/CSD_Sensing.c **** *******************************************************************************/
 551:Generated_Source\PSoC4/CSD_Sensing.c **** cystatus CSD_SsInitialize(void)
 552:Generated_Source\PSoC4/CSD_Sensing.c **** {
 305              		.loc 1 552 0
 306              		.cfi_startproc
 307 0000 80B5     		push	{r7, lr}
 308              		.cfi_def_cfa_offset 8
 309              		.cfi_offset 7, -8
 310              		.cfi_offset 14, -4
 311 0002 82B0     		sub	sp, sp, #8
 312              		.cfi_def_cfa_offset 16
 313 0004 00AF     		add	r7, sp, #0
 314              		.cfi_def_cfa_register 7
 553:Generated_Source\PSoC4/CSD_Sensing.c ****     cystatus initStatus = CYRET_SUCCESS;
 315              		.loc 1 553 0
 316 0006 0023     		mov	r3, #0
 317 0008 7B60     		str	r3, [r7, #4]
 554:Generated_Source\PSoC4/CSD_Sensing.c **** 
 555:Generated_Source\PSoC4/CSD_Sensing.c ****     #if (CSD_ENABLE == CSD_MULTI_FREQ_SCAN_EN)
 556:Generated_Source\PSoC4/CSD_Sensing.c ****         CSD_immunity[CSD_FREQ_CHANNEL_0] = (uint8)CY_GET_REG32(CY_SYS_CLK_IMO_TRIM1_PTR);
 557:Generated_Source\PSoC4/CSD_Sensing.c ****         if (CSD_COARSE_TRIM_THRESHOLD_1 > CSD_immunity[CSD_FREQ_CHANNEL_0])
 558:Generated_Source\PSoC4/CSD_Sensing.c ****         {
 559:Generated_Source\PSoC4/CSD_Sensing.c ****             CSD_immunity[CSD_FREQ_CHANNEL_1] =
 560:Generated_Source\PSoC4/CSD_Sensing.c ****             CSD_immunity[CSD_FREQ_CHANNEL_0] + CSD_FREQUENCY_OFFSET_5;
 561:Generated_Source\PSoC4/CSD_Sensing.c ****             CSD_immunity[CSD_FREQ_CHANNEL_2] =
 562:Generated_Source\PSoC4/CSD_Sensing.c ****             CSD_immunity[CSD_FREQ_CHANNEL_0] + CSD_FREQUENCY_OFFSET_10;
 563:Generated_Source\PSoC4/CSD_Sensing.c ****         }
 564:Generated_Source\PSoC4/CSD_Sensing.c ****         else if (CSD_COARSE_TRIM_THRESHOLD_2 > CSD_immunity[CSD_FREQ_CHANNEL_0])
 565:Generated_Source\PSoC4/CSD_Sensing.c ****         {
 566:Generated_Source\PSoC4/CSD_Sensing.c ****             CSD_immunity[CSD_FREQ_CHANNEL_1] =
 567:Generated_Source\PSoC4/CSD_Sensing.c ****             CSD_immunity[CSD_FREQ_CHANNEL_0] - CSD_FREQUENCY_OFFSET_5;
 568:Generated_Source\PSoC4/CSD_Sensing.c ****             CSD_immunity[CSD_FREQ_CHANNEL_2] =
 569:Generated_Source\PSoC4/CSD_Sensing.c ****             CSD_immunity[CSD_FREQ_CHANNEL_0] + CSD_FREQUENCY_OFFSET_5;
 570:Generated_Source\PSoC4/CSD_Sensing.c ****         }
 571:Generated_Source\PSoC4/CSD_Sensing.c ****         else
 572:Generated_Source\PSoC4/CSD_Sensing.c ****         {
 573:Generated_Source\PSoC4/CSD_Sensing.c ****             CSD_immunity[CSD_FREQ_CHANNEL_1] =
 574:Generated_Source\PSoC4/CSD_Sensing.c ****             CSD_immunity[CSD_FREQ_CHANNEL_0] - CSD_FREQUENCY_OFFSET_5;
 575:Generated_Source\PSoC4/CSD_Sensing.c ****             CSD_immunity[CSD_FREQ_CHANNEL_2] =
 576:Generated_Source\PSoC4/CSD_Sensing.c ****             CSD_immunity[CSD_FREQ_CHANNEL_0] - CSD_FREQUENCY_OFFSET_10;
 577:Generated_Source\PSoC4/CSD_Sensing.c ****         }
 578:Generated_Source\PSoC4/CSD_Sensing.c ****     #endif /* (CSD_ENABLE == CSD_MULTI_FREQ_SCAN_EN) */
 579:Generated_Source\PSoC4/CSD_Sensing.c **** 
 580:Generated_Source\PSoC4/CSD_Sensing.c ****     #if (CSD_DISABLE == CSD_CSDV2)
 581:Generated_Source\PSoC4/CSD_Sensing.c ****         CSD_SsTrimIdacs();
 582:Generated_Source\PSoC4/CSD_Sensing.c ****     #endif /* (CSD_ENABLE == CSD_CSDV2) */
 583:Generated_Source\PSoC4/CSD_Sensing.c **** 
 584:Generated_Source\PSoC4/CSD_Sensing.c ****     #if((CSD_ENABLE == CSD_CSD_EN) ||\
 585:Generated_Source\PSoC4/CSD_Sensing.c ****     ((CSD_ENABLE == CSD_CSX_EN) && (CSD_ENABLE == CSD_CSDV2)))
 586:Generated_Source\PSoC4/CSD_Sensing.c ****         CSD_SsInitializeSourceSenseClk();
 318              		.loc 1 586 0
 319 000a FFF7FEFF 		bl	CSD_SsInitializeSourceSenseClk
 587:Generated_Source\PSoC4/CSD_Sensing.c ****     #endif /* ((CSD_ENABLE == CSD_CSD_EN) ||\
 588:Generated_Source\PSoC4/CSD_Sensing.c ****               ((CSD_ENABLE == CSD_CSX_EN) && (CSD_ENABLE == CSD_CSDV2))) */
 589:Generated_Source\PSoC4/CSD_Sensing.c **** 
 590:Generated_Source\PSoC4/CSD_Sensing.c ****     /*
ARM GAS  C:\Users\CHRIST~1\AppData\Local\Temp\ccIPpNky.s 			page 17


 591:Generated_Source\PSoC4/CSD_Sensing.c ****      *  Check if CSD2X is enabled, if yes, initialize CSD component
 592:Generated_Source\PSoC4/CSD_Sensing.c ****      *  for CSD2x operation
 593:Generated_Source\PSoC4/CSD_Sensing.c ****      */
 594:Generated_Source\PSoC4/CSD_Sensing.c ****     #if (CSD_ENABLE == CSD_CSD2X_EN)
 595:Generated_Source\PSoC4/CSD_Sensing.c ****         /*
 596:Generated_Source\PSoC4/CSD_Sensing.c ****          *  Check if CSX or CSD enable along with CSD2X, if yes, provide the error
 597:Generated_Source\PSoC4/CSD_Sensing.c ****          *  message as CSD2X can not coexist with CSD or CSX
 598:Generated_Source\PSoC4/CSD_Sensing.c ****          */
 599:Generated_Source\PSoC4/CSD_Sensing.c ****         #if (CSD_ENABLE == CSD_CSX_EN)
 600:Generated_Source\PSoC4/CSD_Sensing.c ****             #error "CSD2X and CSX can not be enabled together"
 601:Generated_Source\PSoC4/CSD_Sensing.c ****             initStatus = CYRET_UNKNOWN;
 602:Generated_Source\PSoC4/CSD_Sensing.c ****         #elif (CSD_ENABLE == CSD_CSD_EN)
 603:Generated_Source\PSoC4/CSD_Sensing.c ****             #error "CSD2X and CSD can not be enabled together"
 604:Generated_Source\PSoC4/CSD_Sensing.c ****             initStatus = CYRET_UNKNOWN;
 605:Generated_Source\PSoC4/CSD_Sensing.c ****         #endif /* (CSD_CSX_EN == CSD_ENABLE) */
 606:Generated_Source\PSoC4/CSD_Sensing.c **** 
 607:Generated_Source\PSoC4/CSD_Sensing.c ****         /* Initialize both CSD blocks for CSD2X scanning    */
 608:Generated_Source\PSoC4/CSD_Sensing.c ****         CSD_CSD2XInitialize();
 609:Generated_Source\PSoC4/CSD_Sensing.c **** 
 610:Generated_Source\PSoC4/CSD_Sensing.c ****     #elif (CSD_ENABLE == CSD_CSD_CSX_EN)
 611:Generated_Source\PSoC4/CSD_Sensing.c ****         /*
 612:Generated_Source\PSoC4/CSD_Sensing.c ****          * CSD hardware shall be initialized in the Setup Widget based
 613:Generated_Source\PSoC4/CSD_Sensing.c ****          * on widget sensing method
 614:Generated_Source\PSoC4/CSD_Sensing.c ****          */
 615:Generated_Source\PSoC4/CSD_Sensing.c ****         CSD_currentSenseMethod = CSD_UNDEFINED_E;
 616:Generated_Source\PSoC4/CSD_Sensing.c **** 
 617:Generated_Source\PSoC4/CSD_Sensing.c ****         /* Set all IO states to default state  */
 618:Generated_Source\PSoC4/CSD_Sensing.c ****         CSD_SsSetIOsInDefaultState();
 619:Generated_Source\PSoC4/CSD_Sensing.c ****         #if (0u != CSD_CSD_TOTAL_SHIELD_COUNT)
 620:Generated_Source\PSoC4/CSD_Sensing.c ****             CSD_SsCSDDisableShieldElectrodes();
 621:Generated_Source\PSoC4/CSD_Sensing.c ****         #endif /* (0u != CSD_CSD_TOTAL_SHIELD_COUNT) */
 622:Generated_Source\PSoC4/CSD_Sensing.c ****     #elif (CSD_ENABLE == CSD_CSD_EN)
 623:Generated_Source\PSoC4/CSD_Sensing.c ****         /*  Initialize CSD block for CSD scanning   */
 624:Generated_Source\PSoC4/CSD_Sensing.c ****         CSD_SsCSDInitialize();
 320              		.loc 1 624 0
 321 000e FFF7FEFF 		bl	CSD_SsCSDInitialize
 625:Generated_Source\PSoC4/CSD_Sensing.c **** 
 626:Generated_Source\PSoC4/CSD_Sensing.c ****     #elif (CSD_ENABLE == CSD_CSX_EN)
 627:Generated_Source\PSoC4/CSD_Sensing.c ****         /*  Initialize CSD block for CSX scanning   */
 628:Generated_Source\PSoC4/CSD_Sensing.c ****         CSD_CSXInitialize();
 629:Generated_Source\PSoC4/CSD_Sensing.c **** 
 630:Generated_Source\PSoC4/CSD_Sensing.c ****     #else
 631:Generated_Source\PSoC4/CSD_Sensing.c ****         #error "No sensing method enabled, component cannot work in this mode"
 632:Generated_Source\PSoC4/CSD_Sensing.c ****         initStatus = CYRET_UNKNOWN;
 633:Generated_Source\PSoC4/CSD_Sensing.c ****     #endif  /* (CSD_ENABLE == CSD_CSD2X_EN) */
 634:Generated_Source\PSoC4/CSD_Sensing.c **** 
 635:Generated_Source\PSoC4/CSD_Sensing.c ****     return (initStatus);
 322              		.loc 1 635 0
 323 0012 7B68     		ldr	r3, [r7, #4]
 636:Generated_Source\PSoC4/CSD_Sensing.c **** }
 324              		.loc 1 636 0
 325 0014 181C     		mov	r0, r3
 326 0016 BD46     		mov	sp, r7
 327 0018 02B0     		add	sp, sp, #8
 328              		@ sp needed
 329 001a 80BD     		pop	{r7, pc}
 330              		.cfi_endproc
ARM GAS  C:\Users\CHRIST~1\AppData\Local\Temp\ccIPpNky.s 			page 18


 331              	.LFE5:
 332              		.size	CSD_SsInitialize, .-CSD_SsInitialize
 333              		.section	.text.CSD_SetPinState,"ax",%progbits
 334              		.align	2
 335              		.global	CSD_SetPinState
 336              		.code	16
 337              		.thumb_func
 338              		.type	CSD_SetPinState, %function
 339              	CSD_SetPinState:
 340              	.LFB6:
 637:Generated_Source\PSoC4/CSD_Sensing.c **** 
 638:Generated_Source\PSoC4/CSD_Sensing.c **** 
 639:Generated_Source\PSoC4/CSD_Sensing.c **** /*******************************************************************************
 640:Generated_Source\PSoC4/CSD_Sensing.c **** * Function Name: CSD_SetPinState
 641:Generated_Source\PSoC4/CSD_Sensing.c **** ****************************************************************************//**
 642:Generated_Source\PSoC4/CSD_Sensing.c **** *
 643:Generated_Source\PSoC4/CSD_Sensing.c **** * \brief
 644:Generated_Source\PSoC4/CSD_Sensing.c **** *  Sets the state (drive mode and output state) of port pin used by a sensor.
 645:Generated_Source\PSoC4/CSD_Sensing.c **** *  The possible states are GND, Shield, High-Z, Tx or Rx, sensor. If the sensor
 646:Generated_Source\PSoC4/CSD_Sensing.c **** *  specified in the input parameter is a ganged sensor, then state of all pins
 647:Generated_Source\PSoC4/CSD_Sensing.c **** *  associated with ganged sensor is updated.
 648:Generated_Source\PSoC4/CSD_Sensing.c **** *
 649:Generated_Source\PSoC4/CSD_Sensing.c **** * \details
 650:Generated_Source\PSoC4/CSD_Sensing.c **** *  This function sets a specified state to the specified sensor pin. If the
 651:Generated_Source\PSoC4/CSD_Sensing.c **** *  sensor is a ganged sensor, then the specified state is also set for all
 652:Generated_Source\PSoC4/CSD_Sensing.c **** *  ganged pins of this sensor. Scanning should be completed before calling
 653:Generated_Source\PSoC4/CSD_Sensing.c **** *  this API.
 654:Generated_Source\PSoC4/CSD_Sensing.c **** *
 655:Generated_Source\PSoC4/CSD_Sensing.c **** *  The CSD_SHIELD and CSD_SENSOR states are not
 656:Generated_Source\PSoC4/CSD_Sensing.c **** *  allowed if there is no CSD widget configured in the users project.
 657:Generated_Source\PSoC4/CSD_Sensing.c **** *  The CSD_TX_PIN and CSD_RX_PIN states are not
 658:Generated_Source\PSoC4/CSD_Sensing.c **** *  allowed if there is no CSX widget configured in the users project.
 659:Generated_Source\PSoC4/CSD_Sensing.c **** *
 660:Generated_Source\PSoC4/CSD_Sensing.c **** *  It is not recommended to call this function directly from the application
 661:Generated_Source\PSoC4/CSD_Sensing.c **** *  layer. This function should be used to implement only the users specific
 662:Generated_Source\PSoC4/CSD_Sensing.c **** *  use cases. Functions that perform a setup and scan of the sensor/widget
 663:Generated_Source\PSoC4/CSD_Sensing.c **** *  automatically set needed pin states. They do not take into account changes
 664:Generated_Source\PSoC4/CSD_Sensing.c **** *  in the design made by the CSD_SetPinState() function.
 665:Generated_Source\PSoC4/CSD_Sensing.c **** *
 666:Generated_Source\PSoC4/CSD_Sensing.c **** *  \param wdgtIndex
 667:Generated_Source\PSoC4/CSD_Sensing.c **** *  Specify the ID number of the widget to change the pin state of the specified
 668:Generated_Source\PSoC4/CSD_Sensing.c **** *  sensor.
 669:Generated_Source\PSoC4/CSD_Sensing.c **** *  A macro for the widget ID can be found in CSD_Configuration.h
 670:Generated_Source\PSoC4/CSD_Sensing.c **** *  file defined as CSD_<WidgetName>_WDGT_ID Specifies the ID of
 671:Generated_Source\PSoC4/CSD_Sensing.c **** *  the widget.
 672:Generated_Source\PSoC4/CSD_Sensing.c **** *
 673:Generated_Source\PSoC4/CSD_Sensing.c **** *  \param snsIndex
 674:Generated_Source\PSoC4/CSD_Sensing.c **** *  Specify the ID number of the sensor within the widget to change its pin
 675:Generated_Source\PSoC4/CSD_Sensing.c **** *  state.
 676:Generated_Source\PSoC4/CSD_Sensing.c **** *  A macro for the sensor ID within a specified widget can be found in
 677:Generated_Source\PSoC4/CSD_Sensing.c **** *  CSD_Configuration.h file defined as
 678:Generated_Source\PSoC4/CSD_Sensing.c **** *  CSD_<WidgetName>_SNS<SensorNumber>_ID
 679:Generated_Source\PSoC4/CSD_Sensing.c **** *
 680:Generated_Source\PSoC4/CSD_Sensing.c **** *  \param state
 681:Generated_Source\PSoC4/CSD_Sensing.c **** *   Specify the state of the sensor that needs to be set:
 682:Generated_Source\PSoC4/CSD_Sensing.c **** *     1. CSD_GROUND - The pin is connected to ground.
 683:Generated_Source\PSoC4/CSD_Sensing.c **** *     2. CSD_HIGHZ - The drive mode of the pin is set to High-Z
ARM GAS  C:\Users\CHRIST~1\AppData\Local\Temp\ccIPpNky.s 			page 19


 684:Generated_Source\PSoC4/CSD_Sensing.c **** *        Analog.
 685:Generated_Source\PSoC4/CSD_Sensing.c **** *     3. CSD_SHIELD - The shield signal is routed to the pin (only
 686:Generated_Source\PSoC4/CSD_Sensing.c **** *        in CSD sensing method when shield electrode is enabled).
 687:Generated_Source\PSoC4/CSD_Sensing.c **** *     4. CSD_SENSOR  The pin is connected to the scanning bus
 688:Generated_Source\PSoC4/CSD_Sensing.c **** *        (only in CSD sensing method).
 689:Generated_Source\PSoC4/CSD_Sensing.c **** *     5. CSD_TX_PIN  The TX signal is routed to the sensor
 690:Generated_Source\PSoC4/CSD_Sensing.c **** *        (only in CSX sensing method).
 691:Generated_Source\PSoC4/CSD_Sensing.c **** *     6. CSD_RX_PIN  The pin is connected to the scanning bus
 692:Generated_Source\PSoC4/CSD_Sensing.c **** *        (only in CSX sensing method).
 693:Generated_Source\PSoC4/CSD_Sensing.c **** *
 694:Generated_Source\PSoC4/CSD_Sensing.c **** *******************************************************************************/
 695:Generated_Source\PSoC4/CSD_Sensing.c **** void CSD_SetPinState(uint32 wdgtIndex, uint32 snsIndex, uint32 state)
 696:Generated_Source\PSoC4/CSD_Sensing.c **** {
 341              		.loc 1 696 0
 342              		.cfi_startproc
 343 0000 90B5     		push	{r4, r7, lr}
 344              		.cfi_def_cfa_offset 12
 345              		.cfi_offset 4, -12
 346              		.cfi_offset 7, -8
 347              		.cfi_offset 14, -4
 348 0002 8BB0     		sub	sp, sp, #44
 349              		.cfi_def_cfa_offset 56
 350 0004 00AF     		add	r7, sp, #0
 351              		.cfi_def_cfa_register 7
 352 0006 F860     		str	r0, [r7, #12]
 353 0008 B960     		str	r1, [r7, #8]
 354 000a 7A60     		str	r2, [r7, #4]
 697:Generated_Source\PSoC4/CSD_Sensing.c ****     CSD_FLASH_IO_STRUCT const *curSnsIOPtr;
 698:Generated_Source\PSoC4/CSD_Sensing.c ****     #if (CSD_ENABLE == CSD_CSD_GANGED_SNS_EN)
 699:Generated_Source\PSoC4/CSD_Sensing.c ****         CSD_FLASH_SNS_STRUCT const *curFlashSnsPtr;
 700:Generated_Source\PSoC4/CSD_Sensing.c ****         uint32 tempVal;
 701:Generated_Source\PSoC4/CSD_Sensing.c ****     #endif /* (CSD_ENABLE == CSD_CSD_GANGED_SNS_EN) */
 702:Generated_Source\PSoC4/CSD_Sensing.c ****     uint32 newRegisterValue;
 703:Generated_Source\PSoC4/CSD_Sensing.c ****     uint8  interruptState;
 704:Generated_Source\PSoC4/CSD_Sensing.c ****     uint32 pinHSIOMShift;
 705:Generated_Source\PSoC4/CSD_Sensing.c ****     uint32 pinModeShift;
 706:Generated_Source\PSoC4/CSD_Sensing.c **** 
 707:Generated_Source\PSoC4/CSD_Sensing.c ****     #if (CSD_ENABLE == CSD_CSD_GANGED_SNS_EN)
 708:Generated_Source\PSoC4/CSD_Sensing.c ****         /* Check ganged sns flag  */
 709:Generated_Source\PSoC4/CSD_Sensing.c ****         if (CSD_GANGED_SNS_MASK == (CSD_dsFlash.wdgtArray[wdgtIndex].staticConfig &
 710:Generated_Source\PSoC4/CSD_Sensing.c ****             CSD_GANGED_SNS_MASK))
 711:Generated_Source\PSoC4/CSD_Sensing.c ****         {
 712:Generated_Source\PSoC4/CSD_Sensing.c ****             curFlashSnsPtr = CSD_dsFlash.wdgtArray[wdgtIndex].ptr2SnsFlash;
 713:Generated_Source\PSoC4/CSD_Sensing.c ****             curFlashSnsPtr += snsIndex;
 714:Generated_Source\PSoC4/CSD_Sensing.c ****             curSnsIOPtr = &CSD_ioList[curFlashSnsPtr->firstPinId];
 715:Generated_Source\PSoC4/CSD_Sensing.c **** 
 716:Generated_Source\PSoC4/CSD_Sensing.c ****             /* Get number of ganged pins  */
 717:Generated_Source\PSoC4/CSD_Sensing.c ****             tempVal = curFlashSnsPtr->numPins;
 718:Generated_Source\PSoC4/CSD_Sensing.c ****         }
 719:Generated_Source\PSoC4/CSD_Sensing.c ****         else
 720:Generated_Source\PSoC4/CSD_Sensing.c ****         {
 721:Generated_Source\PSoC4/CSD_Sensing.c ****             curSnsIOPtr = (CSD_FLASH_IO_STRUCT const *)
 722:Generated_Source\PSoC4/CSD_Sensing.c ****                                     CSD_dsFlash.wdgtArray[wdgtIndex].ptr2SnsFlash + snsIndex;
 723:Generated_Source\PSoC4/CSD_Sensing.c ****             /* There are no ganged pins */
 724:Generated_Source\PSoC4/CSD_Sensing.c ****             tempVal = 1u;
 725:Generated_Source\PSoC4/CSD_Sensing.c ****         }
 726:Generated_Source\PSoC4/CSD_Sensing.c ****     #else
ARM GAS  C:\Users\CHRIST~1\AppData\Local\Temp\ccIPpNky.s 			page 20


 727:Generated_Source\PSoC4/CSD_Sensing.c ****         curSnsIOPtr = (CSD_FLASH_IO_STRUCT const *)
 728:Generated_Source\PSoC4/CSD_Sensing.c ****                                     CSD_dsFlash.wdgtArray[wdgtIndex].ptr2SnsFlash + snsIndex;
 355              		.loc 1 728 0
 356 000c 4449     		ldr	r1, .L36
 357 000e FA68     		ldr	r2, [r7, #12]
 358 0010 131C     		mov	r3, r2
 359 0012 DB00     		lsl	r3, r3, #3
 360 0014 9B1A     		sub	r3, r3, r2
 361 0016 9B00     		lsl	r3, r3, #2
 362 0018 5958     		ldr	r1, [r3, r1]
 363 001a BA68     		ldr	r2, [r7, #8]
 364 001c 131C     		mov	r3, r2
 365 001e DB00     		lsl	r3, r3, #3
 366 0020 9B1A     		sub	r3, r3, r2
 367 0022 9B00     		lsl	r3, r3, #2
 727:Generated_Source\PSoC4/CSD_Sensing.c ****                                     CSD_dsFlash.wdgtArray[wdgtIndex].ptr2SnsFlash + snsIndex;
 368              		.loc 1 727 0
 369 0024 CB18     		add	r3, r1, r3
 370 0026 7B62     		str	r3, [r7, #36]
 729:Generated_Source\PSoC4/CSD_Sensing.c ****     #endif  /* (CSD_ENABLE == CSD_CSD_GANGED_SNS_EN) */
 730:Generated_Source\PSoC4/CSD_Sensing.c **** 
 731:Generated_Source\PSoC4/CSD_Sensing.c ****     #if (CSD_ENABLE == CSD_CSD_GANGED_SNS_EN)
 732:Generated_Source\PSoC4/CSD_Sensing.c ****         /* Reconfigure all ganged sensors  */
 733:Generated_Source\PSoC4/CSD_Sensing.c ****         do
 734:Generated_Source\PSoC4/CSD_Sensing.c ****         {
 735:Generated_Source\PSoC4/CSD_Sensing.c ****     #endif  /* (CSD_ENABLE == CSD_CSD_GANGED_SNS_EN) */
 736:Generated_Source\PSoC4/CSD_Sensing.c **** 
 737:Generated_Source\PSoC4/CSD_Sensing.c ****             /* Get HSIOM and port mode shifts */
 738:Generated_Source\PSoC4/CSD_Sensing.c ****             pinHSIOMShift = (uint32)curSnsIOPtr->hsiomShift;
 371              		.loc 1 738 0
 372 0028 7B6A     		ldr	r3, [r7, #36]
 373 002a 1B7E     		ldrb	r3, [r3, #24]
 374 002c 3B62     		str	r3, [r7, #32]
 739:Generated_Source\PSoC4/CSD_Sensing.c ****             pinModeShift = (uint32)curSnsIOPtr->shift;
 375              		.loc 1 739 0
 376 002e 7B6A     		ldr	r3, [r7, #36]
 377 0030 9B7E     		ldrb	r3, [r3, #26]
 378 0032 FB61     		str	r3, [r7, #28]
 740:Generated_Source\PSoC4/CSD_Sensing.c **** 
 741:Generated_Source\PSoC4/CSD_Sensing.c ****             /* Reset HSIOM register */
 742:Generated_Source\PSoC4/CSD_Sensing.c ****             CY_SET_REG32(curSnsIOPtr->hsiomPtr, CY_GET_REG32(curSnsIOPtr->hsiomPtr) & ~(CSD_HSIOM_S
 379              		.loc 1 742 0
 380 0034 7B6A     		ldr	r3, [r7, #36]
 381 0036 1B68     		ldr	r3, [r3]
 382 0038 7A6A     		ldr	r2, [r7, #36]
 383 003a 1268     		ldr	r2, [r2]
 384 003c 1268     		ldr	r2, [r2]
 385 003e 396A     		ldr	r1, [r7, #32]
 386 0040 0F20     		mov	r0, #15
 387 0042 8840     		lsl	r0, r0, r1
 388 0044 011C     		mov	r1, r0
 389 0046 C943     		mvn	r1, r1
 390 0048 0A40     		and	r2, r1
 391 004a 1A60     		str	r2, [r3]
 743:Generated_Source\PSoC4/CSD_Sensing.c **** 
 744:Generated_Source\PSoC4/CSD_Sensing.c ****             switch (state)
 392              		.loc 1 744 0
ARM GAS  C:\Users\CHRIST~1\AppData\Local\Temp\ccIPpNky.s 			page 21


 393 004c 7B68     		ldr	r3, [r7, #4]
 394 004e 012B     		cmp	r3, #1
 395 0050 34D0     		beq	.L32
 396 0052 02D3     		bcc	.L33
 397 0054 032B     		cmp	r3, #3
 398 0056 5BD0     		beq	.L34
 745:Generated_Source\PSoC4/CSD_Sensing.c ****             {
 746:Generated_Source\PSoC4/CSD_Sensing.c ****             case CSD_GROUND:
 747:Generated_Source\PSoC4/CSD_Sensing.c ****                 interruptState = CyEnterCriticalSection();
 748:Generated_Source\PSoC4/CSD_Sensing.c **** 
 749:Generated_Source\PSoC4/CSD_Sensing.c ****                 /* Update port configuration register (drive mode) for sensor */
 750:Generated_Source\PSoC4/CSD_Sensing.c ****                 newRegisterValue = CY_GET_REG32(curSnsIOPtr->pcPtr);
 751:Generated_Source\PSoC4/CSD_Sensing.c ****                 newRegisterValue &= ~(CSD_GPIO_PC_MASK << pinModeShift);
 752:Generated_Source\PSoC4/CSD_Sensing.c ****                 newRegisterValue |= (CSD_SNS_GROUND_CONNECT << pinModeShift);
 753:Generated_Source\PSoC4/CSD_Sensing.c ****                 CY_SET_REG32(curSnsIOPtr->pcPtr, newRegisterValue);
 754:Generated_Source\PSoC4/CSD_Sensing.c **** 
 755:Generated_Source\PSoC4/CSD_Sensing.c ****                 CyExitCriticalSection(interruptState);
 756:Generated_Source\PSoC4/CSD_Sensing.c **** 
 757:Generated_Source\PSoC4/CSD_Sensing.c ****                 /* Set logic 0 to port data register */
 758:Generated_Source\PSoC4/CSD_Sensing.c ****                 CY_SET_REG32(curSnsIOPtr->drPtr, CY_GET_REG32(curSnsIOPtr->drPtr) & (uint32)~(uint3
 759:Generated_Source\PSoC4/CSD_Sensing.c ****                 break;
 760:Generated_Source\PSoC4/CSD_Sensing.c **** 
 761:Generated_Source\PSoC4/CSD_Sensing.c ****             case CSD_HIGHZ:
 762:Generated_Source\PSoC4/CSD_Sensing.c ****                 interruptState = CyEnterCriticalSection();
 763:Generated_Source\PSoC4/CSD_Sensing.c **** 
 764:Generated_Source\PSoC4/CSD_Sensing.c ****                 /* Update port configuration register (drive mode) for sensor */
 765:Generated_Source\PSoC4/CSD_Sensing.c ****                 newRegisterValue = CY_GET_REG32(curSnsIOPtr->pcPtr);
 766:Generated_Source\PSoC4/CSD_Sensing.c ****                 newRegisterValue &= ~(CSD_GPIO_PC_MASK << pinModeShift);
 767:Generated_Source\PSoC4/CSD_Sensing.c ****                 CY_SET_REG32(curSnsIOPtr->pcPtr, newRegisterValue);
 768:Generated_Source\PSoC4/CSD_Sensing.c **** 
 769:Generated_Source\PSoC4/CSD_Sensing.c ****                 CyExitCriticalSection(interruptState);
 770:Generated_Source\PSoC4/CSD_Sensing.c **** 
 771:Generated_Source\PSoC4/CSD_Sensing.c ****                 /* Set logic 0 to port data register */
 772:Generated_Source\PSoC4/CSD_Sensing.c ****                 CY_SET_REG32(curSnsIOPtr->drPtr, CY_GET_REG32(curSnsIOPtr->drPtr) & (uint32)~(uint3
 773:Generated_Source\PSoC4/CSD_Sensing.c ****                 break;
 774:Generated_Source\PSoC4/CSD_Sensing.c **** 
 775:Generated_Source\PSoC4/CSD_Sensing.c ****             #if (CSD_ENABLE == CSD_CSD_SHIELD_EN)
 776:Generated_Source\PSoC4/CSD_Sensing.c ****                 case CSD_SHIELD:
 777:Generated_Source\PSoC4/CSD_Sensing.c ****                     /* Set drive mode to Analog */
 778:Generated_Source\PSoC4/CSD_Sensing.c ****                     CY_SET_REG32(curSnsIOPtr->pcPtr, CY_GET_REG32(curSnsIOPtr->pcPtr) &
 779:Generated_Source\PSoC4/CSD_Sensing.c ****                                ~(CSD_GPIO_PC_MASK <<(curSnsIOPtr->shift)));
 780:Generated_Source\PSoC4/CSD_Sensing.c **** 
 781:Generated_Source\PSoC4/CSD_Sensing.c ****                     /* Set appropriate bit in HSIOM register to configure pin to shield mode */
 782:Generated_Source\PSoC4/CSD_Sensing.c ****                     CY_SET_REG32(curSnsIOPtr->hsiomPtr, CY_GET_REG32(curSnsIOPtr->hsiomPtr) |
 783:Generated_Source\PSoC4/CSD_Sensing.c ****                                                        (CSD_HSIOM_SEL_CSD_SHIELD << pinHSIOMShift))
 784:Generated_Source\PSoC4/CSD_Sensing.c ****                     break;
 785:Generated_Source\PSoC4/CSD_Sensing.c ****             #endif  /* (CSD_ENABLE == CSD_CSD_SHIELD_EN) */
 786:Generated_Source\PSoC4/CSD_Sensing.c **** 
 787:Generated_Source\PSoC4/CSD_Sensing.c ****             #if ((CSD_ENABLE == CSD_CSD_EN) || \
 788:Generated_Source\PSoC4/CSD_Sensing.c ****                  (CSD_ENABLE == CSD_CSD_CSX_EN))
 789:Generated_Source\PSoC4/CSD_Sensing.c ****                 case CSD_SENSOR:
 790:Generated_Source\PSoC4/CSD_Sensing.c ****                     /* Enable sensor */
 791:Generated_Source\PSoC4/CSD_Sensing.c ****                     CSD_CSDConnectSns(curSnsIOPtr);
 792:Generated_Source\PSoC4/CSD_Sensing.c ****                     break;
 793:Generated_Source\PSoC4/CSD_Sensing.c ****             #endif  /* ((CSD_ENABLE == CSD_CSD_EN) || \
 794:Generated_Source\PSoC4/CSD_Sensing.c ****                         (CSD_ENABLE == CSD_CSD_CSX_EN)) */
 795:Generated_Source\PSoC4/CSD_Sensing.c **** 
ARM GAS  C:\Users\CHRIST~1\AppData\Local\Temp\ccIPpNky.s 			page 22


 796:Generated_Source\PSoC4/CSD_Sensing.c ****             #if ((CSD_ENABLE == CSD_CSX_EN) || \
 797:Generated_Source\PSoC4/CSD_Sensing.c ****                  (CSD_ENABLE == CSD_CSD_CSX_EN))
 798:Generated_Source\PSoC4/CSD_Sensing.c ****                 case CSD_TX_PIN:
 799:Generated_Source\PSoC4/CSD_Sensing.c ****                     CY_SET_REG32(curSnsIOPtr->hsiomPtr, CY_GET_REG32(curSnsIOPtr->hsiomPtr) | (CSD_
 800:Generated_Source\PSoC4/CSD_Sensing.c ****                     CY_SET_REG32(curSnsIOPtr->pcPtr, CY_GET_REG32(curSnsIOPtr->pcPtr) | (CSD_GPIO_S
 801:Generated_Source\PSoC4/CSD_Sensing.c ****                     break;
 802:Generated_Source\PSoC4/CSD_Sensing.c **** 
 803:Generated_Source\PSoC4/CSD_Sensing.c ****                 case CSD_RX_PIN:
 804:Generated_Source\PSoC4/CSD_Sensing.c ****                     CY_SET_REG32(curSnsIOPtr->hsiomPtr, CY_GET_REG32(curSnsIOPtr->hsiomPtr) | (CSD_
 805:Generated_Source\PSoC4/CSD_Sensing.c ****                     CY_SET_REG32(curSnsIOPtr->pcPtr, CY_GET_REG32(curSnsIOPtr->pcPtr) & ~(CSD_GPIO_
 806:Generated_Source\PSoC4/CSD_Sensing.c ****                     break;
 807:Generated_Source\PSoC4/CSD_Sensing.c ****             #endif  /* ((CSD_ENABLE == CSD_CSX_EN) || \
 808:Generated_Source\PSoC4/CSD_Sensing.c ****                         (CSD_ENABLE == CSD_CSD_CSX_EN)) */
 809:Generated_Source\PSoC4/CSD_Sensing.c **** 
 810:Generated_Source\PSoC4/CSD_Sensing.c ****             default:
 811:Generated_Source\PSoC4/CSD_Sensing.c ****                 /* Wrong input */
 812:Generated_Source\PSoC4/CSD_Sensing.c ****                 break;
 399              		.loc 1 812 0
 400 0058 5FE0     		b	.L30
 401              	.L33:
 747:Generated_Source\PSoC4/CSD_Sensing.c **** 
 402              		.loc 1 747 0
 403 005a 1B23     		mov	r3, #27
 404 005c FC18     		add	r4, r7, r3
 405 005e FFF7FEFF 		bl	CyEnterCriticalSection
 406 0062 031C     		mov	r3, r0
 407 0064 2370     		strb	r3, [r4]
 750:Generated_Source\PSoC4/CSD_Sensing.c ****                 newRegisterValue &= ~(CSD_GPIO_PC_MASK << pinModeShift);
 408              		.loc 1 750 0
 409 0066 7B6A     		ldr	r3, [r7, #36]
 410 0068 5B68     		ldr	r3, [r3, #4]
 411 006a 1B68     		ldr	r3, [r3]
 412 006c 7B61     		str	r3, [r7, #20]
 751:Generated_Source\PSoC4/CSD_Sensing.c ****                 newRegisterValue |= (CSD_SNS_GROUND_CONNECT << pinModeShift);
 413              		.loc 1 751 0
 414 006e FB69     		ldr	r3, [r7, #28]
 415 0070 0722     		mov	r2, #7
 416 0072 9A40     		lsl	r2, r2, r3
 417 0074 131C     		mov	r3, r2
 418 0076 DA43     		mvn	r2, r3
 419 0078 7B69     		ldr	r3, [r7, #20]
 420 007a 1340     		and	r3, r2
 421 007c 7B61     		str	r3, [r7, #20]
 752:Generated_Source\PSoC4/CSD_Sensing.c ****                 CY_SET_REG32(curSnsIOPtr->pcPtr, newRegisterValue);
 422              		.loc 1 752 0
 423 007e FB69     		ldr	r3, [r7, #28]
 424 0080 0622     		mov	r2, #6
 425 0082 9A40     		lsl	r2, r2, r3
 426 0084 131C     		mov	r3, r2
 427 0086 7A69     		ldr	r2, [r7, #20]
 428 0088 1343     		orr	r3, r2
 429 008a 7B61     		str	r3, [r7, #20]
 753:Generated_Source\PSoC4/CSD_Sensing.c **** 
 430              		.loc 1 753 0
 431 008c 7B6A     		ldr	r3, [r7, #36]
 432 008e 5B68     		ldr	r3, [r3, #4]
 433 0090 7A69     		ldr	r2, [r7, #20]
ARM GAS  C:\Users\CHRIST~1\AppData\Local\Temp\ccIPpNky.s 			page 23


 434 0092 1A60     		str	r2, [r3]
 755:Generated_Source\PSoC4/CSD_Sensing.c **** 
 435              		.loc 1 755 0
 436 0094 1B23     		mov	r3, #27
 437 0096 FB18     		add	r3, r7, r3
 438 0098 1B78     		ldrb	r3, [r3]
 439 009a 181C     		mov	r0, r3
 440 009c FFF7FEFF 		bl	CyExitCriticalSection
 758:Generated_Source\PSoC4/CSD_Sensing.c ****                 break;
 441              		.loc 1 758 0
 442 00a0 7B6A     		ldr	r3, [r7, #36]
 443 00a2 9B68     		ldr	r3, [r3, #8]
 444 00a4 7A6A     		ldr	r2, [r7, #36]
 445 00a6 9268     		ldr	r2, [r2, #8]
 446 00a8 1268     		ldr	r2, [r2]
 447 00aa 796A     		ldr	r1, [r7, #36]
 448 00ac 497E     		ldrb	r1, [r1, #25]
 449 00ae 081C     		mov	r0, r1
 450 00b0 0121     		mov	r1, #1
 451 00b2 8140     		lsl	r1, r1, r0
 452 00b4 C943     		mvn	r1, r1
 453 00b6 0A40     		and	r2, r1
 454 00b8 1A60     		str	r2, [r3]
 759:Generated_Source\PSoC4/CSD_Sensing.c **** 
 455              		.loc 1 759 0
 456 00ba 2EE0     		b	.L30
 457              	.L32:
 762:Generated_Source\PSoC4/CSD_Sensing.c **** 
 458              		.loc 1 762 0
 459 00bc 1B23     		mov	r3, #27
 460 00be FC18     		add	r4, r7, r3
 461 00c0 FFF7FEFF 		bl	CyEnterCriticalSection
 462 00c4 031C     		mov	r3, r0
 463 00c6 2370     		strb	r3, [r4]
 765:Generated_Source\PSoC4/CSD_Sensing.c ****                 newRegisterValue &= ~(CSD_GPIO_PC_MASK << pinModeShift);
 464              		.loc 1 765 0
 465 00c8 7B6A     		ldr	r3, [r7, #36]
 466 00ca 5B68     		ldr	r3, [r3, #4]
 467 00cc 1B68     		ldr	r3, [r3]
 468 00ce 7B61     		str	r3, [r7, #20]
 766:Generated_Source\PSoC4/CSD_Sensing.c ****                 CY_SET_REG32(curSnsIOPtr->pcPtr, newRegisterValue);
 469              		.loc 1 766 0
 470 00d0 FB69     		ldr	r3, [r7, #28]
 471 00d2 0722     		mov	r2, #7
 472 00d4 9A40     		lsl	r2, r2, r3
 473 00d6 131C     		mov	r3, r2
 474 00d8 DA43     		mvn	r2, r3
 475 00da 7B69     		ldr	r3, [r7, #20]
 476 00dc 1340     		and	r3, r2
 477 00de 7B61     		str	r3, [r7, #20]
 767:Generated_Source\PSoC4/CSD_Sensing.c **** 
 478              		.loc 1 767 0
 479 00e0 7B6A     		ldr	r3, [r7, #36]
 480 00e2 5B68     		ldr	r3, [r3, #4]
 481 00e4 7A69     		ldr	r2, [r7, #20]
 482 00e6 1A60     		str	r2, [r3]
 769:Generated_Source\PSoC4/CSD_Sensing.c **** 
ARM GAS  C:\Users\CHRIST~1\AppData\Local\Temp\ccIPpNky.s 			page 24


 483              		.loc 1 769 0
 484 00e8 1B23     		mov	r3, #27
 485 00ea FB18     		add	r3, r7, r3
 486 00ec 1B78     		ldrb	r3, [r3]
 487 00ee 181C     		mov	r0, r3
 488 00f0 FFF7FEFF 		bl	CyExitCriticalSection
 772:Generated_Source\PSoC4/CSD_Sensing.c ****                 break;
 489              		.loc 1 772 0
 490 00f4 7B6A     		ldr	r3, [r7, #36]
 491 00f6 9B68     		ldr	r3, [r3, #8]
 492 00f8 7A6A     		ldr	r2, [r7, #36]
 493 00fa 9268     		ldr	r2, [r2, #8]
 494 00fc 1268     		ldr	r2, [r2]
 495 00fe 796A     		ldr	r1, [r7, #36]
 496 0100 497E     		ldrb	r1, [r1, #25]
 497 0102 081C     		mov	r0, r1
 498 0104 0121     		mov	r1, #1
 499 0106 8140     		lsl	r1, r1, r0
 500 0108 C943     		mvn	r1, r1
 501 010a 0A40     		and	r2, r1
 502 010c 1A60     		str	r2, [r3]
 773:Generated_Source\PSoC4/CSD_Sensing.c **** 
 503              		.loc 1 773 0
 504 010e 04E0     		b	.L30
 505              	.L34:
 791:Generated_Source\PSoC4/CSD_Sensing.c ****                     break;
 506              		.loc 1 791 0
 507 0110 7B6A     		ldr	r3, [r7, #36]
 508 0112 181C     		mov	r0, r3
 509 0114 FFF7FEFF 		bl	CSD_CSDConnectSns
 792:Generated_Source\PSoC4/CSD_Sensing.c ****             #endif  /* ((CSD_ENABLE == CSD_CSD_EN) || \
 510              		.loc 1 792 0
 511 0118 C046     		mov	r8, r8
 512              	.L30:
 813:Generated_Source\PSoC4/CSD_Sensing.c ****             }
 814:Generated_Source\PSoC4/CSD_Sensing.c **** 
 815:Generated_Source\PSoC4/CSD_Sensing.c ****     #if (CSD_ENABLE == CSD_CSD_GANGED_SNS_EN)
 816:Generated_Source\PSoC4/CSD_Sensing.c ****             curSnsIOPtr++;
 817:Generated_Source\PSoC4/CSD_Sensing.c ****             tempVal--;
 818:Generated_Source\PSoC4/CSD_Sensing.c ****         } while (0u != tempVal);
 819:Generated_Source\PSoC4/CSD_Sensing.c ****     #endif  /* (CSD_ENABLE == CSD_CSD_GANGED_SNS_EN) */
 820:Generated_Source\PSoC4/CSD_Sensing.c **** }
 513              		.loc 1 820 0
 514 011a BD46     		mov	sp, r7
 515 011c 0BB0     		add	sp, sp, #44
 516              		@ sp needed
 517 011e 90BD     		pop	{r4, r7, pc}
 518              	.L37:
 519              		.align	2
 520              	.L36:
 521 0120 00000000 		.word	CSD_dsFlash
 522              		.cfi_endproc
 523              	.LFE6:
 524              		.size	CSD_SetPinState, .-CSD_SetPinState
 525              		.section	.text.CSD_SsPostAllWidgetsScan,"ax",%progbits
 526              		.align	2
 527              		.global	CSD_SsPostAllWidgetsScan
ARM GAS  C:\Users\CHRIST~1\AppData\Local\Temp\ccIPpNky.s 			page 25


 528              		.code	16
 529              		.thumb_func
 530              		.type	CSD_SsPostAllWidgetsScan, %function
 531              	CSD_SsPostAllWidgetsScan:
 532              	.LFB7:
 821:Generated_Source\PSoC4/CSD_Sensing.c **** 
 822:Generated_Source\PSoC4/CSD_Sensing.c **** 
 823:Generated_Source\PSoC4/CSD_Sensing.c **** #if ((CSD_ENABLE == CSD_CSD_CSX_EN) || \
 824:Generated_Source\PSoC4/CSD_Sensing.c ****      (CSD_ENABLE == CSD_ADC_EN))
 825:Generated_Source\PSoC4/CSD_Sensing.c **** 
 826:Generated_Source\PSoC4/CSD_Sensing.c ****     #if (CSD_ENABLE == CSD_CSD_EN)
 827:Generated_Source\PSoC4/CSD_Sensing.c ****         /*******************************************************************************
 828:Generated_Source\PSoC4/CSD_Sensing.c ****         * Function Name: CSD_SsCSDDisableMode
 829:Generated_Source\PSoC4/CSD_Sensing.c ****         ****************************************************************************//**
 830:Generated_Source\PSoC4/CSD_Sensing.c ****         *
 831:Generated_Source\PSoC4/CSD_Sensing.c ****         * \brief
 832:Generated_Source\PSoC4/CSD_Sensing.c ****         *  This function disables CSD mode.
 833:Generated_Source\PSoC4/CSD_Sensing.c ****         *
 834:Generated_Source\PSoC4/CSD_Sensing.c ****         * \details
 835:Generated_Source\PSoC4/CSD_Sensing.c ****         *  To disable CSD mode the following tasks are performed:
 836:Generated_Source\PSoC4/CSD_Sensing.c ****         *  1. Disconnect Cmod from AMUXBUS-A;
 837:Generated_Source\PSoC4/CSD_Sensing.c ****         *  2. Disconnect previous CSX electrode if it has been connected;
 838:Generated_Source\PSoC4/CSD_Sensing.c ****         *  3. Disconnect Csh from AMUXBUS-B;
 839:Generated_Source\PSoC4/CSD_Sensing.c ****         *  4. Disable Shield Electrodes.
 840:Generated_Source\PSoC4/CSD_Sensing.c ****         *
 841:Generated_Source\PSoC4/CSD_Sensing.c ****         *******************************************************************************/
 842:Generated_Source\PSoC4/CSD_Sensing.c ****         static void CSD_SsCSDDisableMode(void)
 843:Generated_Source\PSoC4/CSD_Sensing.c ****         {
 844:Generated_Source\PSoC4/CSD_Sensing.c ****             uint32 newRegValue;
 845:Generated_Source\PSoC4/CSD_Sensing.c **** 
 846:Generated_Source\PSoC4/CSD_Sensing.c ****             /* Disconnect Cmod from AMUXBUS-A using HSIOM registers */
 847:Generated_Source\PSoC4/CSD_Sensing.c ****             newRegValue = CY_GET_REG32(CSD_CMOD_HSIOM_PTR);
 848:Generated_Source\PSoC4/CSD_Sensing.c ****             newRegValue &= (uint32)(~(uint32)CSD_CMOD_HSIOM_MASK);
 849:Generated_Source\PSoC4/CSD_Sensing.c ****             CY_SET_REG32(CSD_CMOD_HSIOM_PTR, newRegValue);
 850:Generated_Source\PSoC4/CSD_Sensing.c **** 
 851:Generated_Source\PSoC4/CSD_Sensing.c ****             #if ((CSD_ENABLE == CSD_CSDV2) && \
 852:Generated_Source\PSoC4/CSD_Sensing.c ****                  ((CSD_ENABLE == CSD_CSD_IDAC_COMP_EN) && \
 853:Generated_Source\PSoC4/CSD_Sensing.c ****                  (CSD_ENABLE == CSD_CSD_DEDICATED_IDAC_COMP_EN)))
 854:Generated_Source\PSoC4/CSD_Sensing.c ****                 /* Disconnect IDACA and IDACB */
 855:Generated_Source\PSoC4/CSD_Sensing.c ****                 newRegValue = CY_GET_REG32(CSD_SW_REFGEN_SEL_PTR);
 856:Generated_Source\PSoC4/CSD_Sensing.c ****                 newRegValue &= (uint32)(~CSD_SW_REFGEN_SEL_SW_IAIB_MASK);
 857:Generated_Source\PSoC4/CSD_Sensing.c ****                 CY_SET_REG32(CSD_SW_REFGEN_SEL_PTR, newRegValue);
 858:Generated_Source\PSoC4/CSD_Sensing.c ****             #endif /* ((CSD_ENABLE == CSD_CSDV2) && \
 859:Generated_Source\PSoC4/CSD_Sensing.c ****                        ((CSD_ENABLE == CSD_CSD_IDAC_COMP_EN) && \
 860:Generated_Source\PSoC4/CSD_Sensing.c ****                        (CSD_ENABLE == CSD_CSD_DEDICATED_IDAC_COMP_EN))) */
 861:Generated_Source\PSoC4/CSD_Sensing.c **** 
 862:Generated_Source\PSoC4/CSD_Sensing.c ****             /* Disconnect previous CSD electrode if it has been connected */
 863:Generated_Source\PSoC4/CSD_Sensing.c ****             CSD_SsCSDElectrodeCheck();
 864:Generated_Source\PSoC4/CSD_Sensing.c **** 
 865:Generated_Source\PSoC4/CSD_Sensing.c ****             /* Disconnect Csh from AMUXBUS-B */
 866:Generated_Source\PSoC4/CSD_Sensing.c ****             #if ((CSD_ENABLE == CSD_CSD_SHIELD_EN) && \
 867:Generated_Source\PSoC4/CSD_Sensing.c ****                  (CSD_ENABLE == CSD_CSD_SHIELD_TANK_EN))
 868:Generated_Source\PSoC4/CSD_Sensing.c ****                 newRegValue = CY_GET_REG32(CSD_CSH_HSIOM_PTR);
 869:Generated_Source\PSoC4/CSD_Sensing.c ****                 newRegValue &= (uint32)(~(uint32)(CSD_CSH_TO_AMUXBUS_B_MASK << CSD_CSH_HSIOM_SHIFT)
 870:Generated_Source\PSoC4/CSD_Sensing.c ****                 CY_SET_REG32(CSD_CSH_HSIOM_PTR, newRegValue);
 871:Generated_Source\PSoC4/CSD_Sensing.c ****             #endif /* ((CSD_ENABLE == CSD_CSD_SHIELD_EN) && \
 872:Generated_Source\PSoC4/CSD_Sensing.c ****                        (CSD_ENABLE == CSD_CSD_SHIELD_TANK_EN)) */
ARM GAS  C:\Users\CHRIST~1\AppData\Local\Temp\ccIPpNky.s 			page 26


 873:Generated_Source\PSoC4/CSD_Sensing.c **** 
 874:Generated_Source\PSoC4/CSD_Sensing.c ****             #if ((CSD_ENABLE == CSD_CSD_SHIELD_EN) && \
 875:Generated_Source\PSoC4/CSD_Sensing.c ****                  (0u != CSD_CSD_TOTAL_SHIELD_COUNT))
 876:Generated_Source\PSoC4/CSD_Sensing.c ****                 CSD_SsCSDDisableShieldElectrodes();
 877:Generated_Source\PSoC4/CSD_Sensing.c ****             #endif /* ((CSD_ENABLE == CSD_CSD_SHIELD_EN) && \
 878:Generated_Source\PSoC4/CSD_Sensing.c ****                        (0u != CSD_CSD_TOTAL_SHIELD_COUNT)) */
 879:Generated_Source\PSoC4/CSD_Sensing.c ****         }
 880:Generated_Source\PSoC4/CSD_Sensing.c ****     #endif /* (CSD_ENABLE == CSD_CSD_EN) */
 881:Generated_Source\PSoC4/CSD_Sensing.c **** 
 882:Generated_Source\PSoC4/CSD_Sensing.c **** 
 883:Generated_Source\PSoC4/CSD_Sensing.c ****     #if (CSD_ENABLE == CSD_CSX_EN)
 884:Generated_Source\PSoC4/CSD_Sensing.c ****         /*******************************************************************************
 885:Generated_Source\PSoC4/CSD_Sensing.c ****         * Function Name: CSD_SsDisableCSXMode
 886:Generated_Source\PSoC4/CSD_Sensing.c ****         ****************************************************************************//**
 887:Generated_Source\PSoC4/CSD_Sensing.c ****         *
 888:Generated_Source\PSoC4/CSD_Sensing.c ****         * \brief
 889:Generated_Source\PSoC4/CSD_Sensing.c ****         *  This function disables CSX mode.
 890:Generated_Source\PSoC4/CSD_Sensing.c ****         *
 891:Generated_Source\PSoC4/CSD_Sensing.c ****         * \details
 892:Generated_Source\PSoC4/CSD_Sensing.c ****         *  To disable CSX mode the following tasks are performed:
 893:Generated_Source\PSoC4/CSD_Sensing.c ****         *  1. Disconnect CintA and CintB from AMUXBUS-A
 894:Generated_Source\PSoC4/CSD_Sensing.c ****         *  2. Disconnect previous CSX electrode if it has been connected
 895:Generated_Source\PSoC4/CSD_Sensing.c ****         *
 896:Generated_Source\PSoC4/CSD_Sensing.c ****         *******************************************************************************/
 897:Generated_Source\PSoC4/CSD_Sensing.c ****         static void CSD_SsDisableCSXMode(void)
 898:Generated_Source\PSoC4/CSD_Sensing.c ****         {
 899:Generated_Source\PSoC4/CSD_Sensing.c ****             uint32 newRegValue;
 900:Generated_Source\PSoC4/CSD_Sensing.c **** 
 901:Generated_Source\PSoC4/CSD_Sensing.c ****             /*  Disconnect CintA from AMUXBUS-A using HSIOM registers.   */
 902:Generated_Source\PSoC4/CSD_Sensing.c ****             newRegValue = CY_GET_REG32(CSD_CintA_HSIOM_PTR);
 903:Generated_Source\PSoC4/CSD_Sensing.c ****             newRegValue &= (uint32)(~(uint32)CSD_CintA_HSIOM_MASK);
 904:Generated_Source\PSoC4/CSD_Sensing.c ****             CY_SET_REG32(CSD_CintA_HSIOM_PTR, newRegValue);
 905:Generated_Source\PSoC4/CSD_Sensing.c **** 
 906:Generated_Source\PSoC4/CSD_Sensing.c ****             /*  Disconnect CintB from AMUXBUS-A using HSIOM registers.   */
 907:Generated_Source\PSoC4/CSD_Sensing.c ****             newRegValue = CY_GET_REG32(CSD_CintB_HSIOM_PTR);
 908:Generated_Source\PSoC4/CSD_Sensing.c ****             newRegValue &= (uint32)(~(uint32)CSD_CintB_HSIOM_MASK);
 909:Generated_Source\PSoC4/CSD_Sensing.c ****             CY_SET_REG32(CSD_CintB_HSIOM_PTR, newRegValue);
 910:Generated_Source\PSoC4/CSD_Sensing.c **** 
 911:Generated_Source\PSoC4/CSD_Sensing.c ****             /* Disconnect previous CSX electrode if it has been connected */
 912:Generated_Source\PSoC4/CSD_Sensing.c ****             CSD_CSXElectrodeCheck();
 913:Generated_Source\PSoC4/CSD_Sensing.c ****         }
 914:Generated_Source\PSoC4/CSD_Sensing.c ****     #endif /* (CSD_ENABLE == CSD_CSX_EN) */
 915:Generated_Source\PSoC4/CSD_Sensing.c **** 
 916:Generated_Source\PSoC4/CSD_Sensing.c **** 
 917:Generated_Source\PSoC4/CSD_Sensing.c ****     /*******************************************************************************
 918:Generated_Source\PSoC4/CSD_Sensing.c ****     * Function Name: CSD_SsSwitchSensingMode
 919:Generated_Source\PSoC4/CSD_Sensing.c ****     ****************************************************************************//**
 920:Generated_Source\PSoC4/CSD_Sensing.c ****     *
 921:Generated_Source\PSoC4/CSD_Sensing.c ****     * \brief
 922:Generated_Source\PSoC4/CSD_Sensing.c ****     *  This function changes the mode for case when both CSD and CSX widgets are
 923:Generated_Source\PSoC4/CSD_Sensing.c ****     *  scanned.
 924:Generated_Source\PSoC4/CSD_Sensing.c ****     *
 925:Generated_Source\PSoC4/CSD_Sensing.c ****     * \details
 926:Generated_Source\PSoC4/CSD_Sensing.c ****     *  To switch to the CSD mode the following tasks are performed:
 927:Generated_Source\PSoC4/CSD_Sensing.c ****     *  1. Disconnect CintA and CintB from AMUXBUS-A;
 928:Generated_Source\PSoC4/CSD_Sensing.c ****     *  2. Disconnect previous CSD electrode if it has been connected;
 929:Generated_Source\PSoC4/CSD_Sensing.c ****     *  3. Initialize CSD mode.
ARM GAS  C:\Users\CHRIST~1\AppData\Local\Temp\ccIPpNky.s 			page 27


 930:Generated_Source\PSoC4/CSD_Sensing.c ****     *
 931:Generated_Source\PSoC4/CSD_Sensing.c ****     *  To switch to the CSX mode the following tasks are performed:
 932:Generated_Source\PSoC4/CSD_Sensing.c ****     *  1. Disconnect Cmod from AMUXBUS-A;
 933:Generated_Source\PSoC4/CSD_Sensing.c ****     *  2. Disconnect previous CSX electrode if it has been connected;
 934:Generated_Source\PSoC4/CSD_Sensing.c ****     *  3. Initialize CSX mode.
 935:Generated_Source\PSoC4/CSD_Sensing.c ****     *
 936:Generated_Source\PSoC4/CSD_Sensing.c ****     * \param mode Specifies the scan mode:
 937:Generated_Source\PSoC4/CSD_Sensing.c ****     *           -  (1) CSD_SENSE_METHOD_CSD_E
 938:Generated_Source\PSoC4/CSD_Sensing.c ****     *           -  (2) CSD_SENSE_METHOD_CSX_E
 939:Generated_Source\PSoC4/CSD_Sensing.c ****     *
 940:Generated_Source\PSoC4/CSD_Sensing.c ****     *******************************************************************************/
 941:Generated_Source\PSoC4/CSD_Sensing.c ****     void CSD_SsSwitchSensingMode(CSD_SENSE_METHOD_ENUM mode)
 942:Generated_Source\PSoC4/CSD_Sensing.c ****     {
 943:Generated_Source\PSoC4/CSD_Sensing.c ****         if (CSD_currentSenseMethod != mode)
 944:Generated_Source\PSoC4/CSD_Sensing.c ****         {
 945:Generated_Source\PSoC4/CSD_Sensing.c ****             if (CSD_SENSE_METHOD_CSD_E ==  CSD_currentSenseMethod)
 946:Generated_Source\PSoC4/CSD_Sensing.c ****             {
 947:Generated_Source\PSoC4/CSD_Sensing.c ****                 #if (CSD_ENABLE == CSD_CSD_EN)
 948:Generated_Source\PSoC4/CSD_Sensing.c ****                     CSD_SsCSDDisableMode();
 949:Generated_Source\PSoC4/CSD_Sensing.c ****                 #endif /* (CSD_ENABLE == CSD_CSD_EN) */
 950:Generated_Source\PSoC4/CSD_Sensing.c ****             }
 951:Generated_Source\PSoC4/CSD_Sensing.c ****             else if (CSD_SENSE_METHOD_CSX_E ==  CSD_currentSenseMethod)
 952:Generated_Source\PSoC4/CSD_Sensing.c ****             {
 953:Generated_Source\PSoC4/CSD_Sensing.c ****                 #if (CSD_ENABLE == CSD_CSX_EN)
 954:Generated_Source\PSoC4/CSD_Sensing.c ****                     CSD_SsDisableCSXMode();
 955:Generated_Source\PSoC4/CSD_Sensing.c ****                 #endif /* (CSD_ENABLE == CSD_CSX_EN) */
 956:Generated_Source\PSoC4/CSD_Sensing.c ****             }
 957:Generated_Source\PSoC4/CSD_Sensing.c ****             else
 958:Generated_Source\PSoC4/CSD_Sensing.c ****             {
 959:Generated_Source\PSoC4/CSD_Sensing.c ****                 #if (CSD_ENABLE == CSD_ADC_EN)
 960:Generated_Source\PSoC4/CSD_Sensing.c ****                     /* Release ADC resources */
 961:Generated_Source\PSoC4/CSD_Sensing.c ****                     (void)CSD_AdcReleaseResources();
 962:Generated_Source\PSoC4/CSD_Sensing.c ****                 #endif /* (CSD_ENABLE == CSD_ADC_EN) */
 963:Generated_Source\PSoC4/CSD_Sensing.c ****             }
 964:Generated_Source\PSoC4/CSD_Sensing.c **** 
 965:Generated_Source\PSoC4/CSD_Sensing.c ****             if (CSD_SENSE_METHOD_CSD_E == mode)
 966:Generated_Source\PSoC4/CSD_Sensing.c ****             {
 967:Generated_Source\PSoC4/CSD_Sensing.c ****                 #if (CSD_ENABLE == CSD_CSD_EN)
 968:Generated_Source\PSoC4/CSD_Sensing.c ****                     /* Initialize CSD mode to guarantee configured CSD mode */
 969:Generated_Source\PSoC4/CSD_Sensing.c ****                     CSD_SsCSDInitialize();
 970:Generated_Source\PSoC4/CSD_Sensing.c ****                     CSD_currentSenseMethod = CSD_SENSE_METHOD_CSD_E;
 971:Generated_Source\PSoC4/CSD_Sensing.c ****                 #endif /* (CSD_ENABLE == CSD_CSD_EN) */
 972:Generated_Source\PSoC4/CSD_Sensing.c ****             }
 973:Generated_Source\PSoC4/CSD_Sensing.c ****             else if (CSD_SENSE_METHOD_CSX_E == mode)
 974:Generated_Source\PSoC4/CSD_Sensing.c ****             {
 975:Generated_Source\PSoC4/CSD_Sensing.c ****                 #if (CSD_ENABLE == CSD_CSX_EN)
 976:Generated_Source\PSoC4/CSD_Sensing.c ****                     /* Initialize CSX mode to guarantee configured CSX mode */
 977:Generated_Source\PSoC4/CSD_Sensing.c ****                     CSD_CSXInitialize();
 978:Generated_Source\PSoC4/CSD_Sensing.c ****                     CSD_currentSenseMethod = CSD_SENSE_METHOD_CSX_E;
 979:Generated_Source\PSoC4/CSD_Sensing.c ****                 #endif /* (CSD_ENABLE == CSD_CSX_EN) */
 980:Generated_Source\PSoC4/CSD_Sensing.c ****             }
 981:Generated_Source\PSoC4/CSD_Sensing.c ****             else
 982:Generated_Source\PSoC4/CSD_Sensing.c ****             {
 983:Generated_Source\PSoC4/CSD_Sensing.c ****                 CSD_currentSenseMethod = CSD_UNDEFINED_E;
 984:Generated_Source\PSoC4/CSD_Sensing.c ****             }
 985:Generated_Source\PSoC4/CSD_Sensing.c ****         }
 986:Generated_Source\PSoC4/CSD_Sensing.c ****     }
ARM GAS  C:\Users\CHRIST~1\AppData\Local\Temp\ccIPpNky.s 			page 28


 987:Generated_Source\PSoC4/CSD_Sensing.c **** #endif  /* ((CSD_ENABLE == CSD_CSD_CSX_EN) || \
 988:Generated_Source\PSoC4/CSD_Sensing.c ****             (CSD_ENABLE == CSD_ADC_EN)) */
 989:Generated_Source\PSoC4/CSD_Sensing.c **** 
 990:Generated_Source\PSoC4/CSD_Sensing.c **** #if (CSD_ENABLE == CSD_CSX_EN)
 991:Generated_Source\PSoC4/CSD_Sensing.c ****     /*******************************************************************************
 992:Generated_Source\PSoC4/CSD_Sensing.c ****     * Function Name: CSD_SsSetIOsInDefaultState
 993:Generated_Source\PSoC4/CSD_Sensing.c ****     ****************************************************************************//**
 994:Generated_Source\PSoC4/CSD_Sensing.c ****     *
 995:Generated_Source\PSoC4/CSD_Sensing.c ****     * \brief
 996:Generated_Source\PSoC4/CSD_Sensing.c ****     *   Sets all electrodes into a default state.
 997:Generated_Source\PSoC4/CSD_Sensing.c ****     *
 998:Generated_Source\PSoC4/CSD_Sensing.c ****     * \details
 999:Generated_Source\PSoC4/CSD_Sensing.c ****     *   Sets all IOs into a default state:
1000:Generated_Source\PSoC4/CSD_Sensing.c ****     *   - HSIOM   - Disconnected, the GPIO mode.
1001:Generated_Source\PSoC4/CSD_Sensing.c ****     *   - DM      - Strong drive.
1002:Generated_Source\PSoC4/CSD_Sensing.c ****     *   - State   - Zero.
1003:Generated_Source\PSoC4/CSD_Sensing.c ****     *
1004:Generated_Source\PSoC4/CSD_Sensing.c ****     *   It is not recommended to call this function directly from the application
1005:Generated_Source\PSoC4/CSD_Sensing.c ****     *   layer.
1006:Generated_Source\PSoC4/CSD_Sensing.c ****     *
1007:Generated_Source\PSoC4/CSD_Sensing.c ****     *******************************************************************************/
1008:Generated_Source\PSoC4/CSD_Sensing.c ****     void CSD_SsSetIOsInDefaultState(void)
1009:Generated_Source\PSoC4/CSD_Sensing.c ****     {
1010:Generated_Source\PSoC4/CSD_Sensing.c ****         CSD_FLASH_IO_STRUCT const *ioPtr = &CSD_ioList[0u];
1011:Generated_Source\PSoC4/CSD_Sensing.c ****         uint32 loopIndex;
1012:Generated_Source\PSoC4/CSD_Sensing.c ****         uint32 regValue;
1013:Generated_Source\PSoC4/CSD_Sensing.c **** 
1014:Generated_Source\PSoC4/CSD_Sensing.c ****         /*  Loop through all electrodes */
1015:Generated_Source\PSoC4/CSD_Sensing.c ****         for (loopIndex = 0u; loopIndex < CSD_TOTAL_ELECTRODES; loopIndex++)
1016:Generated_Source\PSoC4/CSD_Sensing.c ****         {
1017:Generated_Source\PSoC4/CSD_Sensing.c ****             /*  1. Disconnect HSIOM
1018:Generated_Source\PSoC4/CSD_Sensing.c ****                 2. Set strong DM
1019:Generated_Source\PSoC4/CSD_Sensing.c ****                 3. Set pin state to logic 0     */
1020:Generated_Source\PSoC4/CSD_Sensing.c ****             regValue = CY_GET_REG32 (ioPtr->hsiomPtr);
1021:Generated_Source\PSoC4/CSD_Sensing.c ****             regValue &= ~(ioPtr->hsiomMask);
1022:Generated_Source\PSoC4/CSD_Sensing.c ****             CY_SET_REG32 (ioPtr->hsiomPtr, regValue);
1023:Generated_Source\PSoC4/CSD_Sensing.c **** 
1024:Generated_Source\PSoC4/CSD_Sensing.c ****             regValue = CY_GET_REG32 (ioPtr->pcPtr);
1025:Generated_Source\PSoC4/CSD_Sensing.c ****             regValue &= ~(CSD_GPIO_PC_MASK << ioPtr->shift);
1026:Generated_Source\PSoC4/CSD_Sensing.c ****             regValue |=  (CSD_GPIO_STRGDRV << ioPtr->shift);
1027:Generated_Source\PSoC4/CSD_Sensing.c ****             CY_SET_REG32 (ioPtr->pcPtr, regValue);
1028:Generated_Source\PSoC4/CSD_Sensing.c **** 
1029:Generated_Source\PSoC4/CSD_Sensing.c ****             regValue = CY_GET_REG32 (ioPtr->drPtr);
1030:Generated_Source\PSoC4/CSD_Sensing.c ****             regValue &= ~(ioPtr->mask);
1031:Generated_Source\PSoC4/CSD_Sensing.c ****             CY_SET_REG32 (ioPtr->drPtr, regValue);
1032:Generated_Source\PSoC4/CSD_Sensing.c **** 
1033:Generated_Source\PSoC4/CSD_Sensing.c ****             /*  Get next electrode  */
1034:Generated_Source\PSoC4/CSD_Sensing.c ****             ioPtr++;
1035:Generated_Source\PSoC4/CSD_Sensing.c ****         }
1036:Generated_Source\PSoC4/CSD_Sensing.c ****     }
1037:Generated_Source\PSoC4/CSD_Sensing.c **** #endif  /* (CSD_ENABLE == CSD_CSX_EN) */
1038:Generated_Source\PSoC4/CSD_Sensing.c **** 
1039:Generated_Source\PSoC4/CSD_Sensing.c **** 
1040:Generated_Source\PSoC4/CSD_Sensing.c **** #if (CSD_ENABLE == CSD_ADC_EN)
1041:Generated_Source\PSoC4/CSD_Sensing.c **** /*******************************************************************************
1042:Generated_Source\PSoC4/CSD_Sensing.c **** * Function Name: CSD_SsReleaseResources()
1043:Generated_Source\PSoC4/CSD_Sensing.c **** ****************************************************************************//**
ARM GAS  C:\Users\CHRIST~1\AppData\Local\Temp\ccIPpNky.s 			page 29


1044:Generated_Source\PSoC4/CSD_Sensing.c **** *
1045:Generated_Source\PSoC4/CSD_Sensing.c **** * \brief
1046:Generated_Source\PSoC4/CSD_Sensing.c **** *  This function sets the resources that do not belong to the CSDv2 HW block to
1047:Generated_Source\PSoC4/CSD_Sensing.c **** *  default state.
1048:Generated_Source\PSoC4/CSD_Sensing.c **** *
1049:Generated_Source\PSoC4/CSD_Sensing.c **** * \details
1050:Generated_Source\PSoC4/CSD_Sensing.c **** *  The function performs following tasks:
1051:Generated_Source\PSoC4/CSD_Sensing.c **** *  1. Checks if CSD block busy and returns error if it is busy
1052:Generated_Source\PSoC4/CSD_Sensing.c **** *  2. Disconnects integration capacitors (CintA, CintB for CSX mode and
1053:Generated_Source\PSoC4/CSD_Sensing.c **** *     Cmod for CSD mode)
1054:Generated_Source\PSoC4/CSD_Sensing.c **** *  3. Disconnect electroded if they have been connected.
1055:Generated_Source\PSoC4/CSD_Sensing.c **** *
1056:Generated_Source\PSoC4/CSD_Sensing.c **** * \return
1057:Generated_Source\PSoC4/CSD_Sensing.c **** *   Returns the status of operation:
1058:Generated_Source\PSoC4/CSD_Sensing.c **** *   - Zero        - Resources released successfully.
1059:Generated_Source\PSoC4/CSD_Sensing.c **** *   - Non-zero    - One or more errors occurred in releasing process.
1060:Generated_Source\PSoC4/CSD_Sensing.c **** *
1061:Generated_Source\PSoC4/CSD_Sensing.c **** *******************************************************************************/
1062:Generated_Source\PSoC4/CSD_Sensing.c **** cystatus CSD_SsReleaseResources(void)
1063:Generated_Source\PSoC4/CSD_Sensing.c **** {
1064:Generated_Source\PSoC4/CSD_Sensing.c ****     cystatus busyStatus = CYRET_SUCCESS;
1065:Generated_Source\PSoC4/CSD_Sensing.c **** 
1066:Generated_Source\PSoC4/CSD_Sensing.c ****     if (CSD_SW_STS_BUSY == (CSD_dsRam.status & CSD_SW_STS_BUSY))
1067:Generated_Source\PSoC4/CSD_Sensing.c ****     {
1068:Generated_Source\PSoC4/CSD_Sensing.c ****         /* Previous widget is being scanned. Return error. */
1069:Generated_Source\PSoC4/CSD_Sensing.c ****         busyStatus = CYRET_INVALID_STATE;
1070:Generated_Source\PSoC4/CSD_Sensing.c ****     }
1071:Generated_Source\PSoC4/CSD_Sensing.c ****     else
1072:Generated_Source\PSoC4/CSD_Sensing.c ****     {
1073:Generated_Source\PSoC4/CSD_Sensing.c ****         #if (CSD_ENABLE == CSD_CSX_EN)
1074:Generated_Source\PSoC4/CSD_Sensing.c ****             CSD_SsDisableCSXMode();
1075:Generated_Source\PSoC4/CSD_Sensing.c ****         #endif /* (CSD_ENABLE == CSD_CSX_EN) */
1076:Generated_Source\PSoC4/CSD_Sensing.c **** 
1077:Generated_Source\PSoC4/CSD_Sensing.c ****         #if (CSD_ENABLE == CSD_CSD_EN)
1078:Generated_Source\PSoC4/CSD_Sensing.c ****             CSD_SsCSDDisableMode();
1079:Generated_Source\PSoC4/CSD_Sensing.c ****         #endif /* (CSD_ENABLE == CSD_CSD_EN) */
1080:Generated_Source\PSoC4/CSD_Sensing.c **** 
1081:Generated_Source\PSoC4/CSD_Sensing.c ****         /*
1082:Generated_Source\PSoC4/CSD_Sensing.c ****          * Reset of the currentSenseMethod variable to make sure that the next
1083:Generated_Source\PSoC4/CSD_Sensing.c ****          * call of SetupWidget() API setups the correct widget mode
1084:Generated_Source\PSoC4/CSD_Sensing.c ****          */
1085:Generated_Source\PSoC4/CSD_Sensing.c ****         CSD_currentSenseMethod = CSD_UNDEFINED_E;
1086:Generated_Source\PSoC4/CSD_Sensing.c ****     }
1087:Generated_Source\PSoC4/CSD_Sensing.c **** 
1088:Generated_Source\PSoC4/CSD_Sensing.c ****     return busyStatus;
1089:Generated_Source\PSoC4/CSD_Sensing.c **** }
1090:Generated_Source\PSoC4/CSD_Sensing.c **** #endif /* (CSD_ENABLE == CSD_ADC_EN) */
1091:Generated_Source\PSoC4/CSD_Sensing.c **** 
1092:Generated_Source\PSoC4/CSD_Sensing.c **** 
1093:Generated_Source\PSoC4/CSD_Sensing.c **** /*******************************************************************************
1094:Generated_Source\PSoC4/CSD_Sensing.c **** * Function Name: CSD_SsPostAllWidgetsScan
1095:Generated_Source\PSoC4/CSD_Sensing.c **** ****************************************************************************//**
1096:Generated_Source\PSoC4/CSD_Sensing.c **** *
1097:Generated_Source\PSoC4/CSD_Sensing.c **** * \brief
1098:Generated_Source\PSoC4/CSD_Sensing.c **** *   The ISR function for multiple widget scanning implementation.
1099:Generated_Source\PSoC4/CSD_Sensing.c **** *
1100:Generated_Source\PSoC4/CSD_Sensing.c **** * \details
ARM GAS  C:\Users\CHRIST~1\AppData\Local\Temp\ccIPpNky.s 			page 30


1101:Generated_Source\PSoC4/CSD_Sensing.c **** *   This is the function used by the CSD ISR to implement multiple widget
1102:Generated_Source\PSoC4/CSD_Sensing.c **** *   scanning.
1103:Generated_Source\PSoC4/CSD_Sensing.c **** *   Should not be used by the application layer.
1104:Generated_Source\PSoC4/CSD_Sensing.c **** *
1105:Generated_Source\PSoC4/CSD_Sensing.c **** *******************************************************************************/
1106:Generated_Source\PSoC4/CSD_Sensing.c **** void CSD_SsPostAllWidgetsScan(void)
1107:Generated_Source\PSoC4/CSD_Sensing.c **** {
 533              		.loc 1 1107 0
 534              		.cfi_startproc
 535 0000 80B5     		push	{r7, lr}
 536              		.cfi_def_cfa_offset 8
 537              		.cfi_offset 7, -8
 538              		.cfi_offset 14, -4
 539 0002 00AF     		add	r7, sp, #0
 540              		.cfi_def_cfa_register 7
1108:Generated_Source\PSoC4/CSD_Sensing.c ****     #if (CSD_DISABLE == CSD_CSD2X_EN)
1109:Generated_Source\PSoC4/CSD_Sensing.c ****         /*
1110:Generated_Source\PSoC4/CSD_Sensing.c ****         *   1. Increment widget index
1111:Generated_Source\PSoC4/CSD_Sensing.c ****         *   2. Check if all widgets are scanned
1112:Generated_Source\PSoC4/CSD_Sensing.c ****         *   3. If all widgets are not scanned, set up and scan next widget
1113:Generated_Source\PSoC4/CSD_Sensing.c ****         */
1114:Generated_Source\PSoC4/CSD_Sensing.c ****         #if (1u != CSD_TOTAL_WIDGETS)
1115:Generated_Source\PSoC4/CSD_Sensing.c ****             cystatus postScanStatus;
1116:Generated_Source\PSoC4/CSD_Sensing.c **** 
1117:Generated_Source\PSoC4/CSD_Sensing.c ****             do
1118:Generated_Source\PSoC4/CSD_Sensing.c ****             {
1119:Generated_Source\PSoC4/CSD_Sensing.c ****                 CSD_widgetIndex++;
1120:Generated_Source\PSoC4/CSD_Sensing.c **** 
1121:Generated_Source\PSoC4/CSD_Sensing.c ****                 postScanStatus = CSD_SetupWidget((uint32)CSD_widgetIndex);
1122:Generated_Source\PSoC4/CSD_Sensing.c **** 
1123:Generated_Source\PSoC4/CSD_Sensing.c ****                 if (CYRET_SUCCESS == postScanStatus)
1124:Generated_Source\PSoC4/CSD_Sensing.c ****                 {
1125:Generated_Source\PSoC4/CSD_Sensing.c ****                     if((CSD_TOTAL_WIDGETS - 1u) == CSD_widgetIndex)
1126:Generated_Source\PSoC4/CSD_Sensing.c ****                     {
1127:Generated_Source\PSoC4/CSD_Sensing.c ****                         /* The last widget will be scanned. Reset flag to skip configuring the next
1128:Generated_Source\PSoC4/CSD_Sensing.c ****                         CSD_requestScanAllWidget = CSD_DISABLE;
1129:Generated_Source\PSoC4/CSD_Sensing.c ****                     }
1130:Generated_Source\PSoC4/CSD_Sensing.c ****                     (void)CSD_Scan();
1131:Generated_Source\PSoC4/CSD_Sensing.c ****                 }
1132:Generated_Source\PSoC4/CSD_Sensing.c ****                 else if((CSD_TOTAL_WIDGETS - 1u) == CSD_widgetIndex)
1133:Generated_Source\PSoC4/CSD_Sensing.c ****                 {
1134:Generated_Source\PSoC4/CSD_Sensing.c ****                     #if ((CSD_ENABLE == CSD_BLOCK_OFF_AFTER_SCAN_EN) && \
1135:Generated_Source\PSoC4/CSD_Sensing.c ****                          (CSD_ENABLE == CSD_CSD_EN))
1136:Generated_Source\PSoC4/CSD_Sensing.c ****                         if (CSD_SENSE_METHOD_CSD_E ==
1137:Generated_Source\PSoC4/CSD_Sensing.c ****                              (CSD_SENSE_METHOD_ENUM)CSD_GET_SENSE_METHOD(&CSD_dsFlash.wdgtArray[CSD
1138:Generated_Source\PSoC4/CSD_Sensing.c ****                         {
1139:Generated_Source\PSoC4/CSD_Sensing.c ****                             /*  Disable the CSD block */
1140:Generated_Source\PSoC4/CSD_Sensing.c ****                             CY_SET_REG32(CSD_CONFIG_PTR, CSD_configCsd);
1141:Generated_Source\PSoC4/CSD_Sensing.c ****                         }
1142:Generated_Source\PSoC4/CSD_Sensing.c ****                     #endif /* ((CSD_ENABLE == CSD_BLOCK_OFF_AFTER_SCAN_EN) && \
1143:Generated_Source\PSoC4/CSD_Sensing.c ****                                (CSD_ENABLE == CSD_CSD_EN)) */
1144:Generated_Source\PSoC4/CSD_Sensing.c **** 
1145:Generated_Source\PSoC4/CSD_Sensing.c ****                     /* All widgets are totally processed. Reset BUSY flag */
1146:Generated_Source\PSoC4/CSD_Sensing.c ****                     CSD_dsRam.status &= ~CSD_SW_STS_BUSY;
1147:Generated_Source\PSoC4/CSD_Sensing.c **** 
1148:Generated_Source\PSoC4/CSD_Sensing.c ****                     /* Update status with with the failure */
1149:Generated_Source\PSoC4/CSD_Sensing.c ****                     CSD_dsRam.status &= ~CSD_STATUS_ERR_MASK;
ARM GAS  C:\Users\CHRIST~1\AppData\Local\Temp\ccIPpNky.s 			page 31


1150:Generated_Source\PSoC4/CSD_Sensing.c ****                     CSD_dsRam.status |= ((postScanStatus & CSD_STATUS_ERR_SIZE) << CSD_STATUS_ERR_S
1151:Generated_Source\PSoC4/CSD_Sensing.c **** 
1152:Generated_Source\PSoC4/CSD_Sensing.c ****                     /* Set postScanStatus to exit the while loop */
1153:Generated_Source\PSoC4/CSD_Sensing.c ****                     postScanStatus = CYRET_SUCCESS;
1154:Generated_Source\PSoC4/CSD_Sensing.c ****                 }
1155:Generated_Source\PSoC4/CSD_Sensing.c ****                 else
1156:Generated_Source\PSoC4/CSD_Sensing.c ****                 {
1157:Generated_Source\PSoC4/CSD_Sensing.c ****                     /* Update status with with the failure. Configure the next widget in while() lo
1158:Generated_Source\PSoC4/CSD_Sensing.c ****                     CSD_dsRam.status &= ~CSD_STATUS_ERR_MASK;
1159:Generated_Source\PSoC4/CSD_Sensing.c ****                     CSD_dsRam.status |= ((postScanStatus & CSD_STATUS_ERR_SIZE) << CSD_STATUS_ERR_S
1160:Generated_Source\PSoC4/CSD_Sensing.c ****                 }
1161:Generated_Source\PSoC4/CSD_Sensing.c ****             } while (CYRET_SUCCESS != postScanStatus);
1162:Generated_Source\PSoC4/CSD_Sensing.c ****         #endif /* (1u != CSD_TOTAL_WIDGETS) */
1163:Generated_Source\PSoC4/CSD_Sensing.c ****     #else
1164:Generated_Source\PSoC4/CSD_Sensing.c ****         /******************************
1165:Generated_Source\PSoC4/CSD_Sensing.c ****         * This is the place where the CSD2X
1166:Generated_Source\PSoC4/CSD_Sensing.c ****         * postscan for 2 widgets should be implemented.
1167:Generated_Source\PSoC4/CSD_Sensing.c ****         * The CSD2X postscan will be implemented
1168:Generated_Source\PSoC4/CSD_Sensing.c ****         * in the next component version.
1169:Generated_Source\PSoC4/CSD_Sensing.c ****         *********************************/
1170:Generated_Source\PSoC4/CSD_Sensing.c ****     #endif /* (CSD_CSD2X_EN == CSD_DISABLE) */
1171:Generated_Source\PSoC4/CSD_Sensing.c **** }
 541              		.loc 1 1171 0
 542 0004 BD46     		mov	sp, r7
 543              		@ sp needed
 544 0006 80BD     		pop	{r7, pc}
 545              		.cfi_endproc
 546              	.LFE7:
 547              		.size	CSD_SsPostAllWidgetsScan, .-CSD_SsPostAllWidgetsScan
 548              		.section	.text.CSD_SsIsrInitialize,"ax",%progbits
 549              		.align	2
 550              		.global	CSD_SsIsrInitialize
 551              		.code	16
 552              		.thumb_func
 553              		.type	CSD_SsIsrInitialize, %function
 554              	CSD_SsIsrInitialize:
 555              	.LFB8:
1172:Generated_Source\PSoC4/CSD_Sensing.c **** 
1173:Generated_Source\PSoC4/CSD_Sensing.c **** 
1174:Generated_Source\PSoC4/CSD_Sensing.c **** /*******************************************************************************
1175:Generated_Source\PSoC4/CSD_Sensing.c **** * Function Name: CSD_SsIsrInitialize
1176:Generated_Source\PSoC4/CSD_Sensing.c **** ****************************************************************************//**
1177:Generated_Source\PSoC4/CSD_Sensing.c **** *
1178:Generated_Source\PSoC4/CSD_Sensing.c **** * \brief
1179:Generated_Source\PSoC4/CSD_Sensing.c **** *   Enables and initializes for the function pointer for a callback for the ISR.
1180:Generated_Source\PSoC4/CSD_Sensing.c **** *
1181:Generated_Source\PSoC4/CSD_Sensing.c **** * \details
1182:Generated_Source\PSoC4/CSD_Sensing.c **** *   The  "address" is a special type cyisraddress defined by Cylib. This function
1183:Generated_Source\PSoC4/CSD_Sensing.c **** *   is used by component APIs and should not be used by an application program for
1184:Generated_Source\PSoC4/CSD_Sensing.c **** *   proper working of the component.
1185:Generated_Source\PSoC4/CSD_Sensing.c **** *
1186:Generated_Source\PSoC4/CSD_Sensing.c **** * \param  address The address of the function to be called when interrupt is fired.
1187:Generated_Source\PSoC4/CSD_Sensing.c **** *
1188:Generated_Source\PSoC4/CSD_Sensing.c **** *******************************************************************************/
1189:Generated_Source\PSoC4/CSD_Sensing.c **** void CSD_SsIsrInitialize(cyisraddress address)
1190:Generated_Source\PSoC4/CSD_Sensing.c **** {
 556              		.loc 1 1190 0
ARM GAS  C:\Users\CHRIST~1\AppData\Local\Temp\ccIPpNky.s 			page 32


 557              		.cfi_startproc
 558 0000 80B5     		push	{r7, lr}
 559              		.cfi_def_cfa_offset 8
 560              		.cfi_offset 7, -8
 561              		.cfi_offset 14, -4
 562 0002 82B0     		sub	sp, sp, #8
 563              		.cfi_def_cfa_offset 16
 564 0004 00AF     		add	r7, sp, #0
 565              		.cfi_def_cfa_register 7
 566 0006 7860     		str	r0, [r7, #4]
1191:Generated_Source\PSoC4/CSD_Sensing.c **** #if (CSD_ENABLE == CSD_CSD2X_EN)
1192:Generated_Source\PSoC4/CSD_Sensing.c ****     /******************************
1193:Generated_Source\PSoC4/CSD_Sensing.c ****     * This is the place where the CSD2X ISR
1194:Generated_Source\PSoC4/CSD_Sensing.c ****     * Setup should be implemented.
1195:Generated_Source\PSoC4/CSD_Sensing.c ****     * The CSD2X ISR Setup will be implemented
1196:Generated_Source\PSoC4/CSD_Sensing.c ****     * in the next component version.
1197:Generated_Source\PSoC4/CSD_Sensing.c ****     *********************************/
1198:Generated_Source\PSoC4/CSD_Sensing.c **** #else
1199:Generated_Source\PSoC4/CSD_Sensing.c ****     CSD_ISR_StartEx(address);
 567              		.loc 1 1199 0
 568 0008 7B68     		ldr	r3, [r7, #4]
 569 000a 181C     		mov	r0, r3
 570 000c FFF7FEFF 		bl	CSD_ISR_StartEx
1200:Generated_Source\PSoC4/CSD_Sensing.c **** #endif /* (CSD_ENABLE == CSD_CSD2X_EN) */
1201:Generated_Source\PSoC4/CSD_Sensing.c **** }
 571              		.loc 1 1201 0
 572 0010 BD46     		mov	sp, r7
 573 0012 02B0     		add	sp, sp, #8
 574              		@ sp needed
 575 0014 80BD     		pop	{r7, pc}
 576              		.cfi_endproc
 577              	.LFE8:
 578              		.size	CSD_SsIsrInitialize, .-CSD_SsIsrInitialize
 579 0016 C046     		.section	.text.CSD_SsSetModClkClockDivider,"ax",%progbits
 580              		.align	2
 581              		.global	CSD_SsSetModClkClockDivider
 582              		.code	16
 583              		.thumb_func
 584              		.type	CSD_SsSetModClkClockDivider, %function
 585              	CSD_SsSetModClkClockDivider:
 586              	.LFB9:
1202:Generated_Source\PSoC4/CSD_Sensing.c **** 
1203:Generated_Source\PSoC4/CSD_Sensing.c **** 
1204:Generated_Source\PSoC4/CSD_Sensing.c **** /*******************************************************************************
1205:Generated_Source\PSoC4/CSD_Sensing.c **** * Function Name: CSD_SsSetModClkClockDivider
1206:Generated_Source\PSoC4/CSD_Sensing.c **** ****************************************************************************//**
1207:Generated_Source\PSoC4/CSD_Sensing.c **** *
1208:Generated_Source\PSoC4/CSD_Sensing.c **** * \brief
1209:Generated_Source\PSoC4/CSD_Sensing.c **** *   Sets the divider values for the modulator clock and then starts
1210:Generated_Source\PSoC4/CSD_Sensing.c **** *   the modulator clock.
1211:Generated_Source\PSoC4/CSD_Sensing.c **** *
1212:Generated_Source\PSoC4/CSD_Sensing.c **** * \details
1213:Generated_Source\PSoC4/CSD_Sensing.c **** *   It is not recommended to call this function directly by the application layer.
1214:Generated_Source\PSoC4/CSD_Sensing.c **** *   It is used by initialization, widget APIs or wakeup functions to
1215:Generated_Source\PSoC4/CSD_Sensing.c **** *   enable the clocks.
1216:Generated_Source\PSoC4/CSD_Sensing.c **** *
1217:Generated_Source\PSoC4/CSD_Sensing.c **** * \param
ARM GAS  C:\Users\CHRIST~1\AppData\Local\Temp\ccIPpNky.s 			page 33


1218:Generated_Source\PSoC4/CSD_Sensing.c **** *   modClk The divider value for the modulator clock.
1219:Generated_Source\PSoC4/CSD_Sensing.c **** *
1220:Generated_Source\PSoC4/CSD_Sensing.c **** *******************************************************************************/
1221:Generated_Source\PSoC4/CSD_Sensing.c **** void CSD_SsSetModClkClockDivider(uint32 modClk)
1222:Generated_Source\PSoC4/CSD_Sensing.c **** {
 587              		.loc 1 1222 0
 588              		.cfi_startproc
 589 0000 80B5     		push	{r7, lr}
 590              		.cfi_def_cfa_offset 8
 591              		.cfi_offset 7, -8
 592              		.cfi_offset 14, -4
 593 0002 82B0     		sub	sp, sp, #8
 594              		.cfi_def_cfa_offset 16
 595 0004 00AF     		add	r7, sp, #0
 596              		.cfi_def_cfa_register 7
 597 0006 7860     		str	r0, [r7, #4]
1223:Generated_Source\PSoC4/CSD_Sensing.c **** #if (CSD_ENABLE == CSD_IS_M0S8PERI_BLOCK)
1224:Generated_Source\PSoC4/CSD_Sensing.c ****     /*  Stop modulator clock   */
1225:Generated_Source\PSoC4/CSD_Sensing.c ****     CY_SET_REG32(CSD_MODCLK_CMD_PTR,
 598              		.loc 1 1225 0
 599 0008 8023     		mov	r3, #128
 600 000a DB05     		lsl	r3, r3, #23
 601 000c 094A     		ldr	r2, .L42
 602 000e 1A60     		str	r2, [r3]
1226:Generated_Source\PSoC4/CSD_Sensing.c ****                  ((uint32)CSD_ModClk__DIV_ID <<
1227:Generated_Source\PSoC4/CSD_Sensing.c ****                  CSD_MODCLK_CMD_DIV_SHIFT)|
1228:Generated_Source\PSoC4/CSD_Sensing.c ****                  ((uint32)CSD_MODCLK_CMD_DISABLE_MASK));
1229:Generated_Source\PSoC4/CSD_Sensing.c **** 
1230:Generated_Source\PSoC4/CSD_Sensing.c ****     /*
1231:Generated_Source\PSoC4/CSD_Sensing.c ****      * Set divider value for sense modClk.
1232:Generated_Source\PSoC4/CSD_Sensing.c ****      * 1u is subtracted from modClk because Divider register value 0 corresponds
1233:Generated_Source\PSoC4/CSD_Sensing.c ****      * to dividing by 1.
1234:Generated_Source\PSoC4/CSD_Sensing.c ****      */
1235:Generated_Source\PSoC4/CSD_Sensing.c ****     CY_SET_REG32(CSD_MODCLK_DIV_PTR, ((modClk - 1u) << 8u));
 603              		.loc 1 1235 0
 604 0010 094B     		ldr	r3, .L42+4
 605 0012 7A68     		ldr	r2, [r7, #4]
 606 0014 013A     		sub	r2, r2, #1
 607 0016 1202     		lsl	r2, r2, #8
 608 0018 1A60     		str	r2, [r3]
1236:Generated_Source\PSoC4/CSD_Sensing.c **** 
1237:Generated_Source\PSoC4/CSD_Sensing.c ****     /*  Check whether previous modulator clock start command has finished. */
1238:Generated_Source\PSoC4/CSD_Sensing.c ****     while(0u != (CY_GET_REG32(CSD_MODCLK_CMD_PTR) & CSD_MODCLK_CMD_ENABLE_MASK))
 609              		.loc 1 1238 0
 610 001a C046     		mov	r8, r8
 611              	.L41:
 612              		.loc 1 1238 0 is_stmt 0 discriminator 1
 613 001c 8023     		mov	r3, #128
 614 001e DB05     		lsl	r3, r3, #23
 615 0020 1B68     		ldr	r3, [r3]
 616 0022 002B     		cmp	r3, #0
 617 0024 FADB     		blt	.L41
1239:Generated_Source\PSoC4/CSD_Sensing.c ****     {
1240:Generated_Source\PSoC4/CSD_Sensing.c ****         /*  Wait until previous modulator clock start command has finished. */
1241:Generated_Source\PSoC4/CSD_Sensing.c ****     }
1242:Generated_Source\PSoC4/CSD_Sensing.c **** 
1243:Generated_Source\PSoC4/CSD_Sensing.c ****     /*  Start modulator clock, aligned to HFCLK */
ARM GAS  C:\Users\CHRIST~1\AppData\Local\Temp\ccIPpNky.s 			page 34


1244:Generated_Source\PSoC4/CSD_Sensing.c ****     CY_SET_REG32(CSD_MODCLK_CMD_PTR,
 618              		.loc 1 1244 0 is_stmt 1
 619 0026 8023     		mov	r3, #128
 620 0028 DB05     		lsl	r3, r3, #23
 621 002a 044A     		ldr	r2, .L42+8
 622 002c 1A60     		str	r2, [r3]
1245:Generated_Source\PSoC4/CSD_Sensing.c ****                  (uint32)(((uint32)CSD_ModClk__DIV_ID << CSD_MODCLK_CMD_DIV_SHIFT) |
1246:Generated_Source\PSoC4/CSD_Sensing.c ****                   ((uint32)CSD_ModClk__PA_DIV_ID << CSD_MODCLK_CMD_PA_DIV_SHIFT) |
1247:Generated_Source\PSoC4/CSD_Sensing.c ****                   CSD_MODCLK_CMD_ENABLE_MASK));
1248:Generated_Source\PSoC4/CSD_Sensing.c **** #else
1249:Generated_Source\PSoC4/CSD_Sensing.c ****     uint32 newRegValue;
1250:Generated_Source\PSoC4/CSD_Sensing.c **** 
1251:Generated_Source\PSoC4/CSD_Sensing.c ****     /* Clear bit to disable ModClk clock. */
1252:Generated_Source\PSoC4/CSD_Sensing.c ****     CY_SET_REG32(CSD_MODCLK_CMD_PTR,
1253:Generated_Source\PSoC4/CSD_Sensing.c ****                  CY_GET_REG32(CSD_MODCLK_CMD_PTR) &
1254:Generated_Source\PSoC4/CSD_Sensing.c ****                  (uint32)(~CSD_ModClk__ENABLE_MASK));
1255:Generated_Source\PSoC4/CSD_Sensing.c **** 
1256:Generated_Source\PSoC4/CSD_Sensing.c ****     /*
1257:Generated_Source\PSoC4/CSD_Sensing.c ****      * Update ModClk clock divider.
1258:Generated_Source\PSoC4/CSD_Sensing.c ****      * 1u is subtracted from modClk because Divider register value has range (0-65535).
1259:Generated_Source\PSoC4/CSD_Sensing.c ****      */
1260:Generated_Source\PSoC4/CSD_Sensing.c ****     newRegValue = CY_GET_REG32(CSD_MODCLK_DIV_PTR) & (uint32)(~(uint32)CSD_ModClk__DIVIDER_MASK);
1261:Generated_Source\PSoC4/CSD_Sensing.c ****     newRegValue |= (modClk - 1u);
1262:Generated_Source\PSoC4/CSD_Sensing.c ****     CY_SET_REG32(CSD_MODCLK_DIV_PTR, newRegValue);
1263:Generated_Source\PSoC4/CSD_Sensing.c **** 
1264:Generated_Source\PSoC4/CSD_Sensing.c ****     /* Set bit to enable ModClk clock. */
1265:Generated_Source\PSoC4/CSD_Sensing.c ****     CY_SET_REG32(CSD_MODCLK_CMD_PTR,
1266:Generated_Source\PSoC4/CSD_Sensing.c ****                  CY_GET_REG32(CSD_MODCLK_CMD_PTR) |
1267:Generated_Source\PSoC4/CSD_Sensing.c ****                 CSD_ModClk__ENABLE_MASK);
1268:Generated_Source\PSoC4/CSD_Sensing.c **** #endif /* (CSD_ENABLE == CSD_IS_M0S8PERI_BLOCK) */
1269:Generated_Source\PSoC4/CSD_Sensing.c **** }
 623              		.loc 1 1269 0
 624 002e BD46     		mov	sp, r7
 625 0030 02B0     		add	sp, sp, #8
 626              		@ sp needed
 627 0032 80BD     		pop	{r7, pc}
 628              	.L43:
 629              		.align	2
 630              	.L42:
 631 0034 40000040 		.word	1073741888
 632 0038 00030040 		.word	1073742592
 633 003c 40FF0080 		.word	-2147418304
 634              		.cfi_endproc
 635              	.LFE9:
 636              		.size	CSD_SsSetModClkClockDivider, .-CSD_SsSetModClkClockDivider
 637              		.section	.text.CSD_SsSetSnsClockDivider,"ax",%progbits
 638              		.align	2
 639              		.global	CSD_SsSetSnsClockDivider
 640              		.code	16
 641              		.thumb_func
 642              		.type	CSD_SsSetSnsClockDivider, %function
 643              	CSD_SsSetSnsClockDivider:
 644              	.LFB10:
1270:Generated_Source\PSoC4/CSD_Sensing.c **** 
1271:Generated_Source\PSoC4/CSD_Sensing.c **** 
1272:Generated_Source\PSoC4/CSD_Sensing.c **** /*******************************************************************************
1273:Generated_Source\PSoC4/CSD_Sensing.c **** * Function Name: CSD_SsSetSnsClockDivider
ARM GAS  C:\Users\CHRIST~1\AppData\Local\Temp\ccIPpNky.s 			page 35


1274:Generated_Source\PSoC4/CSD_Sensing.c **** ****************************************************************************//**
1275:Generated_Source\PSoC4/CSD_Sensing.c **** *
1276:Generated_Source\PSoC4/CSD_Sensing.c **** * \brief
1277:Generated_Source\PSoC4/CSD_Sensing.c **** *   Sets the divider values for the sense clock and then starts
1278:Generated_Source\PSoC4/CSD_Sensing.c **** *   the sense clock.
1279:Generated_Source\PSoC4/CSD_Sensing.c **** *
1280:Generated_Source\PSoC4/CSD_Sensing.c **** * \details
1281:Generated_Source\PSoC4/CSD_Sensing.c **** *   It is not recommended to call this function directly by the application layer.
1282:Generated_Source\PSoC4/CSD_Sensing.c **** *   It is used by initialization, widget APIs or wakeup functions to
1283:Generated_Source\PSoC4/CSD_Sensing.c **** *   enable the clocks.
1284:Generated_Source\PSoC4/CSD_Sensing.c **** *
1285:Generated_Source\PSoC4/CSD_Sensing.c **** * \param
1286:Generated_Source\PSoC4/CSD_Sensing.c **** *   snsClk The divider value for the sense clock.
1287:Generated_Source\PSoC4/CSD_Sensing.c **** *
1288:Generated_Source\PSoC4/CSD_Sensing.c **** *******************************************************************************/
1289:Generated_Source\PSoC4/CSD_Sensing.c **** void CSD_SsSetSnsClockDivider(uint32 snsClk)
1290:Generated_Source\PSoC4/CSD_Sensing.c **** {
 645              		.loc 1 1290 0
 646              		.cfi_startproc
 647 0000 80B5     		push	{r7, lr}
 648              		.cfi_def_cfa_offset 8
 649              		.cfi_offset 7, -8
 650              		.cfi_offset 14, -4
 651 0002 84B0     		sub	sp, sp, #16
 652              		.cfi_def_cfa_offset 24
 653 0004 00AF     		add	r7, sp, #0
 654              		.cfi_def_cfa_register 7
 655 0006 7860     		str	r0, [r7, #4]
1291:Generated_Source\PSoC4/CSD_Sensing.c **** #if (CSD_ENABLE == CSD_CSDV2)
1292:Generated_Source\PSoC4/CSD_Sensing.c ****     uint32 newRegValue;
1293:Generated_Source\PSoC4/CSD_Sensing.c **** 
1294:Generated_Source\PSoC4/CSD_Sensing.c ****     /*
1295:Generated_Source\PSoC4/CSD_Sensing.c ****      * Set divider value for sense clock.
1296:Generated_Source\PSoC4/CSD_Sensing.c ****      * 1u is subtracted from snsClk because SENSE_DIV value 0 corresponds
1297:Generated_Source\PSoC4/CSD_Sensing.c ****      * to dividing by 1.
1298:Generated_Source\PSoC4/CSD_Sensing.c ****      */
1299:Generated_Source\PSoC4/CSD_Sensing.c ****     newRegValue = CY_GET_REG32(CSD_SENSE_PERIOD_PTR);
 656              		.loc 1 1299 0
 657 0008 084B     		ldr	r3, .L45
 658 000a 1B68     		ldr	r3, [r3]
 659 000c FB60     		str	r3, [r7, #12]
1300:Generated_Source\PSoC4/CSD_Sensing.c ****     newRegValue &= (uint32)(~CSD_SENSE_PERIOD_SENSE_DIV_MASK);
 660              		.loc 1 1300 0
 661 000e FB68     		ldr	r3, [r7, #12]
 662 0010 1B0B     		lsr	r3, r3, #12
 663 0012 1B03     		lsl	r3, r3, #12
 664 0014 FB60     		str	r3, [r7, #12]
1301:Generated_Source\PSoC4/CSD_Sensing.c ****     newRegValue |= snsClk - 1u;
 665              		.loc 1 1301 0
 666 0016 7B68     		ldr	r3, [r7, #4]
 667 0018 013B     		sub	r3, r3, #1
 668 001a FA68     		ldr	r2, [r7, #12]
 669 001c 1343     		orr	r3, r2
 670 001e FB60     		str	r3, [r7, #12]
1302:Generated_Source\PSoC4/CSD_Sensing.c ****     CY_SET_REG32(CSD_SENSE_PERIOD_PTR, newRegValue);
 671              		.loc 1 1302 0
 672 0020 024B     		ldr	r3, .L45
ARM GAS  C:\Users\CHRIST~1\AppData\Local\Temp\ccIPpNky.s 			page 36


 673 0022 FA68     		ldr	r2, [r7, #12]
 674 0024 1A60     		str	r2, [r3]
1303:Generated_Source\PSoC4/CSD_Sensing.c **** #else
1304:Generated_Source\PSoC4/CSD_Sensing.c ****     #if (CSD_ENABLE == CSD_IS_M0S8PERI_BLOCK)
1305:Generated_Source\PSoC4/CSD_Sensing.c ****         /*  Stop sense clock clock   */
1306:Generated_Source\PSoC4/CSD_Sensing.c ****         CY_SET_REG32(CSD_SNSCLK_CMD_PTR,
1307:Generated_Source\PSoC4/CSD_Sensing.c ****                      ((uint32)CSD_SnsClk__DIV_ID <<
1308:Generated_Source\PSoC4/CSD_Sensing.c ****                      CSD_SNSCLK_CMD_DIV_SHIFT)|
1309:Generated_Source\PSoC4/CSD_Sensing.c ****                      ((uint32)CSD_SNSCLK_CMD_DISABLE_MASK));
1310:Generated_Source\PSoC4/CSD_Sensing.c **** 
1311:Generated_Source\PSoC4/CSD_Sensing.c ****         /*
1312:Generated_Source\PSoC4/CSD_Sensing.c ****          * Set divider value for sense clock.
1313:Generated_Source\PSoC4/CSD_Sensing.c ****          * 1u is subtracted from snsClk because Divider register value 0 corresponds
1314:Generated_Source\PSoC4/CSD_Sensing.c ****          * to dividing by 1.
1315:Generated_Source\PSoC4/CSD_Sensing.c ****          */
1316:Generated_Source\PSoC4/CSD_Sensing.c ****         CY_SET_REG32(CSD_SNSCLK_DIV_PTR, ((snsClk - 1u) << 8u));
1317:Generated_Source\PSoC4/CSD_Sensing.c **** 
1318:Generated_Source\PSoC4/CSD_Sensing.c ****         /*  Check whether previous sense clock start command has finished. */
1319:Generated_Source\PSoC4/CSD_Sensing.c ****         while(0u != (CY_GET_REG32(CSD_SNSCLK_CMD_PTR) & CSD_SNSCLK_CMD_ENABLE_MASK))
1320:Generated_Source\PSoC4/CSD_Sensing.c ****         {
1321:Generated_Source\PSoC4/CSD_Sensing.c ****             /*  Wait until previous sense clock start command has finished. */
1322:Generated_Source\PSoC4/CSD_Sensing.c ****         }
1323:Generated_Source\PSoC4/CSD_Sensing.c **** 
1324:Generated_Source\PSoC4/CSD_Sensing.c ****         /* Start sense clock aligned to previously started modulator clock. */
1325:Generated_Source\PSoC4/CSD_Sensing.c ****         CY_SET_REG32(CSD_SNSCLK_CMD_PTR,
1326:Generated_Source\PSoC4/CSD_Sensing.c ****                      (uint32)(((uint32)CSD_SnsClk__DIV_ID << CSD_SNSCLK_CMD_DIV_SHIFT) |
1327:Generated_Source\PSoC4/CSD_Sensing.c ****                       ((uint32)CSD_ModClk__PA_DIV_ID << CSD_SNSCLK_CMD_PA_DIV_SHIFT) |
1328:Generated_Source\PSoC4/CSD_Sensing.c ****                       CSD_SNSCLK_CMD_ENABLE_MASK));
1329:Generated_Source\PSoC4/CSD_Sensing.c ****     #else
1330:Generated_Source\PSoC4/CSD_Sensing.c ****         uint32 newRegValue;
1331:Generated_Source\PSoC4/CSD_Sensing.c **** 
1332:Generated_Source\PSoC4/CSD_Sensing.c ****         /* Clear bit to disable SnsClk clock. */
1333:Generated_Source\PSoC4/CSD_Sensing.c ****         CY_SET_REG32(CSD_SNSCLK_CMD_PTR,
1334:Generated_Source\PSoC4/CSD_Sensing.c ****                      CY_GET_REG32(CSD_SNSCLK_CMD_PTR) &
1335:Generated_Source\PSoC4/CSD_Sensing.c ****                      (uint32)(~(uint32)CSD_SnsClk__ENABLE_MASK));
1336:Generated_Source\PSoC4/CSD_Sensing.c **** 
1337:Generated_Source\PSoC4/CSD_Sensing.c ****         /*
1338:Generated_Source\PSoC4/CSD_Sensing.c ****          * Update snsClk clock divider.
1339:Generated_Source\PSoC4/CSD_Sensing.c ****          * 1u is subtracted from snsClk because Divider register value has range (0-65535).
1340:Generated_Source\PSoC4/CSD_Sensing.c ****          */
1341:Generated_Source\PSoC4/CSD_Sensing.c ****         newRegValue = CY_GET_REG32(CSD_SNSCLK_DIV_PTR) & (uint32)(~(uint32)CSD_SnsClk__DIVIDER_MASK
1342:Generated_Source\PSoC4/CSD_Sensing.c ****         newRegValue |= (snsClk - 1u);
1343:Generated_Source\PSoC4/CSD_Sensing.c ****         CY_SET_REG32(CSD_SNSCLK_DIV_PTR, newRegValue);
1344:Generated_Source\PSoC4/CSD_Sensing.c **** 
1345:Generated_Source\PSoC4/CSD_Sensing.c ****         /* Set bit to enable SnsClk clock. */
1346:Generated_Source\PSoC4/CSD_Sensing.c ****         CY_SET_REG32(CSD_SNSCLK_CMD_PTR,
1347:Generated_Source\PSoC4/CSD_Sensing.c ****                      CY_GET_REG32(CSD_SNSCLK_CMD_PTR) |
1348:Generated_Source\PSoC4/CSD_Sensing.c ****                     CSD_SnsClk__ENABLE_MASK);
1349:Generated_Source\PSoC4/CSD_Sensing.c ****     #endif /* (CSD_ENABLE == CSD_IS_M0S8PERI_BLOCK) */
1350:Generated_Source\PSoC4/CSD_Sensing.c **** #endif /* (CSD_ENABLE == CSD_CSDV2) */
1351:Generated_Source\PSoC4/CSD_Sensing.c **** }
 675              		.loc 1 1351 0
 676 0026 BD46     		mov	sp, r7
 677 0028 04B0     		add	sp, sp, #16
 678              		@ sp needed
 679 002a 80BD     		pop	{r7, pc}
 680              	.L46:
ARM GAS  C:\Users\CHRIST~1\AppData\Local\Temp\ccIPpNky.s 			page 37


 681              		.align	2
 682              	.L45:
 683 002c 00020C40 		.word	1074528768
 684              		.cfi_endproc
 685              	.LFE10:
 686              		.size	CSD_SsSetSnsClockDivider, .-CSD_SsSetSnsClockDivider
 687              		.section	.text.CSD_SsSetClockDividers,"ax",%progbits
 688              		.align	2
 689              		.global	CSD_SsSetClockDividers
 690              		.code	16
 691              		.thumb_func
 692              		.type	CSD_SsSetClockDividers, %function
 693              	CSD_SsSetClockDividers:
 694              	.LFB11:
1352:Generated_Source\PSoC4/CSD_Sensing.c **** 
1353:Generated_Source\PSoC4/CSD_Sensing.c **** 
1354:Generated_Source\PSoC4/CSD_Sensing.c **** /*******************************************************************************
1355:Generated_Source\PSoC4/CSD_Sensing.c **** * Function Name: CSD_SsSetClockDividers
1356:Generated_Source\PSoC4/CSD_Sensing.c **** ****************************************************************************//**
1357:Generated_Source\PSoC4/CSD_Sensing.c **** *
1358:Generated_Source\PSoC4/CSD_Sensing.c **** * \brief
1359:Generated_Source\PSoC4/CSD_Sensing.c **** *   Sets the divider values for sense and modulator clocks and then starts
1360:Generated_Source\PSoC4/CSD_Sensing.c **** *   a modulator clock-phase aligned to HFCLK and sense clock-phase aligned to
1361:Generated_Source\PSoC4/CSD_Sensing.c **** *   the modulator clock.
1362:Generated_Source\PSoC4/CSD_Sensing.c **** *
1363:Generated_Source\PSoC4/CSD_Sensing.c **** * \details
1364:Generated_Source\PSoC4/CSD_Sensing.c **** *   It is not recommended to call this function directly by the application layer.
1365:Generated_Source\PSoC4/CSD_Sensing.c **** *   It is used by initialization, widget APIs or wakeup functions to
1366:Generated_Source\PSoC4/CSD_Sensing.c **** *   enable the clocks.
1367:Generated_Source\PSoC4/CSD_Sensing.c **** *
1368:Generated_Source\PSoC4/CSD_Sensing.c **** * \param
1369:Generated_Source\PSoC4/CSD_Sensing.c **** *   snsClk The divider value for the sense clock.
1370:Generated_Source\PSoC4/CSD_Sensing.c **** *   modClk The divider value for the modulator clock.
1371:Generated_Source\PSoC4/CSD_Sensing.c **** *
1372:Generated_Source\PSoC4/CSD_Sensing.c **** *******************************************************************************/
1373:Generated_Source\PSoC4/CSD_Sensing.c **** void CSD_SsSetClockDividers(uint32 snsClk, uint32 modClk)
1374:Generated_Source\PSoC4/CSD_Sensing.c **** {
 695              		.loc 1 1374 0
 696              		.cfi_startproc
 697 0000 80B5     		push	{r7, lr}
 698              		.cfi_def_cfa_offset 8
 699              		.cfi_offset 7, -8
 700              		.cfi_offset 14, -4
 701 0002 82B0     		sub	sp, sp, #8
 702              		.cfi_def_cfa_offset 16
 703 0004 00AF     		add	r7, sp, #0
 704              		.cfi_def_cfa_register 7
 705 0006 7860     		str	r0, [r7, #4]
 706 0008 3960     		str	r1, [r7]
1375:Generated_Source\PSoC4/CSD_Sensing.c ****     /* Configure Mod clock */
1376:Generated_Source\PSoC4/CSD_Sensing.c ****     CSD_SsSetModClkClockDivider(modClk);
 707              		.loc 1 1376 0
 708 000a 3B68     		ldr	r3, [r7]
 709 000c 181C     		mov	r0, r3
 710 000e FFF7FEFF 		bl	CSD_SsSetModClkClockDivider
1377:Generated_Source\PSoC4/CSD_Sensing.c **** 
1378:Generated_Source\PSoC4/CSD_Sensing.c ****     /* Configure Sns clock */
ARM GAS  C:\Users\CHRIST~1\AppData\Local\Temp\ccIPpNky.s 			page 38


1379:Generated_Source\PSoC4/CSD_Sensing.c ****     CSD_SsSetSnsClockDivider(snsClk);
 711              		.loc 1 1379 0
 712 0012 7B68     		ldr	r3, [r7, #4]
 713 0014 181C     		mov	r0, r3
 714 0016 FFF7FEFF 		bl	CSD_SsSetSnsClockDivider
1380:Generated_Source\PSoC4/CSD_Sensing.c **** }
 715              		.loc 1 1380 0
 716 001a BD46     		mov	sp, r7
 717 001c 02B0     		add	sp, sp, #8
 718              		@ sp needed
 719 001e 80BD     		pop	{r7, pc}
 720              		.cfi_endproc
 721              	.LFE11:
 722              		.size	CSD_SsSetClockDividers, .-CSD_SsSetClockDividers
 723              		.section	.text.CSD_CalibrateWidget,"ax",%progbits
 724              		.align	2
 725              		.global	CSD_CalibrateWidget
 726              		.code	16
 727              		.thumb_func
 728              		.type	CSD_CalibrateWidget, %function
 729              	CSD_CalibrateWidget:
 730              	.LFB12:
1381:Generated_Source\PSoC4/CSD_Sensing.c **** 
1382:Generated_Source\PSoC4/CSD_Sensing.c **** 
1383:Generated_Source\PSoC4/CSD_Sensing.c **** #if ((CSD_ENABLE == CSD_CSD_IDAC_AUTOCAL_EN) || \
1384:Generated_Source\PSoC4/CSD_Sensing.c ****      (CSD_ENABLE == CSD_CSX_IDAC_AUTOCAL_EN))
1385:Generated_Source\PSoC4/CSD_Sensing.c ****     /*******************************************************************************
1386:Generated_Source\PSoC4/CSD_Sensing.c ****     * Function Name: CSD_CalibrateWidget
1387:Generated_Source\PSoC4/CSD_Sensing.c ****     ****************************************************************************//**
1388:Generated_Source\PSoC4/CSD_Sensing.c ****     *
1389:Generated_Source\PSoC4/CSD_Sensing.c ****     * \brief
1390:Generated_Source\PSoC4/CSD_Sensing.c ****     *  Calibrates the IDACs for all sensors in the specified widget to default
1391:Generated_Source\PSoC4/CSD_Sensing.c ****     *  target (85%) value, this function detects sensing method used by the
1392:Generated_Source\PSoC4/CSD_Sensing.c ****     *  widget prior to calibration.
1393:Generated_Source\PSoC4/CSD_Sensing.c ****     *
1394:Generated_Source\PSoC4/CSD_Sensing.c ****     * \details
1395:Generated_Source\PSoC4/CSD_Sensing.c ****     *  This function performs exactly the same tasks as
1396:Generated_Source\PSoC4/CSD_Sensing.c ****     *  CSD_CalibrateAllWidgets, but only for a specified widget.
1397:Generated_Source\PSoC4/CSD_Sensing.c ****     *  This function detects the sensing method used by the widgets and takes
1398:Generated_Source\PSoC4/CSD_Sensing.c ****     *  into account the Enable compensation IDAC parameter.
1399:Generated_Source\PSoC4/CSD_Sensing.c ****     *
1400:Generated_Source\PSoC4/CSD_Sensing.c ****     *  This function is available when the CSD and/or CSX Enable IDAC
1401:Generated_Source\PSoC4/CSD_Sensing.c ****     *  auto-calibration parameter is enabled.
1402:Generated_Source\PSoC4/CSD_Sensing.c **** 
1403:Generated_Source\PSoC4/CSD_Sensing.c ****     *
1404:Generated_Source\PSoC4/CSD_Sensing.c ****     * \param wdgtIndex
1405:Generated_Source\PSoC4/CSD_Sensing.c ****     *  Specify the ID number of the widget to calibrate its raw count.
1406:Generated_Source\PSoC4/CSD_Sensing.c ****     *  A macro for the widget ID can be found in the
1407:Generated_Source\PSoC4/CSD_Sensing.c ****     *  CSD_Configuration.h file defined as
1408:Generated_Source\PSoC4/CSD_Sensing.c ****     *  CSD_<WidgetName>_WDGT_ID.
1409:Generated_Source\PSoC4/CSD_Sensing.c ****     *
1410:Generated_Source\PSoC4/CSD_Sensing.c ****     * \return
1411:Generated_Source\PSoC4/CSD_Sensing.c ****     *  Returns the status of the specified widget calibration:
1412:Generated_Source\PSoC4/CSD_Sensing.c ****     *    - CYRET_SUCCESS if operation is successfully completed.
1413:Generated_Source\PSoC4/CSD_Sensing.c ****     *    - CYRET_BAD_PARAM if the input parameter is invalid.
1414:Generated_Source\PSoC4/CSD_Sensing.c ****     *    - CYRET_BAD_DATA if the calibration failed and the component may not
1415:Generated_Source\PSoC4/CSD_Sensing.c ****     *      operate as expected.
ARM GAS  C:\Users\CHRIST~1\AppData\Local\Temp\ccIPpNky.s 			page 39


1416:Generated_Source\PSoC4/CSD_Sensing.c ****     *
1417:Generated_Source\PSoC4/CSD_Sensing.c ****     *******************************************************************************/
1418:Generated_Source\PSoC4/CSD_Sensing.c ****     cystatus CSD_CalibrateWidget(uint32 wdgtIndex)
1419:Generated_Source\PSoC4/CSD_Sensing.c ****     {
 731              		.loc 1 1419 0
 732              		.cfi_startproc
 733 0000 80B5     		push	{r7, lr}
 734              		.cfi_def_cfa_offset 8
 735              		.cfi_offset 7, -8
 736              		.cfi_offset 14, -4
 737 0002 84B0     		sub	sp, sp, #16
 738              		.cfi_def_cfa_offset 24
 739 0004 00AF     		add	r7, sp, #0
 740              		.cfi_def_cfa_register 7
 741 0006 7860     		str	r0, [r7, #4]
1420:Generated_Source\PSoC4/CSD_Sensing.c ****         cystatus calibrateStatus = CYRET_SUCCESS;
 742              		.loc 1 1420 0
 743 0008 0023     		mov	r3, #0
 744 000a FB60     		str	r3, [r7, #12]
1421:Generated_Source\PSoC4/CSD_Sensing.c **** 
1422:Generated_Source\PSoC4/CSD_Sensing.c ****         do
1423:Generated_Source\PSoC4/CSD_Sensing.c ****         {
1424:Generated_Source\PSoC4/CSD_Sensing.c ****             if (CSD_TOTAL_WIDGETS <= wdgtIndex)
 745              		.loc 1 1424 0
 746 000c 7B68     		ldr	r3, [r7, #4]
 747 000e 002B     		cmp	r3, #0
 748 0010 02D0     		beq	.L49
1425:Generated_Source\PSoC4/CSD_Sensing.c ****             {
1426:Generated_Source\PSoC4/CSD_Sensing.c ****                 calibrateStatus = CYRET_BAD_PARAM;
 749              		.loc 1 1426 0
 750 0012 0123     		mov	r3, #1
 751 0014 FB60     		str	r3, [r7, #12]
1427:Generated_Source\PSoC4/CSD_Sensing.c ****                 break;
 752              		.loc 1 1427 0
 753 0016 06E0     		b	.L50
 754              	.L49:
1428:Generated_Source\PSoC4/CSD_Sensing.c ****             }
1429:Generated_Source\PSoC4/CSD_Sensing.c **** 
1430:Generated_Source\PSoC4/CSD_Sensing.c ****             /*
1431:Generated_Source\PSoC4/CSD_Sensing.c ****              *  Check if widget id is valid, specified widget did not
1432:Generated_Source\PSoC4/CSD_Sensing.c ****              *  detect any faults conditions if BIST is enabled.
1433:Generated_Source\PSoC4/CSD_Sensing.c ****              */
1434:Generated_Source\PSoC4/CSD_Sensing.c ****             #if (CSD_ENABLE == CSD_SELF_TEST_EN)
1435:Generated_Source\PSoC4/CSD_Sensing.c ****                 if (0u != CSD_GET_WIDGET_EN_STATUS(wdgtIndex))
1436:Generated_Source\PSoC4/CSD_Sensing.c ****                 {
1437:Generated_Source\PSoC4/CSD_Sensing.c ****                     calibrateStatus = CYRET_SUCCESS;
1438:Generated_Source\PSoC4/CSD_Sensing.c ****                 }
1439:Generated_Source\PSoC4/CSD_Sensing.c ****                 else
1440:Generated_Source\PSoC4/CSD_Sensing.c ****                 {
1441:Generated_Source\PSoC4/CSD_Sensing.c ****                     calibrateStatus = CYRET_INVALID_STATE;
1442:Generated_Source\PSoC4/CSD_Sensing.c ****                     /*  Exit because widget is not working  */
1443:Generated_Source\PSoC4/CSD_Sensing.c ****                     break;
1444:Generated_Source\PSoC4/CSD_Sensing.c ****                 }
1445:Generated_Source\PSoC4/CSD_Sensing.c ****             #endif  /* (CSD_ENABLE == CSD_SELF_TEST_EN) */
1446:Generated_Source\PSoC4/CSD_Sensing.c **** 
1447:Generated_Source\PSoC4/CSD_Sensing.c ****             /* If CSD2X is enabled, calibrate CSD sensor    */
1448:Generated_Source\PSoC4/CSD_Sensing.c ****             #if (CSD_ENABLE == CSD_CSD2X_EN)
ARM GAS  C:\Users\CHRIST~1\AppData\Local\Temp\ccIPpNky.s 			page 40


1449:Generated_Source\PSoC4/CSD_Sensing.c ****                 /******************************
1450:Generated_Source\PSoC4/CSD_Sensing.c ****                 * This is the place where the CSD2X mode
1451:Generated_Source\PSoC4/CSD_Sensing.c ****                 * API should be implemented.
1452:Generated_Source\PSoC4/CSD_Sensing.c ****                 * CSD2X will be implemented
1453:Generated_Source\PSoC4/CSD_Sensing.c ****                 * in the next component version.
1454:Generated_Source\PSoC4/CSD_Sensing.c ****                 *********************************/
1455:Generated_Source\PSoC4/CSD_Sensing.c **** 
1456:Generated_Source\PSoC4/CSD_Sensing.c ****             /* If both CSD and CSX are enabled, calibrate widget using sensing method */
1457:Generated_Source\PSoC4/CSD_Sensing.c ****             #elif (CSD_ENABLE == CSD_CSD_CSX_EN)
1458:Generated_Source\PSoC4/CSD_Sensing.c **** 
1459:Generated_Source\PSoC4/CSD_Sensing.c ****                 /* Check widget sensing method and call appropriate APIs */
1460:Generated_Source\PSoC4/CSD_Sensing.c ****                 #if (CSD_ENABLE == CSD_CSX_IDAC_AUTOCAL_EN)
1461:Generated_Source\PSoC4/CSD_Sensing.c ****                     if (CSD_SENSE_METHOD_CSX_E ==
1462:Generated_Source\PSoC4/CSD_Sensing.c ****                         (CSD_SENSE_METHOD_ENUM)CSD_GET_SENSE_METHOD(&CSD_dsFlash.wdgtArray[wdgtInde
1463:Generated_Source\PSoC4/CSD_Sensing.c ****                     {
1464:Generated_Source\PSoC4/CSD_Sensing.c ****                         /* Calibrate CSX widget  */
1465:Generated_Source\PSoC4/CSD_Sensing.c ****                        CSD_CSXCalibrateWidget(wdgtIndex, CSD_CSX_RAWCOUNT_CAL_LEVEL);
1466:Generated_Source\PSoC4/CSD_Sensing.c ****                     }
1467:Generated_Source\PSoC4/CSD_Sensing.c ****                 #endif  /* (CSD_ENABLE == CSD_CSX_IDAC_AUTOCAL_EN) */
1468:Generated_Source\PSoC4/CSD_Sensing.c **** 
1469:Generated_Source\PSoC4/CSD_Sensing.c ****                 #if (CSD_ENABLE == CSD_CSD_IDAC_AUTOCAL_EN)
1470:Generated_Source\PSoC4/CSD_Sensing.c ****                     if (CSD_SENSE_METHOD_CSD_E ==
1471:Generated_Source\PSoC4/CSD_Sensing.c ****                         (CSD_SENSE_METHOD_ENUM)CSD_GET_SENSE_METHOD(&CSD_dsFlash.wdgtArray[wdgtInde
1472:Generated_Source\PSoC4/CSD_Sensing.c ****                     {
1473:Generated_Source\PSoC4/CSD_Sensing.c ****                         /* Calibrate CSD widget */
1474:Generated_Source\PSoC4/CSD_Sensing.c ****                         calibrateStatus = CSD_CSDCalibrateWidget(wdgtIndex, CSD_CSD_RAWCOUNT_CAL_LE
1475:Generated_Source\PSoC4/CSD_Sensing.c ****                     }
1476:Generated_Source\PSoC4/CSD_Sensing.c ****                 #endif  /* (CSD_ENABLE == CSD_CSD_IDAC_AUTOCAL_EN) */
1477:Generated_Source\PSoC4/CSD_Sensing.c **** 
1478:Generated_Source\PSoC4/CSD_Sensing.c ****             /*  If only CSD is enabled, calibrate CSD sensor  */
1479:Generated_Source\PSoC4/CSD_Sensing.c ****             #elif (CSD_ENABLE == CSD_CSD_EN)
1480:Generated_Source\PSoC4/CSD_Sensing.c ****                 calibrateStatus = CSD_CSDCalibrateWidget(wdgtIndex, CSD_CSD_RAWCOUNT_CAL_LEVEL);
 755              		.loc 1 1480 0
 756 0018 7B68     		ldr	r3, [r7, #4]
 757 001a 181C     		mov	r0, r3
 758 001c 5521     		mov	r1, #85
 759 001e FFF7FEFF 		bl	CSD_CSDCalibrateWidget
 760 0022 031C     		mov	r3, r0
 761 0024 FB60     		str	r3, [r7, #12]
 762              	.L50:
1481:Generated_Source\PSoC4/CSD_Sensing.c **** 
1482:Generated_Source\PSoC4/CSD_Sensing.c ****             /*  If only CSX is enabled, call CSX scan   */
1483:Generated_Source\PSoC4/CSD_Sensing.c ****             #elif (CSD_ENABLE == CSD_CSX_EN)
1484:Generated_Source\PSoC4/CSD_Sensing.c ****                 CSD_CSXCalibrateWidget(wdgtIndex, CSD_CSX_RAWCOUNT_CAL_LEVEL);
1485:Generated_Source\PSoC4/CSD_Sensing.c **** 
1486:Generated_Source\PSoC4/CSD_Sensing.c ****             #else
1487:Generated_Source\PSoC4/CSD_Sensing.c ****                 calibrateStatus = CYRET_UNKNOWN;
1488:Generated_Source\PSoC4/CSD_Sensing.c ****             #endif  /* (CSD_ENABLE == CSD_CSD2X_EN) */
1489:Generated_Source\PSoC4/CSD_Sensing.c **** 
1490:Generated_Source\PSoC4/CSD_Sensing.c ****         } while (0u);
1491:Generated_Source\PSoC4/CSD_Sensing.c **** 
1492:Generated_Source\PSoC4/CSD_Sensing.c ****         return calibrateStatus;
 763              		.loc 1 1492 0
 764 0026 FB68     		ldr	r3, [r7, #12]
1493:Generated_Source\PSoC4/CSD_Sensing.c ****     }
 765              		.loc 1 1493 0
 766 0028 181C     		mov	r0, r3
ARM GAS  C:\Users\CHRIST~1\AppData\Local\Temp\ccIPpNky.s 			page 41


 767 002a BD46     		mov	sp, r7
 768 002c 04B0     		add	sp, sp, #16
 769              		@ sp needed
 770 002e 80BD     		pop	{r7, pc}
 771              		.cfi_endproc
 772              	.LFE12:
 773              		.size	CSD_CalibrateWidget, .-CSD_CalibrateWidget
 774              		.section	.text.CSD_CalibrateAllWidgets,"ax",%progbits
 775              		.align	2
 776              		.global	CSD_CalibrateAllWidgets
 777              		.code	16
 778              		.thumb_func
 779              		.type	CSD_CalibrateAllWidgets, %function
 780              	CSD_CalibrateAllWidgets:
 781              	.LFB13:
1494:Generated_Source\PSoC4/CSD_Sensing.c **** 
1495:Generated_Source\PSoC4/CSD_Sensing.c **** 
1496:Generated_Source\PSoC4/CSD_Sensing.c ****     /*******************************************************************************
1497:Generated_Source\PSoC4/CSD_Sensing.c ****     * Function Name: CSD_CalibrateAllWidgets
1498:Generated_Source\PSoC4/CSD_Sensing.c ****     ****************************************************************************//**
1499:Generated_Source\PSoC4/CSD_Sensing.c ****     *
1500:Generated_Source\PSoC4/CSD_Sensing.c ****     * \brief
1501:Generated_Source\PSoC4/CSD_Sensing.c ****     *  Calibrates the IDACs for all widgets in the component to default target
1502:Generated_Source\PSoC4/CSD_Sensing.c ****     *  (85%) value, this function detects sensing method used by the widgets
1503:Generated_Source\PSoC4/CSD_Sensing.c ****     *  prior to calibration.
1504:Generated_Source\PSoC4/CSD_Sensing.c ****     *
1505:Generated_Source\PSoC4/CSD_Sensing.c ****     * \details
1506:Generated_Source\PSoC4/CSD_Sensing.c ****     *  Calibrates the IDACs for all widgets in the component to the default
1507:Generated_Source\PSoC4/CSD_Sensing.c ****     *  target (85% of maximum possible raw count) value. This function detects
1508:Generated_Source\PSoC4/CSD_Sensing.c ****     *  the sensing method used by the widgets and takes into account the Enable
1509:Generated_Source\PSoC4/CSD_Sensing.c ****     *  compensation IDAC parameter.
1510:Generated_Source\PSoC4/CSD_Sensing.c ****     *
1511:Generated_Source\PSoC4/CSD_Sensing.c ****     *  This function is available when the CSD and/or CSX Enable IDAC
1512:Generated_Source\PSoC4/CSD_Sensing.c ****     *  auto-calibration parameter is enabled.
1513:Generated_Source\PSoC4/CSD_Sensing.c ****     *
1514:Generated_Source\PSoC4/CSD_Sensing.c ****     * \return
1515:Generated_Source\PSoC4/CSD_Sensing.c ****     *  Returns the status of the calibration process:
1516:Generated_Source\PSoC4/CSD_Sensing.c ****     *    - CYRET_SUCCESS if the operation is successfully completed.
1517:Generated_Source\PSoC4/CSD_Sensing.c ****     *    - CYRET_BAD_DATA if the calibration failed and the component may not
1518:Generated_Source\PSoC4/CSD_Sensing.c ****     *      operate as expected.
1519:Generated_Source\PSoC4/CSD_Sensing.c ****     *
1520:Generated_Source\PSoC4/CSD_Sensing.c ****     *******************************************************************************/
1521:Generated_Source\PSoC4/CSD_Sensing.c ****     cystatus CSD_CalibrateAllWidgets(void)
1522:Generated_Source\PSoC4/CSD_Sensing.c ****     {
 782              		.loc 1 1522 0
 783              		.cfi_startproc
 784 0000 80B5     		push	{r7, lr}
 785              		.cfi_def_cfa_offset 8
 786              		.cfi_offset 7, -8
 787              		.cfi_offset 14, -4
 788 0002 82B0     		sub	sp, sp, #8
 789              		.cfi_def_cfa_offset 16
 790 0004 00AF     		add	r7, sp, #0
 791              		.cfi_def_cfa_register 7
1523:Generated_Source\PSoC4/CSD_Sensing.c ****         cystatus calibrateStatus = CYRET_SUCCESS;
 792              		.loc 1 1523 0
 793 0006 0023     		mov	r3, #0
ARM GAS  C:\Users\CHRIST~1\AppData\Local\Temp\ccIPpNky.s 			page 42


 794 0008 7B60     		str	r3, [r7, #4]
1524:Generated_Source\PSoC4/CSD_Sensing.c ****         uint32 wdgtIndex;
1525:Generated_Source\PSoC4/CSD_Sensing.c **** 
1526:Generated_Source\PSoC4/CSD_Sensing.c ****         for (wdgtIndex = 0u; wdgtIndex < CSD_TOTAL_WIDGETS; wdgtIndex++)
 795              		.loc 1 1526 0
 796 000a 0023     		mov	r3, #0
 797 000c 3B60     		str	r3, [r7]
 798 000e 0AE0     		b	.L53
 799              	.L54:
1527:Generated_Source\PSoC4/CSD_Sensing.c ****         {
1528:Generated_Source\PSoC4/CSD_Sensing.c ****             calibrateStatus |= CSD_CalibrateWidget(wdgtIndex);
 800              		.loc 1 1528 0 discriminator 3
 801 0010 3B68     		ldr	r3, [r7]
 802 0012 181C     		mov	r0, r3
 803 0014 FFF7FEFF 		bl	CSD_CalibrateWidget
 804 0018 021C     		mov	r2, r0
 805 001a 7B68     		ldr	r3, [r7, #4]
 806 001c 1343     		orr	r3, r2
 807 001e 7B60     		str	r3, [r7, #4]
1526:Generated_Source\PSoC4/CSD_Sensing.c ****         {
 808              		.loc 1 1526 0 discriminator 3
 809 0020 3B68     		ldr	r3, [r7]
 810 0022 0133     		add	r3, r3, #1
 811 0024 3B60     		str	r3, [r7]
 812              	.L53:
1526:Generated_Source\PSoC4/CSD_Sensing.c ****         {
 813              		.loc 1 1526 0 is_stmt 0 discriminator 1
 814 0026 3B68     		ldr	r3, [r7]
 815 0028 002B     		cmp	r3, #0
 816 002a F1D0     		beq	.L54
1529:Generated_Source\PSoC4/CSD_Sensing.c ****         }
1530:Generated_Source\PSoC4/CSD_Sensing.c **** 
1531:Generated_Source\PSoC4/CSD_Sensing.c ****         return calibrateStatus;
 817              		.loc 1 1531 0 is_stmt 1
 818 002c 7B68     		ldr	r3, [r7, #4]
1532:Generated_Source\PSoC4/CSD_Sensing.c ****     }
 819              		.loc 1 1532 0
 820 002e 181C     		mov	r0, r3
 821 0030 BD46     		mov	sp, r7
 822 0032 02B0     		add	sp, sp, #8
 823              		@ sp needed
 824 0034 80BD     		pop	{r7, pc}
 825              		.cfi_endproc
 826              	.LFE13:
 827              		.size	CSD_CalibrateAllWidgets, .-CSD_CalibrateAllWidgets
 828 0036 C046     		.section	.text.CSD_SsInitializeSourceSenseClk,"ax",%progbits
 829              		.align	2
 830              		.global	CSD_SsInitializeSourceSenseClk
 831              		.code	16
 832              		.thumb_func
 833              		.type	CSD_SsInitializeSourceSenseClk, %function
 834              	CSD_SsInitializeSourceSenseClk:
 835              	.LFB14:
1533:Generated_Source\PSoC4/CSD_Sensing.c **** #endif /* ((CSD_ENABLE == CSD_CSD_IDAC_AUTOCAL_EN) ||
1534:Generated_Source\PSoC4/CSD_Sensing.c ****            (CSD_ENABLE == CSD_CSX_IDAC_AUTOCAL_EN)) */
1535:Generated_Source\PSoC4/CSD_Sensing.c **** 
1536:Generated_Source\PSoC4/CSD_Sensing.c **** 
ARM GAS  C:\Users\CHRIST~1\AppData\Local\Temp\ccIPpNky.s 			page 43


1537:Generated_Source\PSoC4/CSD_Sensing.c **** #if (CSD_CSD_SS_DIS != CSD_CSD_AUTOTUNE)
1538:Generated_Source\PSoC4/CSD_Sensing.c ****     /*******************************************************************************
1539:Generated_Source\PSoC4/CSD_Sensing.c ****     * Function Name: CSD_SsSetDirectClockMode
1540:Generated_Source\PSoC4/CSD_Sensing.c ****     ****************************************************************************//**
1541:Generated_Source\PSoC4/CSD_Sensing.c ****     *
1542:Generated_Source\PSoC4/CSD_Sensing.c ****     * \brief
1543:Generated_Source\PSoC4/CSD_Sensing.c ****     *  Sets Direct Clock Mode.
1544:Generated_Source\PSoC4/CSD_Sensing.c ****     *
1545:Generated_Source\PSoC4/CSD_Sensing.c ****     * \details
1546:Generated_Source\PSoC4/CSD_Sensing.c ****     *  For CSDv1: Resets PRS bit in CSD_configCsd variable;
1547:Generated_Source\PSoC4/CSD_Sensing.c ****     *  For CSDv2: Resets CSD_SENSE_PERIOD_SEL_LFSR_MSB_MASK and
1548:Generated_Source\PSoC4/CSD_Sensing.c ****     *  CSD_SENSE_PERIOD_SEL_LFSR_MSB_MASK bits in
1549:Generated_Source\PSoC4/CSD_Sensing.c ****     *  CSD_SENSE_PERIOD register.
1550:Generated_Source\PSoC4/CSD_Sensing.c ****     *
1551:Generated_Source\PSoC4/CSD_Sensing.c ****     *******************************************************************************/
1552:Generated_Source\PSoC4/CSD_Sensing.c ****     static void CSD_SsSetDirectClockMode(void)
1553:Generated_Source\PSoC4/CSD_Sensing.c ****     {
1554:Generated_Source\PSoC4/CSD_Sensing.c ****         #if (CSD_ENABLE == CSD_CSDV2)
1555:Generated_Source\PSoC4/CSD_Sensing.c ****             CY_SET_REG32(CSD_SENSE_PERIOD_PTR, CY_GET_REG32(CSD_SENSE_PERIOD_PTR) &
1556:Generated_Source\PSoC4/CSD_Sensing.c ****                                                                  (uint32)~(CSD_SENSE_PERIOD_SEL_LFS
1557:Generated_Source\PSoC4/CSD_Sensing.c ****                                                                  CSD_SENSE_PERIOD_LFSR_SIZE_MASK));
1558:Generated_Source\PSoC4/CSD_Sensing.c ****         #else
1559:Generated_Source\PSoC4/CSD_Sensing.c ****             CSD_configCsd = CSD_configCsd &(uint32)~(CSD_CONFIG_PRS_SELECT_MASK);
1560:Generated_Source\PSoC4/CSD_Sensing.c ****         #endif /* (CSD_ENABLE == CSD_CSDV2) */
1561:Generated_Source\PSoC4/CSD_Sensing.c ****     }
1562:Generated_Source\PSoC4/CSD_Sensing.c **** 
1563:Generated_Source\PSoC4/CSD_Sensing.c **** 
1564:Generated_Source\PSoC4/CSD_Sensing.c ****     /*******************************************************************************
1565:Generated_Source\PSoC4/CSD_Sensing.c ****     * Function Name: CSD_SsAutoTune
1566:Generated_Source\PSoC4/CSD_Sensing.c ****     ****************************************************************************//**
1567:Generated_Source\PSoC4/CSD_Sensing.c ****     *
1568:Generated_Source\PSoC4/CSD_Sensing.c ****     * \brief
1569:Generated_Source\PSoC4/CSD_Sensing.c ****     *  This API performs the parameters auto-tuning for the optimal CSD operation.
1570:Generated_Source\PSoC4/CSD_Sensing.c ****     *
1571:Generated_Source\PSoC4/CSD_Sensing.c ****     * \details
1572:Generated_Source\PSoC4/CSD_Sensing.c ****     *  This API performs the following:
1573:Generated_Source\PSoC4/CSD_Sensing.c ****     *  - Calibrates Modulator and Compensation IDACs.
1574:Generated_Source\PSoC4/CSD_Sensing.c ****     *  - Tunes the Sense Clock optimal value to get a Sense Clock period greater than
1575:Generated_Source\PSoC4/CSD_Sensing.c ****     *     2*5*R*Cp.
1576:Generated_Source\PSoC4/CSD_Sensing.c ****     *  - Calculates the resolution for the optimal finger capacitance.
1577:Generated_Source\PSoC4/CSD_Sensing.c ****     *
1578:Generated_Source\PSoC4/CSD_Sensing.c ****     * \return
1579:Generated_Source\PSoC4/CSD_Sensing.c ****     *   Returns the status of operation:
1580:Generated_Source\PSoC4/CSD_Sensing.c ****     *   - Zero     - All the widgets are auto-tuned successfully.
1581:Generated_Source\PSoC4/CSD_Sensing.c ****     *   - Non-zero - Auto-tuning failed for any widget.
1582:Generated_Source\PSoC4/CSD_Sensing.c ****     *
1583:Generated_Source\PSoC4/CSD_Sensing.c ****     *******************************************************************************/
1584:Generated_Source\PSoC4/CSD_Sensing.c ****     cystatus CSD_SsAutoTune(void)
1585:Generated_Source\PSoC4/CSD_Sensing.c ****     {
1586:Generated_Source\PSoC4/CSD_Sensing.c ****         cystatus autoTuneStatus = CYRET_SUCCESS;
1587:Generated_Source\PSoC4/CSD_Sensing.c ****         uint32 wdgtIndex;
1588:Generated_Source\PSoC4/CSD_Sensing.c ****         uint32 cp;
1589:Generated_Source\PSoC4/CSD_Sensing.c ****         #if (CSD_CSD_MATRIX_WIDGET_EN | CSD_CSD_TOUCHPAD_WIDGET_EN)
1590:Generated_Source\PSoC4/CSD_Sensing.c ****             uint32 cpRow = 0uL;
1591:Generated_Source\PSoC4/CSD_Sensing.c ****         #endif /* (CSD_CSD_MATRIX_WIDGET_EN | CSD_CSD_TOUCHPAD_WIDGET_EN) */
1592:Generated_Source\PSoC4/CSD_Sensing.c ****         CSD_RAM_WD_BASE_STRUCT *ptrWdgt;
1593:Generated_Source\PSoC4/CSD_Sensing.c ****         AUTO_TUNE_CONFIG_TYPE autoTuneConfig;
ARM GAS  C:\Users\CHRIST~1\AppData\Local\Temp\ccIPpNky.s 			page 44


1594:Generated_Source\PSoC4/CSD_Sensing.c **** 
1595:Generated_Source\PSoC4/CSD_Sensing.c ****         /* Configure common config variables */
1596:Generated_Source\PSoC4/CSD_Sensing.c ****         autoTuneConfig.snsClkConstantR = CSD_CSD_SNSCLK_R_CONST;
1597:Generated_Source\PSoC4/CSD_Sensing.c ****         autoTuneConfig.vRef = CSD_CSD_VREF_MV;
1598:Generated_Source\PSoC4/CSD_Sensing.c ****         autoTuneConfig.iDacGain = CSD_CSD_IDAC_GAIN_VALUE_NA * CSD_CSD_DUAL_IDAC_FACTOR;
1599:Generated_Source\PSoC4/CSD_Sensing.c ****         autoTuneConfig.calTarget = CSD_CSD_AUTOTUNE_CAL_LEVEL;
1600:Generated_Source\PSoC4/CSD_Sensing.c **** 
1601:Generated_Source\PSoC4/CSD_Sensing.c ****         /* Calculate snsClk Input Clock in KHz */
1602:Generated_Source\PSoC4/CSD_Sensing.c ****         #if (CSD_ENABLE == CSD_CSDV2)
1603:Generated_Source\PSoC4/CSD_Sensing.c ****             /*  Dividers are chained (CSDV2). Flip flop is not available */
1604:Generated_Source\PSoC4/CSD_Sensing.c ****             autoTuneConfig.snsClkInputClock = (CYDEV_BCLK__HFCLK__KHZ / CSD_dsRam.modCsdClk);
1605:Generated_Source\PSoC4/CSD_Sensing.c ****         #elif ((CSD_ENABLE == CSD_IS_M0S8PERI_BLOCK) && (CSD_DISABLE == CY_PSOC4_4000))
1606:Generated_Source\PSoC4/CSD_Sensing.c ****             /*  Dividers are not chained */
1607:Generated_Source\PSoC4/CSD_Sensing.c ****             autoTuneConfig.snsClkInputClock = CYDEV_BCLK__HFCLK__KHZ >> CSD_FLIP_FLOP_DIV;
1608:Generated_Source\PSoC4/CSD_Sensing.c ****         #elif (CSD_ENABLE == CSD_IS_M0S8PERI_BLOCK)
1609:Generated_Source\PSoC4/CSD_Sensing.c ****             /*  Dividers are not chained (PSoC 4000) */
1610:Generated_Source\PSoC4/CSD_Sensing.c ****             autoTuneConfig.snsClkInputClock = CYDEV_BCLK__HFCLK__KHZ >> CSD_FLIP_FLOP_DIV;
1611:Generated_Source\PSoC4/CSD_Sensing.c ****         #else
1612:Generated_Source\PSoC4/CSD_Sensing.c ****             /*  Dividers are chained (PSoC 4100, PSoC 4200) */
1613:Generated_Source\PSoC4/CSD_Sensing.c ****             autoTuneConfig.snsClkInputClock = (CYDEV_BCLK__HFCLK__KHZ / CSD_dsRam.modCsdClk) >> CSD
1614:Generated_Source\PSoC4/CSD_Sensing.c ****         #endif /* (CSD_ENABLE == CSD_CSDV2) */
1615:Generated_Source\PSoC4/CSD_Sensing.c **** 
1616:Generated_Source\PSoC4/CSD_Sensing.c ****         /* If both CSD and CSX are enabled, calibrate widget using sensing method */
1617:Generated_Source\PSoC4/CSD_Sensing.c ****         #if (CSD_ENABLE == CSD_CSD_CSX_EN)
1618:Generated_Source\PSoC4/CSD_Sensing.c ****             /* Initialize CSD mode */
1619:Generated_Source\PSoC4/CSD_Sensing.c ****             CSD_SsCSDInitialize();
1620:Generated_Source\PSoC4/CSD_Sensing.c ****         #endif /* (CSD_ENABLE == CSD_CSD_CSX_EN) */
1621:Generated_Source\PSoC4/CSD_Sensing.c **** 
1622:Generated_Source\PSoC4/CSD_Sensing.c ****         for (wdgtIndex = 0u; wdgtIndex < CSD_TOTAL_WIDGETS; wdgtIndex++)
1623:Generated_Source\PSoC4/CSD_Sensing.c ****         {
1624:Generated_Source\PSoC4/CSD_Sensing.c ****             if (CSD_SENSE_METHOD_CSD_E ==
1625:Generated_Source\PSoC4/CSD_Sensing.c ****                 (CSD_SENSE_METHOD_ENUM)CSD_GET_SENSE_METHOD(&CSD_dsFlash.wdgtArray[wdgtIndex]))
1626:Generated_Source\PSoC4/CSD_Sensing.c ****             {
1627:Generated_Source\PSoC4/CSD_Sensing.c ****                 ptrWdgt = (CSD_RAM_WD_BASE_STRUCT *)
1628:Generated_Source\PSoC4/CSD_Sensing.c ****                           CSD_dsFlash.wdgtArray[wdgtIndex].ptr2WdgtRam;
1629:Generated_Source\PSoC4/CSD_Sensing.c **** 
1630:Generated_Source\PSoC4/CSD_Sensing.c ****                 /* Switch charge clock source to direct clock mode */
1631:Generated_Source\PSoC4/CSD_Sensing.c ****                 CSD_SsSetDirectClockMode();
1632:Generated_Source\PSoC4/CSD_Sensing.c **** 
1633:Generated_Source\PSoC4/CSD_Sensing.c ****                 /* Get finger capacitance */
1634:Generated_Source\PSoC4/CSD_Sensing.c ****                 autoTuneConfig.fingerCap = ptrWdgt->fingerCap;
1635:Generated_Source\PSoC4/CSD_Sensing.c **** 
1636:Generated_Source\PSoC4/CSD_Sensing.c ****                 /* Init pointer to sigPFC */
1637:Generated_Source\PSoC4/CSD_Sensing.c ****                 autoTuneConfig.sigPFC = &ptrWdgt->sigPFC;
1638:Generated_Source\PSoC4/CSD_Sensing.c **** 
1639:Generated_Source\PSoC4/CSD_Sensing.c ****                 /* Set calibration resolution to 12 bits */
1640:Generated_Source\PSoC4/CSD_Sensing.c ****                 ptrWdgt->resolution = CSD_CALIBRATION_RESOLUTION;
1641:Generated_Source\PSoC4/CSD_Sensing.c **** 
1642:Generated_Source\PSoC4/CSD_Sensing.c ****                 /* Set Sense clock frequency to 1.5 MHz */
1643:Generated_Source\PSoC4/CSD_Sensing.c ****                 #if (CSD_ENABLE == CSD_CSD_COMMON_SNS_CLK_EN)
1644:Generated_Source\PSoC4/CSD_Sensing.c ****                     CSD_dsRam.snsCsdClk = (uint8)((uint32)autoTuneConfig.snsClkInputClock /
1645:Generated_Source\PSoC4/CSD_Sensing.c ****                                                        CSD_CALIBRATION_FREQ_KHZ);
1646:Generated_Source\PSoC4/CSD_Sensing.c ****                 #elif (CSD_CSD_MATRIX_WIDGET_EN | CSD_CSD_TOUCHPAD_WIDGET_EN)
1647:Generated_Source\PSoC4/CSD_Sensing.c ****                     ptrWdgt->rowSnsClk = (uint8)((uint32)autoTuneConfig.snsClkInputClock /
1648:Generated_Source\PSoC4/CSD_Sensing.c ****                                          CSD_CALIBRATION_FREQ_KHZ);
1649:Generated_Source\PSoC4/CSD_Sensing.c ****                     ptrWdgt->snsClk = (uint8)((uint32)autoTuneConfig.snsClkInputClock /
1650:Generated_Source\PSoC4/CSD_Sensing.c ****                                       CSD_CALIBRATION_FREQ_KHZ);
ARM GAS  C:\Users\CHRIST~1\AppData\Local\Temp\ccIPpNky.s 			page 45


1651:Generated_Source\PSoC4/CSD_Sensing.c ****                 #else
1652:Generated_Source\PSoC4/CSD_Sensing.c ****                     ptrWdgt->snsClk = (uint8)((uint32)autoTuneConfig.snsClkInputClock /
1653:Generated_Source\PSoC4/CSD_Sensing.c ****                                       CSD_CALIBRATION_FREQ_KHZ);
1654:Generated_Source\PSoC4/CSD_Sensing.c ****                 #endif /*  (CSD_ENABLE == CSD_CSD_COMMON_SNS_CLK_EN) */
1655:Generated_Source\PSoC4/CSD_Sensing.c **** 
1656:Generated_Source\PSoC4/CSD_Sensing.c ****                 /* Set flag to calibrate in PWM mode only */
1657:Generated_Source\PSoC4/CSD_Sensing.c ****                 CSD_prescalersTuningDone = CSD_DISABLE;
1658:Generated_Source\PSoC4/CSD_Sensing.c **** 
1659:Generated_Source\PSoC4/CSD_Sensing.c ****                 #if (CSD_DISABLE == CSD_CSD2X_EN)
1660:Generated_Source\PSoC4/CSD_Sensing.c ****                     /* Calibrate CSD widget to 85% */
1661:Generated_Source\PSoC4/CSD_Sensing.c ****                     (void)CSD_CSDCalibrateWidget(wdgtIndex, CSD_CSD_AUTOTUNE_CAL_LEVEL);
1662:Generated_Source\PSoC4/CSD_Sensing.c ****                 #endif /* (CSD_DISABLE == CSD_CSD2X_EN) */
1663:Generated_Source\PSoC4/CSD_Sensing.c **** 
1664:Generated_Source\PSoC4/CSD_Sensing.c ****                 #if (CSD_CSD_MATRIX_WIDGET_EN | CSD_CSD_TOUCHPAD_WIDGET_EN)
1665:Generated_Source\PSoC4/CSD_Sensing.c ****                     if ((CSD_WD_TOUCHPAD_E == (CSD_WD_TYPE_ENUM)CSD_dsFlash.wdgtArray[(wdgtIndex)].
1666:Generated_Source\PSoC4/CSD_Sensing.c ****                         (CSD_WD_MATRIX_BUTTON_E == (CSD_WD_TYPE_ENUM)CSD_dsFlash.wdgtArray[(wdgtInd
1667:Generated_Source\PSoC4/CSD_Sensing.c ****                     {
1668:Generated_Source\PSoC4/CSD_Sensing.c ****                         /* Get pointer to Modulator IDAC for columns */
1669:Generated_Source\PSoC4/CSD_Sensing.c ****                         autoTuneConfig.ptrModIDAC = &ptrWdgt->rowIdacMod[0u];
1670:Generated_Source\PSoC4/CSD_Sensing.c **** 
1671:Generated_Source\PSoC4/CSD_Sensing.c ****                         /* Get pointer to Sense Clock Divider for columns */
1672:Generated_Source\PSoC4/CSD_Sensing.c ****                         autoTuneConfig.ptrSenseClk = &ptrWdgt->rowSnsClk;
1673:Generated_Source\PSoC4/CSD_Sensing.c **** 
1674:Generated_Source\PSoC4/CSD_Sensing.c ****                         /* Find correct sense clock value */
1675:Generated_Source\PSoC4/CSD_Sensing.c ****                         cpRow = SmartSense_TunePrescalers(&autoTuneConfig);
1676:Generated_Source\PSoC4/CSD_Sensing.c **** 
1677:Generated_Source\PSoC4/CSD_Sensing.c ****                         if ((CSD_CP_MAX + CSD_CP_ERROR) <= cpRow)
1678:Generated_Source\PSoC4/CSD_Sensing.c ****                         {
1679:Generated_Source\PSoC4/CSD_Sensing.c ****                             autoTuneStatus = CYRET_BAD_DATA;
1680:Generated_Source\PSoC4/CSD_Sensing.c ****                         }
1681:Generated_Source\PSoC4/CSD_Sensing.c **** 
1682:Generated_Source\PSoC4/CSD_Sensing.c ****                         #if (CSD_ENABLE == CSD_CSDV2)
1683:Generated_Source\PSoC4/CSD_Sensing.c ****                             /* Make sure that ModClk >= 4 * rowSnsClk for ModClk <= 12 MHz and rowS
1684:Generated_Source\PSoC4/CSD_Sensing.c ****                             if (autoTuneConfig.snsClkInputClock <= CSD_MOD_CSD_CLK_24000KHZ)
1685:Generated_Source\PSoC4/CSD_Sensing.c ****                             {
1686:Generated_Source\PSoC4/CSD_Sensing.c ****                                 if (ptrWdgt->rowSnsClk < CSD_FACTOR_FILTER_DELAY_12MHZ)
1687:Generated_Source\PSoC4/CSD_Sensing.c ****                                 {
1688:Generated_Source\PSoC4/CSD_Sensing.c ****                                     ptrWdgt->rowSnsClk = CSD_FACTOR_FILTER_DELAY_12MHZ;
1689:Generated_Source\PSoC4/CSD_Sensing.c ****                                 }
1690:Generated_Source\PSoC4/CSD_Sensing.c ****                             }
1691:Generated_Source\PSoC4/CSD_Sensing.c ****                             else if (autoTuneConfig.snsClkInputClock <= CSD_MOD_CSD_CLK_48000KHZ)
1692:Generated_Source\PSoC4/CSD_Sensing.c ****                             {
1693:Generated_Source\PSoC4/CSD_Sensing.c ****                                 if (ptrWdgt->rowSnsClk < CSD_FACTOR_MOD_SNS)
1694:Generated_Source\PSoC4/CSD_Sensing.c ****                                 {
1695:Generated_Source\PSoC4/CSD_Sensing.c ****                                     ptrWdgt->rowSnsClk = CSD_FACTOR_MOD_SNS;
1696:Generated_Source\PSoC4/CSD_Sensing.c ****                                 }
1697:Generated_Source\PSoC4/CSD_Sensing.c ****                             }
1698:Generated_Source\PSoC4/CSD_Sensing.c ****                             else
1699:Generated_Source\PSoC4/CSD_Sensing.c ****                             {
1700:Generated_Source\PSoC4/CSD_Sensing.c ****                                 /* rowSnsClk is valid*/
1701:Generated_Source\PSoC4/CSD_Sensing.c ****                             }
1702:Generated_Source\PSoC4/CSD_Sensing.c ****                         #else
1703:Generated_Source\PSoC4/CSD_Sensing.c ****                             #if (CSD_ENABLE == CSD_IS_M0S8PERI_BLOCK)
1704:Generated_Source\PSoC4/CSD_Sensing.c ****                                 /* Make sure that ModClk >= 2 * rowSnsClk */
1705:Generated_Source\PSoC4/CSD_Sensing.c ****                                 if (CSD_dsRam.modCsdClk >= ((uint8)(ptrWdgt->rowSnsClk << CSD_FLIP_
1706:Generated_Source\PSoC4/CSD_Sensing.c ****                                 {
1707:Generated_Source\PSoC4/CSD_Sensing.c ****                                      ptrWdgt->rowSnsClk = CSD_dsRam.modCsdClk;
ARM GAS  C:\Users\CHRIST~1\AppData\Local\Temp\ccIPpNky.s 			page 46


1708:Generated_Source\PSoC4/CSD_Sensing.c ****                                 }
1709:Generated_Source\PSoC4/CSD_Sensing.c ****                             #else
1710:Generated_Source\PSoC4/CSD_Sensing.c ****                                 /* Sense clock never equals to Modulator clock for chained dividers
1711:Generated_Source\PSoC4/CSD_Sensing.c ****                             #endif /* (CSD_ENABLE == CSD_CSDV2) */
1712:Generated_Source\PSoC4/CSD_Sensing.c ****                         #endif /* (CSD_ENABLE == CSD_CSDV2) */
1713:Generated_Source\PSoC4/CSD_Sensing.c ****                     }
1714:Generated_Source\PSoC4/CSD_Sensing.c ****                 #endif /* (CSD_CSD_MATRIX_WIDGET_EN | CSD_CSD_TOUCHPAD_WIDGET_EN) */
1715:Generated_Source\PSoC4/CSD_Sensing.c **** 
1716:Generated_Source\PSoC4/CSD_Sensing.c ****                 /* Get pointer to Modulator IDAC  for rows */
1717:Generated_Source\PSoC4/CSD_Sensing.c ****                 autoTuneConfig.ptrModIDAC = &ptrWdgt->idacMod[0u];
1718:Generated_Source\PSoC4/CSD_Sensing.c **** 
1719:Generated_Source\PSoC4/CSD_Sensing.c ****                 /* Get pointer to Sense Clock Divider for columns */
1720:Generated_Source\PSoC4/CSD_Sensing.c ****                 autoTuneConfig.ptrSenseClk = &ptrWdgt->snsClk;
1721:Generated_Source\PSoC4/CSD_Sensing.c **** 
1722:Generated_Source\PSoC4/CSD_Sensing.c ****                 /* Find correct sense clock value */
1723:Generated_Source\PSoC4/CSD_Sensing.c ****                 cp = SmartSense_TunePrescalers(&autoTuneConfig);
1724:Generated_Source\PSoC4/CSD_Sensing.c **** 
1725:Generated_Source\PSoC4/CSD_Sensing.c ****                 if ((CSD_CP_MAX + CSD_CP_ERROR) <= cp)
1726:Generated_Source\PSoC4/CSD_Sensing.c ****                 {
1727:Generated_Source\PSoC4/CSD_Sensing.c ****                     autoTuneStatus = CYRET_BAD_DATA;
1728:Generated_Source\PSoC4/CSD_Sensing.c ****                 }
1729:Generated_Source\PSoC4/CSD_Sensing.c **** 
1730:Generated_Source\PSoC4/CSD_Sensing.c ****                 #if (CSD_ENABLE == CSD_CSDV2)
1731:Generated_Source\PSoC4/CSD_Sensing.c ****                     /* Make sure that ModClk >= 4 * SnsClk for ModClk <= 12 MHz and SnsClk <= 6MHz 
1732:Generated_Source\PSoC4/CSD_Sensing.c ****                     if (autoTuneConfig.snsClkInputClock <= CSD_MOD_CSD_CLK_24000KHZ)
1733:Generated_Source\PSoC4/CSD_Sensing.c ****                     {
1734:Generated_Source\PSoC4/CSD_Sensing.c ****                         if (ptrWdgt->snsClk < CSD_FACTOR_FILTER_DELAY_12MHZ)
1735:Generated_Source\PSoC4/CSD_Sensing.c ****                         {
1736:Generated_Source\PSoC4/CSD_Sensing.c ****                             ptrWdgt->snsClk = CSD_FACTOR_FILTER_DELAY_12MHZ;
1737:Generated_Source\PSoC4/CSD_Sensing.c ****                         }
1738:Generated_Source\PSoC4/CSD_Sensing.c ****                     }
1739:Generated_Source\PSoC4/CSD_Sensing.c ****                     else if (autoTuneConfig.snsClkInputClock <= CSD_MOD_CSD_CLK_48000KHZ)
1740:Generated_Source\PSoC4/CSD_Sensing.c ****                     {
1741:Generated_Source\PSoC4/CSD_Sensing.c ****                         if (ptrWdgt->snsClk < CSD_FACTOR_MOD_SNS)
1742:Generated_Source\PSoC4/CSD_Sensing.c ****                         {
1743:Generated_Source\PSoC4/CSD_Sensing.c ****                             ptrWdgt->snsClk = CSD_FACTOR_MOD_SNS;
1744:Generated_Source\PSoC4/CSD_Sensing.c ****                         }
1745:Generated_Source\PSoC4/CSD_Sensing.c ****                     }
1746:Generated_Source\PSoC4/CSD_Sensing.c ****                     else
1747:Generated_Source\PSoC4/CSD_Sensing.c ****                     {
1748:Generated_Source\PSoC4/CSD_Sensing.c ****                         /* SnsClk is valid*/
1749:Generated_Source\PSoC4/CSD_Sensing.c ****                     }
1750:Generated_Source\PSoC4/CSD_Sensing.c ****                 #else
1751:Generated_Source\PSoC4/CSD_Sensing.c ****                     #if (CSD_ENABLE == CSD_IS_M0S8PERI_BLOCK)
1752:Generated_Source\PSoC4/CSD_Sensing.c ****                         /* Make sure that ModClk >= 2 * snsClk */
1753:Generated_Source\PSoC4/CSD_Sensing.c ****                         if (CSD_dsRam.modCsdClk >= ((uint8)(ptrWdgt->snsClk << CSD_FLIP_FLOP_DIV)))
1754:Generated_Source\PSoC4/CSD_Sensing.c ****                         {
1755:Generated_Source\PSoC4/CSD_Sensing.c ****                              ptrWdgt->snsClk = CSD_dsRam.modCsdClk;
1756:Generated_Source\PSoC4/CSD_Sensing.c ****                         }
1757:Generated_Source\PSoC4/CSD_Sensing.c ****                     #else
1758:Generated_Source\PSoC4/CSD_Sensing.c ****                         /* Sense clock never equals to Modulator clock for chained dividers because
1759:Generated_Source\PSoC4/CSD_Sensing.c ****                     #endif /* (CSD_ENABLE == CSD_CSDV2) */
1760:Generated_Source\PSoC4/CSD_Sensing.c ****                 #endif /* (CSD_ENABLE == CSD_CSDV2) */
1761:Generated_Source\PSoC4/CSD_Sensing.c **** 
1762:Generated_Source\PSoC4/CSD_Sensing.c ****                 /* Set flag to indicate that calibration in PWM mode has been performed */
1763:Generated_Source\PSoC4/CSD_Sensing.c ****                 CSD_prescalersTuningDone = 1u;
1764:Generated_Source\PSoC4/CSD_Sensing.c **** 
ARM GAS  C:\Users\CHRIST~1\AppData\Local\Temp\ccIPpNky.s 			page 47


1765:Generated_Source\PSoC4/CSD_Sensing.c ****                 /* Multiply Clk divider to 2 for PRS mode to take into account average PRS frequenc
1766:Generated_Source\PSoC4/CSD_Sensing.c ****                 autoTuneConfig.prsFactor = CSD_PRS_FACTOR_DIV;
1767:Generated_Source\PSoC4/CSD_Sensing.c **** 
1768:Generated_Source\PSoC4/CSD_Sensing.c ****                 #if (CSD_CLK_SOURCE_PRSAUTO == CSD_CSD_SNS_CLK_SOURCE)
1769:Generated_Source\PSoC4/CSD_Sensing.c ****                     CSD_SsSetWidgetSenseClkSrc(wdgtIndex, ptrWdgt);
1770:Generated_Source\PSoC4/CSD_Sensing.c ****                 #endif /* (CSD_CLK_SOURCE_PRSAUTO == CSD_CSD_SNS_CLK_SOURCE) */
1771:Generated_Source\PSoC4/CSD_Sensing.c **** 
1772:Generated_Source\PSoC4/CSD_Sensing.c ****                 #if (CSD_DISABLE == CSD_CSD2X_EN)
1773:Generated_Source\PSoC4/CSD_Sensing.c ****                     /* Calibrate CSD widget to 85% */
1774:Generated_Source\PSoC4/CSD_Sensing.c ****                     autoTuneStatus |= CSD_CSDCalibrateWidget(wdgtIndex, CSD_CSD_AUTOTUNE_CAL_LEVEL)
1775:Generated_Source\PSoC4/CSD_Sensing.c ****                 #endif /* (CSD_DISABLE == CSD_CSD2X_EN) */
1776:Generated_Source\PSoC4/CSD_Sensing.c **** 
1777:Generated_Source\PSoC4/CSD_Sensing.c ****                 /* Set parasitic capacitance for columns */
1778:Generated_Source\PSoC4/CSD_Sensing.c ****                 autoTuneConfig.sensorCap = cp;
1779:Generated_Source\PSoC4/CSD_Sensing.c **** 
1780:Generated_Source\PSoC4/CSD_Sensing.c ****                 #if (CSD_CSD_MATRIX_WIDGET_EN | CSD_CSD_TOUCHPAD_WIDGET_EN)
1781:Generated_Source\PSoC4/CSD_Sensing.c ****                     if ((CSD_WD_TOUCHPAD_E == (CSD_WD_TYPE_ENUM)CSD_dsFlash.wdgtArray[(wdgtIndex)].
1782:Generated_Source\PSoC4/CSD_Sensing.c ****                         (CSD_WD_MATRIX_BUTTON_E == (CSD_WD_TYPE_ENUM)CSD_dsFlash.wdgtArray[(wdgtInd
1783:Generated_Source\PSoC4/CSD_Sensing.c ****                     {
1784:Generated_Source\PSoC4/CSD_Sensing.c ****                         /* Set the minimum sense clock frequency to calculate the resolution */
1785:Generated_Source\PSoC4/CSD_Sensing.c ****                         if (ptrWdgt->snsClk < ptrWdgt->rowSnsClk)
1786:Generated_Source\PSoC4/CSD_Sensing.c ****                         {
1787:Generated_Source\PSoC4/CSD_Sensing.c ****                             /* Rewrite pointer to Sense Clock Divider for rows */
1788:Generated_Source\PSoC4/CSD_Sensing.c ****                             autoTuneConfig.ptrSenseClk = &ptrWdgt->rowSnsClk;
1789:Generated_Source\PSoC4/CSD_Sensing.c **** 
1790:Generated_Source\PSoC4/CSD_Sensing.c ****                             /* Set parasitic capacitance for rows */
1791:Generated_Source\PSoC4/CSD_Sensing.c ****                             autoTuneConfig.sensorCap = cpRow;
1792:Generated_Source\PSoC4/CSD_Sensing.c ****                         }
1793:Generated_Source\PSoC4/CSD_Sensing.c ****                     }
1794:Generated_Source\PSoC4/CSD_Sensing.c ****                 #endif /* (CSD_CSD_MATRIX_WIDGET_EN | CSD_CSD_TOUCHPAD_WIDGET_EN) */
1795:Generated_Source\PSoC4/CSD_Sensing.c **** 
1796:Generated_Source\PSoC4/CSD_Sensing.c ****                 /* Find resolution */
1797:Generated_Source\PSoC4/CSD_Sensing.c ****                 ptrWdgt->resolution = SmartSense_TuneSensitivity(&autoTuneConfig);
1798:Generated_Source\PSoC4/CSD_Sensing.c **** 
1799:Generated_Source\PSoC4/CSD_Sensing.c ****                 #if (CSD_CLK_SOURCE_PRSAUTO == CSD_CSD_SNS_CLK_SOURCE)
1800:Generated_Source\PSoC4/CSD_Sensing.c ****                     CSD_SsSetWidgetSenseClkSrc(wdgtIndex, ptrWdgt);
1801:Generated_Source\PSoC4/CSD_Sensing.c **** 
1802:Generated_Source\PSoC4/CSD_Sensing.c ****                     #if (CSD_CSD_MATRIX_WIDGET_EN | CSD_CSD_TOUCHPAD_WIDGET_EN)
1803:Generated_Source\PSoC4/CSD_Sensing.c ****                         if (((uint8)CSD_CLK_SOURCE_DIRECT == ptrWdgt->snsClkSource) ||
1804:Generated_Source\PSoC4/CSD_Sensing.c ****                             ((uint8)CSD_CLK_SOURCE_DIRECT == ptrWdgt->rowSnsClkSource))
1805:Generated_Source\PSoC4/CSD_Sensing.c ****                         {
1806:Generated_Source\PSoC4/CSD_Sensing.c ****                             /* Recalibrate CSD widget to 85% becasue source is changed to direct */
1807:Generated_Source\PSoC4/CSD_Sensing.c ****                             autoTuneStatus |= CSD_CSDCalibrateWidget(wdgtIndex, CSD_CSD_AUTOTUNE_CA
1808:Generated_Source\PSoC4/CSD_Sensing.c ****                         }
1809:Generated_Source\PSoC4/CSD_Sensing.c ****                     #else
1810:Generated_Source\PSoC4/CSD_Sensing.c ****                         if ((uint8)CSD_CLK_SOURCE_DIRECT == ptrWdgt->snsClkSource)
1811:Generated_Source\PSoC4/CSD_Sensing.c ****                         {
1812:Generated_Source\PSoC4/CSD_Sensing.c ****                             /* Recalibrate CSD widget to 85% becasue source is changed to direct */
1813:Generated_Source\PSoC4/CSD_Sensing.c ****                             autoTuneStatus |= CSD_CSDCalibrateWidget(wdgtIndex, CSD_CSD_AUTOTUNE_CA
1814:Generated_Source\PSoC4/CSD_Sensing.c ****                         }
1815:Generated_Source\PSoC4/CSD_Sensing.c ****                     #endif /* (CSD_CSD_MATRIX_WIDGET_EN | CSD_CSD_TOUCHPAD_WIDGET_EN) */
1816:Generated_Source\PSoC4/CSD_Sensing.c ****                 #endif /* (CSD_CLK_SOURCE_PRSAUTO == CSD_CSD_SNS_CLK_SOURCE) */
1817:Generated_Source\PSoC4/CSD_Sensing.c ****             }
1818:Generated_Source\PSoC4/CSD_Sensing.c ****         }
1819:Generated_Source\PSoC4/CSD_Sensing.c ****         return autoTuneStatus;
1820:Generated_Source\PSoC4/CSD_Sensing.c ****     }
1821:Generated_Source\PSoC4/CSD_Sensing.c **** #endif /* (CSD_CSD_SS_DIS != CSD_CSD_AUTOTUNE)) */
ARM GAS  C:\Users\CHRIST~1\AppData\Local\Temp\ccIPpNky.s 			page 48


1822:Generated_Source\PSoC4/CSD_Sensing.c **** 
1823:Generated_Source\PSoC4/CSD_Sensing.c **** 
1824:Generated_Source\PSoC4/CSD_Sensing.c **** #if (CSD_DISABLE == CSD_CSDV2)
1825:Generated_Source\PSoC4/CSD_Sensing.c ****     #if ((CSD_ENABLE == CSD_CSX_EN) || \
1826:Generated_Source\PSoC4/CSD_Sensing.c ****          (CSD_IDAC_SINKING == CSD_CSD_IDAC_CONFIG))
1827:Generated_Source\PSoC4/CSD_Sensing.c ****         /*******************************************************************************
1828:Generated_Source\PSoC4/CSD_Sensing.c ****         * Function Name: CSD_SsTrimIdacsSinking
1829:Generated_Source\PSoC4/CSD_Sensing.c ****         ****************************************************************************//**
1830:Generated_Source\PSoC4/CSD_Sensing.c ****         *
1831:Generated_Source\PSoC4/CSD_Sensing.c ****         * \brief
1832:Generated_Source\PSoC4/CSD_Sensing.c ****         *  This function loads trim values from SFLASH rows to calibrate
1833:Generated_Source\PSoC4/CSD_Sensing.c ****         *  IDAC1 and IDAC2 for Sinking CSD Mode
1834:Generated_Source\PSoC4/CSD_Sensing.c ****         *
1835:Generated_Source\PSoC4/CSD_Sensing.c ****         * \details
1836:Generated_Source\PSoC4/CSD_Sensing.c ****         *  Function reads trim value from SFLASH and loads it into IDAC trim register.
1837:Generated_Source\PSoC4/CSD_Sensing.c ****         *  If Compensation IDAC is disabled the function loads trim values for IDAC1 only.
1838:Generated_Source\PSoC4/CSD_Sensing.c ****         *
1839:Generated_Source\PSoC4/CSD_Sensing.c ****         *******************************************************************************/
1840:Generated_Source\PSoC4/CSD_Sensing.c ****         static void CSD_SsTrimIdacsSinking(void)
1841:Generated_Source\PSoC4/CSD_Sensing.c ****         {
1842:Generated_Source\PSoC4/CSD_Sensing.c ****             uint32 trimValue;
1843:Generated_Source\PSoC4/CSD_Sensing.c **** 
1844:Generated_Source\PSoC4/CSD_Sensing.c ****             /* iDAC1 Sinking Mode */
1845:Generated_Source\PSoC4/CSD_Sensing.c ****             trimValue = CY_GET_REG32(CSD_TRIM2_PTR) & ~CSD_IDAC_TRIM2_MOD_SNK_MASK;
1846:Generated_Source\PSoC4/CSD_Sensing.c ****             trimValue |= ((uint32)CY_GET_REG8(CSD_SFLASH_TRIM2_PTR) &
1847:Generated_Source\PSoC4/CSD_Sensing.c ****                                                       CSD_SFLASH_TRIM_IDAC_MOD_MASK) ;
1848:Generated_Source\PSoC4/CSD_Sensing.c **** 
1849:Generated_Source\PSoC4/CSD_Sensing.c ****             #if (CSD_ENABLE == CSD_CSD_IDAC_COMP_EN)
1850:Generated_Source\PSoC4/CSD_Sensing.c ****                 /* iDAC2 Sinking Mode */
1851:Generated_Source\PSoC4/CSD_Sensing.c ****                 trimValue &= ~CSD_IDAC_TRIM2_COMP_SNK_MASK;
1852:Generated_Source\PSoC4/CSD_Sensing.c ****                 trimValue |= ((uint32)CY_GET_REG8(CSD_SFLASH_TRIM2_PTR) &
1853:Generated_Source\PSoC4/CSD_Sensing.c ****                                                           CSD_SFLASH_TRIM_IDAC_COMP_MASK);
1854:Generated_Source\PSoC4/CSD_Sensing.c ****             #endif /* (CSD_ENABLE == CSD_CSD_IDAC_COMP_EN) */
1855:Generated_Source\PSoC4/CSD_Sensing.c **** 
1856:Generated_Source\PSoC4/CSD_Sensing.c ****             /* Update IDAC trim bits for gain control in current sink mode */
1857:Generated_Source\PSoC4/CSD_Sensing.c ****             CY_SET_REG32(CSD_TRIM2_PTR, trimValue);
1858:Generated_Source\PSoC4/CSD_Sensing.c ****         }
1859:Generated_Source\PSoC4/CSD_Sensing.c ****     #endif /* ((CSD_ENABLE == CSD_CSX_EN) || \
1860:Generated_Source\PSoC4/CSD_Sensing.c ****                (CSD_IDAC_SINKING == CSD_CSD_IDAC_CONFIG)) */
1861:Generated_Source\PSoC4/CSD_Sensing.c **** 
1862:Generated_Source\PSoC4/CSD_Sensing.c **** 
1863:Generated_Source\PSoC4/CSD_Sensing.c ****     #if ((CSD_ENABLE == CSD_CSX_EN) || \
1864:Generated_Source\PSoC4/CSD_Sensing.c ****          (CSD_IDAC_SOURCING == CSD_CSD_IDAC_CONFIG))
1865:Generated_Source\PSoC4/CSD_Sensing.c ****         /*******************************************************************************
1866:Generated_Source\PSoC4/CSD_Sensing.c ****         * Function Name: CSD_SsTrimIdacsSourcing
1867:Generated_Source\PSoC4/CSD_Sensing.c ****         ****************************************************************************//**
1868:Generated_Source\PSoC4/CSD_Sensing.c ****         *
1869:Generated_Source\PSoC4/CSD_Sensing.c ****         * \brief
1870:Generated_Source\PSoC4/CSD_Sensing.c ****         *  This function loads trim values from SFLASH rows to calibrate
1871:Generated_Source\PSoC4/CSD_Sensing.c ****         *  IDAC1 and IDAC2 for Sourcing CSD Mode
1872:Generated_Source\PSoC4/CSD_Sensing.c ****         *
1873:Generated_Source\PSoC4/CSD_Sensing.c ****         * \details
1874:Generated_Source\PSoC4/CSD_Sensing.c ****         *  Function reads trim value from SFLASH and loads it into IDAC trim register.
1875:Generated_Source\PSoC4/CSD_Sensing.c ****         *  If Compensation IDAC is disabled the function loads trim values for IDAC1 only.
1876:Generated_Source\PSoC4/CSD_Sensing.c ****         *
1877:Generated_Source\PSoC4/CSD_Sensing.c ****         *******************************************************************************/
1878:Generated_Source\PSoC4/CSD_Sensing.c ****         static void CSD_SsTrimIdacsSourcing(void)
ARM GAS  C:\Users\CHRIST~1\AppData\Local\Temp\ccIPpNky.s 			page 49


1879:Generated_Source\PSoC4/CSD_Sensing.c ****         {
1880:Generated_Source\PSoC4/CSD_Sensing.c ****             uint32 trimValue;
1881:Generated_Source\PSoC4/CSD_Sensing.c **** 
1882:Generated_Source\PSoC4/CSD_Sensing.c ****             /* iDAC1 Sourcing Mode */
1883:Generated_Source\PSoC4/CSD_Sensing.c ****             trimValue = CY_GET_REG32(CSD_TRIM1_PTR) & ~CSD_IDAC_TRIM1_MOD_SRC_MASK;
1884:Generated_Source\PSoC4/CSD_Sensing.c ****             trimValue |= ((uint32)CY_GET_REG8(CSD_SFLASH_TRIM1_PTR) &
1885:Generated_Source\PSoC4/CSD_Sensing.c ****                                                       CSD_SFLASH_TRIM_IDAC_MOD_MASK);
1886:Generated_Source\PSoC4/CSD_Sensing.c **** 
1887:Generated_Source\PSoC4/CSD_Sensing.c ****             #if (CSD_ENABLE == CSD_CSD_IDAC_COMP_EN)
1888:Generated_Source\PSoC4/CSD_Sensing.c ****                  /* iDAC2 Sourcing Mode */
1889:Generated_Source\PSoC4/CSD_Sensing.c ****                 trimValue &= ~CSD_IDAC_TRIM1_COMP_SRC_MASK;
1890:Generated_Source\PSoC4/CSD_Sensing.c ****                 trimValue |= ((uint32)CY_GET_REG8(CSD_SFLASH_TRIM1_PTR) &
1891:Generated_Source\PSoC4/CSD_Sensing.c ****                                                           CSD_SFLASH_TRIM_IDAC_COMP_MASK);
1892:Generated_Source\PSoC4/CSD_Sensing.c ****             #endif /* (CSD_ENABLE == CSD_CSD_IDAC_COMP_EN) */
1893:Generated_Source\PSoC4/CSD_Sensing.c **** 
1894:Generated_Source\PSoC4/CSD_Sensing.c ****             /* Update IDAC trim bits for gain control in current source mode */
1895:Generated_Source\PSoC4/CSD_Sensing.c ****             CY_SET_REG32(CSD_TRIM1_PTR, trimValue);
1896:Generated_Source\PSoC4/CSD_Sensing.c ****         }
1897:Generated_Source\PSoC4/CSD_Sensing.c ****     #endif /* ((CSD_ENABLE == CSD_CSX_EN) || \
1898:Generated_Source\PSoC4/CSD_Sensing.c ****                (CSD_IDAC_SOURCING == CSD_CSD_IDAC_CONFIG))  */
1899:Generated_Source\PSoC4/CSD_Sensing.c **** 
1900:Generated_Source\PSoC4/CSD_Sensing.c ****     /*******************************************************************************
1901:Generated_Source\PSoC4/CSD_Sensing.c ****     * Function Name: CSD_SsTrimIdacs
1902:Generated_Source\PSoC4/CSD_Sensing.c ****     ****************************************************************************//**
1903:Generated_Source\PSoC4/CSD_Sensing.c ****     *
1904:Generated_Source\PSoC4/CSD_Sensing.c ****     * \brief
1905:Generated_Source\PSoC4/CSD_Sensing.c ****     *  This function loads trim values from SFLASH rows to calibrate
1906:Generated_Source\PSoC4/CSD_Sensing.c ****     *  IDAC1 and IDAC2 for CSD Mode
1907:Generated_Source\PSoC4/CSD_Sensing.c ****     *
1908:Generated_Source\PSoC4/CSD_Sensing.c ****     * \details
1909:Generated_Source\PSoC4/CSD_Sensing.c ****     *  If CSX mode is enabled the function loads trim values for both sink and source
1910:Generated_Source\PSoC4/CSD_Sensing.c ****     *  mode. If CSX mode is disabled the function loads trim values for sink or
1911:Generated_Source\PSoC4/CSD_Sensing.c ****     *  source mode based on sink/source mode configuration.
1912:Generated_Source\PSoC4/CSD_Sensing.c ****     *  If Compensation IDAC is disabled the function loads trim values for IDAC1 only.
1913:Generated_Source\PSoC4/CSD_Sensing.c ****     *
1914:Generated_Source\PSoC4/CSD_Sensing.c ****     *******************************************************************************/
1915:Generated_Source\PSoC4/CSD_Sensing.c ****     static void CSD_SsTrimIdacs(void)
1916:Generated_Source\PSoC4/CSD_Sensing.c ****     {
1917:Generated_Source\PSoC4/CSD_Sensing.c ****         #if (CSD_ENABLE == CSD_CSX_EN)
1918:Generated_Source\PSoC4/CSD_Sensing.c ****             CSD_SsTrimIdacsSinking();
1919:Generated_Source\PSoC4/CSD_Sensing.c ****             CSD_SsTrimIdacsSourcing();
1920:Generated_Source\PSoC4/CSD_Sensing.c ****         #elif (CSD_IDAC_SINKING == CSD_CSD_IDAC_CONFIG)
1921:Generated_Source\PSoC4/CSD_Sensing.c ****             CSD_SsTrimIdacsSinking();
1922:Generated_Source\PSoC4/CSD_Sensing.c ****         #elif (CSD_IDAC_SOURCING == CSD_CSD_IDAC_CONFIG)
1923:Generated_Source\PSoC4/CSD_Sensing.c ****             CSD_SsTrimIdacsSourcing();
1924:Generated_Source\PSoC4/CSD_Sensing.c ****         #else
1925:Generated_Source\PSoC4/CSD_Sensing.c ****             #error "Not supported Mode, component cannot work in this mode"
1926:Generated_Source\PSoC4/CSD_Sensing.c ****         #endif /* (CSD_ENABLE == CSD_CSX_EN) */
1927:Generated_Source\PSoC4/CSD_Sensing.c ****     }
1928:Generated_Source\PSoC4/CSD_Sensing.c **** #endif  /* (CSD_DISABLE == CSD_CSDV2) */
1929:Generated_Source\PSoC4/CSD_Sensing.c **** 
1930:Generated_Source\PSoC4/CSD_Sensing.c **** 
1931:Generated_Source\PSoC4/CSD_Sensing.c **** #if (CSD_ENABLE == CSD_MULTI_FREQ_SCAN_EN)
1932:Generated_Source\PSoC4/CSD_Sensing.c ****     /*******************************************************************************
1933:Generated_Source\PSoC4/CSD_Sensing.c ****     * Function Name: CSD_SsChangeImoFreq
1934:Generated_Source\PSoC4/CSD_Sensing.c ****     ****************************************************************************//**
1935:Generated_Source\PSoC4/CSD_Sensing.c ****     *
ARM GAS  C:\Users\CHRIST~1\AppData\Local\Temp\ccIPpNky.s 			page 50


1936:Generated_Source\PSoC4/CSD_Sensing.c ****     * \brief
1937:Generated_Source\PSoC4/CSD_Sensing.c ****     *  This function changes the IMO frequency.
1938:Generated_Source\PSoC4/CSD_Sensing.c ****     *
1939:Generated_Source\PSoC4/CSD_Sensing.c ****     * \details
1940:Generated_Source\PSoC4/CSD_Sensing.c ****     *   The IMO frequency can have three offsets: 0%, -5% and +5%. The frequency
1941:Generated_Source\PSoC4/CSD_Sensing.c ****     *   trims are contained in the CSD_immunity[value] array for each
1942:Generated_Source\PSoC4/CSD_Sensing.c ****     *   frequency channel.
1943:Generated_Source\PSoC4/CSD_Sensing.c ****     *
1944:Generated_Source\PSoC4/CSD_Sensing.c ****     * \param value The frequency channel ID.
1945:Generated_Source\PSoC4/CSD_Sensing.c ****     *
1946:Generated_Source\PSoC4/CSD_Sensing.c ****     *******************************************************************************/
1947:Generated_Source\PSoC4/CSD_Sensing.c ****     void CSD_SsChangeImoFreq(uint32 value)
1948:Generated_Source\PSoC4/CSD_Sensing.c ****     {
1949:Generated_Source\PSoC4/CSD_Sensing.c ****         CY_SET_REG32(CY_SYS_CLK_IMO_TRIM1_PTR, CSD_immunity[value]);
1950:Generated_Source\PSoC4/CSD_Sensing.c ****     }
1951:Generated_Source\PSoC4/CSD_Sensing.c **** #endif  /* (CSD_ENABLE == CSD_MULTI_FREQ_SCAN_EN) */
1952:Generated_Source\PSoC4/CSD_Sensing.c **** 
1953:Generated_Source\PSoC4/CSD_Sensing.c **** 
1954:Generated_Source\PSoC4/CSD_Sensing.c **** #if((CSD_ENABLE == CSD_CSD_EN) ||\
1955:Generated_Source\PSoC4/CSD_Sensing.c ****     ((CSD_ENABLE == CSD_CSX_EN) && (CSD_ENABLE == CSD_CSDV2)))
1956:Generated_Source\PSoC4/CSD_Sensing.c **** /*******************************************************************************
1957:Generated_Source\PSoC4/CSD_Sensing.c **** * Function Name: CSD_SsInitializeSourceSenseClk
1958:Generated_Source\PSoC4/CSD_Sensing.c **** ****************************************************************************//**
1959:Generated_Source\PSoC4/CSD_Sensing.c **** *
1960:Generated_Source\PSoC4/CSD_Sensing.c **** * \brief
1961:Generated_Source\PSoC4/CSD_Sensing.c **** *  Sets a source for Sense Clk for all CSD widgets.
1962:Generated_Source\PSoC4/CSD_Sensing.c **** *
1963:Generated_Source\PSoC4/CSD_Sensing.c **** * \details
1964:Generated_Source\PSoC4/CSD_Sensing.c **** *  Updates snsClkSource and rowSnsClkSource with a source for the sense Clk.
1965:Generated_Source\PSoC4/CSD_Sensing.c **** *  for all CSD widgets.
1966:Generated_Source\PSoC4/CSD_Sensing.c **** *
1967:Generated_Source\PSoC4/CSD_Sensing.c **** *******************************************************************************/
1968:Generated_Source\PSoC4/CSD_Sensing.c **** void CSD_SsInitializeSourceSenseClk(void)
1969:Generated_Source\PSoC4/CSD_Sensing.c **** {
 836              		.loc 1 1969 0
 837              		.cfi_startproc
 838 0000 80B5     		push	{r7, lr}
 839              		.cfi_def_cfa_offset 8
 840              		.cfi_offset 7, -8
 841              		.cfi_offset 14, -4
 842 0002 82B0     		sub	sp, sp, #8
 843              		.cfi_def_cfa_offset 16
 844 0004 00AF     		add	r7, sp, #0
 845              		.cfi_def_cfa_register 7
1970:Generated_Source\PSoC4/CSD_Sensing.c ****     uint32 wdgtIndex;
1971:Generated_Source\PSoC4/CSD_Sensing.c ****     CSD_RAM_WD_BASE_STRUCT *ptrWdgt;
1972:Generated_Source\PSoC4/CSD_Sensing.c **** 
1973:Generated_Source\PSoC4/CSD_Sensing.c ****     for (wdgtIndex = 0u; wdgtIndex < CSD_TOTAL_WIDGETS; wdgtIndex++)
 846              		.loc 1 1973 0
 847 0006 0023     		mov	r3, #0
 848 0008 7B60     		str	r3, [r7, #4]
 849 000a 11E0     		b	.L57
 850              	.L58:
1974:Generated_Source\PSoC4/CSD_Sensing.c ****     {
1975:Generated_Source\PSoC4/CSD_Sensing.c ****         ptrWdgt = (CSD_RAM_WD_BASE_STRUCT *)CSD_dsFlash.wdgtArray[wdgtIndex].ptr2WdgtRam;
 851              		.loc 1 1975 0
 852 000c 0B49     		ldr	r1, .L59
ARM GAS  C:\Users\CHRIST~1\AppData\Local\Temp\ccIPpNky.s 			page 51


 853 000e 7A68     		ldr	r2, [r7, #4]
 854 0010 131C     		mov	r3, r2
 855 0012 DB00     		lsl	r3, r3, #3
 856 0014 9B1A     		sub	r3, r3, r2
 857 0016 9B00     		lsl	r3, r3, #2
 858 0018 CB18     		add	r3, r1, r3
 859 001a 5B68     		ldr	r3, [r3, #4]
 860 001c 3B60     		str	r3, [r7]
1976:Generated_Source\PSoC4/CSD_Sensing.c ****         if (CSD_SENSE_METHOD_CSD_E ==
1977:Generated_Source\PSoC4/CSD_Sensing.c ****         (CSD_SENSE_METHOD_ENUM)CSD_GET_SENSE_METHOD(&CSD_dsFlash.wdgtArray[wdgtIndex]))
1978:Generated_Source\PSoC4/CSD_Sensing.c ****         {
1979:Generated_Source\PSoC4/CSD_Sensing.c ****             #if (CSD_ENABLE == CSD_CSD_EN)
1980:Generated_Source\PSoC4/CSD_Sensing.c ****                 CSD_SsSetWidgetSenseClkSrc(wdgtIndex, ptrWdgt);
 861              		.loc 1 1980 0
 862 001e 7A68     		ldr	r2, [r7, #4]
 863 0020 3B68     		ldr	r3, [r7]
 864 0022 101C     		mov	r0, r2
 865 0024 191C     		mov	r1, r3
 866 0026 FFF7FEFF 		bl	CSD_SsSetWidgetSenseClkSrc
1973:Generated_Source\PSoC4/CSD_Sensing.c ****     {
 867              		.loc 1 1973 0
 868 002a 7B68     		ldr	r3, [r7, #4]
 869 002c 0133     		add	r3, r3, #1
 870 002e 7B60     		str	r3, [r7, #4]
 871              	.L57:
1973:Generated_Source\PSoC4/CSD_Sensing.c ****     {
 872              		.loc 1 1973 0 is_stmt 0 discriminator 1
 873 0030 7B68     		ldr	r3, [r7, #4]
 874 0032 002B     		cmp	r3, #0
 875 0034 EAD0     		beq	.L58
1981:Generated_Source\PSoC4/CSD_Sensing.c ****             #endif /* (CSD_ENABLE == CSD_CSD_EN) */
1982:Generated_Source\PSoC4/CSD_Sensing.c ****         }
1983:Generated_Source\PSoC4/CSD_Sensing.c ****         else
1984:Generated_Source\PSoC4/CSD_Sensing.c ****         {
1985:Generated_Source\PSoC4/CSD_Sensing.c ****             #if ((CSD_ENABLE == CSD_CSX_EN) && (CSD_ENABLE == CSD_CSDV2))
1986:Generated_Source\PSoC4/CSD_Sensing.c ****                 CSD_SsSetWidgetTxClkSrc(wdgtIndex, ptrWdgt);
1987:Generated_Source\PSoC4/CSD_Sensing.c ****             #endif /* ((CSD_ENABLE == CSD_CSX_EN) && (CSD_ENABLE == CSD_CSDV2)) */
1988:Generated_Source\PSoC4/CSD_Sensing.c ****         }
1989:Generated_Source\PSoC4/CSD_Sensing.c ****     }
1990:Generated_Source\PSoC4/CSD_Sensing.c **** }
 876              		.loc 1 1990 0 is_stmt 1
 877 0036 BD46     		mov	sp, r7
 878 0038 02B0     		add	sp, sp, #8
 879              		@ sp needed
 880 003a 80BD     		pop	{r7, pc}
 881              	.L60:
 882              		.align	2
 883              	.L59:
 884 003c 00000000 		.word	CSD_dsFlash
 885              		.cfi_endproc
 886              	.LFE14:
 887              		.size	CSD_SsInitializeSourceSenseClk, .-CSD_SsInitializeSourceSenseClk
 888              		.section	.text.CSD_SsSetWidgetSenseClkSrc,"ax",%progbits
 889              		.align	2
 890              		.global	CSD_SsSetWidgetSenseClkSrc
 891              		.code	16
 892              		.thumb_func
ARM GAS  C:\Users\CHRIST~1\AppData\Local\Temp\ccIPpNky.s 			page 52


 893              		.type	CSD_SsSetWidgetSenseClkSrc, %function
 894              	CSD_SsSetWidgetSenseClkSrc:
 895              	.LFB15:
1991:Generated_Source\PSoC4/CSD_Sensing.c **** #endif /* ((CSD_ENABLE == CSD_CSD_EN) ||\
1992:Generated_Source\PSoC4/CSD_Sensing.c ****            ((CSD_ENABLE == CSD_CSX_EN) && (CSD_ENABLE == CSD_CSDV2))) */
1993:Generated_Source\PSoC4/CSD_Sensing.c **** 
1994:Generated_Source\PSoC4/CSD_Sensing.c **** 
1995:Generated_Source\PSoC4/CSD_Sensing.c **** #if (CSD_ENABLE == CSD_CSD_EN)
1996:Generated_Source\PSoC4/CSD_Sensing.c ****     /*******************************************************************************
1997:Generated_Source\PSoC4/CSD_Sensing.c ****     * Function Name: CSD_SsSetWidgetSenseClkSrc
1998:Generated_Source\PSoC4/CSD_Sensing.c ****     ****************************************************************************//**
1999:Generated_Source\PSoC4/CSD_Sensing.c ****     *
2000:Generated_Source\PSoC4/CSD_Sensing.c ****     * \brief
2001:Generated_Source\PSoC4/CSD_Sensing.c ****     *  Sets a source for the sense clock for a widget.
2002:Generated_Source\PSoC4/CSD_Sensing.c ****     *
2003:Generated_Source\PSoC4/CSD_Sensing.c ****     * \param wdgtIndex
2004:Generated_Source\PSoC4/CSD_Sensing.c ****     *   Specifies the ID of the widget.
2005:Generated_Source\PSoC4/CSD_Sensing.c ****     * \param ptrWdgt
2006:Generated_Source\PSoC4/CSD_Sensing.c ****     *   The pointer to the RAM_WD_BASE_STRUCT structure.
2007:Generated_Source\PSoC4/CSD_Sensing.c ****     *
2008:Generated_Source\PSoC4/CSD_Sensing.c ****     * \details
2009:Generated_Source\PSoC4/CSD_Sensing.c ****     *  Updates snsClkSource and rowSnsClkSource with a source for the sense Clk for a
2010:Generated_Source\PSoC4/CSD_Sensing.c ****     *  widget.
2011:Generated_Source\PSoC4/CSD_Sensing.c ****     *
2012:Generated_Source\PSoC4/CSD_Sensing.c ****     *******************************************************************************/
2013:Generated_Source\PSoC4/CSD_Sensing.c ****     void CSD_SsSetWidgetSenseClkSrc(uint32 wdgtIndex, CSD_RAM_WD_BASE_STRUCT * ptrWdgt)
2014:Generated_Source\PSoC4/CSD_Sensing.c ****     {
 896              		.loc 1 2014 0
 897              		.cfi_startproc
 898 0000 80B5     		push	{r7, lr}
 899              		.cfi_def_cfa_offset 8
 900              		.cfi_offset 7, -8
 901              		.cfi_offset 14, -4
 902 0002 84B0     		sub	sp, sp, #16
 903              		.cfi_def_cfa_offset 24
 904 0004 00AF     		add	r7, sp, #0
 905              		.cfi_def_cfa_register 7
 906 0006 7860     		str	r0, [r7, #4]
 907 0008 3960     		str	r1, [r7]
2015:Generated_Source\PSoC4/CSD_Sensing.c ****         uint8 lfsrSize;
2016:Generated_Source\PSoC4/CSD_Sensing.c ****         uint8 lfsrScale;
2017:Generated_Source\PSoC4/CSD_Sensing.c **** 
2018:Generated_Source\PSoC4/CSD_Sensing.c ****         #if(CSD_CLK_SOURCE_PRSAUTO == CSD_CSD_SNS_CLK_SOURCE)
2019:Generated_Source\PSoC4/CSD_Sensing.c ****             #if(CSD_ENABLE == CSD_CSDV2)
2020:Generated_Source\PSoC4/CSD_Sensing.c ****                 uint32 conversionsNum;
2021:Generated_Source\PSoC4/CSD_Sensing.c ****                 uint32 sampleClkDivider;
2022:Generated_Source\PSoC4/CSD_Sensing.c ****             #endif /* (CSD_ENABLE == CSD_CSDV2) */
2023:Generated_Source\PSoC4/CSD_Sensing.c ****             uint32 snsClkDivider;
2024:Generated_Source\PSoC4/CSD_Sensing.c ****         #endif /* (CSD_CLK_SOURCE_PRSAUTO == CSD_CSD_SNS_CLK_SOURCE) */
2025:Generated_Source\PSoC4/CSD_Sensing.c **** 
2026:Generated_Source\PSoC4/CSD_Sensing.c ****         #if(CSD_CLK_SOURCE_PRSAUTO == CSD_CSD_SNS_CLK_SOURCE)
2027:Generated_Source\PSoC4/CSD_Sensing.c ****             snsClkDivider = CSD_SsCSDGetColSnsClkDivider(wdgtIndex);
2028:Generated_Source\PSoC4/CSD_Sensing.c **** 
2029:Generated_Source\PSoC4/CSD_Sensing.c ****             #if(CSD_ENABLE == CSD_CSDV2)
2030:Generated_Source\PSoC4/CSD_Sensing.c ****                 sampleClkDivider = CSD_dsRam.modCsdClk;
2031:Generated_Source\PSoC4/CSD_Sensing.c ****                 conversionsNum = CSD_SsCSDGetNumberOfConversions(snsClkDivider, (uint32)ptrWdgt->re
2032:Generated_Source\PSoC4/CSD_Sensing.c ****                 lfsrSize = CSD_SsCalcLfsrSize(sampleClkDivider, snsClkDivider, conversionsNum);
ARM GAS  C:\Users\CHRIST~1\AppData\Local\Temp\ccIPpNky.s 			page 53


2033:Generated_Source\PSoC4/CSD_Sensing.c ****                 if (CSD_CLK_SOURCE_DIRECT == lfsrSize)
2034:Generated_Source\PSoC4/CSD_Sensing.c ****                 {
2035:Generated_Source\PSoC4/CSD_Sensing.c ****                     lfsrSize = CSD_SsCSDCalcPrsSize(snsClkDivider, (uint32)ptrWdgt->resolution);
2036:Generated_Source\PSoC4/CSD_Sensing.c ****                 }
2037:Generated_Source\PSoC4/CSD_Sensing.c ****                 lfsrScale = CSD_SsCalcLfsrScale(snsClkDivider, lfsrSize);
2038:Generated_Source\PSoC4/CSD_Sensing.c ****             #else
2039:Generated_Source\PSoC4/CSD_Sensing.c ****                 lfsrSize = CSD_SsCSDCalcPrsSize(snsClkDivider, (uint32)ptrWdgt->resolution);
2040:Generated_Source\PSoC4/CSD_Sensing.c ****                 lfsrScale = 0u;
2041:Generated_Source\PSoC4/CSD_Sensing.c ****             #endif /* (CSD_ENABLE == CSD_CSDV2) */
2042:Generated_Source\PSoC4/CSD_Sensing.c ****         #else
2043:Generated_Source\PSoC4/CSD_Sensing.c ****             lfsrSize = (uint8)CSD_DEFAULT_MODULATION_MODE;
 908              		.loc 1 2043 0
 909 000a 0F23     		mov	r3, #15
 910 000c FB18     		add	r3, r7, r3
 911 000e 0022     		mov	r2, #0
 912 0010 1A70     		strb	r2, [r3]
2044:Generated_Source\PSoC4/CSD_Sensing.c ****             lfsrScale = 0u;
 913              		.loc 1 2044 0
 914 0012 0E23     		mov	r3, #14
 915 0014 FB18     		add	r3, r7, r3
 916 0016 0022     		mov	r2, #0
 917 0018 1A70     		strb	r2, [r3]
2045:Generated_Source\PSoC4/CSD_Sensing.c ****         #endif /* (CSD_CLK_SOURCE_PRSAUTO == CSD_CSD_SNS_CLK_SOURCE) */
2046:Generated_Source\PSoC4/CSD_Sensing.c **** 
2047:Generated_Source\PSoC4/CSD_Sensing.c ****         ptrWdgt->snsClkSource = lfsrSize | (uint8)(lfsrScale << CSD_CLK_SOURCE_LFSR_SCALE_OFFSET);
 918              		.loc 1 2047 0
 919 001a 0E23     		mov	r3, #14
 920 001c FB18     		add	r3, r7, r3
 921 001e 1B78     		ldrb	r3, [r3]
 922 0020 1B01     		lsl	r3, r3, #4
 923 0022 DAB2     		uxtb	r2, r3
 924 0024 0F23     		mov	r3, #15
 925 0026 FB18     		add	r3, r7, r3
 926 0028 1B78     		ldrb	r3, [r3]
 927 002a 1343     		orr	r3, r2
 928 002c DAB2     		uxtb	r2, r3
 929 002e 3B68     		ldr	r3, [r7]
 930 0030 1A73     		strb	r2, [r3, #12]
2048:Generated_Source\PSoC4/CSD_Sensing.c **** 
2049:Generated_Source\PSoC4/CSD_Sensing.c ****         #if (CSD_ENABLE == (CSD_CSD_MATRIX_WIDGET_EN | CSD_CSD_TOUCHPAD_WIDGET_EN))
2050:Generated_Source\PSoC4/CSD_Sensing.c ****             if ((CSD_WD_TOUCHPAD_E == (CSD_WD_TYPE_ENUM)CSD_dsFlash.wdgtArray[wdgtIndex].wdgtType) 
2051:Generated_Source\PSoC4/CSD_Sensing.c ****                 (CSD_WD_MATRIX_BUTTON_E == (CSD_WD_TYPE_ENUM)CSD_dsFlash.wdgtArray[wdgtIndex].wdgtT
2052:Generated_Source\PSoC4/CSD_Sensing.c ****             {
2053:Generated_Source\PSoC4/CSD_Sensing.c ****                 #if(CSD_CLK_SOURCE_PRSAUTO == CSD_CSD_SNS_CLK_SOURCE)
2054:Generated_Source\PSoC4/CSD_Sensing.c ****                     snsClkDivider = CSD_SsCSDGetRowSnsClkDivider(wdgtIndex);
2055:Generated_Source\PSoC4/CSD_Sensing.c **** 
2056:Generated_Source\PSoC4/CSD_Sensing.c ****                     #if(CSD_ENABLE == CSD_CSDV2)
2057:Generated_Source\PSoC4/CSD_Sensing.c ****                         lfsrSize = CSD_SsCalcLfsrSize(sampleClkDivider, snsClkDivider, conversionsN
2058:Generated_Source\PSoC4/CSD_Sensing.c ****                         if (CSD_CLK_SOURCE_DIRECT == lfsrSize)
2059:Generated_Source\PSoC4/CSD_Sensing.c ****                         {
2060:Generated_Source\PSoC4/CSD_Sensing.c ****                             lfsrSize = CSD_SsCSDCalcPrsSize(snsClkDivider, (uint32)ptrWdgt->resolut
2061:Generated_Source\PSoC4/CSD_Sensing.c ****                         }
2062:Generated_Source\PSoC4/CSD_Sensing.c ****                         lfsrScale = CSD_SsCalcLfsrScale(snsClkDivider, lfsrSize);
2063:Generated_Source\PSoC4/CSD_Sensing.c ****                     #else
2064:Generated_Source\PSoC4/CSD_Sensing.c ****                         lfsrSize = CSD_SsCSDCalcPrsSize(snsClkDivider, (uint32)ptrWdgt->resolution)
2065:Generated_Source\PSoC4/CSD_Sensing.c ****                         lfsrScale = 0u;
2066:Generated_Source\PSoC4/CSD_Sensing.c ****                     #endif /* (CSD_ENABLE == CSD_CSDV2) */
ARM GAS  C:\Users\CHRIST~1\AppData\Local\Temp\ccIPpNky.s 			page 54


2067:Generated_Source\PSoC4/CSD_Sensing.c ****                 #else
2068:Generated_Source\PSoC4/CSD_Sensing.c ****                     lfsrSize = (uint8)CSD_DEFAULT_MODULATION_MODE;
2069:Generated_Source\PSoC4/CSD_Sensing.c ****                     lfsrScale = 0u;
2070:Generated_Source\PSoC4/CSD_Sensing.c ****                 #endif /* (CSD_CLK_SOURCE_PRSAUTO == CSD_CSD_SNS_CLK_SOURCE) */
2071:Generated_Source\PSoC4/CSD_Sensing.c ****                 ptrWdgt->rowSnsClkSource = lfsrSize | (uint8)(lfsrScale << CSD_CLK_SOURCE_LFSR_SCAL
2072:Generated_Source\PSoC4/CSD_Sensing.c ****             }
2073:Generated_Source\PSoC4/CSD_Sensing.c ****         #endif /* (CSD_ENABLE == (CSD_CSD_MATRIX_WIDGET_EN | CSD_CSD_TOUCHPAD_WIDGET_EN)) */
2074:Generated_Source\PSoC4/CSD_Sensing.c ****     }
 931              		.loc 1 2074 0
 932 0032 BD46     		mov	sp, r7
 933 0034 04B0     		add	sp, sp, #16
 934              		@ sp needed
 935 0036 80BD     		pop	{r7, pc}
 936              		.cfi_endproc
 937              	.LFE15:
 938              		.size	CSD_SsSetWidgetSenseClkSrc, .-CSD_SsSetWidgetSenseClkSrc
 939              		.text
 940              	.Letext0:
 941              		.file 2 "Generated_Source\\PSoC4/cytypes.h"
 942              		.file 3 "Generated_Source\\PSoC4\\CSD_Configuration.h"
 943              		.file 4 "Generated_Source\\PSoC4\\CSD_Structure.h"
 944              		.section	.debug_info,"",%progbits
 945              	.Ldebug_info0:
 946 0000 41090000 		.4byte	0x941
 947 0004 0400     		.2byte	0x4
 948 0006 00000000 		.4byte	.Ldebug_abbrev0
 949 000a 04       		.byte	0x4
 950 000b 01       		.uleb128 0x1
 951 000c C9020000 		.4byte	.LASF124
 952 0010 01       		.byte	0x1
 953 0011 45000000 		.4byte	.LASF125
 954 0015 4E020000 		.4byte	.LASF126
 955 0019 00000000 		.4byte	.Ldebug_ranges0+0
 956 001d 00000000 		.4byte	0
 957 0021 00000000 		.4byte	.Ldebug_line0
 958 0025 02       		.uleb128 0x2
 959 0026 01       		.byte	0x1
 960 0027 06       		.byte	0x6
 961 0028 DC000000 		.4byte	.LASF0
 962 002c 02       		.uleb128 0x2
 963 002d 01       		.byte	0x1
 964 002e 08       		.byte	0x8
 965 002f 0E050000 		.4byte	.LASF1
 966 0033 02       		.uleb128 0x2
 967 0034 02       		.byte	0x2
 968 0035 05       		.byte	0x5
 969 0036 55050000 		.4byte	.LASF2
 970 003a 02       		.uleb128 0x2
 971 003b 02       		.byte	0x2
 972 003c 07       		.byte	0x7
 973 003d 85030000 		.4byte	.LASF3
 974 0041 02       		.uleb128 0x2
 975 0042 04       		.byte	0x4
 976 0043 05       		.byte	0x5
 977 0044 2C010000 		.4byte	.LASF4
 978 0048 02       		.uleb128 0x2
 979 0049 04       		.byte	0x4
ARM GAS  C:\Users\CHRIST~1\AppData\Local\Temp\ccIPpNky.s 			page 55


 980 004a 07       		.byte	0x7
 981 004b 29060000 		.4byte	.LASF5
 982 004f 02       		.uleb128 0x2
 983 0050 08       		.byte	0x8
 984 0051 05       		.byte	0x5
 985 0052 CE000000 		.4byte	.LASF6
 986 0056 02       		.uleb128 0x2
 987 0057 08       		.byte	0x8
 988 0058 07       		.byte	0x7
 989 0059 6A000000 		.4byte	.LASF7
 990 005d 03       		.uleb128 0x3
 991 005e 04       		.byte	0x4
 992 005f 05       		.byte	0x5
 993 0060 696E7400 		.ascii	"int\000"
 994 0064 02       		.uleb128 0x2
 995 0065 04       		.byte	0x4
 996 0066 07       		.byte	0x7
 997 0067 28020000 		.4byte	.LASF8
 998 006b 04       		.uleb128 0x4
 999 006c 64010000 		.4byte	.LASF9
 1000 0070 02       		.byte	0x2
 1001 0071 9801     		.2byte	0x198
 1002 0073 2C000000 		.4byte	0x2c
 1003 0077 04       		.uleb128 0x4
 1004 0078 00000000 		.4byte	.LASF10
 1005 007c 02       		.byte	0x2
 1006 007d 9901     		.2byte	0x199
 1007 007f 3A000000 		.4byte	0x3a
 1008 0083 04       		.uleb128 0x4
 1009 0084 E7010000 		.4byte	.LASF11
 1010 0088 02       		.byte	0x2
 1011 0089 9A01     		.2byte	0x19a
 1012 008b 48000000 		.4byte	0x48
 1013 008f 02       		.uleb128 0x2
 1014 0090 04       		.byte	0x4
 1015 0091 04       		.byte	0x4
 1016 0092 A7040000 		.4byte	.LASF12
 1017 0096 02       		.uleb128 0x2
 1018 0097 08       		.byte	0x8
 1019 0098 04       		.byte	0x4
 1020 0099 96010000 		.4byte	.LASF13
 1021 009d 02       		.uleb128 0x2
 1022 009e 01       		.byte	0x1
 1023 009f 08       		.byte	0x8
 1024 00a0 3B060000 		.4byte	.LASF14
 1025 00a4 04       		.uleb128 0x4
 1026 00a5 24070000 		.4byte	.LASF15
 1027 00a9 02       		.byte	0x2
 1028 00aa 3A02     		.2byte	0x23a
 1029 00ac 48000000 		.4byte	0x48
 1030 00b0 05       		.uleb128 0x5
 1031 00b1 6B000000 		.4byte	0x6b
 1032 00b5 04       		.uleb128 0x4
 1033 00b6 F1030000 		.4byte	.LASF16
 1034 00ba 02       		.byte	0x2
 1035 00bb 4402     		.2byte	0x244
 1036 00bd C1000000 		.4byte	0xc1
ARM GAS  C:\Users\CHRIST~1\AppData\Local\Temp\ccIPpNky.s 			page 56


 1037 00c1 05       		.uleb128 0x5
 1038 00c2 83000000 		.4byte	0x83
 1039 00c6 04       		.uleb128 0x4
 1040 00c7 40060000 		.4byte	.LASF17
 1041 00cb 02       		.byte	0x2
 1042 00cc 5402     		.2byte	0x254
 1043 00ce D2000000 		.4byte	0xd2
 1044 00d2 06       		.uleb128 0x6
 1045 00d3 04       		.byte	0x4
 1046 00d4 D8000000 		.4byte	0xd8
 1047 00d8 07       		.uleb128 0x7
 1048 00d9 02       		.uleb128 0x2
 1049 00da 04       		.byte	0x4
 1050 00db 07       		.byte	0x7
 1051 00dc 47040000 		.4byte	.LASF18
 1052 00e0 08       		.uleb128 0x8
 1053 00e1 04       		.byte	0x4
 1054 00e2 09       		.uleb128 0x9
 1055 00e3 EE010000 		.4byte	.LASF19
 1056 00e7 03       		.byte	0x3
 1057 00e8 D8       		.byte	0xd8
 1058 00e9 77000000 		.4byte	0x77
 1059 00ed 09       		.uleb128 0x9
 1060 00ee B3020000 		.4byte	.LASF20
 1061 00f2 03       		.byte	0x3
 1062 00f3 DC       		.byte	0xdc
 1063 00f4 6B000000 		.4byte	0x6b
 1064 00f8 0A       		.uleb128 0xa
 1065 00f9 01       		.byte	0x1
 1066 00fa 04       		.byte	0x4
 1067 00fb 5D       		.byte	0x5d
 1068 00fc 13010000 		.4byte	0x113
 1069 0100 0B       		.uleb128 0xb
 1070 0101 96050000 		.4byte	.LASF21
 1071 0105 00       		.sleb128 0
 1072 0106 0B       		.uleb128 0xb
 1073 0107 5B030000 		.4byte	.LASF22
 1074 010b 01       		.sleb128 1
 1075 010c 0B       		.uleb128 0xb
 1076 010d 02060000 		.4byte	.LASF23
 1077 0111 02       		.sleb128 2
 1078 0112 00       		.byte	0
 1079 0113 09       		.uleb128 0x9
 1080 0114 29040000 		.4byte	.LASF24
 1081 0118 04       		.byte	0x4
 1082 0119 61       		.byte	0x61
 1083 011a F8000000 		.4byte	0xf8
 1084 011e 0C       		.uleb128 0xc
 1085 011f 0E       		.byte	0xe
 1086 0120 04       		.byte	0x4
 1087 0121 7B       		.byte	0x7b
 1088 0122 AB010000 		.4byte	0x1ab
 1089 0126 0D       		.uleb128 0xd
 1090 0127 BA050000 		.4byte	.LASF25
 1091 012b 04       		.byte	0x4
 1092 012c 81       		.byte	0x81
 1093 012d 77000000 		.4byte	0x77
ARM GAS  C:\Users\CHRIST~1\AppData\Local\Temp\ccIPpNky.s 			page 57


 1094 0131 00       		.byte	0
 1095 0132 0D       		.uleb128 0xd
 1096 0133 3F070000 		.4byte	.LASF26
 1097 0137 04       		.byte	0x4
 1098 0138 86       		.byte	0x86
 1099 0139 E2000000 		.4byte	0xe2
 1100 013d 02       		.byte	0x2
 1101 013e 0D       		.uleb128 0xd
 1102 013f 9B070000 		.4byte	.LASF27
 1103 0143 04       		.byte	0x4
 1104 0144 8B       		.byte	0x8b
 1105 0145 6B000000 		.4byte	0x6b
 1106 0149 04       		.byte	0x4
 1107 014a 0D       		.uleb128 0xd
 1108 014b 65040000 		.4byte	.LASF28
 1109 014f 04       		.byte	0x4
 1110 0150 90       		.byte	0x90
 1111 0151 6B000000 		.4byte	0x6b
 1112 0155 05       		.byte	0x5
 1113 0156 0D       		.uleb128 0xd
 1114 0157 03050000 		.4byte	.LASF29
 1115 015b 04       		.byte	0x4
 1116 015c 95       		.byte	0x95
 1117 015d 6B000000 		.4byte	0x6b
 1118 0161 06       		.byte	0x6
 1119 0162 0D       		.uleb128 0xd
 1120 0163 5A060000 		.4byte	.LASF30
 1121 0167 04       		.byte	0x4
 1122 0168 9A       		.byte	0x9a
 1123 0169 6B000000 		.4byte	0x6b
 1124 016d 07       		.byte	0x7
 1125 016e 0D       		.uleb128 0xd
 1126 016f 72030000 		.4byte	.LASF31
 1127 0173 04       		.byte	0x4
 1128 0174 A0       		.byte	0xa0
 1129 0175 ED000000 		.4byte	0xed
 1130 0179 08       		.byte	0x8
 1131 017a 0D       		.uleb128 0xd
 1132 017b E0040000 		.4byte	.LASF32
 1133 017f 04       		.byte	0x4
 1134 0180 A5       		.byte	0xa5
 1135 0181 6B000000 		.4byte	0x6b
 1136 0185 09       		.byte	0x9
 1137 0186 0D       		.uleb128 0xd
 1138 0187 21040000 		.4byte	.LASF33
 1139 018b 04       		.byte	0x4
 1140 018c AC       		.byte	0xac
 1141 018d AB010000 		.4byte	0x1ab
 1142 0191 0A       		.byte	0xa
 1143 0192 0D       		.uleb128 0xd
 1144 0193 53060000 		.4byte	.LASF34
 1145 0197 04       		.byte	0x4
 1146 0198 B3       		.byte	0xb3
 1147 0199 6B000000 		.4byte	0x6b
 1148 019d 0B       		.byte	0xb
 1149 019e 0D       		.uleb128 0xd
 1150 019f 17070000 		.4byte	.LASF35
ARM GAS  C:\Users\CHRIST~1\AppData\Local\Temp\ccIPpNky.s 			page 58


 1151 01a3 04       		.byte	0x4
 1152 01a4 B8       		.byte	0xb8
 1153 01a5 6B000000 		.4byte	0x6b
 1154 01a9 0C       		.byte	0xc
 1155 01aa 00       		.byte	0
 1156 01ab 0E       		.uleb128 0xe
 1157 01ac 6B000000 		.4byte	0x6b
 1158 01b0 BB010000 		.4byte	0x1bb
 1159 01b4 0F       		.uleb128 0xf
 1160 01b5 D9000000 		.4byte	0xd9
 1161 01b9 00       		.byte	0
 1162 01ba 00       		.byte	0
 1163 01bb 09       		.uleb128 0x9
 1164 01bc DA030000 		.4byte	.LASF36
 1165 01c0 04       		.byte	0x4
 1166 01c1 B9       		.byte	0xb9
 1167 01c2 1E010000 		.4byte	0x11e
 1168 01c6 0C       		.uleb128 0xc
 1169 01c7 0E       		.byte	0xe
 1170 01c8 04       		.byte	0x4
 1171 01c9 BE       		.byte	0xbe
 1172 01ca 53020000 		.4byte	0x253
 1173 01ce 0D       		.uleb128 0xd
 1174 01cf BA050000 		.4byte	.LASF25
 1175 01d3 04       		.byte	0x4
 1176 01d4 C4       		.byte	0xc4
 1177 01d5 77000000 		.4byte	0x77
 1178 01d9 00       		.byte	0
 1179 01da 0D       		.uleb128 0xd
 1180 01db 3F070000 		.4byte	.LASF26
 1181 01df 04       		.byte	0x4
 1182 01e0 C9       		.byte	0xc9
 1183 01e1 E2000000 		.4byte	0xe2
 1184 01e5 02       		.byte	0x2
 1185 01e6 0D       		.uleb128 0xd
 1186 01e7 9B070000 		.4byte	.LASF27
 1187 01eb 04       		.byte	0x4
 1188 01ec CE       		.byte	0xce
 1189 01ed 6B000000 		.4byte	0x6b
 1190 01f1 04       		.byte	0x4
 1191 01f2 0D       		.uleb128 0xd
 1192 01f3 65040000 		.4byte	.LASF28
 1193 01f7 04       		.byte	0x4
 1194 01f8 D3       		.byte	0xd3
 1195 01f9 6B000000 		.4byte	0x6b
 1196 01fd 05       		.byte	0x5
 1197 01fe 0D       		.uleb128 0xd
 1198 01ff 03050000 		.4byte	.LASF29
 1199 0203 04       		.byte	0x4
 1200 0204 D8       		.byte	0xd8
 1201 0205 6B000000 		.4byte	0x6b
 1202 0209 06       		.byte	0x6
 1203 020a 0D       		.uleb128 0xd
 1204 020b 5A060000 		.4byte	.LASF30
 1205 020f 04       		.byte	0x4
 1206 0210 DD       		.byte	0xdd
 1207 0211 6B000000 		.4byte	0x6b
ARM GAS  C:\Users\CHRIST~1\AppData\Local\Temp\ccIPpNky.s 			page 59


 1208 0215 07       		.byte	0x7
 1209 0216 0D       		.uleb128 0xd
 1210 0217 72030000 		.4byte	.LASF31
 1211 021b 04       		.byte	0x4
 1212 021c E3       		.byte	0xe3
 1213 021d ED000000 		.4byte	0xed
 1214 0221 08       		.byte	0x8
 1215 0222 0D       		.uleb128 0xd
 1216 0223 E0040000 		.4byte	.LASF32
 1217 0227 04       		.byte	0x4
 1218 0228 E8       		.byte	0xe8
 1219 0229 6B000000 		.4byte	0x6b
 1220 022d 09       		.byte	0x9
 1221 022e 0D       		.uleb128 0xd
 1222 022f 21040000 		.4byte	.LASF33
 1223 0233 04       		.byte	0x4
 1224 0234 EF       		.byte	0xef
 1225 0235 AB010000 		.4byte	0x1ab
 1226 0239 0A       		.byte	0xa
 1227 023a 0D       		.uleb128 0xd
 1228 023b 53060000 		.4byte	.LASF34
 1229 023f 04       		.byte	0x4
 1230 0240 F6       		.byte	0xf6
 1231 0241 6B000000 		.4byte	0x6b
 1232 0245 0B       		.byte	0xb
 1233 0246 0D       		.uleb128 0xd
 1234 0247 17070000 		.4byte	.LASF35
 1235 024b 04       		.byte	0x4
 1236 024c FB       		.byte	0xfb
 1237 024d 6B000000 		.4byte	0x6b
 1238 0251 0C       		.byte	0xc
 1239 0252 00       		.byte	0
 1240 0253 09       		.uleb128 0x9
 1241 0254 65060000 		.4byte	.LASF37
 1242 0258 04       		.byte	0x4
 1243 0259 FC       		.byte	0xfc
 1244 025a C6010000 		.4byte	0x1c6
 1245 025e 10       		.uleb128 0x10
 1246 025f 0E       		.byte	0xe
 1247 0260 04       		.byte	0x4
 1248 0261 0201     		.2byte	0x102
 1249 0263 75020000 		.4byte	0x275
 1250 0267 11       		.uleb128 0x11
 1251 0268 F4000000 		.4byte	.LASF38
 1252 026c 04       		.byte	0x4
 1253 026d 0701     		.2byte	0x107
 1254 026f 53020000 		.4byte	0x253
 1255 0273 00       		.byte	0
 1256 0274 00       		.byte	0
 1257 0275 04       		.uleb128 0x4
 1258 0276 1C050000 		.4byte	.LASF39
 1259 027a 04       		.byte	0x4
 1260 027b 0801     		.2byte	0x108
 1261 027d 5E020000 		.4byte	0x25e
 1262 0281 10       		.uleb128 0x10
 1263 0282 0A       		.byte	0xa
 1264 0283 04       		.byte	0x4
ARM GAS  C:\Users\CHRIST~1\AppData\Local\Temp\ccIPpNky.s 			page 60


 1265 0284 0E01     		.2byte	0x10e
 1266 0286 D9020000 		.4byte	0x2d9
 1267 028a 12       		.uleb128 0x12
 1268 028b 72617700 		.ascii	"raw\000"
 1269 028f 04       		.byte	0x4
 1270 0290 1301     		.2byte	0x113
 1271 0292 D9020000 		.4byte	0x2d9
 1272 0296 00       		.byte	0
 1273 0297 11       		.uleb128 0x11
 1274 0298 23020000 		.4byte	.LASF40
 1275 029c 04       		.byte	0x4
 1276 029d 1801     		.2byte	0x118
 1277 029f D9020000 		.4byte	0x2d9
 1278 02a3 02       		.byte	0x2
 1279 02a4 11       		.uleb128 0x11
 1280 02a5 06020000 		.4byte	.LASF41
 1281 02a9 04       		.byte	0x4
 1282 02aa 1E01     		.2byte	0x11e
 1283 02ac AB010000 		.4byte	0x1ab
 1284 02b0 04       		.byte	0x4
 1285 02b1 11       		.uleb128 0x11
 1286 02b2 7E060000 		.4byte	.LASF42
 1287 02b6 04       		.byte	0x4
 1288 02b7 2401     		.2byte	0x124
 1289 02b9 AB010000 		.4byte	0x1ab
 1290 02bd 05       		.byte	0x5
 1291 02be 11       		.uleb128 0x11
 1292 02bf 8E000000 		.4byte	.LASF43
 1293 02c3 04       		.byte	0x4
 1294 02c4 2901     		.2byte	0x129
 1295 02c6 E2000000 		.4byte	0xe2
 1296 02ca 06       		.byte	0x6
 1297 02cb 11       		.uleb128 0x11
 1298 02cc 87060000 		.4byte	.LASF44
 1299 02d0 04       		.byte	0x4
 1300 02d1 2E01     		.2byte	0x12e
 1301 02d3 E9020000 		.4byte	0x2e9
 1302 02d7 08       		.byte	0x8
 1303 02d8 00       		.byte	0
 1304 02d9 0E       		.uleb128 0xe
 1305 02da 77000000 		.4byte	0x77
 1306 02de E9020000 		.4byte	0x2e9
 1307 02e2 0F       		.uleb128 0xf
 1308 02e3 D9000000 		.4byte	0xd9
 1309 02e7 00       		.byte	0
 1310 02e8 00       		.byte	0
 1311 02e9 0E       		.uleb128 0xe
 1312 02ea ED000000 		.4byte	0xed
 1313 02ee F9020000 		.4byte	0x2f9
 1314 02f2 0F       		.uleb128 0xf
 1315 02f3 D9000000 		.4byte	0xd9
 1316 02f7 00       		.byte	0
 1317 02f8 00       		.byte	0
 1318 02f9 04       		.uleb128 0x4
 1319 02fa 83010000 		.4byte	.LASF45
 1320 02fe 04       		.byte	0x4
 1321 02ff 2F01     		.2byte	0x12f
ARM GAS  C:\Users\CHRIST~1\AppData\Local\Temp\ccIPpNky.s 			page 61


 1322 0301 81020000 		.4byte	0x281
 1323 0305 10       		.uleb128 0x10
 1324 0306 14       		.byte	0x14
 1325 0307 04       		.byte	0x4
 1326 0308 3501     		.2byte	0x135
 1327 030a 1C030000 		.4byte	0x31c
 1328 030e 11       		.uleb128 0x11
 1329 030f F4000000 		.4byte	.LASF38
 1330 0313 04       		.byte	0x4
 1331 0314 3A01     		.2byte	0x13a
 1332 0316 1C030000 		.4byte	0x31c
 1333 031a 00       		.byte	0
 1334 031b 00       		.byte	0
 1335 031c 0E       		.uleb128 0xe
 1336 031d F9020000 		.4byte	0x2f9
 1337 0321 2C030000 		.4byte	0x32c
 1338 0325 0F       		.uleb128 0xf
 1339 0326 D9000000 		.4byte	0xd9
 1340 032a 01       		.byte	0x1
 1341 032b 00       		.byte	0
 1342 032c 04       		.uleb128 0x4
 1343 032d EA050000 		.4byte	.LASF46
 1344 0331 04       		.byte	0x4
 1345 0332 3B01     		.2byte	0x13b
 1346 0334 05030000 		.4byte	0x305
 1347 0338 10       		.uleb128 0x10
 1348 0339 44       		.byte	0x44
 1349 033a 04       		.byte	0x4
 1350 033b 4101     		.2byte	0x141
 1351 033d 12040000 		.4byte	0x412
 1352 0341 11       		.uleb128 0x11
 1353 0342 AA030000 		.4byte	.LASF47
 1354 0346 04       		.byte	0x4
 1355 0347 4701     		.2byte	0x147
 1356 0349 77000000 		.4byte	0x77
 1357 034d 00       		.byte	0
 1358 034e 11       		.uleb128 0x11
 1359 034f CA030000 		.4byte	.LASF48
 1360 0353 04       		.byte	0x4
 1361 0354 4C01     		.2byte	0x14c
 1362 0356 77000000 		.4byte	0x77
 1363 035a 02       		.byte	0x2
 1364 035b 11       		.uleb128 0x11
 1365 035c 9E040000 		.4byte	.LASF49
 1366 0360 04       		.byte	0x4
 1367 0361 5201     		.2byte	0x152
 1368 0363 77000000 		.4byte	0x77
 1369 0367 04       		.byte	0x4
 1370 0368 11       		.uleb128 0x11
 1371 0369 77040000 		.4byte	.LASF50
 1372 036d 04       		.byte	0x4
 1373 036e 5701     		.2byte	0x157
 1374 0370 77000000 		.4byte	0x77
 1375 0374 06       		.byte	0x6
 1376 0375 11       		.uleb128 0x11
 1377 0376 BC060000 		.4byte	.LASF51
 1378 037a 04       		.byte	0x4
ARM GAS  C:\Users\CHRIST~1\AppData\Local\Temp\ccIPpNky.s 			page 62


 1379 037b 5C01     		.2byte	0x15c
 1380 037d 83000000 		.4byte	0x83
 1381 0381 08       		.byte	0x8
 1382 0382 11       		.uleb128 0x11
 1383 0383 D4060000 		.4byte	.LASF52
 1384 0387 04       		.byte	0x4
 1385 0388 6101     		.2byte	0x161
 1386 038a 12040000 		.4byte	0x412
 1387 038e 0C       		.byte	0xc
 1388 038f 11       		.uleb128 0x11
 1389 0390 0E020000 		.4byte	.LASF53
 1390 0394 04       		.byte	0x4
 1391 0395 6601     		.2byte	0x166
 1392 0397 12040000 		.4byte	0x412
 1393 039b 10       		.byte	0x10
 1394 039c 11       		.uleb128 0x11
 1395 039d 22010000 		.4byte	.LASF54
 1396 03a1 04       		.byte	0x4
 1397 03a2 7401     		.2byte	0x174
 1398 03a4 AB010000 		.4byte	0x1ab
 1399 03a8 14       		.byte	0x14
 1400 03a9 11       		.uleb128 0x11
 1401 03aa B3030000 		.4byte	.LASF55
 1402 03ae 04       		.byte	0x4
 1403 03af 7901     		.2byte	0x179
 1404 03b1 77000000 		.4byte	0x77
 1405 03b5 16       		.byte	0x16
 1406 03b6 11       		.uleb128 0x11
 1407 03b7 35010000 		.4byte	.LASF56
 1408 03bb 04       		.byte	0x4
 1409 03bc 7E01     		.2byte	0x17e
 1410 03be 6B000000 		.4byte	0x6b
 1411 03c2 18       		.byte	0x18
 1412 03c3 11       		.uleb128 0x11
 1413 03c4 D8050000 		.4byte	.LASF57
 1414 03c8 04       		.byte	0x4
 1415 03c9 8301     		.2byte	0x183
 1416 03cb 75020000 		.4byte	0x275
 1417 03cf 1A       		.byte	0x1a
 1418 03d0 11       		.uleb128 0x11
 1419 03d1 98030000 		.4byte	.LASF58
 1420 03d5 04       		.byte	0x4
 1421 03d6 8801     		.2byte	0x188
 1422 03d8 2C030000 		.4byte	0x32c
 1423 03dc 28       		.byte	0x28
 1424 03dd 11       		.uleb128 0x11
 1425 03de 3E020000 		.4byte	.LASF59
 1426 03e2 04       		.byte	0x4
 1427 03e3 8D01     		.2byte	0x18d
 1428 03e5 6B000000 		.4byte	0x6b
 1429 03e9 3C       		.byte	0x3c
 1430 03ea 11       		.uleb128 0x11
 1431 03eb 9C000000 		.4byte	.LASF60
 1432 03ef 04       		.byte	0x4
 1433 03f0 9201     		.2byte	0x192
 1434 03f2 6B000000 		.4byte	0x6b
 1435 03f6 3D       		.byte	0x3d
ARM GAS  C:\Users\CHRIST~1\AppData\Local\Temp\ccIPpNky.s 			page 63


 1436 03f7 11       		.uleb128 0x11
 1437 03f8 59070000 		.4byte	.LASF61
 1438 03fc 04       		.byte	0x4
 1439 03fd 9701     		.2byte	0x197
 1440 03ff 77000000 		.4byte	0x77
 1441 0403 3E       		.byte	0x3e
 1442 0404 11       		.uleb128 0x11
 1443 0405 BC010000 		.4byte	.LASF62
 1444 0409 04       		.byte	0x4
 1445 040a 9C01     		.2byte	0x19c
 1446 040c D9020000 		.4byte	0x2d9
 1447 0410 40       		.byte	0x40
 1448 0411 00       		.byte	0
 1449 0412 0E       		.uleb128 0xe
 1450 0413 83000000 		.4byte	0x83
 1451 0417 22040000 		.4byte	0x422
 1452 041b 0F       		.uleb128 0xf
 1453 041c D9000000 		.4byte	0xd9
 1454 0420 00       		.byte	0
 1455 0421 00       		.byte	0
 1456 0422 04       		.uleb128 0x4
 1457 0423 AD040000 		.4byte	.LASF63
 1458 0427 04       		.byte	0x4
 1459 0428 9D01     		.2byte	0x19d
 1460 042a 38030000 		.4byte	0x338
 1461 042e 10       		.uleb128 0x10
 1462 042f 1C       		.byte	0x1c
 1463 0430 04       		.byte	0x4
 1464 0431 A301     		.2byte	0x1a3
 1465 0433 AD040000 		.4byte	0x4ad
 1466 0437 11       		.uleb128 0x11
 1467 0438 93000000 		.4byte	.LASF64
 1468 043c 04       		.byte	0x4
 1469 043d A801     		.2byte	0x1a8
 1470 043f AD040000 		.4byte	0x4ad
 1471 0443 00       		.byte	0
 1472 0444 11       		.uleb128 0x11
 1473 0445 53070000 		.4byte	.LASF65
 1474 0449 04       		.byte	0x4
 1475 044a AD01     		.2byte	0x1ad
 1476 044c AD040000 		.4byte	0x4ad
 1477 0450 04       		.byte	0x4
 1478 0451 11       		.uleb128 0x11
 1479 0452 4D060000 		.4byte	.LASF66
 1480 0456 04       		.byte	0x4
 1481 0457 B201     		.2byte	0x1b2
 1482 0459 AD040000 		.4byte	0x4ad
 1483 045d 08       		.byte	0x8
 1484 045e 11       		.uleb128 0x11
 1485 045f 4A010000 		.4byte	.LASF67
 1486 0463 04       		.byte	0x4
 1487 0464 B701     		.2byte	0x1b7
 1488 0466 AD040000 		.4byte	0x4ad
 1489 046a 0C       		.byte	0xc
 1490 046b 11       		.uleb128 0x11
 1491 046c 6C070000 		.4byte	.LASF68
 1492 0470 04       		.byte	0x4
ARM GAS  C:\Users\CHRIST~1\AppData\Local\Temp\ccIPpNky.s 			page 64


 1493 0471 BC01     		.2byte	0x1bc
 1494 0473 83000000 		.4byte	0x83
 1495 0477 10       		.byte	0x10
 1496 0478 11       		.uleb128 0x11
 1497 0479 01020000 		.4byte	.LASF69
 1498 047d 04       		.byte	0x4
 1499 047e C101     		.2byte	0x1c1
 1500 0480 83000000 		.4byte	0x83
 1501 0484 14       		.byte	0x14
 1502 0485 11       		.uleb128 0x11
 1503 0486 8B050000 		.4byte	.LASF70
 1504 048a 04       		.byte	0x4
 1505 048b C601     		.2byte	0x1c6
 1506 048d 6B000000 		.4byte	0x6b
 1507 0491 18       		.byte	0x18
 1508 0492 11       		.uleb128 0x11
 1509 0493 DF010000 		.4byte	.LASF71
 1510 0497 04       		.byte	0x4
 1511 0498 CB01     		.2byte	0x1cb
 1512 049a 6B000000 		.4byte	0x6b
 1513 049e 19       		.byte	0x19
 1514 049f 11       		.uleb128 0x11
 1515 04a0 D9010000 		.4byte	.LASF72
 1516 04a4 04       		.byte	0x4
 1517 04a5 D001     		.2byte	0x1d0
 1518 04a7 6B000000 		.4byte	0x6b
 1519 04ab 1A       		.byte	0x1a
 1520 04ac 00       		.byte	0
 1521 04ad 06       		.uleb128 0x6
 1522 04ae 04       		.byte	0x4
 1523 04af B5000000 		.4byte	0xb5
 1524 04b3 04       		.uleb128 0x4
 1525 04b4 BC040000 		.4byte	.LASF73
 1526 04b8 04       		.byte	0x4
 1527 04b9 D101     		.2byte	0x1d1
 1528 04bb 2E040000 		.4byte	0x42e
 1529 04bf 10       		.uleb128 0x10
 1530 04c0 1C       		.byte	0x1c
 1531 04c1 04       		.byte	0x4
 1532 04c2 FC01     		.2byte	0x1fc
 1533 04c4 3E050000 		.4byte	0x53e
 1534 04c8 11       		.uleb128 0x11
 1535 04c9 81000000 		.4byte	.LASF74
 1536 04cd 04       		.byte	0x4
 1537 04ce 0502     		.2byte	0x205
 1538 04d0 3E050000 		.4byte	0x53e
 1539 04d4 00       		.byte	0
 1540 04d5 11       		.uleb128 0x11
 1541 04d6 BE030000 		.4byte	.LASF75
 1542 04da 04       		.byte	0x4
 1543 04db 0B02     		.2byte	0x20b
 1544 04dd E0000000 		.4byte	0xe0
 1545 04e1 04       		.byte	0x4
 1546 04e2 11       		.uleb128 0x11
 1547 04e3 3F010000 		.4byte	.LASF76
 1548 04e7 04       		.byte	0x4
 1549 04e8 1102     		.2byte	0x211
ARM GAS  C:\Users\CHRIST~1\AppData\Local\Temp\ccIPpNky.s 			page 65


 1550 04ea 45050000 		.4byte	0x545
 1551 04ee 08       		.byte	0x8
 1552 04ef 11       		.uleb128 0x11
 1553 04f0 6B050000 		.4byte	.LASF77
 1554 04f4 04       		.byte	0x4
 1555 04f5 1602     		.2byte	0x216
 1556 04f7 E0000000 		.4byte	0xe0
 1557 04fb 0C       		.byte	0xc
 1558 04fc 11       		.uleb128 0x11
 1559 04fd A1060000 		.4byte	.LASF78
 1560 0501 04       		.byte	0x4
 1561 0502 1D02     		.2byte	0x21d
 1562 0504 4B050000 		.4byte	0x54b
 1563 0508 10       		.byte	0x10
 1564 0509 11       		.uleb128 0x11
 1565 050a 58040000 		.4byte	.LASF79
 1566 050e 04       		.byte	0x4
 1567 050f 2202     		.2byte	0x222
 1568 0511 77000000 		.4byte	0x77
 1569 0515 14       		.byte	0x14
 1570 0516 11       		.uleb128 0x11
 1571 0517 95060000 		.4byte	.LASF80
 1572 051b 04       		.byte	0x4
 1573 051c 2902     		.2byte	0x229
 1574 051e 77000000 		.4byte	0x77
 1575 0522 16       		.byte	0x16
 1576 0523 11       		.uleb128 0x11
 1577 0524 6E040000 		.4byte	.LASF81
 1578 0528 04       		.byte	0x4
 1579 0529 3402     		.2byte	0x234
 1580 052b 6B000000 		.4byte	0x6b
 1581 052f 18       		.byte	0x18
 1582 0530 11       		.uleb128 0x11
 1583 0531 3F040000 		.4byte	.LASF82
 1584 0535 04       		.byte	0x4
 1585 0536 3C02     		.2byte	0x23c
 1586 0538 6B000000 		.4byte	0x6b
 1587 053c 19       		.byte	0x19
 1588 053d 00       		.byte	0
 1589 053e 06       		.uleb128 0x6
 1590 053f 04       		.byte	0x4
 1591 0540 44050000 		.4byte	0x544
 1592 0544 13       		.uleb128 0x13
 1593 0545 06       		.uleb128 0x6
 1594 0546 04       		.byte	0x4
 1595 0547 F9020000 		.4byte	0x2f9
 1596 054b 06       		.uleb128 0x6
 1597 054c 04       		.byte	0x4
 1598 054d 6B000000 		.4byte	0x6b
 1599 0551 04       		.uleb128 0x4
 1600 0552 A6050000 		.4byte	.LASF83
 1601 0556 04       		.byte	0x4
 1602 0557 3D02     		.2byte	0x23d
 1603 0559 BF040000 		.4byte	0x4bf
 1604 055d 10       		.uleb128 0x10
 1605 055e 1C       		.byte	0x1c
 1606 055f 04       		.byte	0x4
ARM GAS  C:\Users\CHRIST~1\AppData\Local\Temp\ccIPpNky.s 			page 66


 1607 0560 4302     		.2byte	0x243
 1608 0562 74050000 		.4byte	0x574
 1609 0566 11       		.uleb128 0x11
 1610 0567 19020000 		.4byte	.LASF84
 1611 056b 04       		.byte	0x4
 1612 056c 4802     		.2byte	0x248
 1613 056e 74050000 		.4byte	0x574
 1614 0572 00       		.byte	0
 1615 0573 00       		.byte	0
 1616 0574 0E       		.uleb128 0xe
 1617 0575 51050000 		.4byte	0x551
 1618 0579 84050000 		.4byte	0x584
 1619 057d 0F       		.uleb128 0xf
 1620 057e D9000000 		.4byte	0xd9
 1621 0582 00       		.byte	0
 1622 0583 00       		.byte	0
 1623 0584 04       		.uleb128 0x4
 1624 0585 C3060000 		.4byte	.LASF85
 1625 0589 04       		.byte	0x4
 1626 058a 4902     		.2byte	0x249
 1627 058c 5D050000 		.4byte	0x55d
 1628 0590 14       		.uleb128 0x14
 1629 0591 48070000 		.4byte	.LASF127
 1630 0595 01       		.byte	0x1
 1631 0596 E6       		.byte	0xe6
 1632 0597 83000000 		.4byte	0x83
 1633 059b 00000000 		.4byte	.LFB1
 1634 059f 1C000000 		.4byte	.LFE1-.LFB1
 1635 05a3 01       		.uleb128 0x1
 1636 05a4 9C       		.byte	0x9c
 1637 05a5 15       		.uleb128 0x15
 1638 05a6 07000000 		.4byte	.LASF86
 1639 05aa 01       		.byte	0x1
 1640 05ab 1601     		.2byte	0x116
 1641 05ad A4000000 		.4byte	0xa4
 1642 05b1 00000000 		.4byte	.LFB2
 1643 05b5 64000000 		.4byte	.LFE2-.LFB2
 1644 05b9 01       		.uleb128 0x1
 1645 05ba 9C       		.byte	0x9c
 1646 05bb DE050000 		.4byte	0x5de
 1647 05bf 16       		.uleb128 0x16
 1648 05c0 A0030000 		.4byte	.LASF91
 1649 05c4 01       		.byte	0x1
 1650 05c5 1601     		.2byte	0x116
 1651 05c7 83000000 		.4byte	0x83
 1652 05cb 02       		.uleb128 0x2
 1653 05cc 91       		.byte	0x91
 1654 05cd 6C       		.sleb128 -20
 1655 05ce 17       		.uleb128 0x17
 1656 05cf 8E070000 		.4byte	.LASF88
 1657 05d3 01       		.byte	0x1
 1658 05d4 1801     		.2byte	0x118
 1659 05d6 A4000000 		.4byte	0xa4
 1660 05da 02       		.uleb128 0x2
 1661 05db 91       		.byte	0x91
 1662 05dc 74       		.sleb128 -12
 1663 05dd 00       		.byte	0
ARM GAS  C:\Users\CHRIST~1\AppData\Local\Temp\ccIPpNky.s 			page 67


 1664 05de 15       		.uleb128 0x15
 1665 05df E1050000 		.4byte	.LASF87
 1666 05e3 01       		.byte	0x1
 1667 05e4 7A01     		.2byte	0x17a
 1668 05e6 A4000000 		.4byte	0xa4
 1669 05ea 00000000 		.4byte	.LFB3
 1670 05ee 30000000 		.4byte	.LFE3-.LFB3
 1671 05f2 01       		.uleb128 0x1
 1672 05f3 9C       		.byte	0x9c
 1673 05f4 08060000 		.4byte	0x608
 1674 05f8 17       		.uleb128 0x17
 1675 05f9 83040000 		.4byte	.LASF89
 1676 05fd 01       		.byte	0x1
 1677 05fe 7C01     		.2byte	0x17c
 1678 0600 A4000000 		.4byte	0xa4
 1679 0604 02       		.uleb128 0x2
 1680 0605 91       		.byte	0x91
 1681 0606 74       		.sleb128 -12
 1682 0607 00       		.byte	0
 1683 0608 15       		.uleb128 0x15
 1684 0609 C5050000 		.4byte	.LASF90
 1685 060d 01       		.byte	0x1
 1686 060e C601     		.2byte	0x1c6
 1687 0610 A4000000 		.4byte	0xa4
 1688 0614 00000000 		.4byte	.LFB4
 1689 0618 64000000 		.4byte	.LFE4-.LFB4
 1690 061c 01       		.uleb128 0x1
 1691 061d 9C       		.byte	0x9c
 1692 061e 41060000 		.4byte	0x641
 1693 0622 17       		.uleb128 0x17
 1694 0623 83040000 		.4byte	.LASF89
 1695 0627 01       		.byte	0x1
 1696 0628 C801     		.2byte	0x1c8
 1697 062a A4000000 		.4byte	0xa4
 1698 062e 02       		.uleb128 0x2
 1699 062f 91       		.byte	0x91
 1700 0630 74       		.sleb128 -12
 1701 0631 17       		.uleb128 0x17
 1702 0632 A0030000 		.4byte	.LASF91
 1703 0636 01       		.byte	0x1
 1704 0637 CB01     		.2byte	0x1cb
 1705 0639 83000000 		.4byte	0x83
 1706 063d 02       		.uleb128 0x2
 1707 063e 91       		.byte	0x91
 1708 063f 70       		.sleb128 -16
 1709 0640 00       		.byte	0
 1710 0641 15       		.uleb128 0x15
 1711 0642 2B000000 		.4byte	.LASF92
 1712 0646 01       		.byte	0x1
 1713 0647 2702     		.2byte	0x227
 1714 0649 A4000000 		.4byte	0xa4
 1715 064d 00000000 		.4byte	.LFB5
 1716 0651 1C000000 		.4byte	.LFE5-.LFB5
 1717 0655 01       		.uleb128 0x1
 1718 0656 9C       		.byte	0x9c
 1719 0657 6B060000 		.4byte	0x66b
 1720 065b 17       		.uleb128 0x17
ARM GAS  C:\Users\CHRIST~1\AppData\Local\Temp\ccIPpNky.s 			page 68


 1721 065c B1060000 		.4byte	.LASF93
 1722 0660 01       		.byte	0x1
 1723 0661 2902     		.2byte	0x229
 1724 0663 A4000000 		.4byte	0xa4
 1725 0667 02       		.uleb128 0x2
 1726 0668 91       		.byte	0x91
 1727 0669 74       		.sleb128 -12
 1728 066a 00       		.byte	0
 1729 066b 18       		.uleb128 0x18
 1730 066c 19060000 		.4byte	.LASF101
 1731 0670 01       		.byte	0x1
 1732 0671 B702     		.2byte	0x2b7
 1733 0673 00000000 		.4byte	.LFB6
 1734 0677 24010000 		.4byte	.LFE6-.LFB6
 1735 067b 01       		.uleb128 0x1
 1736 067c 9C       		.byte	0x9c
 1737 067d FA060000 		.4byte	0x6fa
 1738 0681 16       		.uleb128 0x16
 1739 0682 A0030000 		.4byte	.LASF91
 1740 0686 01       		.byte	0x1
 1741 0687 B702     		.2byte	0x2b7
 1742 0689 83000000 		.4byte	0x83
 1743 068d 02       		.uleb128 0x2
 1744 068e 91       		.byte	0x91
 1745 068f 54       		.sleb128 -44
 1746 0690 16       		.uleb128 0x16
 1747 0691 3C000000 		.4byte	.LASF94
 1748 0695 01       		.byte	0x1
 1749 0696 B702     		.2byte	0x2b7
 1750 0698 83000000 		.4byte	0x83
 1751 069c 02       		.uleb128 0x2
 1752 069d 91       		.byte	0x91
 1753 069e 50       		.sleb128 -48
 1754 069f 16       		.uleb128 0x16
 1755 06a0 C8000000 		.4byte	.LASF95
 1756 06a4 01       		.byte	0x1
 1757 06a5 B702     		.2byte	0x2b7
 1758 06a7 83000000 		.4byte	0x83
 1759 06ab 02       		.uleb128 0x2
 1760 06ac 91       		.byte	0x91
 1761 06ad 4C       		.sleb128 -52
 1762 06ae 17       		.uleb128 0x17
 1763 06af FA060000 		.4byte	.LASF96
 1764 06b3 01       		.byte	0x1
 1765 06b4 B902     		.2byte	0x2b9
 1766 06b6 FA060000 		.4byte	0x6fa
 1767 06ba 02       		.uleb128 0x2
 1768 06bb 91       		.byte	0x91
 1769 06bc 6C       		.sleb128 -20
 1770 06bd 17       		.uleb128 0x17
 1771 06be 06070000 		.4byte	.LASF97
 1772 06c2 01       		.byte	0x1
 1773 06c3 BE02     		.2byte	0x2be
 1774 06c5 83000000 		.4byte	0x83
 1775 06c9 02       		.uleb128 0x2
 1776 06ca 91       		.byte	0x91
 1777 06cb 5C       		.sleb128 -36
ARM GAS  C:\Users\CHRIST~1\AppData\Local\Temp\ccIPpNky.s 			page 69


 1778 06cc 17       		.uleb128 0x17
 1779 06cd FC000000 		.4byte	.LASF98
 1780 06d1 01       		.byte	0x1
 1781 06d2 BF02     		.2byte	0x2bf
 1782 06d4 6B000000 		.4byte	0x6b
 1783 06d8 02       		.uleb128 0x2
 1784 06d9 91       		.byte	0x91
 1785 06da 63       		.sleb128 -29
 1786 06db 17       		.uleb128 0x17
 1787 06dc 33050000 		.4byte	.LASF99
 1788 06e0 01       		.byte	0x1
 1789 06e1 C002     		.2byte	0x2c0
 1790 06e3 83000000 		.4byte	0x83
 1791 06e7 02       		.uleb128 0x2
 1792 06e8 91       		.byte	0x91
 1793 06e9 68       		.sleb128 -24
 1794 06ea 17       		.uleb128 0x17
 1795 06eb CC010000 		.4byte	.LASF100
 1796 06ef 01       		.byte	0x1
 1797 06f0 C102     		.2byte	0x2c1
 1798 06f2 83000000 		.4byte	0x83
 1799 06f6 02       		.uleb128 0x2
 1800 06f7 91       		.byte	0x91
 1801 06f8 64       		.sleb128 -28
 1802 06f9 00       		.byte	0
 1803 06fa 06       		.uleb128 0x6
 1804 06fb 04       		.byte	0x4
 1805 06fc 00070000 		.4byte	0x700
 1806 0700 19       		.uleb128 0x19
 1807 0701 B3040000 		.4byte	0x4b3
 1808 0705 1A       		.uleb128 0x1a
 1809 0706 08040000 		.4byte	.LASF128
 1810 070a 01       		.byte	0x1
 1811 070b 5204     		.2byte	0x452
 1812 070d 00000000 		.4byte	.LFB7
 1813 0711 08000000 		.4byte	.LFE7-.LFB7
 1814 0715 01       		.uleb128 0x1
 1815 0716 9C       		.byte	0x9c
 1816 0717 18       		.uleb128 0x18
 1817 0718 41050000 		.4byte	.LASF102
 1818 071c 01       		.byte	0x1
 1819 071d A504     		.2byte	0x4a5
 1820 071f 00000000 		.4byte	.LFB8
 1821 0723 16000000 		.4byte	.LFE8-.LFB8
 1822 0727 01       		.uleb128 0x1
 1823 0728 9C       		.byte	0x9c
 1824 0729 3D070000 		.4byte	0x73d
 1825 072d 16       		.uleb128 0x16
 1826 072e 50040000 		.4byte	.LASF103
 1827 0732 01       		.byte	0x1
 1828 0733 A504     		.2byte	0x4a5
 1829 0735 C6000000 		.4byte	0xc6
 1830 0739 02       		.uleb128 0x2
 1831 073a 91       		.byte	0x91
 1832 073b 74       		.sleb128 -12
 1833 073c 00       		.byte	0
 1834 073d 1B       		.uleb128 0x1b
ARM GAS  C:\Users\CHRIST~1\AppData\Local\Temp\ccIPpNky.s 			page 70


 1835 073e AC000000 		.4byte	.LASF104
 1836 0742 01       		.byte	0x1
 1837 0743 C504     		.2byte	0x4c5
 1838 0745 00000000 		.4byte	.LFB9
 1839 0749 40000000 		.4byte	.LFE9-.LFB9
 1840 074d 01       		.uleb128 0x1
 1841 074e 9C       		.byte	0x9c
 1842 074f 63070000 		.4byte	0x763
 1843 0753 16       		.uleb128 0x16
 1844 0754 D3030000 		.4byte	.LASF105
 1845 0758 01       		.byte	0x1
 1846 0759 C504     		.2byte	0x4c5
 1847 075b 83000000 		.4byte	0x83
 1848 075f 02       		.uleb128 0x2
 1849 0760 91       		.byte	0x91
 1850 0761 74       		.sleb128 -12
 1851 0762 00       		.byte	0
 1852 0763 1B       		.uleb128 0x1b
 1853 0764 6A010000 		.4byte	.LASF106
 1854 0768 01       		.byte	0x1
 1855 0769 0905     		.2byte	0x509
 1856 076b 00000000 		.4byte	.LFB10
 1857 076f 30000000 		.4byte	.LFE10-.LFB10
 1858 0773 01       		.uleb128 0x1
 1859 0774 9C       		.byte	0x9c
 1860 0775 98070000 		.4byte	0x798
 1861 0779 16       		.uleb128 0x16
 1862 077a 53060000 		.4byte	.LASF34
 1863 077e 01       		.byte	0x1
 1864 077f 0905     		.2byte	0x509
 1865 0781 83000000 		.4byte	0x83
 1866 0785 02       		.uleb128 0x2
 1867 0786 91       		.byte	0x91
 1868 0787 6C       		.sleb128 -20
 1869 0788 17       		.uleb128 0x17
 1870 0789 E8000000 		.4byte	.LASF107
 1871 078d 01       		.byte	0x1
 1872 078e 0C05     		.2byte	0x50c
 1873 0790 83000000 		.4byte	0x83
 1874 0794 02       		.uleb128 0x2
 1875 0795 91       		.byte	0x91
 1876 0796 74       		.sleb128 -12
 1877 0797 00       		.byte	0
 1878 0798 18       		.uleb128 0x18
 1879 0799 0B010000 		.4byte	.LASF108
 1880 079d 01       		.byte	0x1
 1881 079e 5D05     		.2byte	0x55d
 1882 07a0 00000000 		.4byte	.LFB11
 1883 07a4 20000000 		.4byte	.LFE11-.LFB11
 1884 07a8 01       		.uleb128 0x1
 1885 07a9 9C       		.byte	0x9c
 1886 07aa CD070000 		.4byte	0x7cd
 1887 07ae 16       		.uleb128 0x16
 1888 07af 53060000 		.4byte	.LASF34
 1889 07b3 01       		.byte	0x1
 1890 07b4 5D05     		.2byte	0x55d
 1891 07b6 83000000 		.4byte	0x83
ARM GAS  C:\Users\CHRIST~1\AppData\Local\Temp\ccIPpNky.s 			page 71


 1892 07ba 02       		.uleb128 0x2
 1893 07bb 91       		.byte	0x91
 1894 07bc 74       		.sleb128 -12
 1895 07bd 16       		.uleb128 0x16
 1896 07be D3030000 		.4byte	.LASF105
 1897 07c2 01       		.byte	0x1
 1898 07c3 5D05     		.2byte	0x55d
 1899 07c5 83000000 		.4byte	0x83
 1900 07c9 02       		.uleb128 0x2
 1901 07ca 91       		.byte	0x91
 1902 07cb 70       		.sleb128 -16
 1903 07cc 00       		.byte	0
 1904 07cd 15       		.uleb128 0x15
 1905 07ce 50010000 		.4byte	.LASF109
 1906 07d2 01       		.byte	0x1
 1907 07d3 8A05     		.2byte	0x58a
 1908 07d5 A4000000 		.4byte	0xa4
 1909 07d9 00000000 		.4byte	.LFB12
 1910 07dd 30000000 		.4byte	.LFE12-.LFB12
 1911 07e1 01       		.uleb128 0x1
 1912 07e2 9C       		.byte	0x9c
 1913 07e3 06080000 		.4byte	0x806
 1914 07e7 16       		.uleb128 0x16
 1915 07e8 A0030000 		.4byte	.LASF91
 1916 07ec 01       		.byte	0x1
 1917 07ed 8A05     		.2byte	0x58a
 1918 07ef 83000000 		.4byte	0x83
 1919 07f3 02       		.uleb128 0x2
 1920 07f4 91       		.byte	0x91
 1921 07f5 6C       		.sleb128 -20
 1922 07f6 17       		.uleb128 0x17
 1923 07f7 7B050000 		.4byte	.LASF110
 1924 07fb 01       		.byte	0x1
 1925 07fc 8C05     		.2byte	0x58c
 1926 07fe A4000000 		.4byte	0xa4
 1927 0802 02       		.uleb128 0x2
 1928 0803 91       		.byte	0x91
 1929 0804 74       		.sleb128 -12
 1930 0805 00       		.byte	0
 1931 0806 15       		.uleb128 0x15
 1932 0807 76070000 		.4byte	.LASF111
 1933 080b 01       		.byte	0x1
 1934 080c F105     		.2byte	0x5f1
 1935 080e A4000000 		.4byte	0xa4
 1936 0812 00000000 		.4byte	.LFB13
 1937 0816 36000000 		.4byte	.LFE13-.LFB13
 1938 081a 01       		.uleb128 0x1
 1939 081b 9C       		.byte	0x9c
 1940 081c 3F080000 		.4byte	0x83f
 1941 0820 17       		.uleb128 0x17
 1942 0821 7B050000 		.4byte	.LASF110
 1943 0825 01       		.byte	0x1
 1944 0826 F305     		.2byte	0x5f3
 1945 0828 A4000000 		.4byte	0xa4
 1946 082c 02       		.uleb128 0x2
 1947 082d 91       		.byte	0x91
 1948 082e 74       		.sleb128 -12
ARM GAS  C:\Users\CHRIST~1\AppData\Local\Temp\ccIPpNky.s 			page 72


 1949 082f 17       		.uleb128 0x17
 1950 0830 A0030000 		.4byte	.LASF91
 1951 0834 01       		.byte	0x1
 1952 0835 F405     		.2byte	0x5f4
 1953 0837 83000000 		.4byte	0x83
 1954 083b 02       		.uleb128 0x2
 1955 083c 91       		.byte	0x91
 1956 083d 70       		.sleb128 -16
 1957 083e 00       		.byte	0
 1958 083f 18       		.uleb128 0x18
 1959 0840 9D010000 		.4byte	.LASF112
 1960 0844 01       		.byte	0x1
 1961 0845 B007     		.2byte	0x7b0
 1962 0847 00000000 		.4byte	.LFB14
 1963 084b 40000000 		.4byte	.LFE14-.LFB14
 1964 084f 01       		.uleb128 0x1
 1965 0850 9C       		.byte	0x9c
 1966 0851 74080000 		.4byte	0x874
 1967 0855 17       		.uleb128 0x17
 1968 0856 A0030000 		.4byte	.LASF91
 1969 085a 01       		.byte	0x1
 1970 085b B207     		.2byte	0x7b2
 1971 085d 83000000 		.4byte	0x83
 1972 0861 02       		.uleb128 0x2
 1973 0862 91       		.byte	0x91
 1974 0863 74       		.sleb128 -12
 1975 0864 17       		.uleb128 0x17
 1976 0865 7D030000 		.4byte	.LASF113
 1977 0869 01       		.byte	0x1
 1978 086a B307     		.2byte	0x7b3
 1979 086c 74080000 		.4byte	0x874
 1980 0870 02       		.uleb128 0x2
 1981 0871 91       		.byte	0x91
 1982 0872 70       		.sleb128 -16
 1983 0873 00       		.byte	0
 1984 0874 06       		.uleb128 0x6
 1985 0875 04       		.byte	0x4
 1986 0876 BB010000 		.4byte	0x1bb
 1987 087a 1B       		.uleb128 0x1b
 1988 087b DF060000 		.4byte	.LASF114
 1989 087f 01       		.byte	0x1
 1990 0880 DD07     		.2byte	0x7dd
 1991 0882 00000000 		.4byte	.LFB15
 1992 0886 38000000 		.4byte	.LFE15-.LFB15
 1993 088a 01       		.uleb128 0x1
 1994 088b 9C       		.byte	0x9c
 1995 088c CD080000 		.4byte	0x8cd
 1996 0890 16       		.uleb128 0x16
 1997 0891 A0030000 		.4byte	.LASF91
 1998 0895 01       		.byte	0x1
 1999 0896 DD07     		.2byte	0x7dd
 2000 0898 83000000 		.4byte	0x83
 2001 089c 02       		.uleb128 0x2
 2002 089d 91       		.byte	0x91
 2003 089e 6C       		.sleb128 -20
 2004 089f 16       		.uleb128 0x16
 2005 08a0 7D030000 		.4byte	.LASF113
ARM GAS  C:\Users\CHRIST~1\AppData\Local\Temp\ccIPpNky.s 			page 73


 2006 08a4 01       		.byte	0x1
 2007 08a5 DD07     		.2byte	0x7dd
 2008 08a7 74080000 		.4byte	0x874
 2009 08ab 02       		.uleb128 0x2
 2010 08ac 91       		.byte	0x91
 2011 08ad 68       		.sleb128 -24
 2012 08ae 17       		.uleb128 0x17
 2013 08af 35020000 		.4byte	.LASF115
 2014 08b3 01       		.byte	0x1
 2015 08b4 DF07     		.2byte	0x7df
 2016 08b6 6B000000 		.4byte	0x6b
 2017 08ba 02       		.uleb128 0x2
 2018 08bb 91       		.byte	0x91
 2019 08bc 77       		.sleb128 -9
 2020 08bd 17       		.uleb128 0x17
 2021 08be 21000000 		.4byte	.LASF116
 2022 08c2 01       		.byte	0x1
 2023 08c3 E007     		.2byte	0x7e0
 2024 08c5 6B000000 		.4byte	0x6b
 2025 08c9 02       		.uleb128 0x2
 2026 08ca 91       		.byte	0x91
 2027 08cb 76       		.sleb128 -10
 2028 08cc 00       		.byte	0
 2029 08cd 1C       		.uleb128 0x1c
 2030 08ce 17000000 		.4byte	.LASF117
 2031 08d2 04       		.byte	0x4
 2032 08d3 8103     		.2byte	0x381
 2033 08d5 22040000 		.4byte	0x422
 2034 08d9 1C       		.uleb128 0x1c
 2035 08da 5F050000 		.4byte	.LASF118
 2036 08de 04       		.byte	0x4
 2037 08df 8203     		.2byte	0x382
 2038 08e1 E5080000 		.4byte	0x8e5
 2039 08e5 19       		.uleb128 0x19
 2040 08e6 84050000 		.4byte	0x584
 2041 08ea 1D       		.uleb128 0x1d
 2042 08eb 2D070000 		.4byte	.LASF119
 2043 08ef 01       		.byte	0x1
 2044 08f0 A7       		.byte	0xa7
 2045 08f1 FB080000 		.4byte	0x8fb
 2046 08f5 05       		.uleb128 0x5
 2047 08f6 03       		.byte	0x3
 2048 08f7 00000000 		.4byte	CSD_scanFreqIndex
 2049 08fb 19       		.uleb128 0x19
 2050 08fc 6B000000 		.4byte	0x6b
 2051 0900 1D       		.uleb128 0x1d
 2052 0901 8E040000 		.4byte	.LASF120
 2053 0905 01       		.byte	0x1
 2054 0906 AB       		.byte	0xab
 2055 0907 B0000000 		.4byte	0xb0
 2056 090b 05       		.uleb128 0x5
 2057 090c 03       		.byte	0x3
 2058 090d 00000000 		.4byte	CSD_widgetIndex
 2059 0911 1D       		.uleb128 0x1d
 2060 0912 D0040000 		.4byte	.LASF121
 2061 0916 01       		.byte	0x1
 2062 0917 AC       		.byte	0xac
ARM GAS  C:\Users\CHRIST~1\AppData\Local\Temp\ccIPpNky.s 			page 74


 2063 0918 B0000000 		.4byte	0xb0
 2064 091c 05       		.uleb128 0x5
 2065 091d 03       		.byte	0x3
 2066 091e 00000000 		.4byte	CSD_sensorIndex
 2067 0922 1D       		.uleb128 0x1d
 2068 0923 EA040000 		.4byte	.LASF122
 2069 0927 01       		.byte	0x1
 2070 0928 AD       		.byte	0xad
 2071 0929 6B000000 		.4byte	0x6b
 2072 092d 05       		.uleb128 0x5
 2073 092e 03       		.byte	0x3
 2074 092f 00000000 		.4byte	CSD_requestScanAllWidget
 2075 0933 1D       		.uleb128 0x1d
 2076 0934 F7030000 		.4byte	.LASF123
 2077 0938 01       		.byte	0x1
 2078 0939 B3       		.byte	0xb3
 2079 093a 45050000 		.4byte	0x545
 2080 093e 05       		.uleb128 0x5
 2081 093f 03       		.byte	0x3
 2082 0940 00000000 		.4byte	CSD_curRamSnsPtr
 2083 0944 00       		.byte	0
 2084              		.section	.debug_abbrev,"",%progbits
 2085              	.Ldebug_abbrev0:
 2086 0000 01       		.uleb128 0x1
 2087 0001 11       		.uleb128 0x11
 2088 0002 01       		.byte	0x1
 2089 0003 25       		.uleb128 0x25
 2090 0004 0E       		.uleb128 0xe
 2091 0005 13       		.uleb128 0x13
 2092 0006 0B       		.uleb128 0xb
 2093 0007 03       		.uleb128 0x3
 2094 0008 0E       		.uleb128 0xe
 2095 0009 1B       		.uleb128 0x1b
 2096 000a 0E       		.uleb128 0xe
 2097 000b 55       		.uleb128 0x55
 2098 000c 17       		.uleb128 0x17
 2099 000d 11       		.uleb128 0x11
 2100 000e 01       		.uleb128 0x1
 2101 000f 10       		.uleb128 0x10
 2102 0010 17       		.uleb128 0x17
 2103 0011 00       		.byte	0
 2104 0012 00       		.byte	0
 2105 0013 02       		.uleb128 0x2
 2106 0014 24       		.uleb128 0x24
 2107 0015 00       		.byte	0
 2108 0016 0B       		.uleb128 0xb
 2109 0017 0B       		.uleb128 0xb
 2110 0018 3E       		.uleb128 0x3e
 2111 0019 0B       		.uleb128 0xb
 2112 001a 03       		.uleb128 0x3
 2113 001b 0E       		.uleb128 0xe
 2114 001c 00       		.byte	0
 2115 001d 00       		.byte	0
 2116 001e 03       		.uleb128 0x3
 2117 001f 24       		.uleb128 0x24
 2118 0020 00       		.byte	0
 2119 0021 0B       		.uleb128 0xb
ARM GAS  C:\Users\CHRIST~1\AppData\Local\Temp\ccIPpNky.s 			page 75


 2120 0022 0B       		.uleb128 0xb
 2121 0023 3E       		.uleb128 0x3e
 2122 0024 0B       		.uleb128 0xb
 2123 0025 03       		.uleb128 0x3
 2124 0026 08       		.uleb128 0x8
 2125 0027 00       		.byte	0
 2126 0028 00       		.byte	0
 2127 0029 04       		.uleb128 0x4
 2128 002a 16       		.uleb128 0x16
 2129 002b 00       		.byte	0
 2130 002c 03       		.uleb128 0x3
 2131 002d 0E       		.uleb128 0xe
 2132 002e 3A       		.uleb128 0x3a
 2133 002f 0B       		.uleb128 0xb
 2134 0030 3B       		.uleb128 0x3b
 2135 0031 05       		.uleb128 0x5
 2136 0032 49       		.uleb128 0x49
 2137 0033 13       		.uleb128 0x13
 2138 0034 00       		.byte	0
 2139 0035 00       		.byte	0
 2140 0036 05       		.uleb128 0x5
 2141 0037 35       		.uleb128 0x35
 2142 0038 00       		.byte	0
 2143 0039 49       		.uleb128 0x49
 2144 003a 13       		.uleb128 0x13
 2145 003b 00       		.byte	0
 2146 003c 00       		.byte	0
 2147 003d 06       		.uleb128 0x6
 2148 003e 0F       		.uleb128 0xf
 2149 003f 00       		.byte	0
 2150 0040 0B       		.uleb128 0xb
 2151 0041 0B       		.uleb128 0xb
 2152 0042 49       		.uleb128 0x49
 2153 0043 13       		.uleb128 0x13
 2154 0044 00       		.byte	0
 2155 0045 00       		.byte	0
 2156 0046 07       		.uleb128 0x7
 2157 0047 15       		.uleb128 0x15
 2158 0048 00       		.byte	0
 2159 0049 27       		.uleb128 0x27
 2160 004a 19       		.uleb128 0x19
 2161 004b 00       		.byte	0
 2162 004c 00       		.byte	0
 2163 004d 08       		.uleb128 0x8
 2164 004e 0F       		.uleb128 0xf
 2165 004f 00       		.byte	0
 2166 0050 0B       		.uleb128 0xb
 2167 0051 0B       		.uleb128 0xb
 2168 0052 00       		.byte	0
 2169 0053 00       		.byte	0
 2170 0054 09       		.uleb128 0x9
 2171 0055 16       		.uleb128 0x16
 2172 0056 00       		.byte	0
 2173 0057 03       		.uleb128 0x3
 2174 0058 0E       		.uleb128 0xe
 2175 0059 3A       		.uleb128 0x3a
 2176 005a 0B       		.uleb128 0xb
ARM GAS  C:\Users\CHRIST~1\AppData\Local\Temp\ccIPpNky.s 			page 76


 2177 005b 3B       		.uleb128 0x3b
 2178 005c 0B       		.uleb128 0xb
 2179 005d 49       		.uleb128 0x49
 2180 005e 13       		.uleb128 0x13
 2181 005f 00       		.byte	0
 2182 0060 00       		.byte	0
 2183 0061 0A       		.uleb128 0xa
 2184 0062 04       		.uleb128 0x4
 2185 0063 01       		.byte	0x1
 2186 0064 0B       		.uleb128 0xb
 2187 0065 0B       		.uleb128 0xb
 2188 0066 3A       		.uleb128 0x3a
 2189 0067 0B       		.uleb128 0xb
 2190 0068 3B       		.uleb128 0x3b
 2191 0069 0B       		.uleb128 0xb
 2192 006a 01       		.uleb128 0x1
 2193 006b 13       		.uleb128 0x13
 2194 006c 00       		.byte	0
 2195 006d 00       		.byte	0
 2196 006e 0B       		.uleb128 0xb
 2197 006f 28       		.uleb128 0x28
 2198 0070 00       		.byte	0
 2199 0071 03       		.uleb128 0x3
 2200 0072 0E       		.uleb128 0xe
 2201 0073 1C       		.uleb128 0x1c
 2202 0074 0D       		.uleb128 0xd
 2203 0075 00       		.byte	0
 2204 0076 00       		.byte	0
 2205 0077 0C       		.uleb128 0xc
 2206 0078 13       		.uleb128 0x13
 2207 0079 01       		.byte	0x1
 2208 007a 0B       		.uleb128 0xb
 2209 007b 0B       		.uleb128 0xb
 2210 007c 3A       		.uleb128 0x3a
 2211 007d 0B       		.uleb128 0xb
 2212 007e 3B       		.uleb128 0x3b
 2213 007f 0B       		.uleb128 0xb
 2214 0080 01       		.uleb128 0x1
 2215 0081 13       		.uleb128 0x13
 2216 0082 00       		.byte	0
 2217 0083 00       		.byte	0
 2218 0084 0D       		.uleb128 0xd
 2219 0085 0D       		.uleb128 0xd
 2220 0086 00       		.byte	0
 2221 0087 03       		.uleb128 0x3
 2222 0088 0E       		.uleb128 0xe
 2223 0089 3A       		.uleb128 0x3a
 2224 008a 0B       		.uleb128 0xb
 2225 008b 3B       		.uleb128 0x3b
 2226 008c 0B       		.uleb128 0xb
 2227 008d 49       		.uleb128 0x49
 2228 008e 13       		.uleb128 0x13
 2229 008f 38       		.uleb128 0x38
 2230 0090 0B       		.uleb128 0xb
 2231 0091 00       		.byte	0
 2232 0092 00       		.byte	0
 2233 0093 0E       		.uleb128 0xe
ARM GAS  C:\Users\CHRIST~1\AppData\Local\Temp\ccIPpNky.s 			page 77


 2234 0094 01       		.uleb128 0x1
 2235 0095 01       		.byte	0x1
 2236 0096 49       		.uleb128 0x49
 2237 0097 13       		.uleb128 0x13
 2238 0098 01       		.uleb128 0x1
 2239 0099 13       		.uleb128 0x13
 2240 009a 00       		.byte	0
 2241 009b 00       		.byte	0
 2242 009c 0F       		.uleb128 0xf
 2243 009d 21       		.uleb128 0x21
 2244 009e 00       		.byte	0
 2245 009f 49       		.uleb128 0x49
 2246 00a0 13       		.uleb128 0x13
 2247 00a1 2F       		.uleb128 0x2f
 2248 00a2 0B       		.uleb128 0xb
 2249 00a3 00       		.byte	0
 2250 00a4 00       		.byte	0
 2251 00a5 10       		.uleb128 0x10
 2252 00a6 13       		.uleb128 0x13
 2253 00a7 01       		.byte	0x1
 2254 00a8 0B       		.uleb128 0xb
 2255 00a9 0B       		.uleb128 0xb
 2256 00aa 3A       		.uleb128 0x3a
 2257 00ab 0B       		.uleb128 0xb
 2258 00ac 3B       		.uleb128 0x3b
 2259 00ad 05       		.uleb128 0x5
 2260 00ae 01       		.uleb128 0x1
 2261 00af 13       		.uleb128 0x13
 2262 00b0 00       		.byte	0
 2263 00b1 00       		.byte	0
 2264 00b2 11       		.uleb128 0x11
 2265 00b3 0D       		.uleb128 0xd
 2266 00b4 00       		.byte	0
 2267 00b5 03       		.uleb128 0x3
 2268 00b6 0E       		.uleb128 0xe
 2269 00b7 3A       		.uleb128 0x3a
 2270 00b8 0B       		.uleb128 0xb
 2271 00b9 3B       		.uleb128 0x3b
 2272 00ba 05       		.uleb128 0x5
 2273 00bb 49       		.uleb128 0x49
 2274 00bc 13       		.uleb128 0x13
 2275 00bd 38       		.uleb128 0x38
 2276 00be 0B       		.uleb128 0xb
 2277 00bf 00       		.byte	0
 2278 00c0 00       		.byte	0
 2279 00c1 12       		.uleb128 0x12
 2280 00c2 0D       		.uleb128 0xd
 2281 00c3 00       		.byte	0
 2282 00c4 03       		.uleb128 0x3
 2283 00c5 08       		.uleb128 0x8
 2284 00c6 3A       		.uleb128 0x3a
 2285 00c7 0B       		.uleb128 0xb
 2286 00c8 3B       		.uleb128 0x3b
 2287 00c9 05       		.uleb128 0x5
 2288 00ca 49       		.uleb128 0x49
 2289 00cb 13       		.uleb128 0x13
 2290 00cc 38       		.uleb128 0x38
ARM GAS  C:\Users\CHRIST~1\AppData\Local\Temp\ccIPpNky.s 			page 78


 2291 00cd 0B       		.uleb128 0xb
 2292 00ce 00       		.byte	0
 2293 00cf 00       		.byte	0
 2294 00d0 13       		.uleb128 0x13
 2295 00d1 26       		.uleb128 0x26
 2296 00d2 00       		.byte	0
 2297 00d3 00       		.byte	0
 2298 00d4 00       		.byte	0
 2299 00d5 14       		.uleb128 0x14
 2300 00d6 2E       		.uleb128 0x2e
 2301 00d7 00       		.byte	0
 2302 00d8 3F       		.uleb128 0x3f
 2303 00d9 19       		.uleb128 0x19
 2304 00da 03       		.uleb128 0x3
 2305 00db 0E       		.uleb128 0xe
 2306 00dc 3A       		.uleb128 0x3a
 2307 00dd 0B       		.uleb128 0xb
 2308 00de 3B       		.uleb128 0x3b
 2309 00df 0B       		.uleb128 0xb
 2310 00e0 27       		.uleb128 0x27
 2311 00e1 19       		.uleb128 0x19
 2312 00e2 49       		.uleb128 0x49
 2313 00e3 13       		.uleb128 0x13
 2314 00e4 11       		.uleb128 0x11
 2315 00e5 01       		.uleb128 0x1
 2316 00e6 12       		.uleb128 0x12
 2317 00e7 06       		.uleb128 0x6
 2318 00e8 40       		.uleb128 0x40
 2319 00e9 18       		.uleb128 0x18
 2320 00ea 9742     		.uleb128 0x2117
 2321 00ec 19       		.uleb128 0x19
 2322 00ed 00       		.byte	0
 2323 00ee 00       		.byte	0
 2324 00ef 15       		.uleb128 0x15
 2325 00f0 2E       		.uleb128 0x2e
 2326 00f1 01       		.byte	0x1
 2327 00f2 3F       		.uleb128 0x3f
 2328 00f3 19       		.uleb128 0x19
 2329 00f4 03       		.uleb128 0x3
 2330 00f5 0E       		.uleb128 0xe
 2331 00f6 3A       		.uleb128 0x3a
 2332 00f7 0B       		.uleb128 0xb
 2333 00f8 3B       		.uleb128 0x3b
 2334 00f9 05       		.uleb128 0x5
 2335 00fa 27       		.uleb128 0x27
 2336 00fb 19       		.uleb128 0x19
 2337 00fc 49       		.uleb128 0x49
 2338 00fd 13       		.uleb128 0x13
 2339 00fe 11       		.uleb128 0x11
 2340 00ff 01       		.uleb128 0x1
 2341 0100 12       		.uleb128 0x12
 2342 0101 06       		.uleb128 0x6
 2343 0102 40       		.uleb128 0x40
 2344 0103 18       		.uleb128 0x18
 2345 0104 9642     		.uleb128 0x2116
 2346 0106 19       		.uleb128 0x19
 2347 0107 01       		.uleb128 0x1
ARM GAS  C:\Users\CHRIST~1\AppData\Local\Temp\ccIPpNky.s 			page 79


 2348 0108 13       		.uleb128 0x13
 2349 0109 00       		.byte	0
 2350 010a 00       		.byte	0
 2351 010b 16       		.uleb128 0x16
 2352 010c 05       		.uleb128 0x5
 2353 010d 00       		.byte	0
 2354 010e 03       		.uleb128 0x3
 2355 010f 0E       		.uleb128 0xe
 2356 0110 3A       		.uleb128 0x3a
 2357 0111 0B       		.uleb128 0xb
 2358 0112 3B       		.uleb128 0x3b
 2359 0113 05       		.uleb128 0x5
 2360 0114 49       		.uleb128 0x49
 2361 0115 13       		.uleb128 0x13
 2362 0116 02       		.uleb128 0x2
 2363 0117 18       		.uleb128 0x18
 2364 0118 00       		.byte	0
 2365 0119 00       		.byte	0
 2366 011a 17       		.uleb128 0x17
 2367 011b 34       		.uleb128 0x34
 2368 011c 00       		.byte	0
 2369 011d 03       		.uleb128 0x3
 2370 011e 0E       		.uleb128 0xe
 2371 011f 3A       		.uleb128 0x3a
 2372 0120 0B       		.uleb128 0xb
 2373 0121 3B       		.uleb128 0x3b
 2374 0122 05       		.uleb128 0x5
 2375 0123 49       		.uleb128 0x49
 2376 0124 13       		.uleb128 0x13
 2377 0125 02       		.uleb128 0x2
 2378 0126 18       		.uleb128 0x18
 2379 0127 00       		.byte	0
 2380 0128 00       		.byte	0
 2381 0129 18       		.uleb128 0x18
 2382 012a 2E       		.uleb128 0x2e
 2383 012b 01       		.byte	0x1
 2384 012c 3F       		.uleb128 0x3f
 2385 012d 19       		.uleb128 0x19
 2386 012e 03       		.uleb128 0x3
 2387 012f 0E       		.uleb128 0xe
 2388 0130 3A       		.uleb128 0x3a
 2389 0131 0B       		.uleb128 0xb
 2390 0132 3B       		.uleb128 0x3b
 2391 0133 05       		.uleb128 0x5
 2392 0134 27       		.uleb128 0x27
 2393 0135 19       		.uleb128 0x19
 2394 0136 11       		.uleb128 0x11
 2395 0137 01       		.uleb128 0x1
 2396 0138 12       		.uleb128 0x12
 2397 0139 06       		.uleb128 0x6
 2398 013a 40       		.uleb128 0x40
 2399 013b 18       		.uleb128 0x18
 2400 013c 9642     		.uleb128 0x2116
 2401 013e 19       		.uleb128 0x19
 2402 013f 01       		.uleb128 0x1
 2403 0140 13       		.uleb128 0x13
 2404 0141 00       		.byte	0
ARM GAS  C:\Users\CHRIST~1\AppData\Local\Temp\ccIPpNky.s 			page 80


 2405 0142 00       		.byte	0
 2406 0143 19       		.uleb128 0x19
 2407 0144 26       		.uleb128 0x26
 2408 0145 00       		.byte	0
 2409 0146 49       		.uleb128 0x49
 2410 0147 13       		.uleb128 0x13
 2411 0148 00       		.byte	0
 2412 0149 00       		.byte	0
 2413 014a 1A       		.uleb128 0x1a
 2414 014b 2E       		.uleb128 0x2e
 2415 014c 00       		.byte	0
 2416 014d 3F       		.uleb128 0x3f
 2417 014e 19       		.uleb128 0x19
 2418 014f 03       		.uleb128 0x3
 2419 0150 0E       		.uleb128 0xe
 2420 0151 3A       		.uleb128 0x3a
 2421 0152 0B       		.uleb128 0xb
 2422 0153 3B       		.uleb128 0x3b
 2423 0154 05       		.uleb128 0x5
 2424 0155 27       		.uleb128 0x27
 2425 0156 19       		.uleb128 0x19
 2426 0157 11       		.uleb128 0x11
 2427 0158 01       		.uleb128 0x1
 2428 0159 12       		.uleb128 0x12
 2429 015a 06       		.uleb128 0x6
 2430 015b 40       		.uleb128 0x40
 2431 015c 18       		.uleb128 0x18
 2432 015d 9742     		.uleb128 0x2117
 2433 015f 19       		.uleb128 0x19
 2434 0160 00       		.byte	0
 2435 0161 00       		.byte	0
 2436 0162 1B       		.uleb128 0x1b
 2437 0163 2E       		.uleb128 0x2e
 2438 0164 01       		.byte	0x1
 2439 0165 3F       		.uleb128 0x3f
 2440 0166 19       		.uleb128 0x19
 2441 0167 03       		.uleb128 0x3
 2442 0168 0E       		.uleb128 0xe
 2443 0169 3A       		.uleb128 0x3a
 2444 016a 0B       		.uleb128 0xb
 2445 016b 3B       		.uleb128 0x3b
 2446 016c 05       		.uleb128 0x5
 2447 016d 27       		.uleb128 0x27
 2448 016e 19       		.uleb128 0x19
 2449 016f 11       		.uleb128 0x11
 2450 0170 01       		.uleb128 0x1
 2451 0171 12       		.uleb128 0x12
 2452 0172 06       		.uleb128 0x6
 2453 0173 40       		.uleb128 0x40
 2454 0174 18       		.uleb128 0x18
 2455 0175 9742     		.uleb128 0x2117
 2456 0177 19       		.uleb128 0x19
 2457 0178 01       		.uleb128 0x1
 2458 0179 13       		.uleb128 0x13
 2459 017a 00       		.byte	0
 2460 017b 00       		.byte	0
 2461 017c 1C       		.uleb128 0x1c
ARM GAS  C:\Users\CHRIST~1\AppData\Local\Temp\ccIPpNky.s 			page 81


 2462 017d 34       		.uleb128 0x34
 2463 017e 00       		.byte	0
 2464 017f 03       		.uleb128 0x3
 2465 0180 0E       		.uleb128 0xe
 2466 0181 3A       		.uleb128 0x3a
 2467 0182 0B       		.uleb128 0xb
 2468 0183 3B       		.uleb128 0x3b
 2469 0184 05       		.uleb128 0x5
 2470 0185 49       		.uleb128 0x49
 2471 0186 13       		.uleb128 0x13
 2472 0187 3F       		.uleb128 0x3f
 2473 0188 19       		.uleb128 0x19
 2474 0189 3C       		.uleb128 0x3c
 2475 018a 19       		.uleb128 0x19
 2476 018b 00       		.byte	0
 2477 018c 00       		.byte	0
 2478 018d 1D       		.uleb128 0x1d
 2479 018e 34       		.uleb128 0x34
 2480 018f 00       		.byte	0
 2481 0190 03       		.uleb128 0x3
 2482 0191 0E       		.uleb128 0xe
 2483 0192 3A       		.uleb128 0x3a
 2484 0193 0B       		.uleb128 0xb
 2485 0194 3B       		.uleb128 0x3b
 2486 0195 0B       		.uleb128 0xb
 2487 0196 49       		.uleb128 0x49
 2488 0197 13       		.uleb128 0x13
 2489 0198 3F       		.uleb128 0x3f
 2490 0199 19       		.uleb128 0x19
 2491 019a 02       		.uleb128 0x2
 2492 019b 18       		.uleb128 0x18
 2493 019c 00       		.byte	0
 2494 019d 00       		.byte	0
 2495 019e 00       		.byte	0
 2496              		.section	.debug_aranges,"",%progbits
 2497 0000 8C000000 		.4byte	0x8c
 2498 0004 0200     		.2byte	0x2
 2499 0006 00000000 		.4byte	.Ldebug_info0
 2500 000a 04       		.byte	0x4
 2501 000b 00       		.byte	0
 2502 000c 0000     		.2byte	0
 2503 000e 0000     		.2byte	0
 2504 0010 00000000 		.4byte	.LFB1
 2505 0014 1C000000 		.4byte	.LFE1-.LFB1
 2506 0018 00000000 		.4byte	.LFB2
 2507 001c 64000000 		.4byte	.LFE2-.LFB2
 2508 0020 00000000 		.4byte	.LFB3
 2509 0024 30000000 		.4byte	.LFE3-.LFB3
 2510 0028 00000000 		.4byte	.LFB4
 2511 002c 64000000 		.4byte	.LFE4-.LFB4
 2512 0030 00000000 		.4byte	.LFB5
 2513 0034 1C000000 		.4byte	.LFE5-.LFB5
 2514 0038 00000000 		.4byte	.LFB6
 2515 003c 24010000 		.4byte	.LFE6-.LFB6
 2516 0040 00000000 		.4byte	.LFB7
 2517 0044 08000000 		.4byte	.LFE7-.LFB7
 2518 0048 00000000 		.4byte	.LFB8
ARM GAS  C:\Users\CHRIST~1\AppData\Local\Temp\ccIPpNky.s 			page 82


 2519 004c 16000000 		.4byte	.LFE8-.LFB8
 2520 0050 00000000 		.4byte	.LFB9
 2521 0054 40000000 		.4byte	.LFE9-.LFB9
 2522 0058 00000000 		.4byte	.LFB10
 2523 005c 30000000 		.4byte	.LFE10-.LFB10
 2524 0060 00000000 		.4byte	.LFB11
 2525 0064 20000000 		.4byte	.LFE11-.LFB11
 2526 0068 00000000 		.4byte	.LFB12
 2527 006c 30000000 		.4byte	.LFE12-.LFB12
 2528 0070 00000000 		.4byte	.LFB13
 2529 0074 36000000 		.4byte	.LFE13-.LFB13
 2530 0078 00000000 		.4byte	.LFB14
 2531 007c 40000000 		.4byte	.LFE14-.LFB14
 2532 0080 00000000 		.4byte	.LFB15
 2533 0084 38000000 		.4byte	.LFE15-.LFB15
 2534 0088 00000000 		.4byte	0
 2535 008c 00000000 		.4byte	0
 2536              		.section	.debug_ranges,"",%progbits
 2537              	.Ldebug_ranges0:
 2538 0000 00000000 		.4byte	.LFB1
 2539 0004 1C000000 		.4byte	.LFE1
 2540 0008 00000000 		.4byte	.LFB2
 2541 000c 64000000 		.4byte	.LFE2
 2542 0010 00000000 		.4byte	.LFB3
 2543 0014 30000000 		.4byte	.LFE3
 2544 0018 00000000 		.4byte	.LFB4
 2545 001c 64000000 		.4byte	.LFE4
 2546 0020 00000000 		.4byte	.LFB5
 2547 0024 1C000000 		.4byte	.LFE5
 2548 0028 00000000 		.4byte	.LFB6
 2549 002c 24010000 		.4byte	.LFE6
 2550 0030 00000000 		.4byte	.LFB7
 2551 0034 08000000 		.4byte	.LFE7
 2552 0038 00000000 		.4byte	.LFB8
 2553 003c 16000000 		.4byte	.LFE8
 2554 0040 00000000 		.4byte	.LFB9
 2555 0044 40000000 		.4byte	.LFE9
 2556 0048 00000000 		.4byte	.LFB10
 2557 004c 30000000 		.4byte	.LFE10
 2558 0050 00000000 		.4byte	.LFB11
 2559 0054 20000000 		.4byte	.LFE11
 2560 0058 00000000 		.4byte	.LFB12
 2561 005c 30000000 		.4byte	.LFE12
 2562 0060 00000000 		.4byte	.LFB13
 2563 0064 36000000 		.4byte	.LFE13
 2564 0068 00000000 		.4byte	.LFB14
 2565 006c 40000000 		.4byte	.LFE14
 2566 0070 00000000 		.4byte	.LFB15
 2567 0074 38000000 		.4byte	.LFE15
 2568 0078 00000000 		.4byte	0
 2569 007c 00000000 		.4byte	0
 2570              		.section	.debug_line,"",%progbits
 2571              	.Ldebug_line0:
 2572 0000 30020000 		.section	.debug_str,"MS",%progbits,1
 2572      02007200 
 2572      00000201 
 2572      FB0E0D00 
ARM GAS  C:\Users\CHRIST~1\AppData\Local\Temp\ccIPpNky.s 			page 83


 2572      01010101 
 2573              	.LASF10:
 2574 0000 75696E74 		.ascii	"uint16\000"
 2574      313600
 2575              	.LASF86:
 2576 0007 4353445F 		.ascii	"CSD_SetupWidget\000"
 2576      53657475 
 2576      70576964 
 2576      67657400 
 2577              	.LASF117:
 2578 0017 4353445F 		.ascii	"CSD_dsRam\000"
 2578      64735261 
 2578      6D00
 2579              	.LASF116:
 2580 0021 6C667372 		.ascii	"lfsrScale\000"
 2580      5363616C 
 2580      6500
 2581              	.LASF92:
 2582 002b 4353445F 		.ascii	"CSD_SsInitialize\000"
 2582      5373496E 
 2582      69746961 
 2582      6C697A65 
 2582      00
 2583              	.LASF94:
 2584 003c 736E7349 		.ascii	"snsIndex\000"
 2584      6E646578 
 2584      00
 2585              	.LASF125:
 2586 0045 47656E65 		.ascii	"Generated_Source\\PSoC4\\CSD_Sensing.c\000"
 2586      72617465 
 2586      645F536F 
 2586      75726365 
 2586      5C50536F 
 2587              	.LASF7:
 2588 006a 6C6F6E67 		.ascii	"long long unsigned int\000"
 2588      206C6F6E 
 2588      6720756E 
 2588      7369676E 
 2588      65642069 
 2589              	.LASF74:
 2590 0081 70747232 		.ascii	"ptr2SnsFlash\000"
 2590      536E7346 
 2590      6C617368 
 2590      00
 2591              	.LASF43:
 2592 008e 64696666 		.ascii	"diff\000"
 2592      00
 2593              	.LASF64:
 2594 0093 6873696F 		.ascii	"hsiomPtr\000"
 2594      6D507472 
 2594      00
 2595              	.LASF60:
 2596 009c 736E7254 		.ascii	"snrTestSensorId\000"
 2596      65737453 
 2596      656E736F 
 2596      72496400 
 2597              	.LASF104:
ARM GAS  C:\Users\CHRIST~1\AppData\Local\Temp\ccIPpNky.s 			page 84


 2598 00ac 4353445F 		.ascii	"CSD_SsSetModClkClockDivider\000"
 2598      53735365 
 2598      744D6F64 
 2598      436C6B43 
 2598      6C6F636B 
 2599              	.LASF95:
 2600 00c8 73746174 		.ascii	"state\000"
 2600      6500
 2601              	.LASF6:
 2602 00ce 6C6F6E67 		.ascii	"long long int\000"
 2602      206C6F6E 
 2602      6720696E 
 2602      7400
 2603              	.LASF0:
 2604 00dc 7369676E 		.ascii	"signed char\000"
 2604      65642063 
 2604      68617200 
 2605              	.LASF107:
 2606 00e8 6E657752 		.ascii	"newRegValue\000"
 2606      65675661 
 2606      6C756500 
 2607              	.LASF38:
 2608 00f4 62757474 		.ascii	"button0\000"
 2608      6F6E3000 
 2609              	.LASF98:
 2610 00fc 696E7465 		.ascii	"interruptState\000"
 2610      72727570 
 2610      74537461 
 2610      746500
 2611              	.LASF108:
 2612 010b 4353445F 		.ascii	"CSD_SsSetClockDividers\000"
 2612      53735365 
 2612      74436C6F 
 2612      636B4469 
 2612      76696465 
 2613              	.LASF54:
 2614 0122 736E7353 		.ascii	"snsStatus\000"
 2614      74617475 
 2614      7300
 2615              	.LASF4:
 2616 012c 6C6F6E67 		.ascii	"long int\000"
 2616      20696E74 
 2616      00
 2617              	.LASF56:
 2618 0135 6D6F6443 		.ascii	"modCsdClk\000"
 2618      7364436C 
 2618      6B00
 2619              	.LASF76:
 2620 013f 70747232 		.ascii	"ptr2SnsRam\000"
 2620      536E7352 
 2620      616D00
 2621              	.LASF67:
 2622 014a 70735074 		.ascii	"psPtr\000"
 2622      7200
 2623              	.LASF109:
 2624 0150 4353445F 		.ascii	"CSD_CalibrateWidget\000"
 2624      43616C69 
ARM GAS  C:\Users\CHRIST~1\AppData\Local\Temp\ccIPpNky.s 			page 85


 2624      62726174 
 2624      65576964 
 2624      67657400 
 2625              	.LASF9:
 2626 0164 75696E74 		.ascii	"uint8\000"
 2626      3800
 2627              	.LASF106:
 2628 016a 4353445F 		.ascii	"CSD_SsSetSnsClockDivider\000"
 2628      53735365 
 2628      74536E73 
 2628      436C6F63 
 2628      6B446976 
 2629              	.LASF45:
 2630 0183 4353445F 		.ascii	"CSD_RAM_SNS_STRUCT\000"
 2630      52414D5F 
 2630      534E535F 
 2630      53545255 
 2630      435400
 2631              	.LASF13:
 2632 0196 646F7562 		.ascii	"double\000"
 2632      6C6500
 2633              	.LASF112:
 2634 019d 4353445F 		.ascii	"CSD_SsInitializeSourceSenseClk\000"
 2634      5373496E 
 2634      69746961 
 2634      6C697A65 
 2634      536F7572 
 2635              	.LASF62:
 2636 01bc 736E7254 		.ascii	"snrTestRawCount\000"
 2636      65737452 
 2636      6177436F 
 2636      756E7400 
 2637              	.LASF100:
 2638 01cc 70696E4D 		.ascii	"pinModeShift\000"
 2638      6F646553 
 2638      68696674 
 2638      00
 2639              	.LASF72:
 2640 01d9 73686966 		.ascii	"shift\000"
 2640      7400
 2641              	.LASF71:
 2642 01df 64725368 		.ascii	"drShift\000"
 2642      69667400 
 2643              	.LASF11:
 2644 01e7 75696E74 		.ascii	"uint32\000"
 2644      333200
 2645              	.LASF19:
 2646 01ee 4353445F 		.ascii	"CSD_THRESHOLD_TYPE\000"
 2646      54485245 
 2646      53484F4C 
 2646      445F5459 
 2646      504500
 2647              	.LASF69:
 2648 0201 6D61736B 		.ascii	"mask\000"
 2648      00
 2649              	.LASF41:
 2650 0206 62736C6E 		.ascii	"bslnExt\000"
ARM GAS  C:\Users\CHRIST~1\AppData\Local\Temp\ccIPpNky.s 			page 86


 2650      45787400 
 2651              	.LASF53:
 2652 020e 77646774 		.ascii	"wdgtStatus\000"
 2652      53746174 
 2652      757300
 2653              	.LASF84:
 2654 0219 77646774 		.ascii	"wdgtArray\000"
 2654      41727261 
 2654      7900
 2655              	.LASF40:
 2656 0223 62736C6E 		.ascii	"bsln\000"
 2656      00
 2657              	.LASF8:
 2658 0228 756E7369 		.ascii	"unsigned int\000"
 2658      676E6564 
 2658      20696E74 
 2658      00
 2659              	.LASF115:
 2660 0235 6C667372 		.ascii	"lfsrSize\000"
 2660      53697A65 
 2660      00
 2661              	.LASF59:
 2662 023e 736E7254 		.ascii	"snrTestWidgetId\000"
 2662      65737457 
 2662      69646765 
 2662      74496400 
 2663              	.LASF126:
 2664 024e 433A5C55 		.ascii	"C:\\Users\\Christopher Kuzma\\Downloads\\Cypress Th"
 2664      73657273 
 2664      5C436872 
 2664      6973746F 
 2664      70686572 
 2665 027d 696E675C 		.ascii	"ing\\EnvironmentSensing.cydsn\\EnvironmentSensing.c"
 2665      456E7669 
 2665      726F6E6D 
 2665      656E7453 
 2665      656E7369 
 2666 02ae 7964736E 		.ascii	"ydsn\000"
 2666      00
 2667              	.LASF20:
 2668 02b3 4353445F 		.ascii	"CSD_LOW_BSLN_RST_TYPE\000"
 2668      4C4F575F 
 2668      42534C4E 
 2668      5F525354 
 2668      5F545950 
 2669              	.LASF124:
 2670 02c9 474E5520 		.ascii	"GNU C 4.9.3 20150303 (release) [ARM/embedded-4_9-br"
 2670      4320342E 
 2670      392E3320 
 2670      32303135 
 2670      30333033 
 2671 02fc 616E6368 		.ascii	"anch revision 221220] -mcpu=cortex-m0plus -mthumb -"
 2671      20726576 
 2671      6973696F 
 2671      6E203232 
 2671      31323230 
 2672 032f 67202D4F 		.ascii	"g -O0 -ffunction-sections -ffat-lto-objects\000"
ARM GAS  C:\Users\CHRIST~1\AppData\Local\Temp\ccIPpNky.s 			page 87


 2672      30202D66 
 2672      66756E63 
 2672      74696F6E 
 2672      2D736563 
 2673              	.LASF22:
 2674 035b 4353445F 		.ascii	"CSD_SENSE_METHOD_CSD_E\000"
 2674      53454E53 
 2674      455F4D45 
 2674      54484F44 
 2674      5F435344 
 2675              	.LASF31:
 2676 0372 6C6F7742 		.ascii	"lowBslnRst\000"
 2676      736C6E52 
 2676      737400
 2677              	.LASF113:
 2678 037d 70747257 		.ascii	"ptrWdgt\000"
 2678      64677400 
 2679              	.LASF3:
 2680 0385 73686F72 		.ascii	"short unsigned int\000"
 2680      7420756E 
 2680      7369676E 
 2680      65642069 
 2680      6E7400
 2681              	.LASF58:
 2682 0398 736E734C 		.ascii	"snsList\000"
 2682      69737400 
 2683              	.LASF91:
 2684 03a0 77646774 		.ascii	"wdgtIndex\000"
 2684      496E6465 
 2684      7800
 2685              	.LASF47:
 2686 03aa 636F6E66 		.ascii	"configId\000"
 2686      69674964 
 2686      00
 2687              	.LASF55:
 2688 03b3 63736430 		.ascii	"csd0Config\000"
 2688      436F6E66 
 2688      696700
 2689              	.LASF75:
 2690 03be 70747232 		.ascii	"ptr2WdgtRam\000"
 2690      57646774 
 2690      52616D00 
 2691              	.LASF48:
 2692 03ca 64657669 		.ascii	"deviceId\000"
 2692      63654964 
 2692      00
 2693              	.LASF105:
 2694 03d3 6D6F6443 		.ascii	"modClk\000"
 2694      6C6B00
 2695              	.LASF36:
 2696 03da 4353445F 		.ascii	"CSD_RAM_WD_BASE_STRUCT\000"
 2696      52414D5F 
 2696      57445F42 
 2696      4153455F 
 2696      53545255 
 2697              	.LASF16:
 2698 03f1 72656733 		.ascii	"reg32\000"
ARM GAS  C:\Users\CHRIST~1\AppData\Local\Temp\ccIPpNky.s 			page 88


 2698      3200
 2699              	.LASF123:
 2700 03f7 4353445F 		.ascii	"CSD_curRamSnsPtr\000"
 2700      63757252 
 2700      616D536E 
 2700      73507472 
 2700      00
 2701              	.LASF128:
 2702 0408 4353445F 		.ascii	"CSD_SsPostAllWidgetsScan\000"
 2702      5373506F 
 2702      7374416C 
 2702      6C576964 
 2702      67657473 
 2703              	.LASF33:
 2704 0421 69646163 		.ascii	"idacMod\000"
 2704      4D6F6400 
 2705              	.LASF24:
 2706 0429 4353445F 		.ascii	"CSD_SENSE_METHOD_ENUM\000"
 2706      53454E53 
 2706      455F4D45 
 2706      54484F44 
 2706      5F454E55 
 2707              	.LASF82:
 2708 043f 6E756D43 		.ascii	"numCols\000"
 2708      6F6C7300 
 2709              	.LASF18:
 2710 0447 73697A65 		.ascii	"sizetype\000"
 2710      74797065 
 2710      00
 2711              	.LASF103:
 2712 0450 61646472 		.ascii	"address\000"
 2712      65737300 
 2713              	.LASF79:
 2714 0458 73746174 		.ascii	"staticConfig\000"
 2714      6963436F 
 2714      6E666967 
 2714      00
 2715              	.LASF28:
 2716 0465 6E4E6F69 		.ascii	"nNoiseTh\000"
 2716      73655468 
 2716      00
 2717              	.LASF81:
 2718 046e 77646774 		.ascii	"wdgtType\000"
 2718      54797065 
 2718      00
 2719              	.LASF50:
 2720 0477 7363616E 		.ascii	"scanCounter\000"
 2720      436F756E 
 2720      74657200 
 2721              	.LASF89:
 2722 0483 7363616E 		.ascii	"scanStatus\000"
 2722      53746174 
 2722      757300
 2723              	.LASF120:
 2724 048e 4353445F 		.ascii	"CSD_widgetIndex\000"
 2724      77696467 
 2724      6574496E 
ARM GAS  C:\Users\CHRIST~1\AppData\Local\Temp\ccIPpNky.s 			page 89


 2724      64657800 
 2725              	.LASF49:
 2726 049e 74756E65 		.ascii	"tunerCmd\000"
 2726      72436D64 
 2726      00
 2727              	.LASF12:
 2728 04a7 666C6F61 		.ascii	"float\000"
 2728      7400
 2729              	.LASF63:
 2730 04ad 4353445F 		.ascii	"CSD_RAM_STRUCT\000"
 2730      52414D5F 
 2730      53545255 
 2730      435400
 2731              	.LASF73:
 2732 04bc 4353445F 		.ascii	"CSD_FLASH_IO_STRUCT\000"
 2732      464C4153 
 2732      485F494F 
 2732      5F535452 
 2732      55435400 
 2733              	.LASF121:
 2734 04d0 4353445F 		.ascii	"CSD_sensorIndex\000"
 2734      73656E73 
 2734      6F72496E 
 2734      64657800 
 2735              	.LASF32:
 2736 04e0 62736C6E 		.ascii	"bslnCoeff\000"
 2736      436F6566 
 2736      6600
 2737              	.LASF122:
 2738 04ea 4353445F 		.ascii	"CSD_requestScanAllWidget\000"
 2738      72657175 
 2738      65737453 
 2738      63616E41 
 2738      6C6C5769 
 2739              	.LASF29:
 2740 0503 68797374 		.ascii	"hysteresis\000"
 2740      65726573 
 2740      697300
 2741              	.LASF1:
 2742 050e 756E7369 		.ascii	"unsigned char\000"
 2742      676E6564 
 2742      20636861 
 2742      7200
 2743              	.LASF39:
 2744 051c 4353445F 		.ascii	"CSD_RAM_WD_LIST_STRUCT\000"
 2744      52414D5F 
 2744      57445F4C 
 2744      4953545F 
 2744      53545255 
 2745              	.LASF99:
 2746 0533 70696E48 		.ascii	"pinHSIOMShift\000"
 2746      53494F4D 
 2746      53686966 
 2746      7400
 2747              	.LASF102:
 2748 0541 4353445F 		.ascii	"CSD_SsIsrInitialize\000"
 2748      53734973 
ARM GAS  C:\Users\CHRIST~1\AppData\Local\Temp\ccIPpNky.s 			page 90


 2748      72496E69 
 2748      7469616C 
 2748      697A6500 
 2749              	.LASF2:
 2750 0555 73686F72 		.ascii	"short int\000"
 2750      7420696E 
 2750      7400
 2751              	.LASF118:
 2752 055f 4353445F 		.ascii	"CSD_dsFlash\000"
 2752      6473466C 
 2752      61736800 
 2753              	.LASF77:
 2754 056b 70747232 		.ascii	"ptr2FltrHistory\000"
 2754      466C7472 
 2754      48697374 
 2754      6F727900 
 2755              	.LASF110:
 2756 057b 63616C69 		.ascii	"calibrateStatus\000"
 2756      62726174 
 2756      65537461 
 2756      74757300 
 2757              	.LASF70:
 2758 058b 6873696F 		.ascii	"hsiomShift\000"
 2758      6D536869 
 2758      667400
 2759              	.LASF21:
 2760 0596 4353445F 		.ascii	"CSD_UNDEFINED_E\000"
 2760      554E4445 
 2760      46494E45 
 2760      445F4500 
 2761              	.LASF83:
 2762 05a6 4353445F 		.ascii	"CSD_FLASH_WD_STRUCT\000"
 2762      464C4153 
 2762      485F5744 
 2762      5F535452 
 2762      55435400 
 2763              	.LASF25:
 2764 05ba 7265736F 		.ascii	"resolution\000"
 2764      6C757469 
 2764      6F6E00
 2765              	.LASF90:
 2766 05c5 4353445F 		.ascii	"CSD_ScanAllWidgets\000"
 2766      5363616E 
 2766      416C6C57 
 2766      69646765 
 2766      747300
 2767              	.LASF57:
 2768 05d8 77646774 		.ascii	"wdgtList\000"
 2768      4C697374 
 2768      00
 2769              	.LASF87:
 2770 05e1 4353445F 		.ascii	"CSD_Scan\000"
 2770      5363616E 
 2770      00
 2771              	.LASF46:
 2772 05ea 4353445F 		.ascii	"CSD_RAM_SNS_LIST_STRUCT\000"
 2772      52414D5F 
ARM GAS  C:\Users\CHRIST~1\AppData\Local\Temp\ccIPpNky.s 			page 91


 2772      534E535F 
 2772      4C495354 
 2772      5F535452 
 2773              	.LASF23:
 2774 0602 4353445F 		.ascii	"CSD_SENSE_METHOD_CSX_E\000"
 2774      53454E53 
 2774      455F4D45 
 2774      54484F44 
 2774      5F435358 
 2775              	.LASF101:
 2776 0619 4353445F 		.ascii	"CSD_SetPinState\000"
 2776      53657450 
 2776      696E5374 
 2776      61746500 
 2777              	.LASF5:
 2778 0629 6C6F6E67 		.ascii	"long unsigned int\000"
 2778      20756E73 
 2778      69676E65 
 2778      6420696E 
 2778      7400
 2779              	.LASF14:
 2780 063b 63686172 		.ascii	"char\000"
 2780      00
 2781              	.LASF17:
 2782 0640 63796973 		.ascii	"cyisraddress\000"
 2782      72616464 
 2782      72657373 
 2782      00
 2783              	.LASF66:
 2784 064d 64725074 		.ascii	"drPtr\000"
 2784      7200
 2785              	.LASF34:
 2786 0653 736E7343 		.ascii	"snsClk\000"
 2786      6C6B00
 2787              	.LASF30:
 2788 065a 6F6E4465 		.ascii	"onDebounce\000"
 2788      626F756E 
 2788      636500
 2789              	.LASF37:
 2790 0665 4353445F 		.ascii	"CSD_RAM_WD_BUTTON_STRUCT\000"
 2790      52414D5F 
 2790      57445F42 
 2790      5554544F 
 2790      4E5F5354 
 2791              	.LASF42:
 2792 067e 69646163 		.ascii	"idacComp\000"
 2792      436F6D70 
 2792      00
 2793              	.LASF44:
 2794 0687 6E656742 		.ascii	"negBslnRstCnt\000"
 2794      736C6E52 
 2794      7374436E 
 2794      7400
 2795              	.LASF80:
 2796 0695 746F7461 		.ascii	"totalNumSns\000"
 2796      6C4E756D 
 2796      536E7300 
ARM GAS  C:\Users\CHRIST~1\AppData\Local\Temp\ccIPpNky.s 			page 92


 2797              	.LASF78:
 2798 06a1 70747232 		.ascii	"ptr2DebounceArr\000"
 2798      4465626F 
 2798      756E6365 
 2798      41727200 
 2799              	.LASF93:
 2800 06b1 696E6974 		.ascii	"initStatus\000"
 2800      53746174 
 2800      757300
 2801              	.LASF51:
 2802 06bc 73746174 		.ascii	"status\000"
 2802      757300
 2803              	.LASF85:
 2804 06c3 4353445F 		.ascii	"CSD_FLASH_STRUCT\000"
 2804      464C4153 
 2804      485F5354 
 2804      52554354 
 2804      00
 2805              	.LASF52:
 2806 06d4 77646774 		.ascii	"wdgtEnable\000"
 2806      456E6162 
 2806      6C6500
 2807              	.LASF114:
 2808 06df 4353445F 		.ascii	"CSD_SsSetWidgetSenseClkSrc\000"
 2808      53735365 
 2808      74576964 
 2808      67657453 
 2808      656E7365 
 2809              	.LASF96:
 2810 06fa 63757253 		.ascii	"curSnsIOPtr\000"
 2810      6E73494F 
 2810      50747200 
 2811              	.LASF97:
 2812 0706 6E657752 		.ascii	"newRegisterValue\000"
 2812      65676973 
 2812      74657256 
 2812      616C7565 
 2812      00
 2813              	.LASF35:
 2814 0717 736E7343 		.ascii	"snsClkSource\000"
 2814      6C6B536F 
 2814      75726365 
 2814      00
 2815              	.LASF15:
 2816 0724 63797374 		.ascii	"cystatus\000"
 2816      61747573 
 2816      00
 2817              	.LASF119:
 2818 072d 4353445F 		.ascii	"CSD_scanFreqIndex\000"
 2818      7363616E 
 2818      46726571 
 2818      496E6465 
 2818      7800
 2819              	.LASF26:
 2820 073f 66696E67 		.ascii	"fingerTh\000"
 2820      65725468 
 2820      00
ARM GAS  C:\Users\CHRIST~1\AppData\Local\Temp\ccIPpNky.s 			page 93


 2821              	.LASF127:
 2822 0748 4353445F 		.ascii	"CSD_IsBusy\000"
 2822      49734275 
 2822      737900
 2823              	.LASF65:
 2824 0753 70635074 		.ascii	"pcPtr\000"
 2824      7200
 2825              	.LASF61:
 2826 0759 736E7254 		.ascii	"snrTestScanCounter\000"
 2826      65737453 
 2826      63616E43 
 2826      6F756E74 
 2826      657200
 2827              	.LASF68:
 2828 076c 6873696F 		.ascii	"hsiomMask\000"
 2828      6D4D6173 
 2828      6B00
 2829              	.LASF111:
 2830 0776 4353445F 		.ascii	"CSD_CalibrateAllWidgets\000"
 2830      43616C69 
 2830      62726174 
 2830      65416C6C 
 2830      57696467 
 2831              	.LASF88:
 2832 078e 77696467 		.ascii	"widgetStatus\000"
 2832      65745374 
 2832      61747573 
 2832      00
 2833              	.LASF27:
 2834 079b 6E6F6973 		.ascii	"noiseTh\000"
 2834      65546800 
 2835              		.ident	"GCC: (GNU Tools for ARM Embedded Processors) 4.9.3 20150303 (release) [ARM/embedded-4_9-br
