ARM GAS  C:\Users\CHRIST~1\AppData\Local\Temp\cc4LKu7J.s 			page 1


   1              		.cpu cortex-m0plus
   2              		.fpu softvfp
   3              		.eabi_attribute 20, 1
   4              		.eabi_attribute 21, 1
   5              		.eabi_attribute 23, 3
   6              		.eabi_attribute 24, 1
   7              		.eabi_attribute 25, 1
   8              		.eabi_attribute 26, 1
   9              		.eabi_attribute 30, 6
  10              		.eabi_attribute 34, 0
  11              		.eabi_attribute 18, 4
  12              		.code	16
  13              		.file	"CyLib.c"
  14              		.text
  15              	.Ltext0:
  16              		.cfi_sections	.debug_frame
  17              		.global	cydelayFreqHz
  18              		.data
  19              		.align	2
  20              		.type	cydelayFreqHz, %object
  21              		.size	cydelayFreqHz, 4
  22              	cydelayFreqHz:
  23 0000 006CDC02 		.word	48000000
  24              		.global	cydelayFreqKhz
  25              		.align	2
  26              		.type	cydelayFreqKhz, %object
  27              		.size	cydelayFreqKhz, 4
  28              	cydelayFreqKhz:
  29 0004 80BB0000 		.word	48000
  30              		.global	cydelayFreqMhz
  31              		.type	cydelayFreqMhz, %object
  32              		.size	cydelayFreqMhz, 1
  33              	cydelayFreqMhz:
  34 0008 30       		.byte	48
  35              		.global	cydelay32kMs
  36 0009 000000   		.align	2
  37              		.type	cydelay32kMs, %object
  38              		.size	cydelay32kMs, 4
  39              	cydelay32kMs:
  40 000c 0000C05D 		.word	1572864000
  41              		.bss
  42              		.align	2
  43              	CySysTickCallbacks:
  44 0000 00000000 		.space	20
  44      00000000 
  44      00000000 
  44      00000000 
  44      00000000 
  45              		.global	CySysTickInitVar
  46              		.align	2
  47              		.type	CySysTickInitVar, %object
  48              		.size	CySysTickInitVar, 4
  49              	CySysTickInitVar:
  50 0014 00000000 		.space	4
  51              		.global	cyImoFreqMhz2DpllOffset
  52              		.section	.rodata
  53              		.align	2
ARM GAS  C:\Users\CHRIST~1\AppData\Local\Temp\cc4LKu7J.s 			page 2


  54              		.type	cyImoFreqMhz2DpllOffset, %object
  55              		.size	cyImoFreqMhz2DpllOffset, 23
  56              	cyImoFreqMhz2DpllOffset:
  57 0000 EE       		.byte	-18
  58 0001 DB       		.byte	-37
  59 0002 C9       		.byte	-55
  60 0003 B9       		.byte	-71
  61 0004 AA       		.byte	-86
  62 0005 9B       		.byte	-101
  63 0006 8E       		.byte	-114
  64 0007 82       		.byte	-126
  65 0008 76       		.byte	118
  66 0009 6B       		.byte	107
  67 000a 60       		.byte	96
  68 000b 56       		.byte	86
  69 000c 4D       		.byte	77
  70 000d 44       		.byte	68
  71 000e 3B       		.byte	59
  72 000f 33       		.byte	51
  73 0010 2C       		.byte	44
  74 0011 24       		.byte	36
  75 0012 1D       		.byte	29
  76 0013 17       		.byte	23
  77 0014 10       		.byte	16
  78 0015 0A       		.byte	10
  79 0016 04       		.byte	4
  80 0017 00       		.section	.text.CySysClkImoStart,"ax",%progbits
  81              		.align	2
  82              		.global	CySysClkImoStart
  83              		.code	16
  84              		.thumb_func
  85              		.type	CySysClkImoStart, %function
  86              	CySysClkImoStart:
  87              	.LFB1:
  88              		.file 1 "Generated_Source\\PSoC4\\CyLib.c"
   1:Generated_Source\PSoC4/CyLib.c **** /***************************************************************************//**
   2:Generated_Source\PSoC4/CyLib.c **** * \file CyLib.c
   3:Generated_Source\PSoC4/CyLib.c **** * \version 5.40
   4:Generated_Source\PSoC4/CyLib.c **** *
   5:Generated_Source\PSoC4/CyLib.c **** * \brief Provides a system API for the Clocking, Interrupts, SysTick, and
   6:Generated_Source\PSoC4/CyLib.c **** * Voltage Detect.
   7:Generated_Source\PSoC4/CyLib.c **** *
   8:Generated_Source\PSoC4/CyLib.c **** * \note Documentation of the API's in this file is located in the PSoC 4 System
   9:Generated_Source\PSoC4/CyLib.c **** * Reference Guide provided with PSoC Creator.
  10:Generated_Source\PSoC4/CyLib.c **** *
  11:Generated_Source\PSoC4/CyLib.c **** ********************************************************************************
  12:Generated_Source\PSoC4/CyLib.c **** * \copyright
  13:Generated_Source\PSoC4/CyLib.c **** * Copyright 2010-2016, Cypress Semiconductor Corporation.  All rights reserved.
  14:Generated_Source\PSoC4/CyLib.c **** * You may use this file only in accordance with the license, terms, conditions,
  15:Generated_Source\PSoC4/CyLib.c **** * disclaimers, and limitations in the end user license agreement accompanying
  16:Generated_Source\PSoC4/CyLib.c **** * the software package with which this file was provided.
  17:Generated_Source\PSoC4/CyLib.c **** *******************************************************************************/
  18:Generated_Source\PSoC4/CyLib.c **** 
  19:Generated_Source\PSoC4/CyLib.c **** #include "CyLib.h"
  20:Generated_Source\PSoC4/CyLib.c **** 
  21:Generated_Source\PSoC4/CyLib.c **** /* CySysClkWriteImoFreq() || CySysClkImoEnableWcoLock() */
  22:Generated_Source\PSoC4/CyLib.c **** #if ((CY_IP_SRSSV2 && CY_IP_FMLT) || CY_IP_IMO_TRIMMABLE_BY_WCO)
ARM GAS  C:\Users\CHRIST~1\AppData\Local\Temp\cc4LKu7J.s 			page 3


  23:Generated_Source\PSoC4/CyLib.c ****     #include "CyFlash.h"
  24:Generated_Source\PSoC4/CyLib.c **** #endif /* (CY_IP_SRSSV2 && CY_IP_FMLT) */
  25:Generated_Source\PSoC4/CyLib.c **** 
  26:Generated_Source\PSoC4/CyLib.c **** /* Do not use these definitions directly in your application */
  27:Generated_Source\PSoC4/CyLib.c **** uint32 cydelayFreqHz  = CYDEV_BCLK__SYSCLK__HZ;
  28:Generated_Source\PSoC4/CyLib.c **** uint32 cydelayFreqKhz = (CYDEV_BCLK__SYSCLK__HZ + CY_DELAY_1K_MINUS_1_THRESHOLD) / CY_DELAY_1K_THRE
  29:Generated_Source\PSoC4/CyLib.c **** uint8  cydelayFreqMhz = (uint8)((CYDEV_BCLK__SYSCLK__HZ + CY_DELAY_1M_MINUS_1_THRESHOLD) / CY_DELAY
  30:Generated_Source\PSoC4/CyLib.c **** uint32 cydelay32kMs   = CY_DELAY_MS_OVERFLOW * ((CYDEV_BCLK__SYSCLK__HZ + CY_DELAY_1K_MINUS_1_THRES
  31:Generated_Source\PSoC4/CyLib.c ****                         CY_DELAY_1K_THRESHOLD);
  32:Generated_Source\PSoC4/CyLib.c **** 
  33:Generated_Source\PSoC4/CyLib.c **** 
  34:Generated_Source\PSoC4/CyLib.c **** static cySysTickCallback CySysTickCallbacks[CY_SYS_SYST_NUM_OF_CALLBACKS];
  35:Generated_Source\PSoC4/CyLib.c **** static void CySysTickServiceCallbacks(void);
  36:Generated_Source\PSoC4/CyLib.c **** #if (CY_IP_SRSSV2 && CY_IP_PLL)
  37:Generated_Source\PSoC4/CyLib.c ****     static uint32 CySysClkPllGetBypassMode(uint32 pll);
  38:Generated_Source\PSoC4/CyLib.c ****     static cystatus CySysClkPllConfigChangeAllowed(uint32 pll);
  39:Generated_Source\PSoC4/CyLib.c **** #endif /* #if (CY_IP_SRSSV2 && CY_IP_PLL) */
  40:Generated_Source\PSoC4/CyLib.c **** 
  41:Generated_Source\PSoC4/CyLib.c **** 
  42:Generated_Source\PSoC4/CyLib.c **** /***************************************************************************//**
  43:Generated_Source\PSoC4/CyLib.c **** * Indicates whether or not the SysTick has been initialized. The variable is
  44:Generated_Source\PSoC4/CyLib.c **** * initialized to 0 and set to 1 the first time CySysTickStart() is called.
  45:Generated_Source\PSoC4/CyLib.c **** *
  46:Generated_Source\PSoC4/CyLib.c **** * This allows the component to restart without reinitialization after the first
  47:Generated_Source\PSoC4/CyLib.c **** * call to the CySysTickStart() routine.
  48:Generated_Source\PSoC4/CyLib.c **** *
  49:Generated_Source\PSoC4/CyLib.c **** * If reinitialization of the SysTick is required, call CySysTickInit() before
  50:Generated_Source\PSoC4/CyLib.c **** * calling CySysTickStart(). Alternatively, the SysTick can be reinitialized by
  51:Generated_Source\PSoC4/CyLib.c **** * calling the CySysTickInit() and CySysTickEnable() functions.
  52:Generated_Source\PSoC4/CyLib.c **** *******************************************************************************/
  53:Generated_Source\PSoC4/CyLib.c **** uint32 CySysTickInitVar = 0u;
  54:Generated_Source\PSoC4/CyLib.c **** 
  55:Generated_Source\PSoC4/CyLib.c **** 
  56:Generated_Source\PSoC4/CyLib.c **** #if(CY_IP_SRSSV2)
  57:Generated_Source\PSoC4/CyLib.c ****         /* Conversion between CySysClkWriteImoFreq() parameter and register's value */
  58:Generated_Source\PSoC4/CyLib.c ****         const uint8 cyImoFreqMhz2Reg[CY_SYS_CLK_IMO_FREQ_TABLE_SIZE] = {
  59:Generated_Source\PSoC4/CyLib.c ****             /*  3 MHz */ 0x03u,  /*  4 MHz */ 0x04u,  /*  5 MHz */ 0x05u,  /*  6 MHz */ 0x06u,
  60:Generated_Source\PSoC4/CyLib.c ****             /*  7 MHz */ 0x07u,  /*  8 MHz */ 0x08u,  /*  9 MHz */ 0x09u,  /* 10 MHz */ 0x0Au,
  61:Generated_Source\PSoC4/CyLib.c ****             /* 11 MHz */ 0x0Bu,  /* 12 MHz */ 0x0Cu,  /* 13 MHz */ 0x0Eu,  /* 14 MHz */ 0x0Fu,
  62:Generated_Source\PSoC4/CyLib.c ****             /* 15 MHz */ 0x10u,  /* 16 MHz */ 0x11u,  /* 17 MHz */ 0x12u,  /* 18 MHz */ 0x13u,
  63:Generated_Source\PSoC4/CyLib.c ****             /* 19 MHz */ 0x14u,  /* 20 MHz */ 0x15u,  /* 21 MHz */ 0x16u,  /* 22 MHz */ 0x17u,
  64:Generated_Source\PSoC4/CyLib.c ****             /* 23 MHz */ 0x18u,  /* 24 MHz */ 0x19u,  /* 25 MHz */ 0x1Bu,  /* 26 MHz */ 0x1Cu,
  65:Generated_Source\PSoC4/CyLib.c ****             /* 27 MHz */ 0x1Du,  /* 28 MHz */ 0x1Eu,  /* 29 MHz */ 0x1Fu,  /* 30 MHz */ 0x20u,
  66:Generated_Source\PSoC4/CyLib.c ****             /* 31 MHz */ 0x21u,  /* 32 MHz */ 0x22u,  /* 33 MHz */ 0x23u,  /* 34 MHz */ 0x25u,
  67:Generated_Source\PSoC4/CyLib.c ****             /* 35 MHz */ 0x26u,  /* 36 MHz */ 0x27u,  /* 37 MHz */ 0x28u,  /* 38 MHz */ 0x29u,
  68:Generated_Source\PSoC4/CyLib.c ****             /* 39 MHz */ 0x2Au,  /* 40 MHz */ 0x2Bu,  /* 41 MHz */ 0x2Eu,  /* 42 MHz */ 0x2Fu,
  69:Generated_Source\PSoC4/CyLib.c ****             /* 43 MHz */ 0x30u,  /* 44 MHz */ 0x31u,  /* 45 MHz */ 0x32u,  /* 46 MHz */ 0x33u,
  70:Generated_Source\PSoC4/CyLib.c ****             /* 47 MHz */ 0x34u,  /* 48 MHz */ 0x35u };
  71:Generated_Source\PSoC4/CyLib.c **** #endif /* (CY_IP_SRSSV2) */
  72:Generated_Source\PSoC4/CyLib.c **** 
  73:Generated_Source\PSoC4/CyLib.c **** #if (CY_IP_IMO_TRIMMABLE_BY_WCO)
  74:Generated_Source\PSoC4/CyLib.c ****         /* Conversion between IMO frequency and WCO DPLL max offset steps */
  75:Generated_Source\PSoC4/CyLib.c ****         const uint8 cyImoFreqMhz2DpllOffset[CY_SYS_CLK_IMO_FREQ_WCO_DPLL_TABLE_SIZE] = {
  76:Generated_Source\PSoC4/CyLib.c ****             /* 26 MHz */  238u, /* 27 MHz */  219u, /* 28 MHz */  201u, /* 29 MHz */  185u,
  77:Generated_Source\PSoC4/CyLib.c ****             /* 30 MHz */  170u, /* 31 MHz */  155u, /* 32 MHz */  142u, /* 33 MHz */  130u,
  78:Generated_Source\PSoC4/CyLib.c ****             /* 34 MHz */  118u, /* 35 MHz */  107u, /* 36 MHz */   96u, /* 37 MHz */  86u,
  79:Generated_Source\PSoC4/CyLib.c ****             /* 38 MHz */   77u, /* 39 MHz */   68u, /* 40 MHz */   59u, /* 41 MHz */  51u,
ARM GAS  C:\Users\CHRIST~1\AppData\Local\Temp\cc4LKu7J.s 			page 4


  80:Generated_Source\PSoC4/CyLib.c ****             /* 42 MHz */   44u, /* 43 MHz */   36u, /* 44 MHz */   29u, /* 45 MHz */  23u,
  81:Generated_Source\PSoC4/CyLib.c ****             /* 46 MHz */   16u, /* 47 MHz */   10u, /* 48 MHz */   4u };
  82:Generated_Source\PSoC4/CyLib.c **** #endif /* (CY_IP_IMO_TRIMMABLE_BY_WCO) */
  83:Generated_Source\PSoC4/CyLib.c **** 
  84:Generated_Source\PSoC4/CyLib.c **** /* Stored CY_SYS_CLK_IMO_TRIM4_REG when modified for USB lock */
  85:Generated_Source\PSoC4/CyLib.c **** #if (CY_IP_IMO_TRIMMABLE_BY_USB && CY_IP_SRSSV2)
  86:Generated_Source\PSoC4/CyLib.c ****     uint32 CySysClkImoTrim4 = 0u;
  87:Generated_Source\PSoC4/CyLib.c **** #endif /* (CY_IP_IMO_TRIMMABLE_BY_USB && CY_IP_SRSSV2) */
  88:Generated_Source\PSoC4/CyLib.c **** 
  89:Generated_Source\PSoC4/CyLib.c **** 
  90:Generated_Source\PSoC4/CyLib.c **** /*******************************************************************************
  91:Generated_Source\PSoC4/CyLib.c **** * Function Name: CySysClkImoStart
  92:Generated_Source\PSoC4/CyLib.c **** ****************************************************************************//**
  93:Generated_Source\PSoC4/CyLib.c **** *
  94:Generated_Source\PSoC4/CyLib.c **** * Enables the IMO.
  95:Generated_Source\PSoC4/CyLib.c **** *
  96:Generated_Source\PSoC4/CyLib.c **** * For PSoC 4100M / PSoC 4200M / PSoC 4000S / PSoC 4100S / PSoC 4400 devices,
  97:Generated_Source\PSoC4/CyLib.c **** * this function will also enable WCO lock if selected in the Design Wide
  98:Generated_Source\PSoC4/CyLib.c **** * Resources tab.
  99:Generated_Source\PSoC4/CyLib.c **** *
 100:Generated_Source\PSoC4/CyLib.c **** * For PSoC 4200L / devices, this function will also enable USB lock if selected
 101:Generated_Source\PSoC4/CyLib.c **** * in the Design Wide Resources tab.
 102:Generated_Source\PSoC4/CyLib.c **** *
 103:Generated_Source\PSoC4/CyLib.c **** *******************************************************************************/
 104:Generated_Source\PSoC4/CyLib.c **** void CySysClkImoStart(void)
 105:Generated_Source\PSoC4/CyLib.c **** {
  89              		.loc 1 105 0
  90              		.cfi_startproc
  91 0000 80B5     		push	{r7, lr}
  92              		.cfi_def_cfa_offset 8
  93              		.cfi_offset 7, -8
  94              		.cfi_offset 14, -4
  95 0002 00AF     		add	r7, sp, #0
  96              		.cfi_def_cfa_register 7
 106:Generated_Source\PSoC4/CyLib.c ****     CY_SYS_CLK_IMO_CONFIG_REG |= CY_SYS_CLK_IMO_CONFIG_ENABLE;
  97              		.loc 1 106 0
  98 0004 044B     		ldr	r3, .L2
  99 0006 044A     		ldr	r2, .L2
 100 0008 1268     		ldr	r2, [r2]
 101 000a 8021     		mov	r1, #128
 102 000c 0906     		lsl	r1, r1, #24
 103 000e 0A43     		orr	r2, r1
 104 0010 1A60     		str	r2, [r3]
 107:Generated_Source\PSoC4/CyLib.c **** 
 108:Generated_Source\PSoC4/CyLib.c ****     #if (CY_IP_IMO_TRIMMABLE_BY_WCO)
 109:Generated_Source\PSoC4/CyLib.c ****         #if (CYDEV_IMO_TRIMMED_BY_WCO == 1u)
 110:Generated_Source\PSoC4/CyLib.c ****             CySysClkImoEnableWcoLock();
 111:Generated_Source\PSoC4/CyLib.c ****         #endif  /* (CYDEV_IMO_TRIMMED_BY_WCO == 1u) */
 112:Generated_Source\PSoC4/CyLib.c ****     #endif  /* (CY_IP_IMO_TRIMMABLE_BY_WCO) */
 113:Generated_Source\PSoC4/CyLib.c **** 
 114:Generated_Source\PSoC4/CyLib.c **** 
 115:Generated_Source\PSoC4/CyLib.c ****     #if (CY_IP_IMO_TRIMMABLE_BY_USB)
 116:Generated_Source\PSoC4/CyLib.c ****         #if (CYDEV_IMO_TRIMMED_BY_USB == 1u)
 117:Generated_Source\PSoC4/CyLib.c ****             CySysClkImoEnableUsbLock();
 118:Generated_Source\PSoC4/CyLib.c ****         #endif  /* (CYDEV_IMO_TRIMMED_BY_USB == 1u) */
 119:Generated_Source\PSoC4/CyLib.c ****     #endif  /* (CY_IP_IMO_TRIMMABLE_BY_USB) */
 120:Generated_Source\PSoC4/CyLib.c **** 
ARM GAS  C:\Users\CHRIST~1\AppData\Local\Temp\cc4LKu7J.s 			page 5


 121:Generated_Source\PSoC4/CyLib.c **** }
 105              		.loc 1 121 0
 106 0012 BD46     		mov	sp, r7
 107              		@ sp needed
 108 0014 80BD     		pop	{r7, pc}
 109              	.L3:
 110 0016 C046     		.align	2
 111              	.L2:
 112 0018 30000340 		.word	1073938480
 113              		.cfi_endproc
 114              	.LFE1:
 115              		.size	CySysClkImoStart, .-CySysClkImoStart
 116              		.section	.text.CySysClkImoStop,"ax",%progbits
 117              		.align	2
 118              		.global	CySysClkImoStop
 119              		.code	16
 120              		.thumb_func
 121              		.type	CySysClkImoStop, %function
 122              	CySysClkImoStop:
 123              	.LFB2:
 122:Generated_Source\PSoC4/CyLib.c **** 
 123:Generated_Source\PSoC4/CyLib.c **** 
 124:Generated_Source\PSoC4/CyLib.c **** /*******************************************************************************
 125:Generated_Source\PSoC4/CyLib.c **** * Function Name: CySysClkImoStop
 126:Generated_Source\PSoC4/CyLib.c **** ****************************************************************************//**
 127:Generated_Source\PSoC4/CyLib.c **** *
 128:Generated_Source\PSoC4/CyLib.c **** * Disables the IMO.
 129:Generated_Source\PSoC4/CyLib.c **** *
 130:Generated_Source\PSoC4/CyLib.c **** * For PSoC 4100M / PSoC 4200M / PSoC 4000S / PSoC 4100S / PSoC 4400 devices,
 131:Generated_Source\PSoC4/CyLib.c **** * this function will also disable WCO lock.
 132:Generated_Source\PSoC4/CyLib.c **** *
 133:Generated_Source\PSoC4/CyLib.c **** * For PSoC PSoC 4200L devices, this function will also disable USB lock.
 134:Generated_Source\PSoC4/CyLib.c **** *
 135:Generated_Source\PSoC4/CyLib.c **** *******************************************************************************/
 136:Generated_Source\PSoC4/CyLib.c **** void CySysClkImoStop(void)
 137:Generated_Source\PSoC4/CyLib.c **** {
 124              		.loc 1 137 0
 125              		.cfi_startproc
 126 0000 80B5     		push	{r7, lr}
 127              		.cfi_def_cfa_offset 8
 128              		.cfi_offset 7, -8
 129              		.cfi_offset 14, -4
 130 0002 00AF     		add	r7, sp, #0
 131              		.cfi_def_cfa_register 7
 138:Generated_Source\PSoC4/CyLib.c ****     #if (CY_IP_IMO_TRIMMABLE_BY_WCO)
 139:Generated_Source\PSoC4/CyLib.c ****         CySysClkImoDisableWcoLock();
 132              		.loc 1 139 0
 133 0004 FFF7FEFF 		bl	CySysClkImoDisableWcoLock
 140:Generated_Source\PSoC4/CyLib.c ****     #endif  /* (CY_IP_IMO_TRIMMABLE_BY_WCO) */
 141:Generated_Source\PSoC4/CyLib.c **** 
 142:Generated_Source\PSoC4/CyLib.c ****     #if (CY_IP_IMO_TRIMMABLE_BY_USB)
 143:Generated_Source\PSoC4/CyLib.c ****         CySysClkImoDisableUsbLock();
 144:Generated_Source\PSoC4/CyLib.c ****     #endif  /* (CY_IP_IMO_TRIMMABLE_BY_USB) */
 145:Generated_Source\PSoC4/CyLib.c **** 
 146:Generated_Source\PSoC4/CyLib.c ****     CY_SYS_CLK_IMO_CONFIG_REG &= ( uint32 ) ( ~( uint32 )CY_SYS_CLK_IMO_CONFIG_ENABLE);
 134              		.loc 1 146 0
 135 0008 034B     		ldr	r3, .L5
ARM GAS  C:\Users\CHRIST~1\AppData\Local\Temp\cc4LKu7J.s 			page 6


 136 000a 034A     		ldr	r2, .L5
 137 000c 1268     		ldr	r2, [r2]
 138 000e 5200     		lsl	r2, r2, #1
 139 0010 5208     		lsr	r2, r2, #1
 140 0012 1A60     		str	r2, [r3]
 147:Generated_Source\PSoC4/CyLib.c **** }
 141              		.loc 1 147 0
 142 0014 BD46     		mov	sp, r7
 143              		@ sp needed
 144 0016 80BD     		pop	{r7, pc}
 145              	.L6:
 146              		.align	2
 147              	.L5:
 148 0018 30000340 		.word	1073938480
 149              		.cfi_endproc
 150              	.LFE2:
 151              		.size	CySysClkImoStop, .-CySysClkImoStop
 152              		.section	.text.CySysClkImoEnableWcoLock,"ax",%progbits
 153              		.align	2
 154              		.global	CySysClkImoEnableWcoLock
 155              		.code	16
 156              		.thumb_func
 157              		.type	CySysClkImoEnableWcoLock, %function
 158              	CySysClkImoEnableWcoLock:
 159              	.LFB3:
 148:Generated_Source\PSoC4/CyLib.c **** 
 149:Generated_Source\PSoC4/CyLib.c **** #if (CY_IP_IMO_TRIMMABLE_BY_WCO)
 150:Generated_Source\PSoC4/CyLib.c **** 
 151:Generated_Source\PSoC4/CyLib.c ****     /*******************************************************************************
 152:Generated_Source\PSoC4/CyLib.c ****     * Function Name: CySysClkImoEnableWcoLock
 153:Generated_Source\PSoC4/CyLib.c ****     ****************************************************************************//**
 154:Generated_Source\PSoC4/CyLib.c ****     *
 155:Generated_Source\PSoC4/CyLib.c ****     * Enables the IMO to WCO lock feature. This function works only if the WCO is
 156:Generated_Source\PSoC4/CyLib.c ****     * already enabled. If the WCO is not enabled then this function returns
 157:Generated_Source\PSoC4/CyLib.c ****     * without enabling the lock feature.
 158:Generated_Source\PSoC4/CyLib.c ****     *
 159:Generated_Source\PSoC4/CyLib.c ****     * It takes up to 20 ms for the IMO to stabilize. The delay is implemented with
 160:Generated_Source\PSoC4/CyLib.c ****     * CyDelay() function. The delay interval is measured based on the system
 161:Generated_Source\PSoC4/CyLib.c ****     * frequency defined by PSoC Creator at build time. If System clock frequency
 162:Generated_Source\PSoC4/CyLib.c ****     * is changed in runtime, the CyDelayFreq() with the appropriate parameter
 163:Generated_Source\PSoC4/CyLib.c ****     * should be called.
 164:Generated_Source\PSoC4/CyLib.c ****     *
 165:Generated_Source\PSoC4/CyLib.c ****     * For PSoC 4200L devices, note that the IMO can lock to either WCO or USB
 166:Generated_Source\PSoC4/CyLib.c ****     * but not both.
 167:Generated_Source\PSoC4/CyLib.c ****     *
 168:Generated_Source\PSoC4/CyLib.c ****     * This function is applicable for PSoC 4100M / PSoC 4200M / PSoC 4000S /
 169:Generated_Source\PSoC4/CyLib.c ****     * PSoC 4100S / PSoC 4400 / PSoC 4200L.
 170:Generated_Source\PSoC4/CyLib.c ****     *
 171:Generated_Source\PSoC4/CyLib.c ****     *******************************************************************************/
 172:Generated_Source\PSoC4/CyLib.c ****     void CySysClkImoEnableWcoLock(void)
 173:Generated_Source\PSoC4/CyLib.c ****     {
 160              		.loc 1 173 0
 161              		.cfi_startproc
 162 0000 90B5     		push	{r4, r7, lr}
 163              		.cfi_def_cfa_offset 12
 164              		.cfi_offset 4, -12
 165              		.cfi_offset 7, -8
ARM GAS  C:\Users\CHRIST~1\AppData\Local\Temp\cc4LKu7J.s 			page 7


 166              		.cfi_offset 14, -4
 167 0002 87B0     		sub	sp, sp, #28
 168              		.cfi_def_cfa_offset 40
 169 0004 00AF     		add	r7, sp, #0
 170              		.cfi_def_cfa_register 7
 174:Generated_Source\PSoC4/CyLib.c ****         #if(CY_IP_SRSSV2)
 175:Generated_Source\PSoC4/CyLib.c ****             uint32 i;
 176:Generated_Source\PSoC4/CyLib.c ****         #endif  /* (CY_IP_SRSSV2) */
 177:Generated_Source\PSoC4/CyLib.c **** 
 178:Generated_Source\PSoC4/CyLib.c ****         uint32 freq;
 179:Generated_Source\PSoC4/CyLib.c ****         uint8  interruptState;
 180:Generated_Source\PSoC4/CyLib.c ****         uint32 regTmp;
 181:Generated_Source\PSoC4/CyLib.c ****         uint32 lfLimit = 0u;
 171              		.loc 1 181 0
 172 0006 0023     		mov	r3, #0
 173 0008 3B61     		str	r3, [r7, #16]
 182:Generated_Source\PSoC4/CyLib.c ****         volatile uint32 flashCtlReg;
 183:Generated_Source\PSoC4/CyLib.c **** 
 184:Generated_Source\PSoC4/CyLib.c ****         if (0u != CySysClkWcoEnabled())
 174              		.loc 1 184 0
 175 000a FFF7FEFF 		bl	CySysClkWcoEnabled
 176 000e 031E     		sub	r3, r0, #0
 177 0010 69D0     		beq	.L7
 185:Generated_Source\PSoC4/CyLib.c ****         {
 186:Generated_Source\PSoC4/CyLib.c ****             interruptState = CyEnterCriticalSection();
 178              		.loc 1 186 0
 179 0012 0F23     		mov	r3, #15
 180 0014 FC18     		add	r4, r7, r3
 181 0016 FFF7FEFF 		bl	CyEnterCriticalSection
 182 001a 031C     		mov	r3, r0
 183 001c 2370     		strb	r3, [r4]
 187:Generated_Source\PSoC4/CyLib.c **** 
 188:Generated_Source\PSoC4/CyLib.c ****             /* Set oscillator interface control port to WCO */
 189:Generated_Source\PSoC4/CyLib.c ****             #if (CY_IP_IMO_TRIMMABLE_BY_WCO && CY_IP_IMO_TRIMMABLE_BY_USB)
 190:Generated_Source\PSoC4/CyLib.c ****                 CY_SYS_CLK_OSCINTF_CTL_REG =
 191:Generated_Source\PSoC4/CyLib.c ****                     (CY_SYS_CLK_OSCINTF_CTL_REG & (uint32) ~CY_SYS_CLK_OSCINTF_CTL_PORT_SEL_MASK) |
 192:Generated_Source\PSoC4/CyLib.c ****                     CY_SYS_CLK_OSCINTF_CTL_PORT_SEL_WCO;
 193:Generated_Source\PSoC4/CyLib.c ****             #endif /* (CY_IP_IMO_TRIMMABLE_BY_WCO && CY_IP_IMO_TRIMMABLE_BY_USB) */
 194:Generated_Source\PSoC4/CyLib.c **** 
 195:Generated_Source\PSoC4/CyLib.c ****             /* Get current IMO frequency based on the register value */
 196:Generated_Source\PSoC4/CyLib.c ****             #if(CY_IP_SRSSV2)
 197:Generated_Source\PSoC4/CyLib.c ****                 freq = CY_SYS_CLK_IMO_MIN_FREQ_MHZ;
 198:Generated_Source\PSoC4/CyLib.c ****                 for(i = 0u; i < CY_SYS_CLK_IMO_FREQ_TABLE_SIZE; i++)
 199:Generated_Source\PSoC4/CyLib.c ****                 {
 200:Generated_Source\PSoC4/CyLib.c ****                     if ((uint8) (CY_SYS_CLK_IMO_TRIM2_REG & CY_SYS_CLK_IMO_FREQ_BITS_MASK) == cyImo
 201:Generated_Source\PSoC4/CyLib.c ****                     {
 202:Generated_Source\PSoC4/CyLib.c ****                         freq = i + CY_SYS_CLK_IMO_FREQ_TABLE_OFFSET;
 203:Generated_Source\PSoC4/CyLib.c ****                         break;
 204:Generated_Source\PSoC4/CyLib.c ****                     }
 205:Generated_Source\PSoC4/CyLib.c ****                 }
 206:Generated_Source\PSoC4/CyLib.c ****             #else
 207:Generated_Source\PSoC4/CyLib.c ****                 /* Calculate frequency by shifting register field value and adding constant. */
 208:Generated_Source\PSoC4/CyLib.c ****                 #if(CY_IP_SRSSLT)
 209:Generated_Source\PSoC4/CyLib.c ****                     freq = (((uint32) ((CY_SYS_CLK_IMO_SELECT_REG & ((uint32) CY_SYS_CLK_IMO_SELECT
 184              		.loc 1 209 0
 185 001e 334B     		ldr	r3, .L12
 186 0020 1B68     		ldr	r3, [r3]
ARM GAS  C:\Users\CHRIST~1\AppData\Local\Temp\cc4LKu7J.s 			page 8


 187 0022 0722     		mov	r2, #7
 188 0024 1340     		and	r3, r2
 189 0026 9B00     		lsl	r3, r3, #2
 210:Generated_Source\PSoC4/CyLib.c ****                                         CY_SYS_CLK_IMO_SELECT_FREQ_SHIFT) + CY_SYS_CLK_IMO_MIN_FREQ
 190              		.loc 1 210 0
 191 0028 1833     		add	r3, r3, #24
 192 002a 1A1C     		mov	r2, r3
 211:Generated_Source\PSoC4/CyLib.c ****                                       ((CY_SYS_CLK_SELECT_REG >> CY_SYS_CLK_SELECT_HFCLK_DIV_SHIFT)
 193              		.loc 1 211 0
 194 002c 304B     		ldr	r3, .L12+4
 195 002e 1B68     		ldr	r3, [r3]
 196 0030 9B08     		lsr	r3, r3, #2
 210:Generated_Source\PSoC4/CyLib.c ****                                         CY_SYS_CLK_IMO_SELECT_FREQ_SHIFT) + CY_SYS_CLK_IMO_MIN_FREQ
 197              		.loc 1 210 0
 198 0032 191C     		mov	r1, r3
 199 0034 0323     		mov	r3, #3
 200 0036 0B40     		and	r3, r1
 209:Generated_Source\PSoC4/CyLib.c ****                                         CY_SYS_CLK_IMO_SELECT_FREQ_SHIFT) + CY_SYS_CLK_IMO_MIN_FREQ
 201              		.loc 1 209 0
 202 0038 DA40     		lsr	r2, r2, r3
 203 003a 131C     		mov	r3, r2
 204 003c BB60     		str	r3, [r7, #8]
 212:Generated_Source\PSoC4/CyLib.c ****                                        (uint32) CY_SYS_CLK_SELECT_HFCLK_DIV_MASK));
 213:Generated_Source\PSoC4/CyLib.c ****                 #else
 214:Generated_Source\PSoC4/CyLib.c ****                     freq = ((uint32) ((CY_SYS_CLK_IMO_SELECT_REG & ((uint32) CY_SYS_CLK_IMO_SELECT_
 215:Generated_Source\PSoC4/CyLib.c ****                                        CY_SYS_CLK_IMO_SELECT_FREQ_SHIFT) + CY_SYS_CLK_IMO_MIN_FREQ_
 216:Generated_Source\PSoC4/CyLib.c ****                 #endif  /* (CY_IP_SRSSLT) */
 217:Generated_Source\PSoC4/CyLib.c **** 
 218:Generated_Source\PSoC4/CyLib.c ****             #endif  /* (CY_IP_SRSSV2) */
 219:Generated_Source\PSoC4/CyLib.c **** 
 220:Generated_Source\PSoC4/CyLib.c ****             /* For the WCO locking mode, the IMO gain needs to be CY_SYS_CLK_IMO_TRIM4_GAIN */
 221:Generated_Source\PSoC4/CyLib.c ****             #if(CY_IP_SRSSV2)
 222:Generated_Source\PSoC4/CyLib.c ****                 if ((CY_SYS_CLK_IMO_TRIM4_REG & CY_SYS_CLK_IMO_TRIM4_GAIN_MASK) == 0u)
 223:Generated_Source\PSoC4/CyLib.c ****                 {
 224:Generated_Source\PSoC4/CyLib.c **** 			         CY_SYS_CLK_IMO_TRIM4_REG = (CY_SYS_CLK_IMO_TRIM4_REG & (uint32) ~CY_SYS_CLK_IMO_TRIM4_G
 225:Generated_Source\PSoC4/CyLib.c **** 			                  				     CY_SYS_CLK_IMO_TRIM4_WCO_GAIN;
 226:Generated_Source\PSoC4/CyLib.c ****                 }
 227:Generated_Source\PSoC4/CyLib.c ****             #endif /* (CY_IP_SRSSV2) */
 228:Generated_Source\PSoC4/CyLib.c **** 
 229:Generated_Source\PSoC4/CyLib.c ****             regTmp  = CY_SYS_CLK_WCO_DPLL_REG & ~(CY_SYS_CLK_WCO_DPLL_MULT_MASK |
 205              		.loc 1 229 0
 206 003e 2D4B     		ldr	r3, .L12+8
 207 0040 1B68     		ldr	r3, [r3]
 208 0042 2D4A     		ldr	r2, .L12+12
 209 0044 1340     		and	r3, r2
 210 0046 7B61     		str	r3, [r7, #20]
 230:Generated_Source\PSoC4/CyLib.c ****                                                   CY_SYS_CLK_WCO_CONFIG_DPLL_LF_IGAIN_MASK |
 231:Generated_Source\PSoC4/CyLib.c ****                                                   CY_SYS_CLK_WCO_CONFIG_DPLL_LF_PGAIN_MASK |
 232:Generated_Source\PSoC4/CyLib.c ****                                                   CY_SYS_CLK_WCO_CONFIG_DPLL_LF_LIMIT_MASK);
 233:Generated_Source\PSoC4/CyLib.c **** 
 234:Generated_Source\PSoC4/CyLib.c ****             /* Set multiplier to determine IMO frequency in multiples of the WCO frequency */
 235:Generated_Source\PSoC4/CyLib.c ****             regTmp |= (CY_SYS_CLK_WCO_DPLL_MULT_VALUE(freq) & CY_SYS_CLK_WCO_DPLL_MULT_MASK);
 211              		.loc 1 235 0
 212 0048 BB68     		ldr	r3, [r7, #8]
 213 004a 2C4A     		ldr	r2, .L12+16
 214 004c 5343     		mul	r3, r2
 215 004e 8022     		mov	r2, #128
ARM GAS  C:\Users\CHRIST~1\AppData\Local\Temp\cc4LKu7J.s 			page 9


 216 0050 D201     		lsl	r2, r2, #7
 217 0052 9446     		mov	ip, r2
 218 0054 6344     		add	r3, r3, ip
 219 0056 DB0B     		lsr	r3, r3, #15
 220 0058 013B     		sub	r3, r3, #1
 221 005a 5B05     		lsl	r3, r3, #21
 222 005c 5B0D     		lsr	r3, r3, #21
 223 005e 7A69     		ldr	r2, [r7, #20]
 224 0060 1343     		orr	r3, r2
 225 0062 7B61     		str	r3, [r7, #20]
 236:Generated_Source\PSoC4/CyLib.c **** 
 237:Generated_Source\PSoC4/CyLib.c ****             /* Set DPLL Loop Filter Integral and Proportional Gains Setting */
 238:Generated_Source\PSoC4/CyLib.c ****             regTmp |= (CY_SYS_CLK_WCO_CONFIG_DPLL_LF_IGAIN | CY_SYS_CLK_WCO_CONFIG_DPLL_LF_PGAIN);
 226              		.loc 1 238 0
 227 0064 7B69     		ldr	r3, [r7, #20]
 228 0066 A022     		mov	r2, #160
 229 0068 5203     		lsl	r2, r2, #13
 230 006a 1343     		orr	r3, r2
 231 006c 7B61     		str	r3, [r7, #20]
 239:Generated_Source\PSoC4/CyLib.c **** 
 240:Generated_Source\PSoC4/CyLib.c ****             /* Set maximum allowed IMO offset */
 241:Generated_Source\PSoC4/CyLib.c ****             if (freq < CY_SYS_CLK_IMO_FREQ_WCO_DPLL_SAFE_POINT)
 232              		.loc 1 241 0
 233 006e BB68     		ldr	r3, [r7, #8]
 234 0070 192B     		cmp	r3, #25
 235 0072 05D8     		bhi	.L9
 242:Generated_Source\PSoC4/CyLib.c ****             {
 243:Generated_Source\PSoC4/CyLib.c ****                 regTmp |= (CY_SYS_CLK_WCO_CONFIG_DPLL_LF_LIMIT_MAX << CY_SYS_CLK_WCO_CONFIG_DPLL_LF
 236              		.loc 1 243 0
 237 0074 7B69     		ldr	r3, [r7, #20]
 238 0076 FF22     		mov	r2, #255
 239 0078 9205     		lsl	r2, r2, #22
 240 007a 1343     		orr	r3, r2
 241 007c 7B61     		str	r3, [r7, #20]
 242 007e 16E0     		b	.L10
 243              	.L9:
 244:Generated_Source\PSoC4/CyLib.c ****             }
 245:Generated_Source\PSoC4/CyLib.c ****             else
 246:Generated_Source\PSoC4/CyLib.c ****             {
 247:Generated_Source\PSoC4/CyLib.c ****                 lfLimit = (uint32) CY_SFLASH_IMO_TRIM_REG(freq - CY_SYS_CLK_IMO_MIN_FREQ_MHZ) +
 244              		.loc 1 247 0
 245 0080 BB68     		ldr	r3, [r7, #8]
 246 0082 1F4A     		ldr	r2, .L12+20
 247 0084 9446     		mov	ip, r2
 248 0086 6344     		add	r3, r3, ip
 249 0088 1B78     		ldrb	r3, [r3]
 250 008a DBB2     		uxtb	r3, r3
 251 008c 191C     		mov	r1, r3
 248:Generated_Source\PSoC4/CyLib.c ****                     cyImoFreqMhz2DpllOffset[freq - CY_SYS_CLK_IMO_FREQ_WCO_DPLL_TABLE_OFFSET];
 252              		.loc 1 248 0
 253 008e BB68     		ldr	r3, [r7, #8]
 254 0090 1A3B     		sub	r3, r3, #26
 255 0092 1C4A     		ldr	r2, .L12+24
 256 0094 D35C     		ldrb	r3, [r2, r3]
 247:Generated_Source\PSoC4/CyLib.c ****                     cyImoFreqMhz2DpllOffset[freq - CY_SYS_CLK_IMO_FREQ_WCO_DPLL_TABLE_OFFSET];
 257              		.loc 1 247 0
 258 0096 CB18     		add	r3, r1, r3
ARM GAS  C:\Users\CHRIST~1\AppData\Local\Temp\cc4LKu7J.s 			page 10


 259 0098 3B61     		str	r3, [r7, #16]
 249:Generated_Source\PSoC4/CyLib.c **** 
 250:Generated_Source\PSoC4/CyLib.c ****                 lfLimit = (lfLimit > CY_SYS_CLK_WCO_CONFIG_DPLL_LF_LIMIT_MAX) ?
 260              		.loc 1 250 0
 261 009a 3B69     		ldr	r3, [r7, #16]
 262 009c FF2B     		cmp	r3, #255
 263 009e 00D9     		bls	.L11
 264 00a0 FF23     		mov	r3, #255
 265              	.L11:
 266 00a2 3B61     		str	r3, [r7, #16]
 251:Generated_Source\PSoC4/CyLib.c ****                     CY_SYS_CLK_WCO_CONFIG_DPLL_LF_LIMIT_MAX : lfLimit;
 252:Generated_Source\PSoC4/CyLib.c **** 
 253:Generated_Source\PSoC4/CyLib.c ****                 regTmp |= (lfLimit << CY_SYS_CLK_WCO_CONFIG_DPLL_LF_LIMIT_SHIFT);
 267              		.loc 1 253 0
 268 00a4 3B69     		ldr	r3, [r7, #16]
 269 00a6 9B05     		lsl	r3, r3, #22
 270 00a8 7A69     		ldr	r2, [r7, #20]
 271 00aa 1343     		orr	r3, r2
 272 00ac 7B61     		str	r3, [r7, #20]
 273              	.L10:
 254:Generated_Source\PSoC4/CyLib.c ****             }
 255:Generated_Source\PSoC4/CyLib.c **** 
 256:Generated_Source\PSoC4/CyLib.c ****             CY_SYS_CLK_WCO_DPLL_REG = regTmp;
 274              		.loc 1 256 0
 275 00ae 114B     		ldr	r3, .L12+8
 276 00b0 7A69     		ldr	r2, [r7, #20]
 277 00b2 1A60     		str	r2, [r3]
 257:Generated_Source\PSoC4/CyLib.c **** 
 258:Generated_Source\PSoC4/CyLib.c ****             flashCtlReg = CY_FLASH_CTL_REG;
 278              		.loc 1 258 0
 279 00b4 144B     		ldr	r3, .L12+28
 280 00b6 1B68     		ldr	r3, [r3]
 281 00b8 7B60     		str	r3, [r7, #4]
 259:Generated_Source\PSoC4/CyLib.c ****             CySysFlashSetWaitCycles(CY_SYS_CLK_IMO_MAX_FREQ_MHZ);
 282              		.loc 1 259 0
 283 00ba 3020     		mov	r0, #48
 284 00bc FFF7FEFF 		bl	CySysFlashSetWaitCycles
 260:Generated_Source\PSoC4/CyLib.c ****             CY_SYS_CLK_WCO_CONFIG_REG |= CY_SYS_CLK_WCO_CONFIG_DPLL_ENABLE;
 285              		.loc 1 260 0
 286 00c0 124B     		ldr	r3, .L12+32
 287 00c2 124A     		ldr	r2, .L12+32
 288 00c4 1268     		ldr	r2, [r2]
 289 00c6 8021     		mov	r1, #128
 290 00c8 C905     		lsl	r1, r1, #23
 291 00ca 0A43     		orr	r2, r1
 292 00cc 1A60     		str	r2, [r3]
 261:Generated_Source\PSoC4/CyLib.c ****             CyDelay(CY_SYS_CLK_WCO_IMO_TIMEOUT_MS);
 293              		.loc 1 261 0
 294 00ce 1420     		mov	r0, #20
 295 00d0 FFF7FEFF 		bl	CyDelay
 262:Generated_Source\PSoC4/CyLib.c ****             CY_FLASH_CTL_REG = flashCtlReg;
 296              		.loc 1 262 0
 297 00d4 0C4B     		ldr	r3, .L12+28
 298 00d6 7A68     		ldr	r2, [r7, #4]
 299 00d8 1A60     		str	r2, [r3]
 263:Generated_Source\PSoC4/CyLib.c **** 
 264:Generated_Source\PSoC4/CyLib.c ****             CyExitCriticalSection(interruptState);
ARM GAS  C:\Users\CHRIST~1\AppData\Local\Temp\cc4LKu7J.s 			page 11


 300              		.loc 1 264 0
 301 00da 0F23     		mov	r3, #15
 302 00dc FB18     		add	r3, r7, r3
 303 00de 1B78     		ldrb	r3, [r3]
 304 00e0 181C     		mov	r0, r3
 305 00e2 FFF7FEFF 		bl	CyExitCriticalSection
 306              	.L7:
 265:Generated_Source\PSoC4/CyLib.c ****         }
 266:Generated_Source\PSoC4/CyLib.c ****     }
 307              		.loc 1 266 0
 308 00e6 BD46     		mov	sp, r7
 309 00e8 07B0     		add	sp, sp, #28
 310              		@ sp needed
 311 00ea 90BD     		pop	{r4, r7, pc}
 312              	.L13:
 313              		.align	2
 314              	.L12:
 315 00ec 080F0340 		.word	1073942280
 316 00f0 28000340 		.word	1073938472
 317 00f4 08000640 		.word	1074135048
 318 00f8 00F800C0 		.word	-1073678336
 319 00fc 40420F00 		.word	1000000
 320 0100 CDF1FF0F 		.word	268431821
 321 0104 00000000 		.word	cyImoFreqMhz2DpllOffset
 322 0108 30001040 		.word	1074790448
 323 010c 00000640 		.word	1074135040
 324              		.cfi_endproc
 325              	.LFE3:
 326              		.size	CySysClkImoEnableWcoLock, .-CySysClkImoEnableWcoLock
 327              		.section	.text.CySysClkImoDisableWcoLock,"ax",%progbits
 328              		.align	2
 329              		.global	CySysClkImoDisableWcoLock
 330              		.code	16
 331              		.thumb_func
 332              		.type	CySysClkImoDisableWcoLock, %function
 333              	CySysClkImoDisableWcoLock:
 334              	.LFB4:
 267:Generated_Source\PSoC4/CyLib.c **** 
 268:Generated_Source\PSoC4/CyLib.c **** 
 269:Generated_Source\PSoC4/CyLib.c ****     /*******************************************************************************
 270:Generated_Source\PSoC4/CyLib.c ****     * Function Name: CySysClkImoDisableWcoLock
 271:Generated_Source\PSoC4/CyLib.c ****     ****************************************************************************//**
 272:Generated_Source\PSoC4/CyLib.c ****     *
 273:Generated_Source\PSoC4/CyLib.c ****     * Disables the IMO to WCO lock feature.
 274:Generated_Source\PSoC4/CyLib.c ****     *
 275:Generated_Source\PSoC4/CyLib.c ****     * For PSoC 4200L devices, note that the IMO can lock to either WCO or USB
 276:Generated_Source\PSoC4/CyLib.c ****     * but not both.
 277:Generated_Source\PSoC4/CyLib.c ****     *
 278:Generated_Source\PSoC4/CyLib.c ****     * This function is applicable for PSoC 4100M / PSoC 4200M / PSoC 4000S /
 279:Generated_Source\PSoC4/CyLib.c ****     * PSoC 4100S / PSoC 4400 / PSoC 4200L.
 280:Generated_Source\PSoC4/CyLib.c ****     *
 281:Generated_Source\PSoC4/CyLib.c ****     *******************************************************************************/
 282:Generated_Source\PSoC4/CyLib.c ****     void CySysClkImoDisableWcoLock(void)
 283:Generated_Source\PSoC4/CyLib.c ****     {
 335              		.loc 1 283 0
 336              		.cfi_startproc
 337 0000 80B5     		push	{r7, lr}
ARM GAS  C:\Users\CHRIST~1\AppData\Local\Temp\cc4LKu7J.s 			page 12


 338              		.cfi_def_cfa_offset 8
 339              		.cfi_offset 7, -8
 340              		.cfi_offset 14, -4
 341 0002 00AF     		add	r7, sp, #0
 342              		.cfi_def_cfa_register 7
 284:Generated_Source\PSoC4/CyLib.c ****         CY_SYS_CLK_WCO_CONFIG_REG &= (uint32) ~CY_SYS_CLK_WCO_CONFIG_DPLL_ENABLE;
 343              		.loc 1 284 0
 344 0004 034B     		ldr	r3, .L15
 345 0006 034A     		ldr	r2, .L15
 346 0008 1268     		ldr	r2, [r2]
 347 000a 0349     		ldr	r1, .L15+4
 348 000c 0A40     		and	r2, r1
 349 000e 1A60     		str	r2, [r3]
 285:Generated_Source\PSoC4/CyLib.c ****     }
 350              		.loc 1 285 0
 351 0010 BD46     		mov	sp, r7
 352              		@ sp needed
 353 0012 80BD     		pop	{r7, pc}
 354              	.L16:
 355              		.align	2
 356              	.L15:
 357 0014 00000640 		.word	1074135040
 358 0018 FFFFFFBF 		.word	-1073741825
 359              		.cfi_endproc
 360              	.LFE4:
 361              		.size	CySysClkImoDisableWcoLock, .-CySysClkImoDisableWcoLock
 362              		.section	.text.CySysClkImoGetWcoLock,"ax",%progbits
 363              		.align	2
 364              		.global	CySysClkImoGetWcoLock
 365              		.code	16
 366              		.thumb_func
 367              		.type	CySysClkImoGetWcoLock, %function
 368              	CySysClkImoGetWcoLock:
 369              	.LFB5:
 286:Generated_Source\PSoC4/CyLib.c **** 
 287:Generated_Source\PSoC4/CyLib.c **** 
 288:Generated_Source\PSoC4/CyLib.c ****     /*******************************************************************************
 289:Generated_Source\PSoC4/CyLib.c ****     * Function Name: CySysClkImoGetWcoLock
 290:Generated_Source\PSoC4/CyLib.c ****     ****************************************************************************//**
 291:Generated_Source\PSoC4/CyLib.c ****     *
 292:Generated_Source\PSoC4/CyLib.c ****     * Reports the IMO to WCO lock enable state.
 293:Generated_Source\PSoC4/CyLib.c ****     *
 294:Generated_Source\PSoC4/CyLib.c ****     * This function is applicable for PSoC 4100M / PSoC 4200M / PSoC 4000S /
 295:Generated_Source\PSoC4/CyLib.c ****     * PSoC 4100S / PSoC 4400 / PSoC 4200L.
 296:Generated_Source\PSoC4/CyLib.c ****     *
 297:Generated_Source\PSoC4/CyLib.c ****     * \return 1 if IMO to WCO lock is enabled.
 298:Generated_Source\PSoC4/CyLib.c ****     * \return 0 if IMO to WCO lock is disabled.
 299:Generated_Source\PSoC4/CyLib.c ****     *
 300:Generated_Source\PSoC4/CyLib.c ****     *******************************************************************************/
 301:Generated_Source\PSoC4/CyLib.c ****     uint32 CySysClkImoGetWcoLock(void)
 302:Generated_Source\PSoC4/CyLib.c ****     {
 370              		.loc 1 302 0
 371              		.cfi_startproc
 372 0000 80B5     		push	{r7, lr}
 373              		.cfi_def_cfa_offset 8
 374              		.cfi_offset 7, -8
 375              		.cfi_offset 14, -4
ARM GAS  C:\Users\CHRIST~1\AppData\Local\Temp\cc4LKu7J.s 			page 13


 376 0002 00AF     		add	r7, sp, #0
 377              		.cfi_def_cfa_register 7
 303:Generated_Source\PSoC4/CyLib.c ****         return ((0u != (CY_SYS_CLK_WCO_CONFIG_REG & CY_SYS_CLK_WCO_CONFIG_DPLL_ENABLE)) ?
 378              		.loc 1 303 0
 379 0004 054B     		ldr	r3, .L21
 380 0006 1A68     		ldr	r2, [r3]
 381 0008 8023     		mov	r3, #128
 382 000a DB05     		lsl	r3, r3, #23
 383 000c 1340     		and	r3, r2
 304:Generated_Source\PSoC4/CyLib.c ****                 (uint32) 1u :
 384              		.loc 1 304 0
 385 000e 01D0     		beq	.L18
 386              		.loc 1 304 0 is_stmt 0 discriminator 1
 387 0010 0123     		mov	r3, #1
 388 0012 00E0     		b	.L19
 389              	.L18:
 390              		.loc 1 304 0 discriminator 2
 391 0014 0023     		mov	r3, #0
 392              	.L19:
 305:Generated_Source\PSoC4/CyLib.c ****                 (uint32) 0u);
 306:Generated_Source\PSoC4/CyLib.c ****     }
 393              		.loc 1 306 0 is_stmt 1
 394 0016 181C     		mov	r0, r3
 395 0018 BD46     		mov	sp, r7
 396              		@ sp needed
 397 001a 80BD     		pop	{r7, pc}
 398              	.L22:
 399              		.align	2
 400              	.L21:
 401 001c 00000640 		.word	1074135040
 402              		.cfi_endproc
 403              	.LFE5:
 404              		.size	CySysClkImoGetWcoLock, .-CySysClkImoGetWcoLock
 405              		.section	.text.CySysClkWriteHfclkDirect,"ax",%progbits
 406              		.align	2
 407              		.global	CySysClkWriteHfclkDirect
 408              		.code	16
 409              		.thumb_func
 410              		.type	CySysClkWriteHfclkDirect, %function
 411              	CySysClkWriteHfclkDirect:
 412              	.LFB6:
 307:Generated_Source\PSoC4/CyLib.c **** 
 308:Generated_Source\PSoC4/CyLib.c **** #endif /* (CY_IP_IMO_TRIMMABLE_BY_WCO) */
 309:Generated_Source\PSoC4/CyLib.c **** 
 310:Generated_Source\PSoC4/CyLib.c **** 
 311:Generated_Source\PSoC4/CyLib.c **** #if (CY_IP_IMO_TRIMMABLE_BY_USB)
 312:Generated_Source\PSoC4/CyLib.c **** 
 313:Generated_Source\PSoC4/CyLib.c ****     /*******************************************************************************
 314:Generated_Source\PSoC4/CyLib.c ****     * Function Name: CySysClkImoEnableUsbLock
 315:Generated_Source\PSoC4/CyLib.c ****     ****************************************************************************//**
 316:Generated_Source\PSoC4/CyLib.c ****     *
 317:Generated_Source\PSoC4/CyLib.c ****     * Enables the IMO to USB lock feature.
 318:Generated_Source\PSoC4/CyLib.c ****     *
 319:Generated_Source\PSoC4/CyLib.c ****     * This function must be called before CySysClkWriteImoFreq().
 320:Generated_Source\PSoC4/CyLib.c ****     *
 321:Generated_Source\PSoC4/CyLib.c ****     * This function is called from CySysClkImoStart() function if USB lock
 322:Generated_Source\PSoC4/CyLib.c ****     * selected in the Design Wide Resources tab.
ARM GAS  C:\Users\CHRIST~1\AppData\Local\Temp\cc4LKu7J.s 			page 14


 323:Generated_Source\PSoC4/CyLib.c ****     *
 324:Generated_Source\PSoC4/CyLib.c ****     * This is applicable for PSoC 4200L family of devices only. For PSoC 4200L
 325:Generated_Source\PSoC4/CyLib.c ****     * devices, the IMO can lock to either WCO or USB, but not both.
 326:Generated_Source\PSoC4/CyLib.c ****     *
 327:Generated_Source\PSoC4/CyLib.c ****     *******************************************************************************/
 328:Generated_Source\PSoC4/CyLib.c ****     void CySysClkImoEnableUsbLock(void)
 329:Generated_Source\PSoC4/CyLib.c ****     {
 330:Generated_Source\PSoC4/CyLib.c ****         /* Set oscillator interface control port to USB */
 331:Generated_Source\PSoC4/CyLib.c ****         #if (CY_IP_IMO_TRIMMABLE_BY_WCO && CY_IP_IMO_TRIMMABLE_BY_USB)
 332:Generated_Source\PSoC4/CyLib.c ****             CY_SYS_CLK_OSCINTF_CTL_REG = (CY_SYS_CLK_OSCINTF_CTL_REG & (uint32) ~CY_SYS_CLK_OSCINTF
 333:Generated_Source\PSoC4/CyLib.c ****                                           CY_SYS_CLK_OSCINTF_CTL_PORT_SEL_USB;
 334:Generated_Source\PSoC4/CyLib.c ****         #endif /* (CY_IP_IMO_TRIMMABLE_BY_WCO && CY_IP_IMO_TRIMMABLE_BY_USB) */
 335:Generated_Source\PSoC4/CyLib.c **** 
 336:Generated_Source\PSoC4/CyLib.c ****         #if(CY_IP_SRSSV2)
 337:Generated_Source\PSoC4/CyLib.c ****             /* Save CY_SYS_CLK_IMO_TRIM4_REG and set IMO gain for USB lock */
 338:Generated_Source\PSoC4/CyLib.c ****             CySysClkImoTrim4 = CY_SYS_CLK_IMO_TRIM4_REG & (uint32) ~CY_SYS_CLK_IMO_TRIM4_GAIN_MASK;
 339:Generated_Source\PSoC4/CyLib.c ****             CY_SYS_CLK_IMO_TRIM4_REG = (CY_SYS_CLK_IMO_TRIM4_REG & (uint32) ~CY_SYS_CLK_IMO_TRIM4_G
 340:Generated_Source\PSoC4/CyLib.c ****                                         CY_SYS_CLK_IMO_TRIM4_USB_GAIN;
 341:Generated_Source\PSoC4/CyLib.c ****         #endif  /* (CY_IP_SRSSV2) */
 342:Generated_Source\PSoC4/CyLib.c **** 
 343:Generated_Source\PSoC4/CyLib.c ****         CY_SYS_CLK_USBDEVv2_CR1_REG |= CY_SYS_CLK_USBDEVv2_CR1_ENABLE_LOCK;
 344:Generated_Source\PSoC4/CyLib.c ****     }
 345:Generated_Source\PSoC4/CyLib.c **** 
 346:Generated_Source\PSoC4/CyLib.c **** 
 347:Generated_Source\PSoC4/CyLib.c ****     /*******************************************************************************
 348:Generated_Source\PSoC4/CyLib.c ****     * Function Name: CySysClkImoDisableUsbLock
 349:Generated_Source\PSoC4/CyLib.c ****     ****************************************************************************//**
 350:Generated_Source\PSoC4/CyLib.c ****     *
 351:Generated_Source\PSoC4/CyLib.c ****     * Disables the IMO to USB lock feature.
 352:Generated_Source\PSoC4/CyLib.c ****     *
 353:Generated_Source\PSoC4/CyLib.c ****     * This function is called from CySysClkImoStop() function if USB lock selected
 354:Generated_Source\PSoC4/CyLib.c ****     * in the Design Wide Resources tab.
 355:Generated_Source\PSoC4/CyLib.c ****     *
 356:Generated_Source\PSoC4/CyLib.c ****     * This is applicable for PSoC 4200L family of devices only. For PSoC 4200L
 357:Generated_Source\PSoC4/CyLib.c ****     * devices, the IMO can lock to either WCO or USB, but not both.
 358:Generated_Source\PSoC4/CyLib.c ****     *
 359:Generated_Source\PSoC4/CyLib.c ****     *******************************************************************************/
 360:Generated_Source\PSoC4/CyLib.c ****     void CySysClkImoDisableUsbLock(void)
 361:Generated_Source\PSoC4/CyLib.c ****     {
 362:Generated_Source\PSoC4/CyLib.c ****         CY_SYS_CLK_USBDEVv2_CR1_REG &= (uint32) ~CY_SYS_CLK_USBDEVv2_CR1_ENABLE_LOCK;
 363:Generated_Source\PSoC4/CyLib.c **** 
 364:Generated_Source\PSoC4/CyLib.c ****         #if(CY_IP_SRSSV2)
 365:Generated_Source\PSoC4/CyLib.c ****             /* Restore CY_SYS_CLK_IMO_TRIM4_REG */
 366:Generated_Source\PSoC4/CyLib.c ****             CY_SYS_CLK_IMO_TRIM4_REG = (CY_SYS_CLK_IMO_TRIM4_REG & (uint32) ~CY_SYS_CLK_IMO_TRIM4_G
 367:Generated_Source\PSoC4/CyLib.c ****                                     CySysClkImoTrim4;
 368:Generated_Source\PSoC4/CyLib.c ****         #endif  /* (CY_IP_SRSSV2) */
 369:Generated_Source\PSoC4/CyLib.c ****     }
 370:Generated_Source\PSoC4/CyLib.c **** 
 371:Generated_Source\PSoC4/CyLib.c **** 
 372:Generated_Source\PSoC4/CyLib.c ****     /*******************************************************************************
 373:Generated_Source\PSoC4/CyLib.c ****     * Function Name: CySysClkImoGetUsbLock
 374:Generated_Source\PSoC4/CyLib.c ****     ****************************************************************************//**
 375:Generated_Source\PSoC4/CyLib.c ****     *
 376:Generated_Source\PSoC4/CyLib.c ****     * Reports the IMO to USB lock enable state.
 377:Generated_Source\PSoC4/CyLib.c ****     *
 378:Generated_Source\PSoC4/CyLib.c ****     * This is applicable for PSoC 4200L family of devices only. For PSoC 4200L
 379:Generated_Source\PSoC4/CyLib.c ****     * devices, the IMO can lock to either WCO or USB, but not both.
ARM GAS  C:\Users\CHRIST~1\AppData\Local\Temp\cc4LKu7J.s 			page 15


 380:Generated_Source\PSoC4/CyLib.c ****     *
 381:Generated_Source\PSoC4/CyLib.c ****     * \return 1 if IMO to USB lock is enabled.
 382:Generated_Source\PSoC4/CyLib.c ****     * \return 0 if IMO to USB lock is disabled.
 383:Generated_Source\PSoC4/CyLib.c ****     *
 384:Generated_Source\PSoC4/CyLib.c ****     *******************************************************************************/
 385:Generated_Source\PSoC4/CyLib.c ****     uint32 CySysClkImoGetUsbLock(void)
 386:Generated_Source\PSoC4/CyLib.c ****     {
 387:Generated_Source\PSoC4/CyLib.c ****         return ((0u != (CY_SYS_CLK_USBDEVv2_CR1_REG & CY_SYS_CLK_USBDEVv2_CR1_ENABLE_LOCK)) ?
 388:Generated_Source\PSoC4/CyLib.c ****                 (uint32) 1u :
 389:Generated_Source\PSoC4/CyLib.c ****                 (uint32) 0u);
 390:Generated_Source\PSoC4/CyLib.c ****     }
 391:Generated_Source\PSoC4/CyLib.c **** #endif  /* (CY_IP_IMO_TRIMMABLE_BY_USB) */
 392:Generated_Source\PSoC4/CyLib.c **** 
 393:Generated_Source\PSoC4/CyLib.c **** 
 394:Generated_Source\PSoC4/CyLib.c **** 
 395:Generated_Source\PSoC4/CyLib.c **** /*******************************************************************************
 396:Generated_Source\PSoC4/CyLib.c **** * Function Name: CySysClkWriteHfclkDirect
 397:Generated_Source\PSoC4/CyLib.c **** ****************************************************************************//**
 398:Generated_Source\PSoC4/CyLib.c **** *
 399:Generated_Source\PSoC4/CyLib.c **** * Selects the direct source for the HFCLK.
 400:Generated_Source\PSoC4/CyLib.c **** *
 401:Generated_Source\PSoC4/CyLib.c **** * The new source must be running and stable before calling this function.
 402:Generated_Source\PSoC4/CyLib.c **** *
 403:Generated_Source\PSoC4/CyLib.c **** * PSoC 4000:
 404:Generated_Source\PSoC4/CyLib.c **** * The SYSCLK has a maximum speed of 16 MHz, so HFCLK and SYSCLK dividers should
 405:Generated_Source\PSoC4/CyLib.c **** * be selected in a way to not to exceed 16 MHz for the System clock.
 406:Generated_Source\PSoC4/CyLib.c **** *
 407:Generated_Source\PSoC4/CyLib.c **** * If the SYSCLK clock frequency increases during device operation, call
 408:Generated_Source\PSoC4/CyLib.c **** * CySysFlashSetWaitCycles() with the appropriate parameter to adjust the number
 409:Generated_Source\PSoC4/CyLib.c **** * of clock cycles the cache will wait before sampling data comes back from
 410:Generated_Source\PSoC4/CyLib.c **** * Flash. If the SYSCLK clock frequency decreases, you can call
 411:Generated_Source\PSoC4/CyLib.c **** * CySysFlashSetWaitCycles() to improve the CPU performance. See
 412:Generated_Source\PSoC4/CyLib.c **** * CySysFlashSetWaitCycles() description for more information.
 413:Generated_Source\PSoC4/CyLib.c **** *
 414:Generated_Source\PSoC4/CyLib.c **** * Do not select PLL as the source for HFCLK if PLL output frequency exceeds
 415:Generated_Source\PSoC4/CyLib.c **** * maximum permissible value for HFCLK.
 416:Generated_Source\PSoC4/CyLib.c **** *
 417:Generated_Source\PSoC4/CyLib.c **** * \param clkSelect One of the available HFCLK direct sources.
 418:Generated_Source\PSoC4/CyLib.c **** * CY_SYS_CLK_HFCLK_IMO     IMO.
 419:Generated_Source\PSoC4/CyLib.c **** * CY_SYS_CLK_HFCLK_EXTCLK  External clock pin.
 420:Generated_Source\PSoC4/CyLib.c **** * CY_SYS_CLK_HFCLK_ECO     External crystal oscillator. Applicable for
 421:Generated_Source\PSoC4/CyLib.c **** *                          PSoC 4100 BLE / PSoC 4200 BLE / PSoC 4200L.
 422:Generated_Source\PSoC4/CyLib.c **** * CY_SYS_CLK_HFCLK_PLL0    PLL#0. Applicable for PSoC 4200L.
 423:Generated_Source\PSoC4/CyLib.c **** * CY_SYS_CLK_HFCLK_PLL1    PLL#1. Applicable for PSoC 4200L.
 424:Generated_Source\PSoC4/CyLib.c **** *
 425:Generated_Source\PSoC4/CyLib.c **** *******************************************************************************/
 426:Generated_Source\PSoC4/CyLib.c **** void CySysClkWriteHfclkDirect(uint32 clkSelect)
 427:Generated_Source\PSoC4/CyLib.c **** {
 413              		.loc 1 427 0
 414              		.cfi_startproc
 415 0000 90B5     		push	{r4, r7, lr}
 416              		.cfi_def_cfa_offset 12
 417              		.cfi_offset 4, -12
 418              		.cfi_offset 7, -8
 419              		.cfi_offset 14, -4
 420 0002 85B0     		sub	sp, sp, #20
 421              		.cfi_def_cfa_offset 32
ARM GAS  C:\Users\CHRIST~1\AppData\Local\Temp\cc4LKu7J.s 			page 16


 422 0004 00AF     		add	r7, sp, #0
 423              		.cfi_def_cfa_register 7
 424 0006 7860     		str	r0, [r7, #4]
 428:Generated_Source\PSoC4/CyLib.c ****     uint8  interruptState;
 429:Generated_Source\PSoC4/CyLib.c ****     uint32 tmpReg;
 430:Generated_Source\PSoC4/CyLib.c **** 
 431:Generated_Source\PSoC4/CyLib.c ****     interruptState = CyEnterCriticalSection();
 425              		.loc 1 431 0
 426 0008 0F23     		mov	r3, #15
 427 000a FC18     		add	r4, r7, r3
 428 000c FFF7FEFF 		bl	CyEnterCriticalSection
 429 0010 031C     		mov	r3, r0
 430 0012 2370     		strb	r3, [r4]
 432:Generated_Source\PSoC4/CyLib.c **** 
 433:Generated_Source\PSoC4/CyLib.c **** 
 434:Generated_Source\PSoC4/CyLib.c ****     tmpReg = CY_SYS_CLK_SELECT_REG & ~(CY_SYS_CLK_SELECT_DIRECT_SEL_MASK |
 431              		.loc 1 434 0
 432 0014 0B4B     		ldr	r3, .L24
 433 0016 1B68     		ldr	r3, [r3]
 434 0018 0322     		mov	r2, #3
 435 001a 9343     		bic	r3, r2
 436 001c BB60     		str	r3, [r7, #8]
 435:Generated_Source\PSoC4/CyLib.c ****                                        CY_SYS_CLK_SELECT_HFCLK_SEL_MASK);
 436:Generated_Source\PSoC4/CyLib.c **** 
 437:Generated_Source\PSoC4/CyLib.c **** #if (CY_IP_SRSSV2 && CY_IP_PLL)
 438:Generated_Source\PSoC4/CyLib.c ****     if ((CY_SYS_CLK_HFCLK_PLL0 == clkSelect) || (CY_SYS_CLK_HFCLK_PLL1 == clkSelect))
 439:Generated_Source\PSoC4/CyLib.c ****     {
 440:Generated_Source\PSoC4/CyLib.c ****         tmpReg |= (clkSelect & CY_SYS_CLK_SELECT_HFCLK_SEL_MASK);
 441:Generated_Source\PSoC4/CyLib.c ****     }
 442:Generated_Source\PSoC4/CyLib.c ****     else
 443:Generated_Source\PSoC4/CyLib.c **** #endif /* (CY_IP_SRSSV2 && CY_IP_PLL) */
 444:Generated_Source\PSoC4/CyLib.c ****     {
 445:Generated_Source\PSoC4/CyLib.c ****         tmpReg |= (clkSelect & CY_SYS_CLK_SELECT_DIRECT_SEL_MASK);
 437              		.loc 1 445 0
 438 001e 7B68     		ldr	r3, [r7, #4]
 439 0020 0322     		mov	r2, #3
 440 0022 1340     		and	r3, r2
 441 0024 BA68     		ldr	r2, [r7, #8]
 442 0026 1343     		orr	r3, r2
 443 0028 BB60     		str	r3, [r7, #8]
 446:Generated_Source\PSoC4/CyLib.c ****     }
 447:Generated_Source\PSoC4/CyLib.c **** 
 448:Generated_Source\PSoC4/CyLib.c ****     CY_SYS_CLK_SELECT_REG = tmpReg;
 444              		.loc 1 448 0
 445 002a 064B     		ldr	r3, .L24
 446 002c BA68     		ldr	r2, [r7, #8]
 447 002e 1A60     		str	r2, [r3]
 449:Generated_Source\PSoC4/CyLib.c **** 
 450:Generated_Source\PSoC4/CyLib.c ****     CyExitCriticalSection(interruptState);
 448              		.loc 1 450 0
 449 0030 0F23     		mov	r3, #15
 450 0032 FB18     		add	r3, r7, r3
 451 0034 1B78     		ldrb	r3, [r3]
 452 0036 181C     		mov	r0, r3
 453 0038 FFF7FEFF 		bl	CyExitCriticalSection
 451:Generated_Source\PSoC4/CyLib.c **** }
 454              		.loc 1 451 0
ARM GAS  C:\Users\CHRIST~1\AppData\Local\Temp\cc4LKu7J.s 			page 17


 455 003c BD46     		mov	sp, r7
 456 003e 05B0     		add	sp, sp, #20
 457              		@ sp needed
 458 0040 90BD     		pop	{r4, r7, pc}
 459              	.L25:
 460 0042 C046     		.align	2
 461              	.L24:
 462 0044 28000340 		.word	1073938472
 463              		.cfi_endproc
 464              	.LFE6:
 465              		.size	CySysClkWriteHfclkDirect, .-CySysClkWriteHfclkDirect
 466              		.section	.text.CySysClkGetSysclkSource,"ax",%progbits
 467              		.align	2
 468              		.global	CySysClkGetSysclkSource
 469              		.code	16
 470              		.thumb_func
 471              		.type	CySysClkGetSysclkSource, %function
 472              	CySysClkGetSysclkSource:
 473              	.LFB7:
 452:Generated_Source\PSoC4/CyLib.c **** 
 453:Generated_Source\PSoC4/CyLib.c **** 
 454:Generated_Source\PSoC4/CyLib.c **** /*******************************************************************************
 455:Generated_Source\PSoC4/CyLib.c **** * Function Name: CySysClkGetSysclkSource
 456:Generated_Source\PSoC4/CyLib.c **** ****************************************************************************//**
 457:Generated_Source\PSoC4/CyLib.c **** *
 458:Generated_Source\PSoC4/CyLib.c **** * Returns the source of the System clock.
 459:Generated_Source\PSoC4/CyLib.c **** *
 460:Generated_Source\PSoC4/CyLib.c **** * \return The same as \ref CySysClkWriteHfclkDirect() function parameters.
 461:Generated_Source\PSoC4/CyLib.c **** *
 462:Generated_Source\PSoC4/CyLib.c **** *******************************************************************************/
 463:Generated_Source\PSoC4/CyLib.c **** uint32 CySysClkGetSysclkSource(void)
 464:Generated_Source\PSoC4/CyLib.c **** {
 474              		.loc 1 464 0
 475              		.cfi_startproc
 476 0000 90B5     		push	{r4, r7, lr}
 477              		.cfi_def_cfa_offset 12
 478              		.cfi_offset 4, -12
 479              		.cfi_offset 7, -8
 480              		.cfi_offset 14, -4
 481 0002 83B0     		sub	sp, sp, #12
 482              		.cfi_def_cfa_offset 24
 483 0004 00AF     		add	r7, sp, #0
 484              		.cfi_def_cfa_register 7
 465:Generated_Source\PSoC4/CyLib.c ****     uint8  interruptState;
 466:Generated_Source\PSoC4/CyLib.c ****     uint32 sysclkSource;
 467:Generated_Source\PSoC4/CyLib.c **** 
 468:Generated_Source\PSoC4/CyLib.c ****     interruptState = CyEnterCriticalSection();
 485              		.loc 1 468 0
 486 0006 FC1D     		add	r4, r7, #7
 487 0008 FFF7FEFF 		bl	CyEnterCriticalSection
 488 000c 031C     		mov	r3, r0
 489 000e 2370     		strb	r3, [r4]
 469:Generated_Source\PSoC4/CyLib.c **** 
 470:Generated_Source\PSoC4/CyLib.c **** #if (CY_IP_SRSSV2 && CY_IP_PLL)
 471:Generated_Source\PSoC4/CyLib.c ****     if ((CY_SYS_CLK_SELECT_REG & CY_SYS_CLK_SELECT_HFCLK_SEL_MASK) != 0u)
 472:Generated_Source\PSoC4/CyLib.c ****     {
 473:Generated_Source\PSoC4/CyLib.c ****         sysclkSource = (CY_SYS_CLK_SELECT_REG & CY_SYS_CLK_SELECT_HFCLK_SEL_MASK);
ARM GAS  C:\Users\CHRIST~1\AppData\Local\Temp\cc4LKu7J.s 			page 18


 474:Generated_Source\PSoC4/CyLib.c ****     }
 475:Generated_Source\PSoC4/CyLib.c ****     else
 476:Generated_Source\PSoC4/CyLib.c **** #endif /* (CY_IP_SRSSV2 && CY_IP_PLL) */
 477:Generated_Source\PSoC4/CyLib.c ****     {
 478:Generated_Source\PSoC4/CyLib.c ****         sysclkSource = (CY_SYS_CLK_SELECT_REG & CY_SYS_CLK_SELECT_DIRECT_SEL_MASK);
 490              		.loc 1 478 0
 491 0010 074B     		ldr	r3, .L28
 492 0012 1B68     		ldr	r3, [r3]
 493 0014 0322     		mov	r2, #3
 494 0016 1340     		and	r3, r2
 495 0018 3B60     		str	r3, [r7]
 479:Generated_Source\PSoC4/CyLib.c ****     }
 480:Generated_Source\PSoC4/CyLib.c **** 
 481:Generated_Source\PSoC4/CyLib.c ****     CyExitCriticalSection(interruptState);
 496              		.loc 1 481 0
 497 001a FB1D     		add	r3, r7, #7
 498 001c 1B78     		ldrb	r3, [r3]
 499 001e 181C     		mov	r0, r3
 500 0020 FFF7FEFF 		bl	CyExitCriticalSection
 482:Generated_Source\PSoC4/CyLib.c **** 
 483:Generated_Source\PSoC4/CyLib.c ****     return (sysclkSource);
 501              		.loc 1 483 0
 502 0024 3B68     		ldr	r3, [r7]
 484:Generated_Source\PSoC4/CyLib.c **** }
 503              		.loc 1 484 0
 504 0026 181C     		mov	r0, r3
 505 0028 BD46     		mov	sp, r7
 506 002a 03B0     		add	sp, sp, #12
 507              		@ sp needed
 508 002c 90BD     		pop	{r4, r7, pc}
 509              	.L29:
 510 002e C046     		.align	2
 511              	.L28:
 512 0030 28000340 		.word	1073938472
 513              		.cfi_endproc
 514              	.LFE7:
 515              		.size	CySysClkGetSysclkSource, .-CySysClkGetSysclkSource
 516              		.section	.text.CySysClkWriteSysclkDiv,"ax",%progbits
 517              		.align	2
 518              		.global	CySysClkWriteSysclkDiv
 519              		.code	16
 520              		.thumb_func
 521              		.type	CySysClkWriteSysclkDiv, %function
 522              	CySysClkWriteSysclkDiv:
 523              	.LFB8:
 485:Generated_Source\PSoC4/CyLib.c **** 
 486:Generated_Source\PSoC4/CyLib.c **** 
 487:Generated_Source\PSoC4/CyLib.c **** /*******************************************************************************
 488:Generated_Source\PSoC4/CyLib.c **** * Function Name: CySysClkWriteSysclkDiv
 489:Generated_Source\PSoC4/CyLib.c **** ****************************************************************************//**
 490:Generated_Source\PSoC4/CyLib.c **** *
 491:Generated_Source\PSoC4/CyLib.c **** * Selects the prescaler divide amount for SYSCLK from HFCLK.
 492:Generated_Source\PSoC4/CyLib.c **** *
 493:Generated_Source\PSoC4/CyLib.c **** * PSoC 4000: The SYSCLK has the speed of 16 MHz, so HFCLK and SYSCLK dividers
 494:Generated_Source\PSoC4/CyLib.c **** * should be selected in a way, not to exceed 16 MHz for SYSCLK.
 495:Generated_Source\PSoC4/CyLib.c **** *
 496:Generated_Source\PSoC4/CyLib.c **** * PSoC 4100 \ PSoC 4100 BLE \ PSoC 4100M: The SYSCLK has the speed of 24 MHz,
ARM GAS  C:\Users\CHRIST~1\AppData\Local\Temp\cc4LKu7J.s 			page 19


 497:Generated_Source\PSoC4/CyLib.c **** * so HFCLK and SYSCLK dividers should be selected in a way, not to exceed 24 MHz
 498:Generated_Source\PSoC4/CyLib.c **** * for SYSCLK.
 499:Generated_Source\PSoC4/CyLib.c **** *
 500:Generated_Source\PSoC4/CyLib.c **** * If the SYSCLK clock frequency increases during the device operation, call
 501:Generated_Source\PSoC4/CyLib.c **** * \ref CySysFlashSetWaitCycles() with the appropriate parameter to adjust the
 502:Generated_Source\PSoC4/CyLib.c **** * number of clock cycles the cache will wait before sampling data comes back
 503:Generated_Source\PSoC4/CyLib.c **** * from Flash. If the SYSCLK clock frequency decreases, you can call
 504:Generated_Source\PSoC4/CyLib.c **** * \ref CySysFlashSetWaitCycles() to improve the CPU performance. See
 505:Generated_Source\PSoC4/CyLib.c **** * \ref CySysFlashSetWaitCycles() description for more information.
 506:Generated_Source\PSoC4/CyLib.c **** *
 507:Generated_Source\PSoC4/CyLib.c **** * \param divider Power of 2 prescaler selection
 508:Generated_Source\PSoC4/CyLib.c **** *  CY_SYS_CLK_SYSCLK_DIV1        SYSCLK = HFCLK / 1
 509:Generated_Source\PSoC4/CyLib.c **** *  CY_SYS_CLK_SYSCLK_DIV2        SYSCLK = HFCLK / 2
 510:Generated_Source\PSoC4/CyLib.c **** *  CY_SYS_CLK_SYSCLK_DIV4        SYSCLK = HFCLK / 4
 511:Generated_Source\PSoC4/CyLib.c **** *  CY_SYS_CLK_SYSCLK_DIV8        SYSCLK = HFCLK / 8
 512:Generated_Source\PSoC4/CyLib.c **** *  CY_SYS_CLK_SYSCLK_DIV16       SYSCLK = HFCLK / 16  (N/A for 4000 Family)
 513:Generated_Source\PSoC4/CyLib.c **** *  CY_SYS_CLK_SYSCLK_DIV32       SYSCLK = HFCLK / 32  (N/A for 4000 Family)
 514:Generated_Source\PSoC4/CyLib.c **** *  CY_SYS_CLK_SYSCLK_DIV64       SYSCLK = HFCLK / 64  (N/A for 4000 Family)
 515:Generated_Source\PSoC4/CyLib.c **** *  CY_SYS_CLK_SYSCLK_DIV128      SYSCLK = HFCLK / 128 (N/A for 4000 Family)
 516:Generated_Source\PSoC4/CyLib.c **** *
 517:Generated_Source\PSoC4/CyLib.c **** *******************************************************************************/
 518:Generated_Source\PSoC4/CyLib.c **** void CySysClkWriteSysclkDiv(uint32 divider)
 519:Generated_Source\PSoC4/CyLib.c **** {
 524              		.loc 1 519 0
 525              		.cfi_startproc
 526 0000 90B5     		push	{r4, r7, lr}
 527              		.cfi_def_cfa_offset 12
 528              		.cfi_offset 4, -12
 529              		.cfi_offset 7, -8
 530              		.cfi_offset 14, -4
 531 0002 85B0     		sub	sp, sp, #20
 532              		.cfi_def_cfa_offset 32
 533 0004 00AF     		add	r7, sp, #0
 534              		.cfi_def_cfa_register 7
 535 0006 7860     		str	r0, [r7, #4]
 520:Generated_Source\PSoC4/CyLib.c ****     uint8  interruptState;
 521:Generated_Source\PSoC4/CyLib.c **** 
 522:Generated_Source\PSoC4/CyLib.c ****     interruptState = CyEnterCriticalSection();
 536              		.loc 1 522 0
 537 0008 0F23     		mov	r3, #15
 538 000a FC18     		add	r4, r7, r3
 539 000c FFF7FEFF 		bl	CyEnterCriticalSection
 540 0010 031C     		mov	r3, r0
 541 0012 2370     		strb	r3, [r4]
 523:Generated_Source\PSoC4/CyLib.c **** 
 524:Generated_Source\PSoC4/CyLib.c ****     CY_SYS_CLK_SELECT_REG = ((uint32)(((uint32)divider & CY_SYS_CLK_SELECT_SYSCLK_DIV_MASK) <<
 542              		.loc 1 524 0
 543 0014 094B     		ldr	r3, .L31
 544 0016 7A68     		ldr	r2, [r7, #4]
 545 0018 9201     		lsl	r2, r2, #6
 546 001a FF21     		mov	r1, #255
 547 001c 1140     		and	r1, r2
 525:Generated_Source\PSoC4/CyLib.c ****                                     CY_SYS_CLK_SELECT_SYSCLK_DIV_SHIFT)) |
 526:Generated_Source\PSoC4/CyLib.c ****                             (CY_SYS_CLK_SELECT_REG & ((uint32)(~(uint32)(CY_SYS_CLK_SELECT_SYSCLK_D
 548              		.loc 1 526 0
 549 001e 074A     		ldr	r2, .L31
 550 0020 1268     		ldr	r2, [r2]
ARM GAS  C:\Users\CHRIST~1\AppData\Local\Temp\cc4LKu7J.s 			page 20


 551 0022 C020     		mov	r0, #192
 552 0024 8243     		bic	r2, r0
 525:Generated_Source\PSoC4/CyLib.c ****                                     CY_SYS_CLK_SELECT_SYSCLK_DIV_SHIFT)) |
 553              		.loc 1 525 0
 554 0026 0A43     		orr	r2, r1
 524:Generated_Source\PSoC4/CyLib.c ****                                     CY_SYS_CLK_SELECT_SYSCLK_DIV_SHIFT)) |
 555              		.loc 1 524 0
 556 0028 1A60     		str	r2, [r3]
 527:Generated_Source\PSoC4/CyLib.c ****                                     CY_SYS_CLK_SELECT_SYSCLK_DIV_SHIFT))));
 528:Generated_Source\PSoC4/CyLib.c **** 
 529:Generated_Source\PSoC4/CyLib.c ****     CyExitCriticalSection(interruptState);
 557              		.loc 1 529 0
 558 002a 0F23     		mov	r3, #15
 559 002c FB18     		add	r3, r7, r3
 560 002e 1B78     		ldrb	r3, [r3]
 561 0030 181C     		mov	r0, r3
 562 0032 FFF7FEFF 		bl	CyExitCriticalSection
 530:Generated_Source\PSoC4/CyLib.c **** }
 563              		.loc 1 530 0
 564 0036 BD46     		mov	sp, r7
 565 0038 05B0     		add	sp, sp, #20
 566              		@ sp needed
 567 003a 90BD     		pop	{r4, r7, pc}
 568              	.L32:
 569              		.align	2
 570              	.L31:
 571 003c 28000340 		.word	1073938472
 572              		.cfi_endproc
 573              	.LFE8:
 574              		.size	CySysClkWriteSysclkDiv, .-CySysClkWriteSysclkDiv
 575              		.section	.text.CySysClkWriteImoFreq,"ax",%progbits
 576              		.align	2
 577              		.global	CySysClkWriteImoFreq
 578              		.code	16
 579              		.thumb_func
 580              		.type	CySysClkWriteImoFreq, %function
 581              	CySysClkWriteImoFreq:
 582              	.LFB9:
 531:Generated_Source\PSoC4/CyLib.c **** 
 532:Generated_Source\PSoC4/CyLib.c **** 
 533:Generated_Source\PSoC4/CyLib.c **** /*******************************************************************************
 534:Generated_Source\PSoC4/CyLib.c **** * Function Name: CySysClkWriteImoFreq
 535:Generated_Source\PSoC4/CyLib.c **** ****************************************************************************//**
 536:Generated_Source\PSoC4/CyLib.c **** *
 537:Generated_Source\PSoC4/CyLib.c **** * Sets the frequency of the IMO.
 538:Generated_Source\PSoC4/CyLib.c **** *
 539:Generated_Source\PSoC4/CyLib.c **** * PSoC 4000: The SYSCLK has the speed of 16 MHz, so HFCLK and SYSCLK dividers
 540:Generated_Source\PSoC4/CyLib.c **** * should be selected in a way, not to exceed 16 MHz for SYSCLK.
 541:Generated_Source\PSoC4/CyLib.c **** *
 542:Generated_Source\PSoC4/CyLib.c **** * PSoC 4100 \ PSoC 4100 BLE \ PSoC 4100M: The SYSCLK has the speed of 24 MHz,
 543:Generated_Source\PSoC4/CyLib.c **** * so HFCLK and SYSCLK dividers should be selected in a way, not to exceed 24 MHz
 544:Generated_Source\PSoC4/CyLib.c **** * for SYSCLK.
 545:Generated_Source\PSoC4/CyLib.c **** *
 546:Generated_Source\PSoC4/CyLib.c **** * For PSoC 4200M and PSoC 4200L device families, if WCO lock feature is enabled
 547:Generated_Source\PSoC4/CyLib.c **** * then this API will disable the lock, write the new IMO frequency and then
 548:Generated_Source\PSoC4/CyLib.c **** * re-enable the lock.
 549:Generated_Source\PSoC4/CyLib.c **** *
ARM GAS  C:\Users\CHRIST~1\AppData\Local\Temp\cc4LKu7J.s 			page 21


 550:Generated_Source\PSoC4/CyLib.c **** * For PSoC 4200L device families, this function enables the USB lock when 24 or
 551:Generated_Source\PSoC4/CyLib.c **** * 48 MHz passed as a parameter if the USB lock option is enabled in Design Wide
 552:Generated_Source\PSoC4/CyLib.c **** * Resources tab or CySysClkImoEnableUsbLock() was called before. Note the USB
 553:Generated_Source\PSoC4/CyLib.c **** * lock is disabled during IMO frequency change.
 554:Generated_Source\PSoC4/CyLib.c **** *
 555:Generated_Source\PSoC4/CyLib.c **** * The CPU is halted if new frequency is invalid and project is compiled
 556:Generated_Source\PSoC4/CyLib.c **** * in debug mode.
 557:Generated_Source\PSoC4/CyLib.c **** *
 558:Generated_Source\PSoC4/CyLib.c **** * If the SYSCLK clock frequency increases during the device operation, call
 559:Generated_Source\PSoC4/CyLib.c **** * \ref CySysFlashSetWaitCycles() with the appropriate parameter to adjust the
 560:Generated_Source\PSoC4/CyLib.c **** * number of clock cycles the cache will wait before sampling data comes back
 561:Generated_Source\PSoC4/CyLib.c **** * from Flash. If the SYSCLK clock frequency decreases, you can call
 562:Generated_Source\PSoC4/CyLib.c **** * \ref CySysFlashSetWaitCycles() to improve the CPU performance. See
 563:Generated_Source\PSoC4/CyLib.c **** * \ref CySysFlashSetWaitCycles() description for more information.
 564:Generated_Source\PSoC4/CyLib.c **** *
 565:Generated_Source\PSoC4/CyLib.c **** * PSoC 4000: The System Clock (SYSCLK) has maximum speed of 16 MHz, so HFCLK
 566:Generated_Source\PSoC4/CyLib.c **** * and SYSCLK dividers should be selected in a way, to not to exceed 16 MHz for
 567:Generated_Source\PSoC4/CyLib.c **** * the System clock.
 568:Generated_Source\PSoC4/CyLib.c **** *
 569:Generated_Source\PSoC4/CyLib.c **** * \param freq All PSoC 4 families excluding the following: Valid range [3-48]
 570:Generated_Source\PSoC4/CyLib.c **** * with step size equals 1. PSoC 4000: Valid values are 24, 32, and 48.
 571:Generated_Source\PSoC4/CyLib.c **** * PSoC 4000S / PSoC 4100S / PSoC 4400: Valid range [24-48] with step size equals
 572:Generated_Source\PSoC4/CyLib.c **** * 4.
 573:Generated_Source\PSoC4/CyLib.c **** *
 574:Generated_Source\PSoC4/CyLib.c **** *******************************************************************************/
 575:Generated_Source\PSoC4/CyLib.c **** #if(CY_IP_SRSSV2)
 576:Generated_Source\PSoC4/CyLib.c ****     void CySysClkWriteImoFreq(uint32 freq)
 577:Generated_Source\PSoC4/CyLib.c ****     {
 578:Generated_Source\PSoC4/CyLib.c ****         #if (CY_IP_FMLT)
 579:Generated_Source\PSoC4/CyLib.c ****             volatile uint32   parameters[2u];
 580:Generated_Source\PSoC4/CyLib.c ****             volatile uint32   regValues[4u];
 581:Generated_Source\PSoC4/CyLib.c ****         #else
 582:Generated_Source\PSoC4/CyLib.c ****             uint8  bgTrim4;
 583:Generated_Source\PSoC4/CyLib.c ****             uint8  bgTrim5;
 584:Generated_Source\PSoC4/CyLib.c ****             uint8  newImoTrim2Value;
 585:Generated_Source\PSoC4/CyLib.c ****             uint8  currentImoTrim2Value;
 586:Generated_Source\PSoC4/CyLib.c ****             uint8  imoTrim1Value;
 587:Generated_Source\PSoC4/CyLib.c ****         #endif /* (CY_IP_FM) */
 588:Generated_Source\PSoC4/CyLib.c **** 
 589:Generated_Source\PSoC4/CyLib.c ****         #if (CY_IP_IMO_TRIMMABLE_BY_WCO)
 590:Generated_Source\PSoC4/CyLib.c ****             uint32 wcoLock = 0u;
 591:Generated_Source\PSoC4/CyLib.c ****         #endif  /* (CY_IP_IMO_TRIMMABLE_BY_WCO) */
 592:Generated_Source\PSoC4/CyLib.c **** 
 593:Generated_Source\PSoC4/CyLib.c ****         #if (CY_IP_IMO_TRIMMABLE_BY_USB)
 594:Generated_Source\PSoC4/CyLib.c ****             uint32 usbLock = 0u;
 595:Generated_Source\PSoC4/CyLib.c ****         #endif  /* (CY_IP_IMO_TRIMMABLE_BY_USB) */
 596:Generated_Source\PSoC4/CyLib.c **** 
 597:Generated_Source\PSoC4/CyLib.c ****         uint8  interruptState;
 598:Generated_Source\PSoC4/CyLib.c **** 
 599:Generated_Source\PSoC4/CyLib.c **** 
 600:Generated_Source\PSoC4/CyLib.c ****         interruptState = CyEnterCriticalSection();
 601:Generated_Source\PSoC4/CyLib.c **** 
 602:Generated_Source\PSoC4/CyLib.c ****         #if (CY_IP_IMO_TRIMMABLE_BY_WCO)
 603:Generated_Source\PSoC4/CyLib.c ****             if(0u != CySysClkImoGetWcoLock())
 604:Generated_Source\PSoC4/CyLib.c ****             {
 605:Generated_Source\PSoC4/CyLib.c ****                 wcoLock = 1u;
 606:Generated_Source\PSoC4/CyLib.c ****                 CySysClkImoDisableWcoLock();
ARM GAS  C:\Users\CHRIST~1\AppData\Local\Temp\cc4LKu7J.s 			page 22


 607:Generated_Source\PSoC4/CyLib.c ****             }
 608:Generated_Source\PSoC4/CyLib.c ****         #endif  /* (CY_IP_IMO_TRIMMABLE_BY_WCO) */
 609:Generated_Source\PSoC4/CyLib.c **** 
 610:Generated_Source\PSoC4/CyLib.c **** 
 611:Generated_Source\PSoC4/CyLib.c ****         #if (CY_IP_IMO_TRIMMABLE_BY_USB)
 612:Generated_Source\PSoC4/CyLib.c **** 
 613:Generated_Source\PSoC4/CyLib.c ****             #if (CYDEV_IMO_TRIMMED_BY_USB == 0u)
 614:Generated_Source\PSoC4/CyLib.c ****                 if(0u != CySysClkImoGetUsbLock())
 615:Generated_Source\PSoC4/CyLib.c ****                 {
 616:Generated_Source\PSoC4/CyLib.c ****             #endif  /* (CYDEV_IMO_TRIMMED_BY_USB == 0u) */
 617:Generated_Source\PSoC4/CyLib.c **** 
 618:Generated_Source\PSoC4/CyLib.c ****                 if ((24u == freq) || (48u == freq))
 619:Generated_Source\PSoC4/CyLib.c ****                 {
 620:Generated_Source\PSoC4/CyLib.c ****                     usbLock = 1u;
 621:Generated_Source\PSoC4/CyLib.c ****                     CySysClkImoDisableUsbLock();
 622:Generated_Source\PSoC4/CyLib.c ****                 }
 623:Generated_Source\PSoC4/CyLib.c **** 
 624:Generated_Source\PSoC4/CyLib.c ****             #if (CYDEV_IMO_TRIMMED_BY_USB == 0u)
 625:Generated_Source\PSoC4/CyLib.c ****                 }
 626:Generated_Source\PSoC4/CyLib.c ****             #endif  /* (CYDEV_IMO_TRIMMED_BY_USB == 0u) */
 627:Generated_Source\PSoC4/CyLib.c **** 
 628:Generated_Source\PSoC4/CyLib.c ****         #endif  /* (CYDEV_IMO_TRIMMED_BY_USB == 0u) */
 629:Generated_Source\PSoC4/CyLib.c **** 
 630:Generated_Source\PSoC4/CyLib.c **** 
 631:Generated_Source\PSoC4/CyLib.c ****         #if (CY_IP_FMLT)
 632:Generated_Source\PSoC4/CyLib.c **** 
 633:Generated_Source\PSoC4/CyLib.c ****             /* FM-Lite Clock Restore */
 634:Generated_Source\PSoC4/CyLib.c ****             regValues[0u] = CY_SYS_CLK_IMO_CONFIG_REG;
 635:Generated_Source\PSoC4/CyLib.c ****             regValues[1u] = CY_SYS_CLK_SELECT_REG;
 636:Generated_Source\PSoC4/CyLib.c ****             regValues[2u] = cyImoFreqMhz2Reg[freq - CY_SYS_CLK_IMO_FREQ_TABLE_OFFSET];
 637:Generated_Source\PSoC4/CyLib.c ****             regValues[3u] = CY_FLASH_CTL_REG;
 638:Generated_Source\PSoC4/CyLib.c **** 
 639:Generated_Source\PSoC4/CyLib.c ****             parameters[0u] =
 640:Generated_Source\PSoC4/CyLib.c ****                 (uint32) ((CY_FLASH_KEY_TWO(CY_FLASH_API_OPCODE_CLK_RESTORE) <<  CY_FLASH_PARAM_KEY
 641:Generated_Source\PSoC4/CyLib.c ****                             CY_FLASH_KEY_ONE);
 642:Generated_Source\PSoC4/CyLib.c ****             parameters[1u] = (uint32) &regValues[0u];
 643:Generated_Source\PSoC4/CyLib.c **** 
 644:Generated_Source\PSoC4/CyLib.c ****             CY_FLASH_CPUSS_SYSARG_REG = (uint32) &parameters[0u];
 645:Generated_Source\PSoC4/CyLib.c ****             CY_FLASH_CPUSS_SYSREQ_REG = CY_FLASH_CPUSS_REQ_START | CY_FLASH_API_OPCODE_CLK_RESTORE;
 646:Generated_Source\PSoC4/CyLib.c ****             (void) CY_FLASH_CPUSS_SYSARG_REG;
 647:Generated_Source\PSoC4/CyLib.c **** 
 648:Generated_Source\PSoC4/CyLib.c ****         #else /* (CY_IP_FM) */
 649:Generated_Source\PSoC4/CyLib.c **** 
 650:Generated_Source\PSoC4/CyLib.c ****         if ((freq >= CY_SYS_CLK_IMO_MIN_FREQ_MHZ) && (freq <= CY_SYS_CLK_IMO_MAX_FREQ_MHZ))
 651:Generated_Source\PSoC4/CyLib.c ****         {
 652:Generated_Source\PSoC4/CyLib.c ****             if(freq <= CY_SFLASH_IMO_MAXF0_REG)
 653:Generated_Source\PSoC4/CyLib.c ****             {
 654:Generated_Source\PSoC4/CyLib.c ****                 bgTrim4 = CY_SFLASH_IMO_ABS0_REG;
 655:Generated_Source\PSoC4/CyLib.c ****                 bgTrim5 = CY_SFLASH_IMO_TMPCO0_REG;
 656:Generated_Source\PSoC4/CyLib.c ****             }
 657:Generated_Source\PSoC4/CyLib.c ****             else if(freq <= CY_SFLASH_IMO_MAXF1_REG)
 658:Generated_Source\PSoC4/CyLib.c ****             {
 659:Generated_Source\PSoC4/CyLib.c ****                 bgTrim4 = CY_SFLASH_IMO_ABS1_REG;
 660:Generated_Source\PSoC4/CyLib.c ****                 bgTrim5 = CY_SFLASH_IMO_TMPCO1_REG;
 661:Generated_Source\PSoC4/CyLib.c ****             }
 662:Generated_Source\PSoC4/CyLib.c ****             else if(freq <= CY_SFLASH_IMO_MAXF2_REG)
 663:Generated_Source\PSoC4/CyLib.c ****             {
ARM GAS  C:\Users\CHRIST~1\AppData\Local\Temp\cc4LKu7J.s 			page 23


 664:Generated_Source\PSoC4/CyLib.c ****                 bgTrim4 = CY_SFLASH_IMO_ABS2_REG;
 665:Generated_Source\PSoC4/CyLib.c ****                 bgTrim5 = CY_SFLASH_IMO_TMPCO2_REG;
 666:Generated_Source\PSoC4/CyLib.c ****             }
 667:Generated_Source\PSoC4/CyLib.c ****             else if(freq <= CY_SFLASH_IMO_MAXF3_REG)
 668:Generated_Source\PSoC4/CyLib.c ****             {
 669:Generated_Source\PSoC4/CyLib.c ****                 bgTrim4 = CY_SFLASH_IMO_ABS3_REG;
 670:Generated_Source\PSoC4/CyLib.c ****                 bgTrim5 = CY_SFLASH_IMO_TMPCO3_REG;
 671:Generated_Source\PSoC4/CyLib.c ****             }
 672:Generated_Source\PSoC4/CyLib.c ****             else
 673:Generated_Source\PSoC4/CyLib.c ****             {
 674:Generated_Source\PSoC4/CyLib.c ****                 bgTrim4 = CY_SFLASH_IMO_ABS4_REG;
 675:Generated_Source\PSoC4/CyLib.c ****                 bgTrim5 = CY_SFLASH_IMO_TMPCO4_REG;
 676:Generated_Source\PSoC4/CyLib.c ****             }
 677:Generated_Source\PSoC4/CyLib.c **** 
 678:Generated_Source\PSoC4/CyLib.c ****             /* Get IMO_TRIM2 value for the new frequency */
 679:Generated_Source\PSoC4/CyLib.c ****             newImoTrim2Value = cyImoFreqMhz2Reg[freq - CY_SYS_CLK_IMO_FREQ_TABLE_OFFSET];
 680:Generated_Source\PSoC4/CyLib.c **** 
 681:Generated_Source\PSoC4/CyLib.c **** 
 682:Generated_Source\PSoC4/CyLib.c ****             /****************************************************************************
 683:Generated_Source\PSoC4/CyLib.c ****             * The IMO can have a different trim per frequency. To avoid possible corner
 684:Generated_Source\PSoC4/CyLib.c ****             * cases where a trim change can exceed the maximum frequency, the trim must
 685:Generated_Source\PSoC4/CyLib.c ****             * be applied at a frequency that is low enough.
 686:Generated_Source\PSoC4/CyLib.c ****             *
 687:Generated_Source\PSoC4/CyLib.c ****             * Comparing IMO_TRIM2 values for the current and new frequencies, since
 688:Generated_Source\PSoC4/CyLib.c ****             * IMO_TRIM2 value as a function of IMO frequency is a strictly increasing
 689:Generated_Source\PSoC4/CyLib.c ****             * function and is time-invariant.
 690:Generated_Source\PSoC4/CyLib.c ****             ***************************************************************************/
 691:Generated_Source\PSoC4/CyLib.c ****             if ((newImoTrim2Value >= CY_SYS_CLK_IMO_BOUNDARY_FREQ_TRIM2) && (freq >= CY_SYS_CLK_IMO
 692:Generated_Source\PSoC4/CyLib.c ****             {
 693:Generated_Source\PSoC4/CyLib.c ****                 /* Set boundary IMO frequency: safe for IMO above 48 MHZ trimming */
 694:Generated_Source\PSoC4/CyLib.c ****                 CY_SYS_CLK_IMO_TRIM2_REG = (uint32) cyImoFreqMhz2Reg[CY_SYS_CLK_IMO_TEMP_FREQ_MHZ -
 695:Generated_Source\PSoC4/CyLib.c ****                                                                      CY_SYS_CLK_IMO_FREQ_TABLE_OFFS
 696:Generated_Source\PSoC4/CyLib.c **** 
 697:Generated_Source\PSoC4/CyLib.c ****                 CyDelayCycles(CY_SYS_CLK_IMO_FREQ_TIMEOUT_CYCLES);
 698:Generated_Source\PSoC4/CyLib.c **** 
 699:Generated_Source\PSoC4/CyLib.c ****                 currentImoTrim2Value = CY_SYS_CLK_IMO_TEMP_FREQ_TRIM2;
 700:Generated_Source\PSoC4/CyLib.c ****             }
 701:Generated_Source\PSoC4/CyLib.c ****             else
 702:Generated_Source\PSoC4/CyLib.c ****             {
 703:Generated_Source\PSoC4/CyLib.c ****                 currentImoTrim2Value = (uint8) (CY_SYS_CLK_IMO_TRIM2_REG & CY_SYS_CLK_IMO_FREQ_BITS
 704:Generated_Source\PSoC4/CyLib.c ****             }
 705:Generated_Source\PSoC4/CyLib.c **** 
 706:Generated_Source\PSoC4/CyLib.c **** 
 707:Generated_Source\PSoC4/CyLib.c ****             /***************************************************************************
 708:Generated_Source\PSoC4/CyLib.c ****             * A trim change needs to be allowed to settle (within 5us) before the Freq
 709:Generated_Source\PSoC4/CyLib.c ****             * can be changed to a new frequency.
 710:Generated_Source\PSoC4/CyLib.c ****             *
 711:Generated_Source\PSoC4/CyLib.c ****             * Comparing IMO_TRIM2 values for the current and new frequencies, since
 712:Generated_Source\PSoC4/CyLib.c ****             * IMO_TRIM2 value as a function of IMO frequency is a strictly increasing
 713:Generated_Source\PSoC4/CyLib.c ****             * function and is time-invariant.
 714:Generated_Source\PSoC4/CyLib.c ****             ***************************************************************************/
 715:Generated_Source\PSoC4/CyLib.c ****             if (newImoTrim2Value < currentImoTrim2Value)
 716:Generated_Source\PSoC4/CyLib.c ****             {
 717:Generated_Source\PSoC4/CyLib.c ****                 /* Set new IMO frequency */
 718:Generated_Source\PSoC4/CyLib.c ****                 CY_SYS_CLK_IMO_TRIM2_REG = cyImoFreqMhz2Reg[freq - CY_SYS_CLK_IMO_FREQ_TABLE_OFFSET
 719:Generated_Source\PSoC4/CyLib.c ****                 CyDelayCycles(CY_SYS_CLK_IMO_FREQ_TIMEOUT_CYCLES);
 720:Generated_Source\PSoC4/CyLib.c ****             }
ARM GAS  C:\Users\CHRIST~1\AppData\Local\Temp\cc4LKu7J.s 			page 24


 721:Generated_Source\PSoC4/CyLib.c **** 
 722:Generated_Source\PSoC4/CyLib.c ****             /* Set trims for the new IMO frequency */
 723:Generated_Source\PSoC4/CyLib.c **** 
 724:Generated_Source\PSoC4/CyLib.c ****             #if (CY_IP_IMO_TRIMMABLE_BY_USB)
 725:Generated_Source\PSoC4/CyLib.c ****                 if ((1u == usbLock) && (48u == freq))
 726:Generated_Source\PSoC4/CyLib.c ****                 {
 727:Generated_Source\PSoC4/CyLib.c ****                     imoTrim1Value = CY_SFLASH_IMO_TRIM_USBMODE_48_REG;
 728:Generated_Source\PSoC4/CyLib.c ****                 }
 729:Generated_Source\PSoC4/CyLib.c ****                 else if ((1u == usbLock) && (24u == freq))
 730:Generated_Source\PSoC4/CyLib.c ****                 {
 731:Generated_Source\PSoC4/CyLib.c ****                     imoTrim1Value = CY_SFLASH_IMO_TRIM_USBMODE_24_REG;
 732:Generated_Source\PSoC4/CyLib.c ****                 }
 733:Generated_Source\PSoC4/CyLib.c ****                 else
 734:Generated_Source\PSoC4/CyLib.c ****                 {
 735:Generated_Source\PSoC4/CyLib.c ****                     imoTrim1Value = (uint8) CY_SFLASH_IMO_TRIM_REG(freq - CY_SYS_CLK_IMO_FREQ_TABLE
 736:Generated_Source\PSoC4/CyLib.c ****                 }
 737:Generated_Source\PSoC4/CyLib.c ****             #else
 738:Generated_Source\PSoC4/CyLib.c ****                 imoTrim1Value = (uint8) CY_SFLASH_IMO_TRIM_REG(freq - CY_SYS_CLK_IMO_FREQ_TABLE_OFF
 739:Generated_Source\PSoC4/CyLib.c ****             #endif  /* (CY_IP_IMO_TRIMMABLE_BY_USB) */
 740:Generated_Source\PSoC4/CyLib.c **** 
 741:Generated_Source\PSoC4/CyLib.c **** 
 742:Generated_Source\PSoC4/CyLib.c ****             CY_SYS_CLK_IMO_TRIM1_REG = (uint32) imoTrim1Value;
 743:Generated_Source\PSoC4/CyLib.c ****             CY_PWR_BG_TRIM4_REG  = bgTrim4;
 744:Generated_Source\PSoC4/CyLib.c ****             CY_PWR_BG_TRIM5_REG  = bgTrim5;
 745:Generated_Source\PSoC4/CyLib.c ****             CyDelayUs(CY_SYS_CLK_IMO_TRIM_TIMEOUT_US);
 746:Generated_Source\PSoC4/CyLib.c **** 
 747:Generated_Source\PSoC4/CyLib.c ****             if (newImoTrim2Value > currentImoTrim2Value)
 748:Generated_Source\PSoC4/CyLib.c ****             {
 749:Generated_Source\PSoC4/CyLib.c ****                 /* Set new IMO frequency */
 750:Generated_Source\PSoC4/CyLib.c ****                 CY_SYS_CLK_IMO_TRIM2_REG = cyImoFreqMhz2Reg[freq - CY_SYS_CLK_IMO_FREQ_TABLE_OFFSET
 751:Generated_Source\PSoC4/CyLib.c ****                 CyDelayCycles(CY_SYS_CLK_IMO_FREQ_TIMEOUT_CYCLES);
 752:Generated_Source\PSoC4/CyLib.c ****             }
 753:Generated_Source\PSoC4/CyLib.c ****         }
 754:Generated_Source\PSoC4/CyLib.c ****         else
 755:Generated_Source\PSoC4/CyLib.c ****         {
 756:Generated_Source\PSoC4/CyLib.c ****             /* Halt CPU in debug mode if new frequency is invalid */
 757:Generated_Source\PSoC4/CyLib.c ****             CYASSERT(0u != 0u);
 758:Generated_Source\PSoC4/CyLib.c ****         }
 759:Generated_Source\PSoC4/CyLib.c **** 
 760:Generated_Source\PSoC4/CyLib.c ****         #endif /* (CY_IP_FMLT) */
 761:Generated_Source\PSoC4/CyLib.c **** 
 762:Generated_Source\PSoC4/CyLib.c ****         #if (CY_IP_IMO_TRIMMABLE_BY_WCO)
 763:Generated_Source\PSoC4/CyLib.c ****             if (1u == wcoLock)
 764:Generated_Source\PSoC4/CyLib.c ****             {
 765:Generated_Source\PSoC4/CyLib.c ****                 CySysClkImoEnableWcoLock();
 766:Generated_Source\PSoC4/CyLib.c ****             }
 767:Generated_Source\PSoC4/CyLib.c ****         #endif  /* (CY_IP_IMO_TRIMMABLE_BY_WCO) */
 768:Generated_Source\PSoC4/CyLib.c **** 
 769:Generated_Source\PSoC4/CyLib.c ****         #if (CY_IP_IMO_TRIMMABLE_BY_USB)
 770:Generated_Source\PSoC4/CyLib.c ****             if (1u == usbLock)
 771:Generated_Source\PSoC4/CyLib.c ****             {
 772:Generated_Source\PSoC4/CyLib.c ****                 CySysClkImoEnableUsbLock();
 773:Generated_Source\PSoC4/CyLib.c ****             }
 774:Generated_Source\PSoC4/CyLib.c ****         #endif  /* (CY_IP_IMO_TRIMMABLE_BY_USB) */
 775:Generated_Source\PSoC4/CyLib.c **** 
 776:Generated_Source\PSoC4/CyLib.c ****         CyExitCriticalSection(interruptState);
 777:Generated_Source\PSoC4/CyLib.c ****     }
ARM GAS  C:\Users\CHRIST~1\AppData\Local\Temp\cc4LKu7J.s 			page 25


 778:Generated_Source\PSoC4/CyLib.c **** 
 779:Generated_Source\PSoC4/CyLib.c **** #else
 780:Generated_Source\PSoC4/CyLib.c **** 
 781:Generated_Source\PSoC4/CyLib.c ****     void CySysClkWriteImoFreq(uint32 freq)
 782:Generated_Source\PSoC4/CyLib.c ****     {
 583              		.loc 1 782 0
 584              		.cfi_startproc
 585 0000 90B5     		push	{r4, r7, lr}
 586              		.cfi_def_cfa_offset 12
 587              		.cfi_offset 4, -12
 588              		.cfi_offset 7, -8
 589              		.cfi_offset 14, -4
 590 0002 85B0     		sub	sp, sp, #20
 591              		.cfi_def_cfa_offset 32
 592 0004 00AF     		add	r7, sp, #0
 593              		.cfi_def_cfa_register 7
 594 0006 7860     		str	r0, [r7, #4]
 783:Generated_Source\PSoC4/CyLib.c ****         uint8  interruptState;
 784:Generated_Source\PSoC4/CyLib.c ****         uint8  imoTrim1Value;
 785:Generated_Source\PSoC4/CyLib.c **** 
 786:Generated_Source\PSoC4/CyLib.c ****         #if (CY_IP_IMO_TRIMMABLE_BY_WCO)
 787:Generated_Source\PSoC4/CyLib.c ****             uint32 wcoLock = 0u;
 595              		.loc 1 787 0
 596 0008 0023     		mov	r3, #0
 597 000a FB60     		str	r3, [r7, #12]
 788:Generated_Source\PSoC4/CyLib.c ****         #endif  /* (CY_IP_IMO_TRIMMABLE_BY_WCO) */        
 789:Generated_Source\PSoC4/CyLib.c ****         
 790:Generated_Source\PSoC4/CyLib.c ****         #if (CY_IP_IMO_TRIMMABLE_BY_USB)
 791:Generated_Source\PSoC4/CyLib.c ****             uint32 usbLock = 0u;
 792:Generated_Source\PSoC4/CyLib.c ****         #endif  /* (CY_IP_IMO_TRIMMABLE_BY_USB) */
 793:Generated_Source\PSoC4/CyLib.c **** 
 794:Generated_Source\PSoC4/CyLib.c ****         #if (CY_PSOC4_4000)
 795:Generated_Source\PSoC4/CyLib.c ****             if ((freq == 24u) || (freq == 32u) || (freq == 48u))
 796:Generated_Source\PSoC4/CyLib.c ****         #else
 797:Generated_Source\PSoC4/CyLib.c ****             if ((freq == 24u) || (freq == 28u) || (freq == 32u) ||
 598              		.loc 1 797 0
 599 000c 7B68     		ldr	r3, [r7, #4]
 600 000e 182B     		cmp	r3, #24
 601 0010 11D0     		beq	.L34
 602              		.loc 1 797 0 is_stmt 0 discriminator 1
 603 0012 7B68     		ldr	r3, [r7, #4]
 604 0014 1C2B     		cmp	r3, #28
 605 0016 0ED0     		beq	.L34
 606              		.loc 1 797 0 discriminator 2
 607 0018 7B68     		ldr	r3, [r7, #4]
 608 001a 202B     		cmp	r3, #32
 609 001c 0BD0     		beq	.L34
 610              		.loc 1 797 0 discriminator 3
 611 001e 7B68     		ldr	r3, [r7, #4]
 612 0020 242B     		cmp	r3, #36
 613 0022 08D0     		beq	.L34
 798:Generated_Source\PSoC4/CyLib.c ****                 (freq == 36u) || (freq == 40u) || (freq == 44u) ||
 614              		.loc 1 798 0 is_stmt 1
 615 0024 7B68     		ldr	r3, [r7, #4]
 616 0026 282B     		cmp	r3, #40
 617 0028 05D0     		beq	.L34
 618              		.loc 1 798 0 is_stmt 0 discriminator 1
ARM GAS  C:\Users\CHRIST~1\AppData\Local\Temp\cc4LKu7J.s 			page 26


 619 002a 7B68     		ldr	r3, [r7, #4]
 620 002c 2C2B     		cmp	r3, #44
 621 002e 02D0     		beq	.L34
 622              		.loc 1 798 0 discriminator 2
 623 0030 7B68     		ldr	r3, [r7, #4]
 624 0032 302B     		cmp	r3, #48
 625 0034 65D1     		bne	.L35
 626              	.L34:
 799:Generated_Source\PSoC4/CyLib.c ****                 (freq == 48u))
 800:Generated_Source\PSoC4/CyLib.c ****         #endif /* (CY_PSOC4_4000) */
 801:Generated_Source\PSoC4/CyLib.c ****         {
 802:Generated_Source\PSoC4/CyLib.c ****             interruptState = CyEnterCriticalSection();
 627              		.loc 1 802 0 is_stmt 1
 628 0036 0B23     		mov	r3, #11
 629 0038 FC18     		add	r4, r7, r3
 630 003a FFF7FEFF 		bl	CyEnterCriticalSection
 631 003e 031C     		mov	r3, r0
 632 0040 2370     		strb	r3, [r4]
 803:Generated_Source\PSoC4/CyLib.c **** 
 804:Generated_Source\PSoC4/CyLib.c ****             #if (CY_IP_IMO_TRIMMABLE_BY_WCO)
 805:Generated_Source\PSoC4/CyLib.c ****                 if(0u != CySysClkImoGetWcoLock())
 633              		.loc 1 805 0
 634 0042 FFF7FEFF 		bl	CySysClkImoGetWcoLock
 635 0046 031E     		sub	r3, r0, #0
 636 0048 03D0     		beq	.L36
 806:Generated_Source\PSoC4/CyLib.c ****                 {
 807:Generated_Source\PSoC4/CyLib.c ****                     wcoLock = 1u;
 637              		.loc 1 807 0
 638 004a 0123     		mov	r3, #1
 639 004c FB60     		str	r3, [r7, #12]
 808:Generated_Source\PSoC4/CyLib.c ****                     CySysClkImoDisableWcoLock();
 640              		.loc 1 808 0
 641 004e FFF7FEFF 		bl	CySysClkImoDisableWcoLock
 642              	.L36:
 809:Generated_Source\PSoC4/CyLib.c ****                 }
 810:Generated_Source\PSoC4/CyLib.c ****             #endif  /* (CY_IP_IMO_TRIMMABLE_BY_WCO) */
 811:Generated_Source\PSoC4/CyLib.c **** 
 812:Generated_Source\PSoC4/CyLib.c ****             #if (CY_IP_IMO_TRIMMABLE_BY_USB)
 813:Generated_Source\PSoC4/CyLib.c **** 
 814:Generated_Source\PSoC4/CyLib.c ****                 #if (CYDEV_IMO_TRIMMED_BY_USB == 0u)
 815:Generated_Source\PSoC4/CyLib.c ****                     if(0u != CySysClkImoGetUsbLock())
 816:Generated_Source\PSoC4/CyLib.c ****                     {
 817:Generated_Source\PSoC4/CyLib.c ****                 #endif  /* (CYDEV_IMO_TRIMMED_BY_USB == 0u) */
 818:Generated_Source\PSoC4/CyLib.c **** 
 819:Generated_Source\PSoC4/CyLib.c ****                     if (48u == freq)
 820:Generated_Source\PSoC4/CyLib.c ****                     {
 821:Generated_Source\PSoC4/CyLib.c ****                         usbLock = 1u;
 822:Generated_Source\PSoC4/CyLib.c ****                         CySysClkImoDisableUsbLock();
 823:Generated_Source\PSoC4/CyLib.c ****                     }
 824:Generated_Source\PSoC4/CyLib.c **** 
 825:Generated_Source\PSoC4/CyLib.c ****                 #if (CYDEV_IMO_TRIMMED_BY_USB == 0u)
 826:Generated_Source\PSoC4/CyLib.c ****                     }
 827:Generated_Source\PSoC4/CyLib.c ****                 #endif  /* (CYDEV_IMO_TRIMMED_BY_USB == 0u) */
 828:Generated_Source\PSoC4/CyLib.c **** 
 829:Generated_Source\PSoC4/CyLib.c ****             #endif  /* (CYDEV_IMO_TRIMMED_BY_USB == 0u) */
 830:Generated_Source\PSoC4/CyLib.c **** 
 831:Generated_Source\PSoC4/CyLib.c **** 
ARM GAS  C:\Users\CHRIST~1\AppData\Local\Temp\cc4LKu7J.s 			page 27


 832:Generated_Source\PSoC4/CyLib.c ****             /* Set IMO to 24 MHz - CLK_IMO_SELECT.FREQ = 0 */
 833:Generated_Source\PSoC4/CyLib.c ****             CY_SYS_CLK_IMO_SELECT_REG &= ((uint32) ~CY_SYS_CLK_IMO_SELECT_FREQ_MASK);
 643              		.loc 1 833 0
 644 0052 2F4B     		ldr	r3, .L40
 645 0054 2E4A     		ldr	r2, .L40
 646 0056 1268     		ldr	r2, [r2]
 647 0058 0721     		mov	r1, #7
 648 005a 8A43     		bic	r2, r1
 649 005c 1A60     		str	r2, [r3]
 834:Generated_Source\PSoC4/CyLib.c **** 
 835:Generated_Source\PSoC4/CyLib.c **** 
 836:Generated_Source\PSoC4/CyLib.c ****             /* Apply coarse trim */
 837:Generated_Source\PSoC4/CyLib.c ****             #if (CY_IP_IMO_TRIMMABLE_BY_USB)
 838:Generated_Source\PSoC4/CyLib.c ****                 if ((1u == usbLock) && (48u == freq))
 839:Generated_Source\PSoC4/CyLib.c ****                 {
 840:Generated_Source\PSoC4/CyLib.c ****                     imoTrim1Value = CY_SFLASH_IMO_TRIM_USBMODE_48_REG;
 841:Generated_Source\PSoC4/CyLib.c ****                 }
 842:Generated_Source\PSoC4/CyLib.c ****                 else if ((1u == usbLock) && (24u == freq))
 843:Generated_Source\PSoC4/CyLib.c ****                 {
 844:Generated_Source\PSoC4/CyLib.c ****                     imoTrim1Value = CY_SFLASH_IMO_TRIM_USBMODE_24_REG;
 845:Generated_Source\PSoC4/CyLib.c ****                 }
 846:Generated_Source\PSoC4/CyLib.c ****                 else
 847:Generated_Source\PSoC4/CyLib.c ****                 {
 848:Generated_Source\PSoC4/CyLib.c ****                     imoTrim1Value = (uint8) CY_SFLASH_IMO_TRIM_REG(freq - CY_SYS_CLK_IMO_MIN_FREQ_M
 849:Generated_Source\PSoC4/CyLib.c ****                 }
 850:Generated_Source\PSoC4/CyLib.c ****             #else
 851:Generated_Source\PSoC4/CyLib.c ****                 imoTrim1Value = (uint8) CY_SFLASH_IMO_TRIM_REG(freq - CY_SYS_CLK_IMO_MIN_FREQ_MHZ);
 650              		.loc 1 851 0
 651 005e 7B68     		ldr	r3, [r7, #4]
 652 0060 2C4A     		ldr	r2, .L40+4
 653 0062 9A18     		add	r2, r3, r2
 654 0064 0A23     		mov	r3, #10
 655 0066 FB18     		add	r3, r7, r3
 656 0068 1278     		ldrb	r2, [r2]
 657 006a 1A70     		strb	r2, [r3]
 852:Generated_Source\PSoC4/CyLib.c ****             #endif  /* (CY_IP_IMO_TRIMMABLE_BY_USB) */
 853:Generated_Source\PSoC4/CyLib.c ****             CY_SYS_CLK_IMO_TRIM1_REG = (uint32) imoTrim1Value;
 658              		.loc 1 853 0
 659 006c 2A4B     		ldr	r3, .L40+8
 660 006e 0A22     		mov	r2, #10
 661 0070 BA18     		add	r2, r7, r2
 662 0072 1278     		ldrb	r2, [r2]
 663 0074 1A60     		str	r2, [r3]
 854:Generated_Source\PSoC4/CyLib.c **** 
 855:Generated_Source\PSoC4/CyLib.c ****             /* Zero out fine trim */
 856:Generated_Source\PSoC4/CyLib.c ****             CY_SYS_CLK_IMO_TRIM2_REG = CY_SYS_CLK_IMO_TRIM2_REG & ((uint32) ~CY_SYS_CLK_IMO_TRIM2_F
 664              		.loc 1 856 0
 665 0076 294B     		ldr	r3, .L40+12
 666 0078 284A     		ldr	r2, .L40+12
 667 007a 1268     		ldr	r2, [r2]
 668 007c 0721     		mov	r1, #7
 669 007e 8A43     		bic	r2, r1
 670 0080 1A60     		str	r2, [r3]
 857:Generated_Source\PSoC4/CyLib.c **** 
 858:Generated_Source\PSoC4/CyLib.c ****             /* Apply TC trim */
 859:Generated_Source\PSoC4/CyLib.c ****             CY_SYS_CLK_IMO_TRIM3_REG = (CY_SYS_CLK_IMO_TRIM3_REG & ((uint32) ~CY_SYS_CLK_IMO_TRIM3_
 671              		.loc 1 859 0
ARM GAS  C:\Users\CHRIST~1\AppData\Local\Temp\cc4LKu7J.s 			page 28


 672 0082 274B     		ldr	r3, .L40+16
 673 0084 264A     		ldr	r2, .L40+16
 674 0086 1268     		ldr	r2, [r2]
 675 0088 7F21     		mov	r1, #127
 676 008a 8A43     		bic	r2, r1
 677 008c 111C     		mov	r1, r2
 860:Generated_Source\PSoC4/CyLib.c ****                 (CY_SFLASH_IMO_TCTRIM_REG(freq - CY_SYS_CLK_IMO_MIN_FREQ_MHZ) & CY_SYS_CLK_IMO_TRIM
 678              		.loc 1 860 0
 679 008e 7A68     		ldr	r2, [r7, #4]
 680 0090 2448     		ldr	r0, .L40+20
 681 0092 8446     		mov	ip, r0
 682 0094 6244     		add	r2, r2, ip
 683 0096 1278     		ldrb	r2, [r2]
 684 0098 D2B2     		uxtb	r2, r2
 685 009a 101C     		mov	r0, r2
 686 009c 7F22     		mov	r2, #127
 687 009e 0240     		and	r2, r0
 859:Generated_Source\PSoC4/CyLib.c ****                 (CY_SFLASH_IMO_TCTRIM_REG(freq - CY_SYS_CLK_IMO_MIN_FREQ_MHZ) & CY_SYS_CLK_IMO_TRIM
 688              		.loc 1 859 0
 689 00a0 0A43     		orr	r2, r1
 690 00a2 1A60     		str	r2, [r3]
 861:Generated_Source\PSoC4/CyLib.c **** 
 862:Generated_Source\PSoC4/CyLib.c ****             CyDelayCycles(CY_SYS_CLK_IMO_TRIM_DELAY_CYCLES);
 691              		.loc 1 862 0
 692 00a4 3220     		mov	r0, #50
 693 00a6 FFF7FEFF 		bl	CyDelayCycles
 863:Generated_Source\PSoC4/CyLib.c **** 
 864:Generated_Source\PSoC4/CyLib.c ****             if (freq > CY_SYS_CLK_IMO_MIN_FREQ_MHZ)
 694              		.loc 1 864 0
 695 00aa 7B68     		ldr	r3, [r7, #4]
 696 00ac 182B     		cmp	r3, #24
 697 00ae 1CD9     		bls	.L37
 865:Generated_Source\PSoC4/CyLib.c ****             {
 866:Generated_Source\PSoC4/CyLib.c ****                 /* Select nearby intermediate frequency */
 867:Generated_Source\PSoC4/CyLib.c ****                 CY_SYS_CLK_IMO_SELECT_REG = (CY_SYS_CLK_IMO_SELECT_REG & ((uint32) ~CY_SYS_CLK_IMO_
 698              		.loc 1 867 0
 699 00b0 174B     		ldr	r3, .L40
 700 00b2 174A     		ldr	r2, .L40
 701 00b4 1268     		ldr	r2, [r2]
 702 00b6 0721     		mov	r1, #7
 703 00b8 8A43     		bic	r2, r1
 704 00ba 111C     		mov	r1, r2
 868:Generated_Source\PSoC4/CyLib.c ****                     (((freq - 4u - CY_SYS_CLK_IMO_MIN_FREQ_MHZ) >> 2u) & CY_SYS_CLK_IMO_SELECT_FREQ
 705              		.loc 1 868 0
 706 00bc 7A68     		ldr	r2, [r7, #4]
 707 00be 1C3A     		sub	r2, r2, #28
 708 00c0 9208     		lsr	r2, r2, #2
 709 00c2 0720     		mov	r0, #7
 710 00c4 0240     		and	r2, r0
 867:Generated_Source\PSoC4/CyLib.c ****                     (((freq - 4u - CY_SYS_CLK_IMO_MIN_FREQ_MHZ) >> 2u) & CY_SYS_CLK_IMO_SELECT_FREQ
 711              		.loc 1 867 0
 712 00c6 0A43     		orr	r2, r1
 713 00c8 1A60     		str	r2, [r3]
 869:Generated_Source\PSoC4/CyLib.c **** 
 870:Generated_Source\PSoC4/CyLib.c ****                 CyDelayCycles(CY_SYS_CLK_IMO_TRIM_DELAY_CYCLES);
 714              		.loc 1 870 0
 715 00ca 3220     		mov	r0, #50
ARM GAS  C:\Users\CHRIST~1\AppData\Local\Temp\cc4LKu7J.s 			page 29


 716 00cc FFF7FEFF 		bl	CyDelayCycles
 871:Generated_Source\PSoC4/CyLib.c **** 
 872:Generated_Source\PSoC4/CyLib.c ****                 /* Make small step to final frequency */
 873:Generated_Source\PSoC4/CyLib.c ****                 /* Select nearby intermediate frequency */
 874:Generated_Source\PSoC4/CyLib.c ****                 CY_SYS_CLK_IMO_SELECT_REG = (CY_SYS_CLK_IMO_SELECT_REG & ((uint32) ~CY_SYS_CLK_IMO_
 717              		.loc 1 874 0
 718 00d0 0F4B     		ldr	r3, .L40
 719 00d2 0F4A     		ldr	r2, .L40
 720 00d4 1268     		ldr	r2, [r2]
 721 00d6 0721     		mov	r1, #7
 722 00d8 8A43     		bic	r2, r1
 723 00da 111C     		mov	r1, r2
 875:Generated_Source\PSoC4/CyLib.c ****                     (((freq - CY_SYS_CLK_IMO_MIN_FREQ_MHZ) >> 2u) & CY_SYS_CLK_IMO_SELECT_FREQ_MASK
 724              		.loc 1 875 0
 725 00dc 7A68     		ldr	r2, [r7, #4]
 726 00de 183A     		sub	r2, r2, #24
 727 00e0 9208     		lsr	r2, r2, #2
 728 00e2 0720     		mov	r0, #7
 729 00e4 0240     		and	r2, r0
 874:Generated_Source\PSoC4/CyLib.c ****                     (((freq - CY_SYS_CLK_IMO_MIN_FREQ_MHZ) >> 2u) & CY_SYS_CLK_IMO_SELECT_FREQ_MASK
 730              		.loc 1 874 0
 731 00e6 0A43     		orr	r2, r1
 732 00e8 1A60     		str	r2, [r3]
 733              	.L37:
 876:Generated_Source\PSoC4/CyLib.c ****             }
 877:Generated_Source\PSoC4/CyLib.c **** 
 878:Generated_Source\PSoC4/CyLib.c ****             #if (CY_IP_IMO_TRIMMABLE_BY_WCO)
 879:Generated_Source\PSoC4/CyLib.c ****                 if (1u == wcoLock)
 734              		.loc 1 879 0
 735 00ea FB68     		ldr	r3, [r7, #12]
 736 00ec 012B     		cmp	r3, #1
 737 00ee 01D1     		bne	.L38
 880:Generated_Source\PSoC4/CyLib.c ****                 {
 881:Generated_Source\PSoC4/CyLib.c ****                     CySysClkImoEnableWcoLock();
 738              		.loc 1 881 0
 739 00f0 FFF7FEFF 		bl	CySysClkImoEnableWcoLock
 740              	.L38:
 882:Generated_Source\PSoC4/CyLib.c ****                 }
 883:Generated_Source\PSoC4/CyLib.c ****             #endif  /* (CY_IP_IMO_TRIMMABLE_BY_WCO) */
 884:Generated_Source\PSoC4/CyLib.c ****         
 885:Generated_Source\PSoC4/CyLib.c ****         
 886:Generated_Source\PSoC4/CyLib.c ****             #if (CY_IP_IMO_TRIMMABLE_BY_USB)
 887:Generated_Source\PSoC4/CyLib.c ****                 if (1u == usbLock)
 888:Generated_Source\PSoC4/CyLib.c ****                 {
 889:Generated_Source\PSoC4/CyLib.c ****                     CySysClkImoEnableUsbLock();
 890:Generated_Source\PSoC4/CyLib.c ****                 }
 891:Generated_Source\PSoC4/CyLib.c ****             #endif  /* (CY_IP_IMO_TRIMMABLE_BY_USB) */
 892:Generated_Source\PSoC4/CyLib.c **** 
 893:Generated_Source\PSoC4/CyLib.c ****             CyExitCriticalSection(interruptState);
 741              		.loc 1 893 0
 742 00f4 0B23     		mov	r3, #11
 743 00f6 FB18     		add	r3, r7, r3
 744 00f8 1B78     		ldrb	r3, [r3]
 745 00fa 181C     		mov	r0, r3
 746 00fc FFF7FEFF 		bl	CyExitCriticalSection
 747 0100 02E0     		b	.L33
 748              	.L35:
ARM GAS  C:\Users\CHRIST~1\AppData\Local\Temp\cc4LKu7J.s 			page 30


 894:Generated_Source\PSoC4/CyLib.c ****         }
 895:Generated_Source\PSoC4/CyLib.c ****         else
 896:Generated_Source\PSoC4/CyLib.c ****         {
 897:Generated_Source\PSoC4/CyLib.c ****             /* Halt CPU in debug mode if new frequency is invalid */
 898:Generated_Source\PSoC4/CyLib.c ****             CYASSERT(0u != 0u);
 749              		.loc 1 898 0 discriminator 1
 750 0102 0020     		mov	r0, #0
 751 0104 FFF7FEFF 		bl	CyHalt
 752              	.L33:
 899:Generated_Source\PSoC4/CyLib.c ****         }
 900:Generated_Source\PSoC4/CyLib.c ****     }
 753              		.loc 1 900 0
 754 0108 BD46     		mov	sp, r7
 755 010a 05B0     		add	sp, sp, #20
 756              		@ sp needed
 757 010c 90BD     		pop	{r4, r7, pc}
 758              	.L41:
 759 010e C046     		.align	2
 760              	.L40:
 761 0110 080F0340 		.word	1073942280
 762 0114 CDF1FF0F 		.word	268431821
 763 0118 0C0F0340 		.word	1073942284
 764 011c 100F0340 		.word	1073942288
 765 0120 180F0340 		.word	1073942296
 766 0124 B4F1FF0F 		.word	268431796
 767              		.cfi_endproc
 768              	.LFE9:
 769              		.size	CySysClkWriteImoFreq, .-CySysClkWriteImoFreq
 770              		.section	.text.CySysClkWriteHfclkDiv,"ax",%progbits
 771              		.align	2
 772              		.global	CySysClkWriteHfclkDiv
 773              		.code	16
 774              		.thumb_func
 775              		.type	CySysClkWriteHfclkDiv, %function
 776              	CySysClkWriteHfclkDiv:
 777              	.LFB10:
 901:Generated_Source\PSoC4/CyLib.c **** 
 902:Generated_Source\PSoC4/CyLib.c **** #endif /* (CY_IP_SRSSV2) */
 903:Generated_Source\PSoC4/CyLib.c **** 
 904:Generated_Source\PSoC4/CyLib.c **** 
 905:Generated_Source\PSoC4/CyLib.c **** #if(CY_IP_SRSSLT)
 906:Generated_Source\PSoC4/CyLib.c ****     /*******************************************************************************
 907:Generated_Source\PSoC4/CyLib.c ****     * Function Name: CySysClkWriteHfclkDiv
 908:Generated_Source\PSoC4/CyLib.c ****     ****************************************************************************//**
 909:Generated_Source\PSoC4/CyLib.c ****     *
 910:Generated_Source\PSoC4/CyLib.c ****     * Selects the pre-scaler divider value for HFCLK from IMO.
 911:Generated_Source\PSoC4/CyLib.c ****     *
 912:Generated_Source\PSoC4/CyLib.c ****     * The HFCLK predivider allows the device to divide the HFCLK selection mux
 913:Generated_Source\PSoC4/CyLib.c ****     * input before use as HFCLK. The predivider is capable of dividing the HFCLK by
 914:Generated_Source\PSoC4/CyLib.c ****     * powers of 2 between 1 and 8.
 915:Generated_Source\PSoC4/CyLib.c ****     *
 916:Generated_Source\PSoC4/CyLib.c ****     * PSoC 4000: The SYSCLK has the speed of 16 MHz, so HFCLK and SYSCLK dividers
 917:Generated_Source\PSoC4/CyLib.c ****     * should be selected in a way, not to exceed 16 MHz for SYSCLK.
 918:Generated_Source\PSoC4/CyLib.c ****     *
 919:Generated_Source\PSoC4/CyLib.c ****     * If the SYSCLK clock frequency increases during the device operation, call
 920:Generated_Source\PSoC4/CyLib.c ****     * \ref CySysFlashSetWaitCycles() with the appropriate parameter to adjust the
 921:Generated_Source\PSoC4/CyLib.c ****     * number of clock cycles the cache will wait before sampling data comes back
ARM GAS  C:\Users\CHRIST~1\AppData\Local\Temp\cc4LKu7J.s 			page 31


 922:Generated_Source\PSoC4/CyLib.c ****     * from Flash. If the SYSCLK clock frequency decreases, you can call
 923:Generated_Source\PSoC4/CyLib.c ****     * \ref CySysFlashSetWaitCycles() to improve the CPU performance. See
 924:Generated_Source\PSoC4/CyLib.c ****     * \ref CySysFlashSetWaitCycles() description for more information.
 925:Generated_Source\PSoC4/CyLib.c ****     *
 926:Generated_Source\PSoC4/CyLib.c ****     * \param \ref CY_SYS_CLK_HFCLK_DIV_NODIV    Transparent mode (w/o dividing)
 927:Generated_Source\PSoC4/CyLib.c ****     * \param \ref CY_SYS_CLK_HFCLK_DIV_2        Divide selected clock source by 2
 928:Generated_Source\PSoC4/CyLib.c ****     * \param \ref CY_SYS_CLK_HFCLK_DIV_4        Divide selected clock source by 4
 929:Generated_Source\PSoC4/CyLib.c ****     * \param \ref CY_SYS_CLK_HFCLK_DIV_8        Divide selected clock source by 8
 930:Generated_Source\PSoC4/CyLib.c ****     *
 931:Generated_Source\PSoC4/CyLib.c ****     *******************************************************************************/
 932:Generated_Source\PSoC4/CyLib.c ****     void CySysClkWriteHfclkDiv(uint32 divider)
 933:Generated_Source\PSoC4/CyLib.c ****     {
 778              		.loc 1 933 0
 779              		.cfi_startproc
 780 0000 90B5     		push	{r4, r7, lr}
 781              		.cfi_def_cfa_offset 12
 782              		.cfi_offset 4, -12
 783              		.cfi_offset 7, -8
 784              		.cfi_offset 14, -4
 785 0002 85B0     		sub	sp, sp, #20
 786              		.cfi_def_cfa_offset 32
 787 0004 00AF     		add	r7, sp, #0
 788              		.cfi_def_cfa_register 7
 789 0006 7860     		str	r0, [r7, #4]
 934:Generated_Source\PSoC4/CyLib.c ****         uint8  interruptState;
 935:Generated_Source\PSoC4/CyLib.c **** 
 936:Generated_Source\PSoC4/CyLib.c ****         interruptState = CyEnterCriticalSection();
 790              		.loc 1 936 0
 791 0008 0F23     		mov	r3, #15
 792 000a FC18     		add	r4, r7, r3
 793 000c FFF7FEFF 		bl	CyEnterCriticalSection
 794 0010 031C     		mov	r3, r0
 795 0012 2370     		strb	r3, [r4]
 937:Generated_Source\PSoC4/CyLib.c **** 
 938:Generated_Source\PSoC4/CyLib.c ****         CY_SYS_CLK_SELECT_REG = ((CY_SYS_CLK_SELECT_REG & ((uint32) (~(CY_SYS_CLK_SELECT_HFCLK_DIV_
 796              		.loc 1 938 0
 797 0014 0A4B     		ldr	r3, .L43
 798 0016 0A4A     		ldr	r2, .L43
 799 0018 1268     		ldr	r2, [r2]
 800 001a 0C21     		mov	r1, #12
 801 001c 8A43     		bic	r2, r1
 802 001e 111C     		mov	r1, r2
 939:Generated_Source\PSoC4/CyLib.c ****                                         CY_SYS_CLK_SELECT_HFCLK_DIV_SHIFT)))) |
 940:Generated_Source\PSoC4/CyLib.c ****                     ((uint32)((divider & CY_SYS_CLK_SELECT_HFCLK_DIV_MASK) << CY_SYS_CLK_SELECT_HFC
 803              		.loc 1 940 0
 804 0020 7A68     		ldr	r2, [r7, #4]
 805 0022 0320     		mov	r0, #3
 806 0024 0240     		and	r2, r0
 807 0026 9200     		lsl	r2, r2, #2
 939:Generated_Source\PSoC4/CyLib.c ****                                         CY_SYS_CLK_SELECT_HFCLK_DIV_SHIFT)))) |
 808              		.loc 1 939 0
 809 0028 0A43     		orr	r2, r1
 938:Generated_Source\PSoC4/CyLib.c ****                                         CY_SYS_CLK_SELECT_HFCLK_DIV_SHIFT)))) |
 810              		.loc 1 938 0
 811 002a 1A60     		str	r2, [r3]
 941:Generated_Source\PSoC4/CyLib.c **** 
 942:Generated_Source\PSoC4/CyLib.c ****         CyExitCriticalSection(interruptState);
ARM GAS  C:\Users\CHRIST~1\AppData\Local\Temp\cc4LKu7J.s 			page 32


 812              		.loc 1 942 0
 813 002c 0F23     		mov	r3, #15
 814 002e FB18     		add	r3, r7, r3
 815 0030 1B78     		ldrb	r3, [r3]
 816 0032 181C     		mov	r0, r3
 817 0034 FFF7FEFF 		bl	CyExitCriticalSection
 943:Generated_Source\PSoC4/CyLib.c ****     }
 818              		.loc 1 943 0
 819 0038 BD46     		mov	sp, r7
 820 003a 05B0     		add	sp, sp, #20
 821              		@ sp needed
 822 003c 90BD     		pop	{r4, r7, pc}
 823              	.L44:
 824 003e C046     		.align	2
 825              	.L43:
 826 0040 28000340 		.word	1073938472
 827              		.cfi_endproc
 828              	.LFE10:
 829              		.size	CySysClkWriteHfclkDiv, .-CySysClkWriteHfclkDiv
 830              		.section	.text.CySysGetResetReason,"ax",%progbits
 831              		.align	2
 832              		.global	CySysGetResetReason
 833              		.code	16
 834              		.thumb_func
 835              		.type	CySysGetResetReason, %function
 836              	CySysGetResetReason:
 837              	.LFB11:
 944:Generated_Source\PSoC4/CyLib.c **** #endif /* (CY_IP_SRSSLT) */
 945:Generated_Source\PSoC4/CyLib.c **** 
 946:Generated_Source\PSoC4/CyLib.c **** 
 947:Generated_Source\PSoC4/CyLib.c **** #if (CY_IP_ECO)
 948:Generated_Source\PSoC4/CyLib.c **** 
 949:Generated_Source\PSoC4/CyLib.c ****     /*******************************************************************************
 950:Generated_Source\PSoC4/CyLib.c ****     * Function Name: CySysClkEcoStart
 951:Generated_Source\PSoC4/CyLib.c ****     ****************************************************************************//**
 952:Generated_Source\PSoC4/CyLib.c ****     *
 953:Generated_Source\PSoC4/CyLib.c ****     * Starts the External Crystal Oscillator (ECO). Refer to the device datasheet
 954:Generated_Source\PSoC4/CyLib.c ****     * for the ECO startup time.
 955:Generated_Source\PSoC4/CyLib.c ****     *
 956:Generated_Source\PSoC4/CyLib.c ****     * The timeout interval is measured based on the system frequency defined by
 957:Generated_Source\PSoC4/CyLib.c ****     * PSoC Creator at build time. If System clock frequency is changed in
 958:Generated_Source\PSoC4/CyLib.c ****     * runtime, the \ref CyDelayFreq() with the appropriate parameter should be
 959:Generated_Source\PSoC4/CyLib.c ****     * called.
 960:Generated_Source\PSoC4/CyLib.c ****     *
 961:Generated_Source\PSoC4/CyLib.c ****     * PSoC 4100 BLE / PSoC 4200 BLE: The WCO must be enabled prior to enabling ECO.
 962:Generated_Source\PSoC4/CyLib.c ****     *
 963:Generated_Source\PSoC4/CyLib.c ****     * \param timeoutUs Timeout in microseconds.
 964:Generated_Source\PSoC4/CyLib.c ****     *
 965:Generated_Source\PSoC4/CyLib.c ****     * If zero is specified, the function does not wait for timeout and returns
 966:Generated_Source\PSoC4/CyLib.c ****     * CYRET_SUCCESS. If non-zero is specified, the function waits for the timeout.
 967:Generated_Source\PSoC4/CyLib.c ****     *
 968:Generated_Source\PSoC4/CyLib.c ****     * \return \ref CYRET_SUCCESS Completed successfully. The ECO is oscillating and
 969:Generated_Source\PSoC4/CyLib.c ****     * amplitude reached 60% and it does not mean 24 MHz crystal is within 50 ppm.
 970:Generated_Source\PSoC4/CyLib.c ****     *
 971:Generated_Source\PSoC4/CyLib.c ****     * \return \ref CYRET_TIMEOUT Timeout occurred. If the crystal is not oscillating
 972:Generated_Source\PSoC4/CyLib.c ****     * or amplitude didn't reach 60% after specified amount of time, CYRET_TIMEOUT
 973:Generated_Source\PSoC4/CyLib.c ****     * is returned.
ARM GAS  C:\Users\CHRIST~1\AppData\Local\Temp\cc4LKu7J.s 			page 33


 974:Generated_Source\PSoC4/CyLib.c ****     *
 975:Generated_Source\PSoC4/CyLib.c ****     * \return \ref CYRET_BAD_PARAM One or more invalid parameters.
 976:Generated_Source\PSoC4/CyLib.c ****     *
 977:Generated_Source\PSoC4/CyLib.c ****     *******************************************************************************/
 978:Generated_Source\PSoC4/CyLib.c ****     cystatus CySysClkEcoStart(uint32 timeoutUs)
 979:Generated_Source\PSoC4/CyLib.c ****     {
 980:Generated_Source\PSoC4/CyLib.c ****         cystatus returnStatus = CYRET_SUCCESS;
 981:Generated_Source\PSoC4/CyLib.c **** 
 982:Generated_Source\PSoC4/CyLib.c ****         #if (CY_IP_WCO_BLESS)
 983:Generated_Source\PSoC4/CyLib.c ****             /* Enable the RF oscillator band gap */
 984:Generated_Source\PSoC4/CyLib.c ****             CY_SYS_XTAL_BLESS_RF_CONFIG_REG |= CY_SYS_XTAL_BLESS_RF_CONFIG_RF_ENABLE;
 985:Generated_Source\PSoC4/CyLib.c **** 
 986:Generated_Source\PSoC4/CyLib.c ****             /* Update trimming register */
 987:Generated_Source\PSoC4/CyLib.c ****             CY_SYS_XTAL_BLERD_BB_XO_REG = CY_SYS_XTAL_BLERD_BB_XO_TRIM;
 988:Generated_Source\PSoC4/CyLib.c **** 
 989:Generated_Source\PSoC4/CyLib.c ****             /* Enable the Crystal */
 990:Generated_Source\PSoC4/CyLib.c ****             CY_SYS_XTAL_BLERD_DBUS_REG |= CY_SYS_XTAL_BLERD_DBUS_XTAL_ENABLE;
 991:Generated_Source\PSoC4/CyLib.c ****         #else /* CY_IP_WCO_SRSSV2 */
 992:Generated_Source\PSoC4/CyLib.c ****             CY_SYS_CLK_ECO_CONFIG_REG |= CY_SYS_CLK_ECO_CONFIG_ENABLE;
 993:Generated_Source\PSoC4/CyLib.c ****             CyDelayUs(CY_SYS_CLK_ECO_CONFIG_CLK_EN_TIMEOUT_US);
 994:Generated_Source\PSoC4/CyLib.c ****             CY_SYS_CLK_ECO_CONFIG_REG |= CY_SYS_CLK_ECO_CONFIG_CLK_EN;
 995:Generated_Source\PSoC4/CyLib.c ****         #endif /* (CY_IP_WCO_BLESS) */
 996:Generated_Source\PSoC4/CyLib.c **** 
 997:Generated_Source\PSoC4/CyLib.c ****         if(timeoutUs > 0u)
 998:Generated_Source\PSoC4/CyLib.c ****         {
 999:Generated_Source\PSoC4/CyLib.c ****             returnStatus = CYRET_TIMEOUT;
1000:Generated_Source\PSoC4/CyLib.c **** 
1001:Generated_Source\PSoC4/CyLib.c ****             for( ; timeoutUs > 0u; timeoutUs--)
1002:Generated_Source\PSoC4/CyLib.c ****             {
1003:Generated_Source\PSoC4/CyLib.c ****                 CyDelayUs(1u);
1004:Generated_Source\PSoC4/CyLib.c **** 
1005:Generated_Source\PSoC4/CyLib.c ****                 if(0u != CySysClkEcoReadStatus())
1006:Generated_Source\PSoC4/CyLib.c ****                 {
1007:Generated_Source\PSoC4/CyLib.c ****                     returnStatus = CYRET_SUCCESS;
1008:Generated_Source\PSoC4/CyLib.c ****                     break;
1009:Generated_Source\PSoC4/CyLib.c ****                 }
1010:Generated_Source\PSoC4/CyLib.c ****             }
1011:Generated_Source\PSoC4/CyLib.c **** 
1012:Generated_Source\PSoC4/CyLib.c ****         }
1013:Generated_Source\PSoC4/CyLib.c **** 
1014:Generated_Source\PSoC4/CyLib.c ****         return(returnStatus);
1015:Generated_Source\PSoC4/CyLib.c ****     }
1016:Generated_Source\PSoC4/CyLib.c **** 
1017:Generated_Source\PSoC4/CyLib.c **** 
1018:Generated_Source\PSoC4/CyLib.c ****     /*******************************************************************************
1019:Generated_Source\PSoC4/CyLib.c ****     * Function Name: CySysClkEcoStop
1020:Generated_Source\PSoC4/CyLib.c ****     ****************************************************************************//**
1021:Generated_Source\PSoC4/CyLib.c ****     *
1022:Generated_Source\PSoC4/CyLib.c ****     * Stops the megahertz crystal.
1023:Generated_Source\PSoC4/CyLib.c ****     *
1024:Generated_Source\PSoC4/CyLib.c ****     * If ECO is disabled when it is sourcing HFCLK, the CPU will halt. In addition,
1025:Generated_Source\PSoC4/CyLib.c ****     * for PSoC 4100 BLE / PSoC 4200 BLE devices, the BLE sub-system will stop
1026:Generated_Source\PSoC4/CyLib.c ****     * functioning.
1027:Generated_Source\PSoC4/CyLib.c ****     *
1028:Generated_Source\PSoC4/CyLib.c ****     *******************************************************************************/
1029:Generated_Source\PSoC4/CyLib.c ****     void CySysClkEcoStop(void)
1030:Generated_Source\PSoC4/CyLib.c ****     {
ARM GAS  C:\Users\CHRIST~1\AppData\Local\Temp\cc4LKu7J.s 			page 34


1031:Generated_Source\PSoC4/CyLib.c ****         #if (CY_IP_WCO_BLESS)
1032:Generated_Source\PSoC4/CyLib.c ****             /* Disable the RF oscillator band gap */
1033:Generated_Source\PSoC4/CyLib.c ****             CY_SYS_XTAL_BLESS_RF_CONFIG_REG &= (uint32) ~CY_SYS_XTAL_BLESS_RF_CONFIG_RF_ENABLE;
1034:Generated_Source\PSoC4/CyLib.c **** 
1035:Generated_Source\PSoC4/CyLib.c ****             /* Disable the Crystal */
1036:Generated_Source\PSoC4/CyLib.c ****             CY_SYS_XTAL_BLERD_DBUS_REG &= (uint32) ~CY_SYS_XTAL_BLERD_DBUS_XTAL_ENABLE;
1037:Generated_Source\PSoC4/CyLib.c ****         #else
1038:Generated_Source\PSoC4/CyLib.c ****             CY_SYS_CLK_ECO_CONFIG_REG &= (uint32) ~(CY_SYS_CLK_ECO_CONFIG_ENABLE | CY_SYS_CLK_ECO_C
1039:Generated_Source\PSoC4/CyLib.c ****         #endif /* (CY_IP_WCO_BLESS) */
1040:Generated_Source\PSoC4/CyLib.c ****     }
1041:Generated_Source\PSoC4/CyLib.c **** 
1042:Generated_Source\PSoC4/CyLib.c **** 
1043:Generated_Source\PSoC4/CyLib.c ****     /*******************************************************************************
1044:Generated_Source\PSoC4/CyLib.c ****     * Function Name: CySysClkEcoReadStatus
1045:Generated_Source\PSoC4/CyLib.c ****     ****************************************************************************//**
1046:Generated_Source\PSoC4/CyLib.c ****     *
1047:Generated_Source\PSoC4/CyLib.c ****     * Reads the status bit for the megahertz crystal.
1048:Generated_Source\PSoC4/CyLib.c ****     *
1049:Generated_Source\PSoC4/CyLib.c ****     * For PSoC 4100 BLE / PSoC 4200 BLE devices, the status bit is the
1050:Generated_Source\PSoC4/CyLib.c ****     * XO_AMP_DETECT bit in FSM register.
1051:Generated_Source\PSoC4/CyLib.c ****     *
1052:Generated_Source\PSoC4/CyLib.c ****     * For PSoC 4200L devices, the error status bit is the WATCHDOG_ERROR bit in
1053:Generated_Source\PSoC4/CyLib.c ****     * ECO_STATUS register.
1054:Generated_Source\PSoC4/CyLib.c ****     *
1055:Generated_Source\PSoC4/CyLib.c ****     * \return PSoC 4100 BLE/PSoC 4200 BLE: Non-zero indicates that ECO output
1056:Generated_Source\PSoC4/CyLib.c ****     * reached 50 ppm and is oscillating in valid range.
1057:Generated_Source\PSoC4/CyLib.c ****     *
1058:Generated_Source\PSoC4/CyLib.c ****     * \return PSoC 4200L: Non-zero indicates that ECO is running.
1059:Generated_Source\PSoC4/CyLib.c ****     *
1060:Generated_Source\PSoC4/CyLib.c ****     *******************************************************************************/
1061:Generated_Source\PSoC4/CyLib.c ****     uint32 CySysClkEcoReadStatus(void)
1062:Generated_Source\PSoC4/CyLib.c ****     {
1063:Generated_Source\PSoC4/CyLib.c ****         uint32 returnValue;
1064:Generated_Source\PSoC4/CyLib.c **** 
1065:Generated_Source\PSoC4/CyLib.c ****         #if (CY_IP_WCO_BLESS)
1066:Generated_Source\PSoC4/CyLib.c ****             returnValue = CY_SYS_XTAL_BLERD_FSM_REG & CY_SYS_XTAL_BLERD_FSM_XO_AMP_DETECT;
1067:Generated_Source\PSoC4/CyLib.c ****         #else
1068:Generated_Source\PSoC4/CyLib.c ****             returnValue = (0u != (CY_SYS_CLK_ECO_STATUS_REG & CY_SYS_CLK_ECO_STATUS_WATCHDOG_ERROR)
1069:Generated_Source\PSoC4/CyLib.c ****         #endif /* (CY_IP_WCO_BLESS) */
1070:Generated_Source\PSoC4/CyLib.c **** 
1071:Generated_Source\PSoC4/CyLib.c ****         return (returnValue);
1072:Generated_Source\PSoC4/CyLib.c ****     }
1073:Generated_Source\PSoC4/CyLib.c **** 
1074:Generated_Source\PSoC4/CyLib.c ****     #if (CY_IP_ECO_BLESS)
1075:Generated_Source\PSoC4/CyLib.c ****         /*******************************************************************************
1076:Generated_Source\PSoC4/CyLib.c ****         * Function Name: CySysClkWriteEcoDiv
1077:Generated_Source\PSoC4/CyLib.c ****         ****************************************************************************//**
1078:Generated_Source\PSoC4/CyLib.c ****         *
1079:Generated_Source\PSoC4/CyLib.c ****         * Selects value for the ECO divider.
1080:Generated_Source\PSoC4/CyLib.c ****         *
1081:Generated_Source\PSoC4/CyLib.c ****         * The ECO must not be the HFCLK clock source when this function is called.
1082:Generated_Source\PSoC4/CyLib.c ****         * The HFCLK source can be changed to the other clock source by call to the
1083:Generated_Source\PSoC4/CyLib.c ****         * CySysClkWriteHfclkDirect() function. If the ECO sources the HFCLK this
1084:Generated_Source\PSoC4/CyLib.c ****         * function will not have any effect if compiler in release mode, and halt the
1085:Generated_Source\PSoC4/CyLib.c ****         * CPU when compiler in debug mode.
1086:Generated_Source\PSoC4/CyLib.c ****         *
1087:Generated_Source\PSoC4/CyLib.c ****         * If the SYSCLK clock frequency increases during the device operation, call
ARM GAS  C:\Users\CHRIST~1\AppData\Local\Temp\cc4LKu7J.s 			page 35


1088:Generated_Source\PSoC4/CyLib.c ****         * CySysFlashSetWaitCycles() with the appropriate parameter to adjust the number
1089:Generated_Source\PSoC4/CyLib.c ****         * of clock cycles the cache will wait before sampling data comes back from
1090:Generated_Source\PSoC4/CyLib.c ****         * Flash. If the SYSCLK clock frequency decreases, you can call
1091:Generated_Source\PSoC4/CyLib.c ****         * CySysFlashSetWaitCycles() to improve the CPU performance. See
1092:Generated_Source\PSoC4/CyLib.c ****         * CySysFlashSetWaitCycles() description for more information.
1093:Generated_Source\PSoC4/CyLib.c ****         *
1094:Generated_Source\PSoC4/CyLib.c ****         * \param divider Power of 2 divider selection.
1095:Generated_Source\PSoC4/CyLib.c ****         * - \ref CY_SYS_CLK_ECO_DIV1
1096:Generated_Source\PSoC4/CyLib.c ****         * - \ref CY_SYS_CLK_ECO_DIV2
1097:Generated_Source\PSoC4/CyLib.c ****         * - \ref CY_SYS_CLK_ECO_DIV4
1098:Generated_Source\PSoC4/CyLib.c ****         * - \ref CY_SYS_CLK_ECO_DIV8
1099:Generated_Source\PSoC4/CyLib.c ****         *
1100:Generated_Source\PSoC4/CyLib.c ****         *******************************************************************************/
1101:Generated_Source\PSoC4/CyLib.c ****         void CySysClkWriteEcoDiv(uint32 divider)
1102:Generated_Source\PSoC4/CyLib.c ****         {
1103:Generated_Source\PSoC4/CyLib.c ****             uint8  interruptState;
1104:Generated_Source\PSoC4/CyLib.c **** 
1105:Generated_Source\PSoC4/CyLib.c ****             if (CY_SYS_CLK_HFCLK_ECO != (CY_SYS_CLK_SELECT_REG & CY_SYS_CLK_SELECT_DIRECT_SEL_MASK)
1106:Generated_Source\PSoC4/CyLib.c ****             {
1107:Generated_Source\PSoC4/CyLib.c ****                 interruptState = CyEnterCriticalSection();
1108:Generated_Source\PSoC4/CyLib.c **** 
1109:Generated_Source\PSoC4/CyLib.c ****                 CY_SYS_CLK_XTAL_CLK_DIV_CONFIG_REG =  (divider & CY_SYS_CLK_XTAL_CLK_DIV_MASK) |
1110:Generated_Source\PSoC4/CyLib.c ****                                                       (CY_SYS_CLK_XTAL_CLK_DIV_CONFIG_REG & ((uint3
1111:Generated_Source\PSoC4/CyLib.c **** 
1112:Generated_Source\PSoC4/CyLib.c ****                 CyExitCriticalSection(interruptState);
1113:Generated_Source\PSoC4/CyLib.c ****             }
1114:Generated_Source\PSoC4/CyLib.c ****             else
1115:Generated_Source\PSoC4/CyLib.c ****             {
1116:Generated_Source\PSoC4/CyLib.c ****                 /* Halt CPU in debug mode if ECO sources HFCLK */
1117:Generated_Source\PSoC4/CyLib.c ****                 CYASSERT(0u != 0u);
1118:Generated_Source\PSoC4/CyLib.c ****             }
1119:Generated_Source\PSoC4/CyLib.c ****         }
1120:Generated_Source\PSoC4/CyLib.c **** 
1121:Generated_Source\PSoC4/CyLib.c ****     #else
1122:Generated_Source\PSoC4/CyLib.c **** 
1123:Generated_Source\PSoC4/CyLib.c ****         /*******************************************************************************
1124:Generated_Source\PSoC4/CyLib.c ****         * Function Name: CySysClkConfigureEcoTrim
1125:Generated_Source\PSoC4/CyLib.c ****         ****************************************************************************//**
1126:Generated_Source\PSoC4/CyLib.c ****         *
1127:Generated_Source\PSoC4/CyLib.c ****         * Selects trim setting values for ECO. This API is available only for PSoC
1128:Generated_Source\PSoC4/CyLib.c ****         * 4200L devices only.
1129:Generated_Source\PSoC4/CyLib.c ****         *
1130:Generated_Source\PSoC4/CyLib.c ****         * The following parameters can be trimmed for ECO. The affected registers are
1131:Generated_Source\PSoC4/CyLib.c ****         * ECO_TRIM0 and ECO_TRIM1.
1132:Generated_Source\PSoC4/CyLib.c ****         *
1133:Generated_Source\PSoC4/CyLib.c ****         * Watchdog trim - This bit field sets the error threshold below the steady
1134:Generated_Source\PSoC4/CyLib.c ****         * state amplitude level.
1135:Generated_Source\PSoC4/CyLib.c ****         *
1136:Generated_Source\PSoC4/CyLib.c ****         * Amplitude trim - This bit field is to set the crystal drive level when
1137:Generated_Source\PSoC4/CyLib.c ****         * ECO_CONFIG.AGC_EN = 1. WARNING: use care when setting this field because
1138:Generated_Source\PSoC4/CyLib.c ****         * driving a crystal beyond its rated limit can permanently damage the crystal.
1139:Generated_Source\PSoC4/CyLib.c ****         *
1140:Generated_Source\PSoC4/CyLib.c ****         * Filter frequency trim - This bit field sets LPF frequency trim and affects
1141:Generated_Source\PSoC4/CyLib.c ****         * the 3rd harmonic content.
1142:Generated_Source\PSoC4/CyLib.c ****         *
1143:Generated_Source\PSoC4/CyLib.c ****         * Feedback resistor trim - This bit field sets the feedback resistor trim and
1144:Generated_Source\PSoC4/CyLib.c ****         * impacts the oscillation amplitude.
ARM GAS  C:\Users\CHRIST~1\AppData\Local\Temp\cc4LKu7J.s 			page 36


1145:Generated_Source\PSoC4/CyLib.c ****         *
1146:Generated_Source\PSoC4/CyLib.c ****         * Amplifier gain trim - This bit field sets the amplifier gain trim and affects
1147:Generated_Source\PSoC4/CyLib.c ****         * the startup time of the crystal.
1148:Generated_Source\PSoC4/CyLib.c ****         *
1149:Generated_Source\PSoC4/CyLib.c ****         * Use care when setting the amplitude trim field because driving a crystal
1150:Generated_Source\PSoC4/CyLib.c ****         * beyond its rated limit can permanently damage the crystal.
1151:Generated_Source\PSoC4/CyLib.c ****         *
1152:Generated_Source\PSoC4/CyLib.c ****         * \param wDTrim: Watchdog trim
1153:Generated_Source\PSoC4/CyLib.c ****         * - \ref CY_SYS_CLK_ECO_WDTRIM0      Error threshold is 0.05 V
1154:Generated_Source\PSoC4/CyLib.c ****         * - \ref CY_SYS_CLK_ECO_WDTRIM1      Error threshold is 0.10 V
1155:Generated_Source\PSoC4/CyLib.c ****         * - \ref CY_SYS_CLK_ECO_WDTRIM2      Error threshold is 0.15 V
1156:Generated_Source\PSoC4/CyLib.c ****         * - \ref CY_SYS_CLK_ECO_WDTRIM3      Error threshold is 0.20 V
1157:Generated_Source\PSoC4/CyLib.c ****         *
1158:Generated_Source\PSoC4/CyLib.c ****         * \param aTrim: Amplitude trim
1159:Generated_Source\PSoC4/CyLib.c ****         * - \ref CY_SYS_CLK_ECO_ATRIM0       Amplitude is 0.3 Vpp
1160:Generated_Source\PSoC4/CyLib.c ****         * - \ref CY_SYS_CLK_ECO_ATRIM1       Amplitude is 0.4 Vpp
1161:Generated_Source\PSoC4/CyLib.c ****         * - \ref CY_SYS_CLK_ECO_ATRIM2       Amplitude is 0.5 Vpp
1162:Generated_Source\PSoC4/CyLib.c ****         * - \ref CY_SYS_CLK_ECO_ATRIM3       Amplitude is 0.6 Vpp
1163:Generated_Source\PSoC4/CyLib.c ****         * - \ref CY_SYS_CLK_ECO_ATRIM4       Amplitude is 0.7 Vpp
1164:Generated_Source\PSoC4/CyLib.c ****         * - \ref CY_SYS_CLK_ECO_ATRIM5       Amplitude is 0.8 Vpp
1165:Generated_Source\PSoC4/CyLib.c ****         * - \ref CY_SYS_CLK_ECO_ATRIM6       Amplitude is 0.9 Vpp
1166:Generated_Source\PSoC4/CyLib.c ****         * - \ref CY_SYS_CLK_ECO_ATRIM7       Amplitude is 1.0 Vpp
1167:Generated_Source\PSoC4/CyLib.c ****         *
1168:Generated_Source\PSoC4/CyLib.c ****         * \param fTrim: Filter frequency trim
1169:Generated_Source\PSoC4/CyLib.c ****         * - \ref CY_SYS_CLK_ECO_FTRIM0       Crystal frequency > 30 MHz
1170:Generated_Source\PSoC4/CyLib.c ****         * - \ref CY_SYS_CLK_ECO_FTRIM1       24 MHz < Crystal frequency <= 30 MHz
1171:Generated_Source\PSoC4/CyLib.c ****         * - \ref CY_SYS_CLK_ECO_FTRIM2       17 MHz < Crystal frequency <= 24 MHz
1172:Generated_Source\PSoC4/CyLib.c ****         * - \ref CY_SYS_CLK_ECO_FTRIM3       Crystal frequency <= 17 MHz
1173:Generated_Source\PSoC4/CyLib.c ****         *
1174:Generated_Source\PSoC4/CyLib.c ****         * \param rTrim: Feedback resistor trim
1175:Generated_Source\PSoC4/CyLib.c ****         * - \ref CY_SYS_CLK_ECO_RTRIM0       Crystal frequency > 30 MHz
1176:Generated_Source\PSoC4/CyLib.c ****         * - \ref CY_SYS_CLK_ECO_RTRIM1       24 MHz < Crystal frequency <= 30 MHz
1177:Generated_Source\PSoC4/CyLib.c ****         * - \ref CY_SYS_CLK_ECO_RTRIM2       17 MHz < Crystal frequency <= 24 MHz
1178:Generated_Source\PSoC4/CyLib.c ****         * - \ref CY_SYS_CLK_ECO_RTRIM3       Crystal frequency <= 17 MHz
1179:Generated_Source\PSoC4/CyLib.c ****         *
1180:Generated_Source\PSoC4/CyLib.c ****         * \param gTrim: Amplifier gain trim. Calculate the minimum required gm
1181:Generated_Source\PSoC4/CyLib.c ****         * (trans-conductance value). Divide the calculated gm value by 4.5 to
1182:Generated_Source\PSoC4/CyLib.c ****         * obtain an integer value 'result'. For more information please refer
1183:Generated_Source\PSoC4/CyLib.c ****         * to the device TRM.
1184:Generated_Source\PSoC4/CyLib.c ****         * - \ref CY_SYS_CLK_ECO_GTRIM0       If result = 1
1185:Generated_Source\PSoC4/CyLib.c ****         * - \ref CY_SYS_CLK_ECO_GTRIM1       If result = 0
1186:Generated_Source\PSoC4/CyLib.c ****         * - \ref CY_SYS_CLK_ECO_GTRIM2       If result = 2
1187:Generated_Source\PSoC4/CyLib.c ****         * - \ref CY_SYS_CLK_ECO_GTRIM2       If result = 3
1188:Generated_Source\PSoC4/CyLib.c ****         *
1189:Generated_Source\PSoC4/CyLib.c ****         *******************************************************************************/
1190:Generated_Source\PSoC4/CyLib.c ****         void CySysClkConfigureEcoTrim(uint32 wDTrim, uint32 aTrim, uint32 fTrim, uint32 rTrim, uint
1191:Generated_Source\PSoC4/CyLib.c ****         {
1192:Generated_Source\PSoC4/CyLib.c ****             uint8  interruptState;
1193:Generated_Source\PSoC4/CyLib.c ****             uint32 regTmp;
1194:Generated_Source\PSoC4/CyLib.c **** 
1195:Generated_Source\PSoC4/CyLib.c ****             interruptState = CyEnterCriticalSection();
1196:Generated_Source\PSoC4/CyLib.c **** 
1197:Generated_Source\PSoC4/CyLib.c ****             regTmp  = CY_SYS_CLK_ECO_TRIM0_REG & ~(CY_SYS_CLK_ECO_TRIM0_WDTRIM_MASK | CY_SYS_CLK_EC
1198:Generated_Source\PSoC4/CyLib.c ****             regTmp |= ((uint32) (wDTrim << CY_SYS_CLK_ECO_TRIM0_WDTRIM_SHIFT) & CY_SYS_CLK_ECO_TRIM
1199:Generated_Source\PSoC4/CyLib.c ****             regTmp |= ((uint32) (aTrim << CY_SYS_CLK_ECO_TRIM0_ATRIM_SHIFT) & CY_SYS_CLK_ECO_TRIM0_
1200:Generated_Source\PSoC4/CyLib.c ****             CY_SYS_CLK_ECO_TRIM0_REG = regTmp;
1201:Generated_Source\PSoC4/CyLib.c **** 
ARM GAS  C:\Users\CHRIST~1\AppData\Local\Temp\cc4LKu7J.s 			page 37


1202:Generated_Source\PSoC4/CyLib.c ****             regTmp  = CY_SYS_CLK_ECO_TRIM1_REG & ~(CY_SYS_CLK_ECO_TRIM1_FTRIM_MASK |
1203:Generated_Source\PSoC4/CyLib.c ****                                                    CY_SYS_CLK_ECO_TRIM1_RTRIM_MASK |
1204:Generated_Source\PSoC4/CyLib.c ****                                                    CY_SYS_CLK_ECO_TRIM1_GTRIM_MASK);
1205:Generated_Source\PSoC4/CyLib.c ****             regTmp |= ((uint32) (fTrim << CY_SYS_CLK_ECO_TRIM1_FTRIM_SHIFT) & CY_SYS_CLK_ECO_TRIM1_
1206:Generated_Source\PSoC4/CyLib.c ****             regTmp |= ((uint32) (rTrim << CY_SYS_CLK_ECO_TRIM1_RTRIM_SHIFT) & CY_SYS_CLK_ECO_TRIM1_
1207:Generated_Source\PSoC4/CyLib.c ****             regTmp |= ((uint32) (gTrim << CY_SYS_CLK_ECO_TRIM1_GTRIM_SHIFT) & CY_SYS_CLK_ECO_TRIM1_
1208:Generated_Source\PSoC4/CyLib.c **** 
1209:Generated_Source\PSoC4/CyLib.c ****             CY_SYS_CLK_ECO_TRIM1_REG = regTmp;
1210:Generated_Source\PSoC4/CyLib.c **** 
1211:Generated_Source\PSoC4/CyLib.c ****             CyExitCriticalSection(interruptState);
1212:Generated_Source\PSoC4/CyLib.c ****         }
1213:Generated_Source\PSoC4/CyLib.c **** 
1214:Generated_Source\PSoC4/CyLib.c **** 
1215:Generated_Source\PSoC4/CyLib.c ****         /*******************************************************************************
1216:Generated_Source\PSoC4/CyLib.c ****         * Function Name: CySysClkConfigureEcoDrive
1217:Generated_Source\PSoC4/CyLib.c ****         ****************************************************************************//**
1218:Generated_Source\PSoC4/CyLib.c ****         *
1219:Generated_Source\PSoC4/CyLib.c ****         * Selects trim setting values for ECO based on crystal parameters. Use care
1220:Generated_Source\PSoC4/CyLib.c ****         * when setting the driveLevel parameter because driving a crystal beyond its
1221:Generated_Source\PSoC4/CyLib.c ****         * rated limit can permanently damage the crystal.
1222:Generated_Source\PSoC4/CyLib.c ****         *
1223:Generated_Source\PSoC4/CyLib.c ****         * This API is available only for PSoC 4200L devices only.
1224:Generated_Source\PSoC4/CyLib.c ****         *
1225:Generated_Source\PSoC4/CyLib.c ****         * \param freq Frequency of the crystal in kHz.
1226:Generated_Source\PSoC4/CyLib.c ****         * \param cLoad Crystal load capacitance in pF.
1227:Generated_Source\PSoC4/CyLib.c ****         * \param esr Equivalent series resistance of the crystal in ohm.
1228:Generated_Source\PSoC4/CyLib.c ****         *  maxAmplitude: maximum amplitude level in mV. Calculate as
1229:Generated_Source\PSoC4/CyLib.c ****         *  ((sqrt(driveLevel in uW / 2 / esr))/(3.14 * freq * cLoad)) * 10^9.
1230:Generated_Source\PSoC4/CyLib.c ****         *
1231:Generated_Source\PSoC4/CyLib.c ****         *  The Automatic Gain Control (AGC) is disabled when the specified maximum
1232:Generated_Source\PSoC4/CyLib.c ****         *  amplitude level equals or above 2. In this case the amplitude is not
1233:Generated_Source\PSoC4/CyLib.c ****         *  explicitly controlled and will grow until it saturates to the supply rail
1234:Generated_Source\PSoC4/CyLib.c ****         *  (1.8V nom). WARNING: use care when disabling AGC because driving a crystal
1235:Generated_Source\PSoC4/CyLib.c ****         *  beyond its rated limit can permanently damage the crystal.
1236:Generated_Source\PSoC4/CyLib.c ****         *
1237:Generated_Source\PSoC4/CyLib.c ****         * \return \ref CYRET_SUCCESS ECO configuration completed successfully.
1238:Generated_Source\PSoC4/CyLib.c ****         * \return \ref CYRET_BAD_PARAM One or more invalid parameters.
1239:Generated_Source\PSoC4/CyLib.c ****         *
1240:Generated_Source\PSoC4/CyLib.c ****         *******************************************************************************/
1241:Generated_Source\PSoC4/CyLib.c ****         cystatus CySysClkConfigureEcoDrive(uint32 freq, uint32 cLoad, uint32 esr, uint32 maxAmplitu
1242:Generated_Source\PSoC4/CyLib.c ****         {
1243:Generated_Source\PSoC4/CyLib.c ****             cystatus returnStatus = CYRET_SUCCESS;
1244:Generated_Source\PSoC4/CyLib.c **** 
1245:Generated_Source\PSoC4/CyLib.c ****             uint32 wDTrim;
1246:Generated_Source\PSoC4/CyLib.c ****             uint32 aTrim;
1247:Generated_Source\PSoC4/CyLib.c ****             uint32 fTrim;
1248:Generated_Source\PSoC4/CyLib.c ****             uint32 rTrim;
1249:Generated_Source\PSoC4/CyLib.c ****             uint32 gTrim;
1250:Generated_Source\PSoC4/CyLib.c **** 
1251:Generated_Source\PSoC4/CyLib.c ****             uint32 gmMin;
1252:Generated_Source\PSoC4/CyLib.c **** 
1253:Generated_Source\PSoC4/CyLib.c **** 
1254:Generated_Source\PSoC4/CyLib.c ****             if ((maxAmplitude < CY_SYS_CLK_ECO_MAX_AMPL_MIN_mV) ||
1255:Generated_Source\PSoC4/CyLib.c ****                 (freq < CY_SYS_CLK_ECO_FREQ_KHZ_MIN) || (freq > CY_SYS_CLK_ECO_FREQ_KHZ_MAX))
1256:Generated_Source\PSoC4/CyLib.c ****             {
1257:Generated_Source\PSoC4/CyLib.c ****                 returnStatus = CYRET_BAD_PARAM;
1258:Generated_Source\PSoC4/CyLib.c ****             }
ARM GAS  C:\Users\CHRIST~1\AppData\Local\Temp\cc4LKu7J.s 			page 38


1259:Generated_Source\PSoC4/CyLib.c ****             else
1260:Generated_Source\PSoC4/CyLib.c ****             {
1261:Generated_Source\PSoC4/CyLib.c ****                 /* Calculate amplitude trim */
1262:Generated_Source\PSoC4/CyLib.c ****                 aTrim = (maxAmplitude < CY_SYS_CLK_ECO_TRIM_BOUNDARY) ? ((maxAmplitude/100u) - 4u) 
1263:Generated_Source\PSoC4/CyLib.c **** 
1264:Generated_Source\PSoC4/CyLib.c ****                 if (maxAmplitude < CY_SYS_CLK_ECO_AMPL_FOR_ATRIM0)
1265:Generated_Source\PSoC4/CyLib.c ****                 {
1266:Generated_Source\PSoC4/CyLib.c ****                     aTrim = CY_SYS_CLK_ECO_ATRIM0;
1267:Generated_Source\PSoC4/CyLib.c ****                 }
1268:Generated_Source\PSoC4/CyLib.c ****                 else if (maxAmplitude < CY_SYS_CLK_ECO_AMPL_FOR_ATRIM1)
1269:Generated_Source\PSoC4/CyLib.c ****                 {
1270:Generated_Source\PSoC4/CyLib.c ****                     aTrim = CY_SYS_CLK_ECO_ATRIM1;
1271:Generated_Source\PSoC4/CyLib.c ****                 }
1272:Generated_Source\PSoC4/CyLib.c ****                 else if (maxAmplitude < CY_SYS_CLK_ECO_AMPL_FOR_ATRIM2)
1273:Generated_Source\PSoC4/CyLib.c ****                 {
1274:Generated_Source\PSoC4/CyLib.c ****                     aTrim = CY_SYS_CLK_ECO_ATRIM2;
1275:Generated_Source\PSoC4/CyLib.c ****                 }
1276:Generated_Source\PSoC4/CyLib.c ****                 else if (maxAmplitude < CY_SYS_CLK_ECO_AMPL_FOR_ATRIM3)
1277:Generated_Source\PSoC4/CyLib.c ****                 {
1278:Generated_Source\PSoC4/CyLib.c ****                     aTrim = CY_SYS_CLK_ECO_ATRIM3;
1279:Generated_Source\PSoC4/CyLib.c ****                 }
1280:Generated_Source\PSoC4/CyLib.c ****                 else if (maxAmplitude < CY_SYS_CLK_ECO_AMPL_FOR_ATRIM4)
1281:Generated_Source\PSoC4/CyLib.c ****                 {
1282:Generated_Source\PSoC4/CyLib.c ****                     aTrim = CY_SYS_CLK_ECO_ATRIM4;
1283:Generated_Source\PSoC4/CyLib.c ****                 }
1284:Generated_Source\PSoC4/CyLib.c ****                 else if (maxAmplitude < CY_SYS_CLK_ECO_AMPL_FOR_ATRIM5)
1285:Generated_Source\PSoC4/CyLib.c ****                 {
1286:Generated_Source\PSoC4/CyLib.c ****                     aTrim = CY_SYS_CLK_ECO_ATRIM5;
1287:Generated_Source\PSoC4/CyLib.c ****                 }
1288:Generated_Source\PSoC4/CyLib.c ****                 else if (maxAmplitude < CY_SYS_CLK_ECO_AMPL_FOR_ATRIM6)
1289:Generated_Source\PSoC4/CyLib.c ****                 {
1290:Generated_Source\PSoC4/CyLib.c ****                     aTrim = CY_SYS_CLK_ECO_ATRIM6;
1291:Generated_Source\PSoC4/CyLib.c ****                 }
1292:Generated_Source\PSoC4/CyLib.c ****                 else
1293:Generated_Source\PSoC4/CyLib.c ****                 {
1294:Generated_Source\PSoC4/CyLib.c ****                     aTrim = CY_SYS_CLK_ECO_ATRIM7;
1295:Generated_Source\PSoC4/CyLib.c ****                 }
1296:Generated_Source\PSoC4/CyLib.c **** 
1297:Generated_Source\PSoC4/CyLib.c ****                 /* Calculate Watchdog trim. */
1298:Generated_Source\PSoC4/CyLib.c ****                 wDTrim = (maxAmplitude < CY_SYS_CLK_ECO_TRIM_BOUNDARY) ? ((maxAmplitude/200u) - 2u)
1299:Generated_Source\PSoC4/CyLib.c **** 
1300:Generated_Source\PSoC4/CyLib.c ****                 /* Calculate amplifier gain trim. */
1301:Generated_Source\PSoC4/CyLib.c ****                 gmMin = (uint32) (((((CY_SYS_CLK_ECO_GMMIN_COEFFICIENT * freq * cLoad) / 1000) * ((
1302:Generated_Source\PSoC4/CyLib.c ****                 if (gmMin > 3u)
1303:Generated_Source\PSoC4/CyLib.c ****                 {
1304:Generated_Source\PSoC4/CyLib.c ****                     returnStatus = CYRET_BAD_PARAM;
1305:Generated_Source\PSoC4/CyLib.c ****                     gTrim = 0u;
1306:Generated_Source\PSoC4/CyLib.c ****                 }
1307:Generated_Source\PSoC4/CyLib.c ****                 else if (gmMin > 1u)
1308:Generated_Source\PSoC4/CyLib.c ****                 {
1309:Generated_Source\PSoC4/CyLib.c ****                     gTrim = gmMin;
1310:Generated_Source\PSoC4/CyLib.c ****                 }
1311:Generated_Source\PSoC4/CyLib.c ****                 else
1312:Generated_Source\PSoC4/CyLib.c ****                 {
1313:Generated_Source\PSoC4/CyLib.c ****                     gTrim = (gmMin == 1u) ? 0u : 1u;
1314:Generated_Source\PSoC4/CyLib.c ****                 }
1315:Generated_Source\PSoC4/CyLib.c **** 
ARM GAS  C:\Users\CHRIST~1\AppData\Local\Temp\cc4LKu7J.s 			page 39


1316:Generated_Source\PSoC4/CyLib.c ****                 /* Calculate feedback resistor trim */
1317:Generated_Source\PSoC4/CyLib.c ****                 if (freq > CY_SYS_CLK_ECO_FREQ_FOR_FTRIM0)
1318:Generated_Source\PSoC4/CyLib.c ****                 {
1319:Generated_Source\PSoC4/CyLib.c ****                     rTrim = CY_SYS_CLK_ECO_FTRIM0;
1320:Generated_Source\PSoC4/CyLib.c ****                 }
1321:Generated_Source\PSoC4/CyLib.c ****                 else if (freq > CY_SYS_CLK_ECO_FREQ_FOR_FTRIM1)
1322:Generated_Source\PSoC4/CyLib.c ****                 {
1323:Generated_Source\PSoC4/CyLib.c ****                     rTrim = CY_SYS_CLK_ECO_FTRIM1;
1324:Generated_Source\PSoC4/CyLib.c ****                 }
1325:Generated_Source\PSoC4/CyLib.c ****                 else if (freq > CY_SYS_CLK_ECO_FREQ_FOR_FTRIM2)
1326:Generated_Source\PSoC4/CyLib.c ****                 {
1327:Generated_Source\PSoC4/CyLib.c ****                     rTrim = CY_SYS_CLK_ECO_FTRIM2;
1328:Generated_Source\PSoC4/CyLib.c ****                 }
1329:Generated_Source\PSoC4/CyLib.c ****                 else
1330:Generated_Source\PSoC4/CyLib.c ****                 {
1331:Generated_Source\PSoC4/CyLib.c ****                     rTrim = CY_SYS_CLK_ECO_FTRIM3;
1332:Generated_Source\PSoC4/CyLib.c ****                 }
1333:Generated_Source\PSoC4/CyLib.c **** 
1334:Generated_Source\PSoC4/CyLib.c ****                 /* Calculate filter frequency trim */
1335:Generated_Source\PSoC4/CyLib.c ****                 fTrim = rTrim;
1336:Generated_Source\PSoC4/CyLib.c **** 
1337:Generated_Source\PSoC4/CyLib.c ****                 CySysClkConfigureEcoTrim(wDTrim, aTrim, fTrim, rTrim, gTrim);
1338:Generated_Source\PSoC4/CyLib.c **** 
1339:Generated_Source\PSoC4/CyLib.c ****                 /* Automatic Gain Control (AGC) enable */
1340:Generated_Source\PSoC4/CyLib.c ****                 if (maxAmplitude < 2u)
1341:Generated_Source\PSoC4/CyLib.c ****                 {
1342:Generated_Source\PSoC4/CyLib.c ****                     /* The oscillation amplitude is controlled to the level selected by amplitude t
1343:Generated_Source\PSoC4/CyLib.c ****                     CY_SYS_CLK_ECO_CONFIG_REG |= CY_SYS_CLK_ECO_CONFIG_AGC_EN;
1344:Generated_Source\PSoC4/CyLib.c ****                 }
1345:Generated_Source\PSoC4/CyLib.c ****                 else
1346:Generated_Source\PSoC4/CyLib.c ****                 {
1347:Generated_Source\PSoC4/CyLib.c ****                     /* The amplitude is not explicitly controlled and will grow until it saturates 
1348:Generated_Source\PSoC4/CyLib.c ****                     * supply rail (1.8V nom).
1349:Generated_Source\PSoC4/CyLib.c ****                     */
1350:Generated_Source\PSoC4/CyLib.c ****                     CY_SYS_CLK_ECO_CONFIG_REG &= (uint32) ~CY_SYS_CLK_ECO_CONFIG_AGC_EN;
1351:Generated_Source\PSoC4/CyLib.c ****                 }
1352:Generated_Source\PSoC4/CyLib.c ****             }
1353:Generated_Source\PSoC4/CyLib.c **** 
1354:Generated_Source\PSoC4/CyLib.c ****             return (returnStatus);
1355:Generated_Source\PSoC4/CyLib.c ****         }
1356:Generated_Source\PSoC4/CyLib.c **** 
1357:Generated_Source\PSoC4/CyLib.c ****     #endif /* CY_IP_ECO_BLESS */
1358:Generated_Source\PSoC4/CyLib.c **** 
1359:Generated_Source\PSoC4/CyLib.c **** #endif /* (CY_IP_ECO) */
1360:Generated_Source\PSoC4/CyLib.c **** 
1361:Generated_Source\PSoC4/CyLib.c **** 
1362:Generated_Source\PSoC4/CyLib.c **** #if (CY_IP_SRSSV2 && CY_IP_PLL)
1363:Generated_Source\PSoC4/CyLib.c ****     /*******************************************************************************
1364:Generated_Source\PSoC4/CyLib.c ****     * Function Name: CySysClkPllStart
1365:Generated_Source\PSoC4/CyLib.c ****     ****************************************************************************//**
1366:Generated_Source\PSoC4/CyLib.c ****     *
1367:Generated_Source\PSoC4/CyLib.c ****     * Enables the PLL. Optionally waits for it to become stable. Waits at least
1368:Generated_Source\PSoC4/CyLib.c ****     * 250 us or until it is detected that the PLL is stable.
1369:Generated_Source\PSoC4/CyLib.c ****     *
1370:Generated_Source\PSoC4/CyLib.c ****     * Clears the unlock occurred status bit by calling CySysClkPllGetUnlockStatus(),
1371:Generated_Source\PSoC4/CyLib.c ****     * once the PLL is locked if the wait parameter is 1).
1372:Generated_Source\PSoC4/CyLib.c ****     *
ARM GAS  C:\Users\CHRIST~1\AppData\Local\Temp\cc4LKu7J.s 			page 40


1373:Generated_Source\PSoC4/CyLib.c ****     * This API is available only for PSoC 4200L devices.
1374:Generated_Source\PSoC4/CyLib.c ****     *
1375:Generated_Source\PSoC4/CyLib.c ****     * \param PLL:
1376:Generated_Source\PSoC4/CyLib.c ****     * 0   PLL#0
1377:Generated_Source\PSoC4/CyLib.c ****     * 1   PLL#1
1378:Generated_Source\PSoC4/CyLib.c ****     *
1379:Generated_Source\PSoC4/CyLib.c ****     * \param wait:
1380:Generated_Source\PSoC4/CyLib.c ****     * 0 - Return immediately after configuration.
1381:Generated_Source\PSoC4/CyLib.c ****     * 1 - Wait for PLL lock or timeout. This API shall use the CyDelayUs() to
1382:Generated_Source\PSoC4/CyLib.c ****     * implement the timeout feature.
1383:Generated_Source\PSoC4/CyLib.c ****     *
1384:Generated_Source\PSoC4/CyLib.c ****     * \return CYRET_SUCCESS Completed successfully.
1385:Generated_Source\PSoC4/CyLib.c ****     * \return CYRET_TIMEOUT The timeout occurred without detecting a stable clock.
1386:Generated_Source\PSoC4/CyLib.c ****     * If the input source of the clock is jittery, then the lock indication may
1387:Generated_Source\PSoC4/CyLib.c ****     * not occur. However, after the timeout has expired, the generated PLL clock can
1388:Generated_Source\PSoC4/CyLib.c ****     * still be used.
1389:Generated_Source\PSoC4/CyLib.c ****     * \return CYRET_BAD_PARAM - Either the PLL or wait parameter is invalid.
1390:Generated_Source\PSoC4/CyLib.c ****     *
1391:Generated_Source\PSoC4/CyLib.c ****     *******************************************************************************/
1392:Generated_Source\PSoC4/CyLib.c ****     cystatus CySysClkPllStart(uint32 pll, uint32 wait)
1393:Generated_Source\PSoC4/CyLib.c ****     {
1394:Generated_Source\PSoC4/CyLib.c ****         uint32 counts = CY_SYS_CLK_PLL_MAX_STARTUP_US;
1395:Generated_Source\PSoC4/CyLib.c ****         uint8  interruptState;
1396:Generated_Source\PSoC4/CyLib.c ****         cystatus returnStatus = CYRET_SUCCESS;
1397:Generated_Source\PSoC4/CyLib.c **** 
1398:Generated_Source\PSoC4/CyLib.c ****         if((pll < CY_IP_PLL_NR) && (wait <= 1u))
1399:Generated_Source\PSoC4/CyLib.c ****         {
1400:Generated_Source\PSoC4/CyLib.c ****             interruptState = CyEnterCriticalSection();
1401:Generated_Source\PSoC4/CyLib.c **** 
1402:Generated_Source\PSoC4/CyLib.c ****             /* Isolate PLL outputs */
1403:Generated_Source\PSoC4/CyLib.c ****             CY_SYS_CLK_PLL_BASE.pll[pll].config &= (uint32) ~CY_SYS_CLK_PLL_CONFIG_ISOLATE;
1404:Generated_Source\PSoC4/CyLib.c **** 
1405:Generated_Source\PSoC4/CyLib.c ****             /* Enable PLL */
1406:Generated_Source\PSoC4/CyLib.c ****             CY_SYS_CLK_PLL_BASE.pll[pll].config |= CY_SYS_CLK_PLL_CONFIG_ENABLE;
1407:Generated_Source\PSoC4/CyLib.c **** 
1408:Generated_Source\PSoC4/CyLib.c ****             CyExitCriticalSection(interruptState);
1409:Generated_Source\PSoC4/CyLib.c **** 
1410:Generated_Source\PSoC4/CyLib.c ****             /* De-isolate >= CY_SYS_CLK_PLL_MIN_STARTUP_US after PLL enabled */
1411:Generated_Source\PSoC4/CyLib.c ****             CyDelayUs(CY_SYS_CLK_PLL_MIN_STARTUP_US);
1412:Generated_Source\PSoC4/CyLib.c ****             interruptState = CyEnterCriticalSection();
1413:Generated_Source\PSoC4/CyLib.c ****             CY_SYS_CLK_PLL_BASE.pll[pll].config |= CY_SYS_CLK_PLL_CONFIG_ISOLATE;
1414:Generated_Source\PSoC4/CyLib.c ****             CyExitCriticalSection(interruptState);
1415:Generated_Source\PSoC4/CyLib.c **** 
1416:Generated_Source\PSoC4/CyLib.c ****             if(wait != 0u)
1417:Generated_Source\PSoC4/CyLib.c ****             {
1418:Generated_Source\PSoC4/CyLib.c ****                 returnStatus = CYRET_TIMEOUT;
1419:Generated_Source\PSoC4/CyLib.c **** 
1420:Generated_Source\PSoC4/CyLib.c ****                 while(0u != counts)
1421:Generated_Source\PSoC4/CyLib.c ****                 {
1422:Generated_Source\PSoC4/CyLib.c **** 
1423:Generated_Source\PSoC4/CyLib.c ****                     if(0u != CySysClkPllGetLockStatus(pll))
1424:Generated_Source\PSoC4/CyLib.c ****                     {
1425:Generated_Source\PSoC4/CyLib.c ****                         returnStatus = CYRET_SUCCESS;
1426:Generated_Source\PSoC4/CyLib.c ****                         (void) CySysClkPllGetUnlockStatus(pll);
1427:Generated_Source\PSoC4/CyLib.c ****                         break;
1428:Generated_Source\PSoC4/CyLib.c ****                     }
1429:Generated_Source\PSoC4/CyLib.c **** 
ARM GAS  C:\Users\CHRIST~1\AppData\Local\Temp\cc4LKu7J.s 			page 41


1430:Generated_Source\PSoC4/CyLib.c ****                     CyDelayUs(1u);
1431:Generated_Source\PSoC4/CyLib.c ****                     counts--;
1432:Generated_Source\PSoC4/CyLib.c ****                 }
1433:Generated_Source\PSoC4/CyLib.c ****             }
1434:Generated_Source\PSoC4/CyLib.c ****         }
1435:Generated_Source\PSoC4/CyLib.c ****         else
1436:Generated_Source\PSoC4/CyLib.c ****         {
1437:Generated_Source\PSoC4/CyLib.c ****             returnStatus = CYRET_BAD_PARAM;
1438:Generated_Source\PSoC4/CyLib.c ****         }
1439:Generated_Source\PSoC4/CyLib.c **** 
1440:Generated_Source\PSoC4/CyLib.c ****         return (returnStatus);
1441:Generated_Source\PSoC4/CyLib.c ****     }
1442:Generated_Source\PSoC4/CyLib.c **** 
1443:Generated_Source\PSoC4/CyLib.c **** 
1444:Generated_Source\PSoC4/CyLib.c ****     /*******************************************************************************
1445:Generated_Source\PSoC4/CyLib.c ****     * Function Name: CySysClkPllGetLockStatus
1446:Generated_Source\PSoC4/CyLib.c ****     ****************************************************************************//**
1447:Generated_Source\PSoC4/CyLib.c ****     *
1448:Generated_Source\PSoC4/CyLib.c ****     * Returns non-zero if the output of the specified PLL output is locked.
1449:Generated_Source\PSoC4/CyLib.c ****     *
1450:Generated_Source\PSoC4/CyLib.c ****     * This API is available only for PSoC 4200L devices.
1451:Generated_Source\PSoC4/CyLib.c ****     *
1452:Generated_Source\PSoC4/CyLib.c ****     * PLL:
1453:Generated_Source\PSoC4/CyLib.c ****     *  0   PLL#0
1454:Generated_Source\PSoC4/CyLib.c ****     *  1   PLL#1
1455:Generated_Source\PSoC4/CyLib.c ****     *
1456:Generated_Source\PSoC4/CyLib.c ****     * \return A non-zero value when the specified PLL is locked.
1457:Generated_Source\PSoC4/CyLib.c ****     *
1458:Generated_Source\PSoC4/CyLib.c ****     *******************************************************************************/
1459:Generated_Source\PSoC4/CyLib.c ****     uint32 CySysClkPllGetLockStatus(uint32 pll)
1460:Generated_Source\PSoC4/CyLib.c ****     {
1461:Generated_Source\PSoC4/CyLib.c ****         uint8  interruptState;
1462:Generated_Source\PSoC4/CyLib.c ****         uint32 returnStatus;
1463:Generated_Source\PSoC4/CyLib.c **** 
1464:Generated_Source\PSoC4/CyLib.c ****         CYASSERT(pll < CY_IP_PLL_NR);
1465:Generated_Source\PSoC4/CyLib.c **** 
1466:Generated_Source\PSoC4/CyLib.c ****         interruptState = CyEnterCriticalSection();
1467:Generated_Source\PSoC4/CyLib.c **** 
1468:Generated_Source\PSoC4/CyLib.c ****         /* PLL is locked if reported so for two consecutive read. */
1469:Generated_Source\PSoC4/CyLib.c ****         returnStatus = CY_SYS_CLK_PLL_BASE.pll[pll].status & CY_SYS_CLK_PLL_STATUS_LOCKED;
1470:Generated_Source\PSoC4/CyLib.c ****         if(0u != returnStatus)
1471:Generated_Source\PSoC4/CyLib.c ****         {
1472:Generated_Source\PSoC4/CyLib.c ****             returnStatus = CY_SYS_CLK_PLL_BASE.pll[pll].status & CY_SYS_CLK_PLL_STATUS_LOCKED;
1473:Generated_Source\PSoC4/CyLib.c ****         }
1474:Generated_Source\PSoC4/CyLib.c **** 
1475:Generated_Source\PSoC4/CyLib.c ****         CyExitCriticalSection(interruptState);
1476:Generated_Source\PSoC4/CyLib.c **** 
1477:Generated_Source\PSoC4/CyLib.c ****         return (returnStatus);
1478:Generated_Source\PSoC4/CyLib.c ****     }
1479:Generated_Source\PSoC4/CyLib.c **** 
1480:Generated_Source\PSoC4/CyLib.c ****     /*******************************************************************************
1481:Generated_Source\PSoC4/CyLib.c ****     * Function Name: CySysClkPllStop
1482:Generated_Source\PSoC4/CyLib.c ****     ****************************************************************************//**
1483:Generated_Source\PSoC4/CyLib.c ****     *
1484:Generated_Source\PSoC4/CyLib.c ****     * Disables the PLL.
1485:Generated_Source\PSoC4/CyLib.c ****     *
1486:Generated_Source\PSoC4/CyLib.c ****     * Ensures that either PLL is not the source of HFCLK before it is disabled,
ARM GAS  C:\Users\CHRIST~1\AppData\Local\Temp\cc4LKu7J.s 			page 42


1487:Generated_Source\PSoC4/CyLib.c ****     * otherwise, the CPU will halt.
1488:Generated_Source\PSoC4/CyLib.c ****     *
1489:Generated_Source\PSoC4/CyLib.c ****     * This API is available only for PSoC 4200L devices.
1490:Generated_Source\PSoC4/CyLib.c ****     *
1491:Generated_Source\PSoC4/CyLib.c ****     * PLL:
1492:Generated_Source\PSoC4/CyLib.c ****     *  0   PLL#0
1493:Generated_Source\PSoC4/CyLib.c ****     *  1   PLL#1
1494:Generated_Source\PSoC4/CyLib.c ****     *
1495:Generated_Source\PSoC4/CyLib.c ****     *******************************************************************************/
1496:Generated_Source\PSoC4/CyLib.c ****     void CySysClkPllStop(uint32 pll)
1497:Generated_Source\PSoC4/CyLib.c ****     {
1498:Generated_Source\PSoC4/CyLib.c ****         uint8  interruptState;
1499:Generated_Source\PSoC4/CyLib.c **** 
1500:Generated_Source\PSoC4/CyLib.c ****         if (pll < CY_IP_PLL_NR)
1501:Generated_Source\PSoC4/CyLib.c ****         {
1502:Generated_Source\PSoC4/CyLib.c ****             interruptState = CyEnterCriticalSection();
1503:Generated_Source\PSoC4/CyLib.c ****             CY_SYS_CLK_PLL_BASE.pll[pll].config &= (uint32) ~(CY_SYS_CLK_PLL_CONFIG_ISOLATE | CY_SY
1504:Generated_Source\PSoC4/CyLib.c ****             CyExitCriticalSection(interruptState);
1505:Generated_Source\PSoC4/CyLib.c ****         }
1506:Generated_Source\PSoC4/CyLib.c ****     }
1507:Generated_Source\PSoC4/CyLib.c **** 
1508:Generated_Source\PSoC4/CyLib.c **** 
1509:Generated_Source\PSoC4/CyLib.c ****     /*******************************************************************************
1510:Generated_Source\PSoC4/CyLib.c ****     * Function Name: CySysClkPllSetPQ
1511:Generated_Source\PSoC4/CyLib.c ****     ****************************************************************************//**
1512:Generated_Source\PSoC4/CyLib.c ****     *
1513:Generated_Source\PSoC4/CyLib.c ****     * Sets feedback (P) and reference the (Q) divider value. This API also sets the
1514:Generated_Source\PSoC4/CyLib.c ****     * programmable charge pump current value. Note that the PLL has to be disabled
1515:Generated_Source\PSoC4/CyLib.c ****     * before calling this API. If this function is called while any PLL is sourcing,
1516:Generated_Source\PSoC4/CyLib.c ****     * the SYSCLK will return an error.
1517:Generated_Source\PSoC4/CyLib.c ****     *
1518:Generated_Source\PSoC4/CyLib.c ****     * The PLL must not be the system clock source when calling this function. The
1519:Generated_Source\PSoC4/CyLib.c ****     * PLL output will glitch during this function call.
1520:Generated_Source\PSoC4/CyLib.c ****     *
1521:Generated_Source\PSoC4/CyLib.c ****     * This API is available only for PSoC 4200L devices.
1522:Generated_Source\PSoC4/CyLib.c ****     *
1523:Generated_Source\PSoC4/CyLib.c ****     * \param PLL:
1524:Generated_Source\PSoC4/CyLib.c ****     *  0   PLL#0
1525:Generated_Source\PSoC4/CyLib.c ****     *  1   PLL#1
1526:Generated_Source\PSoC4/CyLib.c ****     *
1527:Generated_Source\PSoC4/CyLib.c ****     * \param feedback The P divider. Range 4 - 259. Control bits for the feedback
1528:Generated_Source\PSoC4/CyLib.c ****     * divider.
1529:Generated_Source\PSoC4/CyLib.c ****     *
1530:Generated_Source\PSoC4/CyLib.c ****     * \param reference The Q divider. Range 1 - 64. Divide by the reference.
1531:Generated_Source\PSoC4/CyLib.c ****     *
1532:Generated_Source\PSoC4/CyLib.c ****     * \param current Charge the pump current in uA. The 2 uA for output frequencies
1533:Generated_Source\PSoC4/CyLib.c ****     * of 67 MHz or less, and 3 uA for higher output frequencies. The default
1534:Generated_Source\PSoC4/CyLib.c ****     * value is 2 uA.
1535:Generated_Source\PSoC4/CyLib.c ****     *
1536:Generated_Source\PSoC4/CyLib.c ****     * \return CYRET_SUCCESS Completed successfully.
1537:Generated_Source\PSoC4/CyLib.c ****     * \return CYRET_BAD_PARAM The parameters are out of range or the specified PLL
1538:Generated_Source\PSoC4/CyLib.c ****     * sources the system clock.
1539:Generated_Source\PSoC4/CyLib.c ****     *
1540:Generated_Source\PSoC4/CyLib.c ****     *******************************************************************************/
1541:Generated_Source\PSoC4/CyLib.c ****     cystatus CySysClkPllSetPQ(uint32 pll, uint32 feedback, uint32 reference, uint32 current)
1542:Generated_Source\PSoC4/CyLib.c ****     {
1543:Generated_Source\PSoC4/CyLib.c ****         uint32   regTmp;
ARM GAS  C:\Users\CHRIST~1\AppData\Local\Temp\cc4LKu7J.s 			page 43


1544:Generated_Source\PSoC4/CyLib.c ****         cystatus tmp;
1545:Generated_Source\PSoC4/CyLib.c ****         uint8    interruptState;
1546:Generated_Source\PSoC4/CyLib.c ****         cystatus returnStatus = CYRET_BAD_PARAM;
1547:Generated_Source\PSoC4/CyLib.c **** 
1548:Generated_Source\PSoC4/CyLib.c ****         interruptState = CyEnterCriticalSection();
1549:Generated_Source\PSoC4/CyLib.c **** 
1550:Generated_Source\PSoC4/CyLib.c ****         tmp = CySysClkPllConfigChangeAllowed(pll);
1551:Generated_Source\PSoC4/CyLib.c **** 
1552:Generated_Source\PSoC4/CyLib.c ****         if ((pll < CY_IP_PLL_NR) &&
1553:Generated_Source\PSoC4/CyLib.c ****             (feedback  >= CY_SYS_CLK_PLL_CONFIG_FEEDBACK_DIV_MIN)  && (feedback  <= CY_SYS_CLK_PLL_
1554:Generated_Source\PSoC4/CyLib.c ****             (reference >= CY_SYS_CLK_PLL_CONFIG_REFERENCE_DIV_MIN) && (reference <= CY_SYS_CLK_PLL_
1555:Generated_Source\PSoC4/CyLib.c ****             (current   >= CY_SYS_CLK_PLL_CONFIG_ICP_SEL_MIN )      && (current   <= CY_SYS_CLK_PLL_
1556:Generated_Source\PSoC4/CyLib.c ****             (CYRET_SUCCESS == tmp))
1557:Generated_Source\PSoC4/CyLib.c ****         {
1558:Generated_Source\PSoC4/CyLib.c ****             /* Set new feedback, reference and current values */
1559:Generated_Source\PSoC4/CyLib.c ****             regTmp  = CY_SYS_CLK_PLL_BASE.pll[pll].config & (uint32) ~(CY_SYS_CLK_PLL_CONFIG_FEEDBA
1560:Generated_Source\PSoC4/CyLib.c ****                                                                        CY_SYS_CLK_PLL_CONFIG_REFERE
1561:Generated_Source\PSoC4/CyLib.c ****                                                                        CY_SYS_CLK_PLL_CONFIG_ICP_SE
1562:Generated_Source\PSoC4/CyLib.c **** 
1563:Generated_Source\PSoC4/CyLib.c ****             regTmp |= ((feedback << CY_SYS_CLK_PLL_CONFIG_FEEDBACK_DIV_SHIFT) & CY_SYS_CLK_PLL_CONF
1564:Generated_Source\PSoC4/CyLib.c ****             regTmp |= (((reference - 1u) << CY_SYS_CLK_PLL_CONFIG_REFERENCE_DIV_SHIFT) & CY_SYS_CLK
1565:Generated_Source\PSoC4/CyLib.c ****             regTmp |= ((current << CY_SYS_CLK_PLL_CONFIG_ICP_SEL_SHIFT) & CY_SYS_CLK_PLL_CONFIG_ICP
1566:Generated_Source\PSoC4/CyLib.c **** 
1567:Generated_Source\PSoC4/CyLib.c ****             CY_SYS_CLK_PLL_BASE.pll[pll].config = regTmp;
1568:Generated_Source\PSoC4/CyLib.c **** 
1569:Generated_Source\PSoC4/CyLib.c ****             returnStatus = CYRET_SUCCESS;
1570:Generated_Source\PSoC4/CyLib.c ****         }
1571:Generated_Source\PSoC4/CyLib.c **** 
1572:Generated_Source\PSoC4/CyLib.c ****         CyExitCriticalSection(interruptState);
1573:Generated_Source\PSoC4/CyLib.c **** 
1574:Generated_Source\PSoC4/CyLib.c ****         return (returnStatus);
1575:Generated_Source\PSoC4/CyLib.c ****     }
1576:Generated_Source\PSoC4/CyLib.c **** 
1577:Generated_Source\PSoC4/CyLib.c **** 
1578:Generated_Source\PSoC4/CyLib.c ****     /*******************************************************************************
1579:Generated_Source\PSoC4/CyLib.c ****     * Function Name: CySysClkPllSetBypassMode
1580:Generated_Source\PSoC4/CyLib.c ****     ****************************************************************************//**
1581:Generated_Source\PSoC4/CyLib.c ****     *
1582:Generated_Source\PSoC4/CyLib.c ****     * Sets the bypass mode for the specified PLL.
1583:Generated_Source\PSoC4/CyLib.c ****     *
1584:Generated_Source\PSoC4/CyLib.c ****     * The PLL must not be the system clock source when calling this function.
1585:Generated_Source\PSoC4/CyLib.c ****     * The PLL output will glitch during this function call.
1586:Generated_Source\PSoC4/CyLib.c ****     *
1587:Generated_Source\PSoC4/CyLib.c ****     * When the PLL's reference input is higher than HFCLK frequency the device may 
1588:Generated_Source\PSoC4/CyLib.c ****     * lock due to incorrect flash wait cycle configuration and bypass switches from 
1589:Generated_Source\PSoC4/CyLib.c ****     * PLL output to the reference input. See description of 
1590:Generated_Source\PSoC4/CyLib.c ****     * CySysFlashSetWaitCycles() for more information.
1591:Generated_Source\PSoC4/CyLib.c ****     *
1592:Generated_Source\PSoC4/CyLib.c ****     * This API is available only for PSoC 4200L devices.
1593:Generated_Source\PSoC4/CyLib.c ****     *
1594:Generated_Source\PSoC4/CyLib.c ****     * \param PLL:
1595:Generated_Source\PSoC4/CyLib.c ****     *  0   PLL#0
1596:Generated_Source\PSoC4/CyLib.c ****     *  1   PLL#1
1597:Generated_Source\PSoC4/CyLib.c ****     *
1598:Generated_Source\PSoC4/CyLib.c ****     * \param bypass: The bypass mode.
1599:Generated_Source\PSoC4/CyLib.c ****     * CY_SYS_PLL_BYPASS_AUTO - Automatic usage of the lock indicator. When unlocked,
1600:Generated_Source\PSoC4/CyLib.c ****     * automatically selects PLL the reference input (bypass mode). When locked,
ARM GAS  C:\Users\CHRIST~1\AppData\Local\Temp\cc4LKu7J.s 			page 44


1601:Generated_Source\PSoC4/CyLib.c ****     * automatically selects the PLL output.
1602:Generated_Source\PSoC4/CyLib.c ****     *
1603:Generated_Source\PSoC4/CyLib.c ****     * CY_SYS_PLL_BYPASS_PLL_REF - Selects the PLL reference input (bypass mode).
1604:Generated_Source\PSoC4/CyLib.c ****     * Ignores the lock indicator.
1605:Generated_Source\PSoC4/CyLib.c ****     *
1606:Generated_Source\PSoC4/CyLib.c ****     * CY_SYS_PLL_BYPASS_PLL_OUT - Selects the PLL output.  Ignores the lock indicator.
1607:Generated_Source\PSoC4/CyLib.c ****     *
1608:Generated_Source\PSoC4/CyLib.c ****     *******************************************************************************/
1609:Generated_Source\PSoC4/CyLib.c ****     void CySysClkPllSetBypassMode(uint32 pll, uint32 bypass)
1610:Generated_Source\PSoC4/CyLib.c ****     {
1611:Generated_Source\PSoC4/CyLib.c ****         uint32 regTmp;
1612:Generated_Source\PSoC4/CyLib.c ****         uint8  interruptState;
1613:Generated_Source\PSoC4/CyLib.c **** 
1614:Generated_Source\PSoC4/CyLib.c ****         interruptState = CyEnterCriticalSection();
1615:Generated_Source\PSoC4/CyLib.c **** 
1616:Generated_Source\PSoC4/CyLib.c ****         if ((pll < CY_IP_PLL_NR) && (bypass <= CY_SYS_PLL_BYPASS_PLL_OUT))
1617:Generated_Source\PSoC4/CyLib.c ****         {
1618:Generated_Source\PSoC4/CyLib.c ****             regTmp  = CY_SYS_CLK_PLL_BASE.pll[pll].config & (uint32) ~CY_SYS_CLK_PLL_CONFIG_BYPASS_
1619:Generated_Source\PSoC4/CyLib.c ****             regTmp |=  (uint32)(bypass << CY_SYS_CLK_PLL_CONFIG_BYPASS_SEL_SHIFT);
1620:Generated_Source\PSoC4/CyLib.c ****             CY_SYS_CLK_PLL_BASE.pll[pll].config = regTmp;
1621:Generated_Source\PSoC4/CyLib.c ****         }
1622:Generated_Source\PSoC4/CyLib.c **** 
1623:Generated_Source\PSoC4/CyLib.c ****         CyExitCriticalSection(interruptState);
1624:Generated_Source\PSoC4/CyLib.c ****     }
1625:Generated_Source\PSoC4/CyLib.c **** 
1626:Generated_Source\PSoC4/CyLib.c **** 
1627:Generated_Source\PSoC4/CyLib.c ****     /*******************************************************************************
1628:Generated_Source\PSoC4/CyLib.c ****     * Function Name: CySysClkPllGetBypassMode
1629:Generated_Source\PSoC4/CyLib.c ****     ****************************************************************************//**
1630:Generated_Source\PSoC4/CyLib.c ****     *
1631:Generated_Source\PSoC4/CyLib.c ****     *  Gets the bypass mode for the specified PLL.
1632:Generated_Source\PSoC4/CyLib.c ****     *  This API is available only for PSoC 4200L devices.
1633:Generated_Source\PSoC4/CyLib.c ****     *
1634:Generated_Source\PSoC4/CyLib.c ****     *  \param PLL:
1635:Generated_Source\PSoC4/CyLib.c ****     *   0   PLL#0
1636:Generated_Source\PSoC4/CyLib.c ****     *   1   PLL#1
1637:Generated_Source\PSoC4/CyLib.c ****     *
1638:Generated_Source\PSoC4/CyLib.c ****     *  \param bypass: Bypass mode.
1639:Generated_Source\PSoC4/CyLib.c ****     *   The same as the parameter of the CySysClkPllSetBypassMode().
1640:Generated_Source\PSoC4/CyLib.c ****     *
1641:Generated_Source\PSoC4/CyLib.c ****     *******************************************************************************/
1642:Generated_Source\PSoC4/CyLib.c ****     static uint32 CySysClkPllGetBypassMode(uint32 pll)
1643:Generated_Source\PSoC4/CyLib.c ****     {
1644:Generated_Source\PSoC4/CyLib.c ****         uint32 returnValue;
1645:Generated_Source\PSoC4/CyLib.c ****         uint8  interruptState;
1646:Generated_Source\PSoC4/CyLib.c **** 
1647:Generated_Source\PSoC4/CyLib.c ****         CYASSERT(pll < CY_IP_PLL_NR);
1648:Generated_Source\PSoC4/CyLib.c **** 
1649:Generated_Source\PSoC4/CyLib.c ****         interruptState = CyEnterCriticalSection();
1650:Generated_Source\PSoC4/CyLib.c **** 
1651:Generated_Source\PSoC4/CyLib.c ****         returnValue = CY_SYS_CLK_PLL_BASE.pll[pll].config & CY_SYS_CLK_PLL_CONFIG_BYPASS_SEL_MASK;
1652:Generated_Source\PSoC4/CyLib.c ****         returnValue =  returnValue >> CY_SYS_CLK_PLL_CONFIG_BYPASS_SEL_SHIFT;
1653:Generated_Source\PSoC4/CyLib.c **** 
1654:Generated_Source\PSoC4/CyLib.c ****         CyExitCriticalSection(interruptState);
1655:Generated_Source\PSoC4/CyLib.c **** 
1656:Generated_Source\PSoC4/CyLib.c ****         return (returnValue);
1657:Generated_Source\PSoC4/CyLib.c ****     }
ARM GAS  C:\Users\CHRIST~1\AppData\Local\Temp\cc4LKu7J.s 			page 45


1658:Generated_Source\PSoC4/CyLib.c **** 
1659:Generated_Source\PSoC4/CyLib.c **** 
1660:Generated_Source\PSoC4/CyLib.c ****     /*******************************************************************************
1661:Generated_Source\PSoC4/CyLib.c ****     * Function Name: CySysClkPllConfigChangeAllowed
1662:Generated_Source\PSoC4/CyLib.c ****     ****************************************************************************//**
1663:Generated_Source\PSoC4/CyLib.c ****     *
1664:Generated_Source\PSoC4/CyLib.c ****     *  The function returns non-zero value if the specified PLL sources the System
1665:Generated_Source\PSoC4/CyLib.c ****     *  clock and the PLL is not in the bypass mode.
1666:Generated_Source\PSoC4/CyLib.c ****     *
1667:Generated_Source\PSoC4/CyLib.c ****     *  This API is available only for PSoC 4200L devices.
1668:Generated_Source\PSoC4/CyLib.c ****     *
1669:Generated_Source\PSoC4/CyLib.c ****     *  \param PLL:
1670:Generated_Source\PSoC4/CyLib.c ****     *   0   PLL#0
1671:Generated_Source\PSoC4/CyLib.c ****     *   1   PLL#1
1672:Generated_Source\PSoC4/CyLib.c ****     *
1673:Generated_Source\PSoC4/CyLib.c ****     * \return Non-zero value when the specified PLL sources the System clock and
1674:Generated_Source\PSoC4/CyLib.c ****     * the PLL is not in the bypass mode.
1675:Generated_Source\PSoC4/CyLib.c ****     *
1676:Generated_Source\PSoC4/CyLib.c ****     *******************************************************************************/
1677:Generated_Source\PSoC4/CyLib.c ****     static cystatus CySysClkPllConfigChangeAllowed(uint32 pll)
1678:Generated_Source\PSoC4/CyLib.c ****     {
1679:Generated_Source\PSoC4/CyLib.c ****         uint32   pllBypassMode;
1680:Generated_Source\PSoC4/CyLib.c ****         uint32   sysclkSource;
1681:Generated_Source\PSoC4/CyLib.c ****         cystatus returnValue = CYRET_LOCKED;
1682:Generated_Source\PSoC4/CyLib.c **** 
1683:Generated_Source\PSoC4/CyLib.c ****         sysclkSource  = CySysClkGetSysclkSource();
1684:Generated_Source\PSoC4/CyLib.c ****         pllBypassMode = CySysClkPllGetBypassMode(pll);
1685:Generated_Source\PSoC4/CyLib.c **** 
1686:Generated_Source\PSoC4/CyLib.c ****         if ((CY_SYS_PLL_BYPASS_PLL_REF == pllBypassMode)             ||
1687:Generated_Source\PSoC4/CyLib.c ****             ((CY_SYS_CLK_HFCLK_PLL0 != sysclkSource) && (0u == pll)) ||
1688:Generated_Source\PSoC4/CyLib.c ****             ((CY_SYS_CLK_HFCLK_PLL1 != sysclkSource) && (1u == pll)))
1689:Generated_Source\PSoC4/CyLib.c ****         {
1690:Generated_Source\PSoC4/CyLib.c ****             returnValue = CYRET_SUCCESS;
1691:Generated_Source\PSoC4/CyLib.c ****         }
1692:Generated_Source\PSoC4/CyLib.c **** 
1693:Generated_Source\PSoC4/CyLib.c ****         return (returnValue);
1694:Generated_Source\PSoC4/CyLib.c ****     }
1695:Generated_Source\PSoC4/CyLib.c **** 
1696:Generated_Source\PSoC4/CyLib.c **** 
1697:Generated_Source\PSoC4/CyLib.c ****     /*******************************************************************************
1698:Generated_Source\PSoC4/CyLib.c ****     * Function Name: CySysClkPllGetUnlockStatus
1699:Generated_Source\PSoC4/CyLib.c ****     ****************************************************************************//**
1700:Generated_Source\PSoC4/CyLib.c ****     *
1701:Generated_Source\PSoC4/CyLib.c ****     *  Returns a non-zero value if the specified PLL output was unlocked.
1702:Generated_Source\PSoC4/CyLib.c ****     *  The unlock status is an indicator that the PLL has lost a lock at least once
1703:Generated_Source\PSoC4/CyLib.c ****     *  during its operation. The unlock status is cleared once it is read using
1704:Generated_Source\PSoC4/CyLib.c ****     *  this API.
1705:Generated_Source\PSoC4/CyLib.c ****     *
1706:Generated_Source\PSoC4/CyLib.c ****     *  This API is available only for PSoC 4200L devices.
1707:Generated_Source\PSoC4/CyLib.c ****     *
1708:Generated_Source\PSoC4/CyLib.c ****     *  \param PLL:
1709:Generated_Source\PSoC4/CyLib.c ****     *   0   PLL#0
1710:Generated_Source\PSoC4/CyLib.c ****     *   1   PLL#1
1711:Generated_Source\PSoC4/CyLib.c ****     *
1712:Generated_Source\PSoC4/CyLib.c ****     * \return Non-zero value when the specified PLL was unlocked.
1713:Generated_Source\PSoC4/CyLib.c ****     *
1714:Generated_Source\PSoC4/CyLib.c ****     *******************************************************************************/
ARM GAS  C:\Users\CHRIST~1\AppData\Local\Temp\cc4LKu7J.s 			page 46


1715:Generated_Source\PSoC4/CyLib.c ****     uint32 CySysClkPllGetUnlockStatus(uint32 pll)
1716:Generated_Source\PSoC4/CyLib.c ****     {
1717:Generated_Source\PSoC4/CyLib.c ****         uint32 returnStatus = 0u;
1718:Generated_Source\PSoC4/CyLib.c ****         uint8  interruptState;
1719:Generated_Source\PSoC4/CyLib.c **** 
1720:Generated_Source\PSoC4/CyLib.c ****         interruptState = CyEnterCriticalSection();
1721:Generated_Source\PSoC4/CyLib.c **** 
1722:Generated_Source\PSoC4/CyLib.c ****         returnStatus = CY_SYS_CLK_PLL_BASE.pll[pll].test & CY_SYS_CLK_PLL_TEST_UNLOCK_OCCURRED_MASK
1723:Generated_Source\PSoC4/CyLib.c ****         CY_SYS_CLK_PLL_BASE.pll[pll].test |= CY_SYS_CLK_PLL_TEST_UNLOCK_OCCURRED_MASK;
1724:Generated_Source\PSoC4/CyLib.c **** 
1725:Generated_Source\PSoC4/CyLib.c ****         CyExitCriticalSection(interruptState);
1726:Generated_Source\PSoC4/CyLib.c **** 
1727:Generated_Source\PSoC4/CyLib.c ****         return (returnStatus);
1728:Generated_Source\PSoC4/CyLib.c ****     }
1729:Generated_Source\PSoC4/CyLib.c **** 
1730:Generated_Source\PSoC4/CyLib.c **** 
1731:Generated_Source\PSoC4/CyLib.c ****     /*******************************************************************************
1732:Generated_Source\PSoC4/CyLib.c ****     * Function Name: CySysClkPllSetFrequency
1733:Generated_Source\PSoC4/CyLib.c ****     ****************************************************************************//**
1734:Generated_Source\PSoC4/CyLib.c ****     *
1735:Generated_Source\PSoC4/CyLib.c ****     * Configures either PLL#0 or PLL#1 for the requested input/output frequencies.
1736:Generated_Source\PSoC4/CyLib.c ****     * The input frequency is the frequency of the source to the PLL. The source is
1737:Generated_Source\PSoC4/CyLib.c ****     * set using the CySysClkPllSetSource() function.
1738:Generated_Source\PSoC4/CyLib.c ****     *
1739:Generated_Source\PSoC4/CyLib.c ****     * The PLL must not be the system clock source when calling this function. The
1740:Generated_Source\PSoC4/CyLib.c ****     * PLL output will glitch during this function call.
1741:Generated_Source\PSoC4/CyLib.c ****     *
1742:Generated_Source\PSoC4/CyLib.c ****     * This API is available only for PSoC 4200L devices.
1743:Generated_Source\PSoC4/CyLib.c ****     *
1744:Generated_Source\PSoC4/CyLib.c ****     * \param pll:
1745:Generated_Source\PSoC4/CyLib.c ****     *  0   PLL#0
1746:Generated_Source\PSoC4/CyLib.c ****     *  1   PLL#1
1747:Generated_Source\PSoC4/CyLib.c ****     *
1748:Generated_Source\PSoC4/CyLib.c ****     * \param inputFreq The reference frequency in KHz. The valid range is from 1000 to 49152 KHz.
1749:Generated_Source\PSoC4/CyLib.c ****     *
1750:Generated_Source\PSoC4/CyLib.c ****     * \param pllFreq The target frequency in KHz. The valid range is from 22500 to 49152 KHz.
1751:Generated_Source\PSoC4/CyLib.c ****     *
1752:Generated_Source\PSoC4/CyLib.c ****     * \param divider The output clock divider for the PLL:
1753:Generated_Source\PSoC4/CyLib.c ****     * CY_SYS_PLL_OUTPUT_DIVPASS    Pass Through
1754:Generated_Source\PSoC4/CyLib.c ****     * CY_SYS_PLL_OUTPUT_DIV2       Divide by 2
1755:Generated_Source\PSoC4/CyLib.c ****     * CY_SYS_PLL_OUTPUT_DIV4       Divide by 4
1756:Generated_Source\PSoC4/CyLib.c ****     * CY_SYS_PLL_OUTPUT_DIV8       Divide by 8
1757:Generated_Source\PSoC4/CyLib.c ****     *
1758:Generated_Source\PSoC4/CyLib.c ****     * \param freqTol The tolerance in ppm, 10 ppm is equal to 0.001%.
1759:Generated_Source\PSoC4/CyLib.c ****     *
1760:Generated_Source\PSoC4/CyLib.c ****     * \return CYRET_SUCCESS The PLL was successfully configured for the requested
1761:Generated_Source\PSoC4/CyLib.c ****     * frequency.
1762:Generated_Source\PSoC4/CyLib.c ****     *
1763:Generated_Source\PSoC4/CyLib.c ****     * \return CYRET_BAD_PARAM The PLL was not able to successfully configure for the
1764:Generated_Source\PSoC4/CyLib.c ****     * requested frequency.
1765:Generated_Source\PSoC4/CyLib.c ****     *
1766:Generated_Source\PSoC4/CyLib.c ****     *******************************************************************************/
1767:Generated_Source\PSoC4/CyLib.c ****     cystatus CySysClkPllSetFrequency(uint32 pll, uint32 inputFreq, uint32 pllFreq, uint32 divider, 
1768:Generated_Source\PSoC4/CyLib.c ****     {
1769:Generated_Source\PSoC4/CyLib.c ****         uint32 qMin;
1770:Generated_Source\PSoC4/CyLib.c ****         uint32 qMax;
1771:Generated_Source\PSoC4/CyLib.c **** 
ARM GAS  C:\Users\CHRIST~1\AppData\Local\Temp\cc4LKu7J.s 			page 47


1772:Generated_Source\PSoC4/CyLib.c ****         uint32 qVal = CY_SYS_CLK_PLL_INVALID;
1773:Generated_Source\PSoC4/CyLib.c ****         uint32 pVal = CY_SYS_CLK_PLL_INVALID;
1774:Generated_Source\PSoC4/CyLib.c **** 
1775:Generated_Source\PSoC4/CyLib.c ****         uint32 q;
1776:Generated_Source\PSoC4/CyLib.c ****         uint32 p;
1777:Generated_Source\PSoC4/CyLib.c **** 
1778:Generated_Source\PSoC4/CyLib.c ****         uint32 fvco;
1779:Generated_Source\PSoC4/CyLib.c ****         int32 ferr;
1780:Generated_Source\PSoC4/CyLib.c **** 
1781:Generated_Source\PSoC4/CyLib.c ****         cystatus tmp;
1782:Generated_Source\PSoC4/CyLib.c ****         cystatus returnStatus = CYRET_BAD_PARAM;
1783:Generated_Source\PSoC4/CyLib.c **** 
1784:Generated_Source\PSoC4/CyLib.c **** 
1785:Generated_Source\PSoC4/CyLib.c ****         tmp = CySysClkPllConfigChangeAllowed(pll);
1786:Generated_Source\PSoC4/CyLib.c **** 
1787:Generated_Source\PSoC4/CyLib.c ****         if ((pll < CY_IP_PLL_NR) &&
1788:Generated_Source\PSoC4/CyLib.c ****             (inputFreq  >= CY_SYS_CLK_PLL_INPUT_FREQ_MIN )  && (inputFreq  <= CY_SYS_CLK_PLL_INPUT_
1789:Generated_Source\PSoC4/CyLib.c ****             (pllFreq >= CY_SYS_CLK_PLL_OUTPUT_FREQ_MIN ) && (pllFreq <= CY_SYS_CLK_PLL_OUTPUT_FREQ_
1790:Generated_Source\PSoC4/CyLib.c ****             (divider <= CY_SYS_PLL_OUTPUT_DIV8) &&
1791:Generated_Source\PSoC4/CyLib.c ****             (CYRET_SUCCESS == tmp))
1792:Generated_Source\PSoC4/CyLib.c ****         {
1793:Generated_Source\PSoC4/CyLib.c **** 
1794:Generated_Source\PSoC4/CyLib.c ****             /* Minimum feed forward loop divisor */
1795:Generated_Source\PSoC4/CyLib.c ****             qMin = (inputFreq + (CY_SYS_CLK_PLL_FPFDMAX - 1u)) / CY_SYS_CLK_PLL_FPFDMAX;
1796:Generated_Source\PSoC4/CyLib.c ****             qMin = (qMin < CY_SYS_CLK_PLL_QMINIP) ? CY_SYS_CLK_PLL_QMINIP : qMin;
1797:Generated_Source\PSoC4/CyLib.c **** 
1798:Generated_Source\PSoC4/CyLib.c ****             /* Maximum feed forward loop divisor */
1799:Generated_Source\PSoC4/CyLib.c ****             qMax = inputFreq / CY_SYS_CLK_PLL_FPFDMIN;
1800:Generated_Source\PSoC4/CyLib.c ****             qMax = (qMax > CY_SYS_CLK_PLL_QMAXIP) ? CY_SYS_CLK_PLL_QMAXIP : qMax;
1801:Generated_Source\PSoC4/CyLib.c **** 
1802:Generated_Source\PSoC4/CyLib.c ****             if (qMin <= qMax)
1803:Generated_Source\PSoC4/CyLib.c ****             {
1804:Generated_Source\PSoC4/CyLib.c ****                 for(q = qMin; q <= qMax; q++)
1805:Generated_Source\PSoC4/CyLib.c ****                 {
1806:Generated_Source\PSoC4/CyLib.c ****                     /* Solve for the feedback divisor value */
1807:Generated_Source\PSoC4/CyLib.c **** 
1808:Generated_Source\PSoC4/CyLib.c ****                     /* INT((pllFreq * q ) / inputFreq), where INT is normal rounding  */
1809:Generated_Source\PSoC4/CyLib.c ****                     p = ((pllFreq * q) + (inputFreq / 2u)) / inputFreq;
1810:Generated_Source\PSoC4/CyLib.c **** 
1811:Generated_Source\PSoC4/CyLib.c ****                     /* Calculate the actual VCO frequency (FVCO) */
1812:Generated_Source\PSoC4/CyLib.c ****                     fvco = ((inputFreq * p) / q);
1813:Generated_Source\PSoC4/CyLib.c **** 
1814:Generated_Source\PSoC4/CyLib.c ****                     /* Calculate the frequency error (FERR) */
1815:Generated_Source\PSoC4/CyLib.c ****                     ferr = ((1000000 * ((int32) fvco - (int32) pllFreq))/ (int32) pllFreq);
1816:Generated_Source\PSoC4/CyLib.c **** 
1817:Generated_Source\PSoC4/CyLib.c ****                     /* Bound check the frequency error and decide next action */
1818:Generated_Source\PSoC4/CyLib.c ****                     if ((( -1 * (int32) freqTol) <= ferr) && (ferr <= (int32) freqTol))
1819:Generated_Source\PSoC4/CyLib.c ****                     {
1820:Generated_Source\PSoC4/CyLib.c ****                         qVal = q;
1821:Generated_Source\PSoC4/CyLib.c ****                         pVal = p;
1822:Generated_Source\PSoC4/CyLib.c ****                         break;
1823:Generated_Source\PSoC4/CyLib.c ****                     }
1824:Generated_Source\PSoC4/CyLib.c ****                 }
1825:Generated_Source\PSoC4/CyLib.c **** 
1826:Generated_Source\PSoC4/CyLib.c **** 
1827:Generated_Source\PSoC4/CyLib.c ****                 if ((pVal != CY_SYS_CLK_PLL_INVALID) && (qVal != CY_SYS_CLK_PLL_INVALID))
1828:Generated_Source\PSoC4/CyLib.c ****                 {
ARM GAS  C:\Users\CHRIST~1\AppData\Local\Temp\cc4LKu7J.s 			page 48


1829:Generated_Source\PSoC4/CyLib.c ****                     if (CySysClkPllSetPQ(pll, pVal, qVal, CY_SYS_CLK_PLL_CURRENT_DEFAULT) == CYRET_
1830:Generated_Source\PSoC4/CyLib.c ****                     {
1831:Generated_Source\PSoC4/CyLib.c ****                         returnStatus = CySysClkPllSetOutputDivider(pll, divider);
1832:Generated_Source\PSoC4/CyLib.c ****                     }
1833:Generated_Source\PSoC4/CyLib.c ****                 }
1834:Generated_Source\PSoC4/CyLib.c ****             }
1835:Generated_Source\PSoC4/CyLib.c **** 
1836:Generated_Source\PSoC4/CyLib.c ****         }
1837:Generated_Source\PSoC4/CyLib.c **** 
1838:Generated_Source\PSoC4/CyLib.c ****         return (returnStatus);
1839:Generated_Source\PSoC4/CyLib.c ****     }
1840:Generated_Source\PSoC4/CyLib.c **** 
1841:Generated_Source\PSoC4/CyLib.c **** 
1842:Generated_Source\PSoC4/CyLib.c ****     /*******************************************************************************
1843:Generated_Source\PSoC4/CyLib.c ****     * Function Name: CySysClkPllSetSource
1844:Generated_Source\PSoC4/CyLib.c ****     ****************************************************************************//**
1845:Generated_Source\PSoC4/CyLib.c ****     *
1846:Generated_Source\PSoC4/CyLib.c ****     *  Sets the input clock source to the PLL. The PLL must be disabled before
1847:Generated_Source\PSoC4/CyLib.c ****     *  calling this function.
1848:Generated_Source\PSoC4/CyLib.c ****     *
1849:Generated_Source\PSoC4/CyLib.c ****     *  This API is available only for PSoC 4200L devices.
1850:Generated_Source\PSoC4/CyLib.c ****     *
1851:Generated_Source\PSoC4/CyLib.c ****     *  \param PLL:
1852:Generated_Source\PSoC4/CyLib.c ****     *  0   PLL#0
1853:Generated_Source\PSoC4/CyLib.c ****     *  1   PLL#1
1854:Generated_Source\PSoC4/CyLib.c ****     *
1855:Generated_Source\PSoC4/CyLib.c ****     * \param source:
1856:Generated_Source\PSoC4/CyLib.c ****     *  CY_SYS_PLL_SOURCE_IMO        IMO
1857:Generated_Source\PSoC4/CyLib.c ****     *  CY_SYS_PLL_SOURCE_EXTCLK     External Clock
1858:Generated_Source\PSoC4/CyLib.c ****     *  CY_SYS_PLL_SOURCE_ECO        ECO
1859:Generated_Source\PSoC4/CyLib.c ****     *  CY_SYS_PLL_SOURCE_DSI0       DSI_OUT[0]
1860:Generated_Source\PSoC4/CyLib.c ****     *  CY_SYS_PLL_SOURCE_DSI1       DSI_OUT[1]
1861:Generated_Source\PSoC4/CyLib.c ****     *  CY_SYS_PLL_SOURCE_DSI2       DSI_OUT[2]
1862:Generated_Source\PSoC4/CyLib.c ****     *  CY_SYS_PLL_SOURCE_DSI3       DSI_OUT[3]
1863:Generated_Source\PSoC4/CyLib.c ****     *
1864:Generated_Source\PSoC4/CyLib.c ****     *******************************************************************************/
1865:Generated_Source\PSoC4/CyLib.c ****     void CySysClkPllSetSource(uint32 pll, uint32 source)
1866:Generated_Source\PSoC4/CyLib.c ****     {
1867:Generated_Source\PSoC4/CyLib.c ****         uint32 regTmp;
1868:Generated_Source\PSoC4/CyLib.c ****         uint8  interruptState;
1869:Generated_Source\PSoC4/CyLib.c **** 
1870:Generated_Source\PSoC4/CyLib.c ****         interruptState = CyEnterCriticalSection();
1871:Generated_Source\PSoC4/CyLib.c **** 
1872:Generated_Source\PSoC4/CyLib.c ****         if (pll < CY_IP_PLL_NR)
1873:Generated_Source\PSoC4/CyLib.c ****         {
1874:Generated_Source\PSoC4/CyLib.c ****             regTmp = CY_SYS_CLK_SELECT_REG & (uint32) ~CY_SYS_CLK_SELECT_PLL_MASK(pll);
1875:Generated_Source\PSoC4/CyLib.c ****             regTmp |= ((source << CY_SYS_CLK_SELECT_PLL_SHIFT(pll)) & CY_SYS_CLK_SELECT_PLL_MASK(pl
1876:Generated_Source\PSoC4/CyLib.c ****             CY_SYS_CLK_SELECT_REG = regTmp;
1877:Generated_Source\PSoC4/CyLib.c ****         }
1878:Generated_Source\PSoC4/CyLib.c **** 
1879:Generated_Source\PSoC4/CyLib.c ****         CyExitCriticalSection(interruptState);
1880:Generated_Source\PSoC4/CyLib.c ****     }
1881:Generated_Source\PSoC4/CyLib.c **** 
1882:Generated_Source\PSoC4/CyLib.c **** 
1883:Generated_Source\PSoC4/CyLib.c ****     /*******************************************************************************
1884:Generated_Source\PSoC4/CyLib.c ****     * Function Name: CySysClkPllSetOutputDivider
1885:Generated_Source\PSoC4/CyLib.c ****     ****************************************************************************//**
ARM GAS  C:\Users\CHRIST~1\AppData\Local\Temp\cc4LKu7J.s 			page 49


1886:Generated_Source\PSoC4/CyLib.c ****     *
1887:Generated_Source\PSoC4/CyLib.c ****     *  Sets the output clock divider for the PLL.
1888:Generated_Source\PSoC4/CyLib.c ****     *
1889:Generated_Source\PSoC4/CyLib.c ****     *  The PLL must not be the System Clock source when calling this function. The
1890:Generated_Source\PSoC4/CyLib.c ****     *  PLL output will glitch during this function call.
1891:Generated_Source\PSoC4/CyLib.c ****     *
1892:Generated_Source\PSoC4/CyLib.c ****     *  This API is available only for PSoC 4200L devices.
1893:Generated_Source\PSoC4/CyLib.c ****     *
1894:Generated_Source\PSoC4/CyLib.c ****     *  \param PLL:
1895:Generated_Source\PSoC4/CyLib.c ****     *   0   PLL#0
1896:Generated_Source\PSoC4/CyLib.c ****     *   1   PLL#1
1897:Generated_Source\PSoC4/CyLib.c ****     *
1898:Generated_Source\PSoC4/CyLib.c ****     * \param divider:
1899:Generated_Source\PSoC4/CyLib.c ****     *  CY_SYS_PLL_OUTPUT_DIVPASS    Pass through
1900:Generated_Source\PSoC4/CyLib.c ****     *  CY_SYS_PLL_OUTPUT_DIV2       Divide by 2
1901:Generated_Source\PSoC4/CyLib.c ****     *  CY_SYS_PLL_OUTPUT_DIV4       Divide by 4
1902:Generated_Source\PSoC4/CyLib.c ****     *  CY_SYS_PLL_OUTPUT_DIV8       Divide by 8
1903:Generated_Source\PSoC4/CyLib.c ****     *
1904:Generated_Source\PSoC4/CyLib.c ****     * \return \ref CYRET_SUCCESS    Completed successfully.
1905:Generated_Source\PSoC4/CyLib.c ****     * \return \ref CYRET_BAD_PARAM  The parameters are out of range or the
1906:Generated_Source\PSoC4/CyLib.c ****     * specified PLL sources the System clock.
1907:Generated_Source\PSoC4/CyLib.c ****     *
1908:Generated_Source\PSoC4/CyLib.c ****     *******************************************************************************/
1909:Generated_Source\PSoC4/CyLib.c ****     cystatus CySysClkPllSetOutputDivider(uint32 pll, uint32 divider)
1910:Generated_Source\PSoC4/CyLib.c ****     {
1911:Generated_Source\PSoC4/CyLib.c ****         uint32   tmpReg;
1912:Generated_Source\PSoC4/CyLib.c ****         uint8    interruptState;
1913:Generated_Source\PSoC4/CyLib.c ****         cystatus returnStatus = CYRET_BAD_PARAM;
1914:Generated_Source\PSoC4/CyLib.c ****         cystatus tmp;
1915:Generated_Source\PSoC4/CyLib.c **** 
1916:Generated_Source\PSoC4/CyLib.c **** 
1917:Generated_Source\PSoC4/CyLib.c ****         interruptState = CyEnterCriticalSection();
1918:Generated_Source\PSoC4/CyLib.c **** 
1919:Generated_Source\PSoC4/CyLib.c ****         tmp = CySysClkPllConfigChangeAllowed(pll);
1920:Generated_Source\PSoC4/CyLib.c **** 
1921:Generated_Source\PSoC4/CyLib.c ****         if ((pll < CY_IP_PLL_NR) && (CYRET_SUCCESS == tmp) && (divider <= CY_SYS_PLL_OUTPUT_DIV8))
1922:Generated_Source\PSoC4/CyLib.c ****         {
1923:Generated_Source\PSoC4/CyLib.c ****             tmpReg  = CY_SYS_CLK_PLL_BASE.pll[pll].config & (uint32) ~(CY_SYS_CLK_PLL_CONFIG_OUTPUT
1924:Generated_Source\PSoC4/CyLib.c ****             tmpReg |= ((divider << CY_SYS_CLK_PLL_CONFIG_OUTPUT_DIV_SHIFT) & CY_SYS_CLK_PLL_CONFIG_
1925:Generated_Source\PSoC4/CyLib.c **** 
1926:Generated_Source\PSoC4/CyLib.c ****             CY_SYS_CLK_PLL_BASE.pll[pll].config = tmpReg;
1927:Generated_Source\PSoC4/CyLib.c **** 
1928:Generated_Source\PSoC4/CyLib.c ****             returnStatus = CYRET_SUCCESS;
1929:Generated_Source\PSoC4/CyLib.c ****         }
1930:Generated_Source\PSoC4/CyLib.c **** 
1931:Generated_Source\PSoC4/CyLib.c ****         CyExitCriticalSection(interruptState);
1932:Generated_Source\PSoC4/CyLib.c **** 
1933:Generated_Source\PSoC4/CyLib.c ****         return (returnStatus);
1934:Generated_Source\PSoC4/CyLib.c ****     }
1935:Generated_Source\PSoC4/CyLib.c **** #endif /* (CY_IP_SRSSV2 && CY_IP_PLL) */
1936:Generated_Source\PSoC4/CyLib.c **** 
1937:Generated_Source\PSoC4/CyLib.c **** 
1938:Generated_Source\PSoC4/CyLib.c **** #if(CY_IP_SRSSV2)
1939:Generated_Source\PSoC4/CyLib.c **** 
1940:Generated_Source\PSoC4/CyLib.c ****     /*******************************************************************************
1941:Generated_Source\PSoC4/CyLib.c ****     * Function Name: CySysLvdEnable
1942:Generated_Source\PSoC4/CyLib.c ****     ****************************************************************************//**
ARM GAS  C:\Users\CHRIST~1\AppData\Local\Temp\cc4LKu7J.s 			page 50


1943:Generated_Source\PSoC4/CyLib.c ****     *
1944:Generated_Source\PSoC4/CyLib.c ****     *  Enables the output of the low-voltage monitor when Vddd is at or below the
1945:Generated_Source\PSoC4/CyLib.c ****     *  trip point, configures the device to generate an interrupt, and sets the
1946:Generated_Source\PSoC4/CyLib.c ****     *  voltage trip level.
1947:Generated_Source\PSoC4/CyLib.c ****     *
1948:Generated_Source\PSoC4/CyLib.c ****     *  \param threshold: Threshold selection for Low Voltage Detect circuit.
1949:Generated_Source\PSoC4/CyLib.c ****     *  Threshold variation is +/- 2.5% from these typical voltage choices.
1950:Generated_Source\PSoC4/CyLib.c ****     *         Define                     Voltage threshold
1951:Generated_Source\PSoC4/CyLib.c ****     *    CY_LVD_THRESHOLD_1_75_V       1.7500 V
1952:Generated_Source\PSoC4/CyLib.c ****     *    CY_LVD_THRESHOLD_1_80_V       1.8000 V
1953:Generated_Source\PSoC4/CyLib.c ****     *    CY_LVD_THRESHOLD_1_90_V       1.9000 V
1954:Generated_Source\PSoC4/CyLib.c ****     *    CY_LVD_THRESHOLD_2_00_V       2.0000 V
1955:Generated_Source\PSoC4/CyLib.c ****     *    CY_LVD_THRESHOLD_2_10_V       2.1000 V
1956:Generated_Source\PSoC4/CyLib.c ****     *    CY_LVD_THRESHOLD_2_20_V       2.2000 V
1957:Generated_Source\PSoC4/CyLib.c ****     *    CY_LVD_THRESHOLD_2_30_V       2.3000 V
1958:Generated_Source\PSoC4/CyLib.c ****     *    CY_LVD_THRESHOLD_2_40_V       2.4000 V
1959:Generated_Source\PSoC4/CyLib.c ****     *    CY_LVD_THRESHOLD_2_50_V       2.5000 V
1960:Generated_Source\PSoC4/CyLib.c ****     *    CY_LVD_THRESHOLD_2_60_V       2.6000 V
1961:Generated_Source\PSoC4/CyLib.c ****     *    CY_LVD_THRESHOLD_2_70_V       2.7000 V
1962:Generated_Source\PSoC4/CyLib.c ****     *    CY_LVD_THRESHOLD_2_80_V       2.8000 V
1963:Generated_Source\PSoC4/CyLib.c ****     *    CY_LVD_THRESHOLD_2_90_V       2.9000 V
1964:Generated_Source\PSoC4/CyLib.c ****     *    CY_LVD_THRESHOLD_3_00_V       3.0000 V
1965:Generated_Source\PSoC4/CyLib.c ****     *    CY_LVD_THRESHOLD_3_20_V       3.2000 V
1966:Generated_Source\PSoC4/CyLib.c ****     *    CY_LVD_THRESHOLD_4_50_V       4.5000 V
1967:Generated_Source\PSoC4/CyLib.c ****     *
1968:Generated_Source\PSoC4/CyLib.c ****     *******************************************************************************/
1969:Generated_Source\PSoC4/CyLib.c ****     void CySysLvdEnable(uint32 threshold)
1970:Generated_Source\PSoC4/CyLib.c ****     {
1971:Generated_Source\PSoC4/CyLib.c ****         /* Prevent propagating a false interrupt */
1972:Generated_Source\PSoC4/CyLib.c ****         CY_LVD_PWR_INTR_MASK_REG   &= (uint32) ~CY_LVD_PROPAGATE_INT_TO_CPU;
1973:Generated_Source\PSoC4/CyLib.c **** 
1974:Generated_Source\PSoC4/CyLib.c ****         /* Set specified threshold */
1975:Generated_Source\PSoC4/CyLib.c ****         CY_LVD_PWR_VMON_CONFIG_REG = (CY_LVD_PWR_VMON_CONFIG_REG & ~CY_LVD_PWR_VMON_CONFIG_LVD_SEL_
1976:Generated_Source\PSoC4/CyLib.c ****                 ((threshold << CY_LVD_PWR_VMON_CONFIG_LVD_SEL_SHIFT) & CY_LVD_PWR_VMON_CONFIG_LVD_S
1977:Generated_Source\PSoC4/CyLib.c **** 
1978:Generated_Source\PSoC4/CyLib.c ****         /* Enable the LVD. This may cause a false LVD event. */
1979:Generated_Source\PSoC4/CyLib.c ****         CY_LVD_PWR_VMON_CONFIG_REG |= CY_LVD_PWR_VMON_CONFIG_LVD_EN;
1980:Generated_Source\PSoC4/CyLib.c **** 
1981:Generated_Source\PSoC4/CyLib.c ****         /* Wait for the circuit to stabilize */
1982:Generated_Source\PSoC4/CyLib.c ****         CyDelayUs(CY_LVD_STABILIZE_TIMEOUT_US);
1983:Generated_Source\PSoC4/CyLib.c **** 
1984:Generated_Source\PSoC4/CyLib.c ****         /* Clear the false event */
1985:Generated_Source\PSoC4/CyLib.c ****         CySysLvdClearInterrupt();
1986:Generated_Source\PSoC4/CyLib.c **** 
1987:Generated_Source\PSoC4/CyLib.c ****         /* Unmask the interrupt */
1988:Generated_Source\PSoC4/CyLib.c ****         CY_LVD_PWR_INTR_MASK_REG   |= CY_LVD_PROPAGATE_INT_TO_CPU;
1989:Generated_Source\PSoC4/CyLib.c ****     }
1990:Generated_Source\PSoC4/CyLib.c **** 
1991:Generated_Source\PSoC4/CyLib.c **** 
1992:Generated_Source\PSoC4/CyLib.c ****     /*******************************************************************************
1993:Generated_Source\PSoC4/CyLib.c ****     * Function Name: CySysLvdDisable
1994:Generated_Source\PSoC4/CyLib.c ****     ****************************************************************************//**
1995:Generated_Source\PSoC4/CyLib.c ****     *
1996:Generated_Source\PSoC4/CyLib.c ****     *  Disables the low voltage detection. A low voltage interrupt is disabled.
1997:Generated_Source\PSoC4/CyLib.c ****     *
1998:Generated_Source\PSoC4/CyLib.c ****     *******************************************************************************/
1999:Generated_Source\PSoC4/CyLib.c ****     void CySysLvdDisable(void)
ARM GAS  C:\Users\CHRIST~1\AppData\Local\Temp\cc4LKu7J.s 			page 51


2000:Generated_Source\PSoC4/CyLib.c ****     {
2001:Generated_Source\PSoC4/CyLib.c ****         CY_LVD_PWR_INTR_MASK_REG   &= ~CY_LVD_PROPAGATE_INT_TO_CPU;
2002:Generated_Source\PSoC4/CyLib.c ****         CY_LVD_PWR_VMON_CONFIG_REG &= ~CY_LVD_PWR_VMON_CONFIG_LVD_EN;
2003:Generated_Source\PSoC4/CyLib.c ****     }
2004:Generated_Source\PSoC4/CyLib.c **** 
2005:Generated_Source\PSoC4/CyLib.c **** 
2006:Generated_Source\PSoC4/CyLib.c ****     /*******************************************************************************
2007:Generated_Source\PSoC4/CyLib.c ****     * Function Name: CySysLvdGetInterruptSource
2008:Generated_Source\PSoC4/CyLib.c ****     ****************************************************************************//**
2009:Generated_Source\PSoC4/CyLib.c ****     *
2010:Generated_Source\PSoC4/CyLib.c ****     *  Gets the low voltage detection interrupt status (without clearing).
2011:Generated_Source\PSoC4/CyLib.c ****     *
2012:Generated_Source\PSoC4/CyLib.c ****     * \return
2013:Generated_Source\PSoC4/CyLib.c ****     *  Interrupt request value:
2014:Generated_Source\PSoC4/CyLib.c ****     *    CY_SYS_LVD_INT - Indicates an Low Voltage Detect interrupt
2015:Generated_Source\PSoC4/CyLib.c ****     *
2016:Generated_Source\PSoC4/CyLib.c ****     *******************************************************************************/
2017:Generated_Source\PSoC4/CyLib.c ****     uint32 CySysLvdGetInterruptSource(void)
2018:Generated_Source\PSoC4/CyLib.c ****     {
2019:Generated_Source\PSoC4/CyLib.c ****         return (CY_LVD_PWR_INTR_REG & CY_SYS_LVD_INT);
2020:Generated_Source\PSoC4/CyLib.c ****     }
2021:Generated_Source\PSoC4/CyLib.c **** 
2022:Generated_Source\PSoC4/CyLib.c **** 
2023:Generated_Source\PSoC4/CyLib.c ****     /*******************************************************************************
2024:Generated_Source\PSoC4/CyLib.c ****     * Function Name: CySysLvdClearInterrupt
2025:Generated_Source\PSoC4/CyLib.c ****     ****************************************************************************//**
2026:Generated_Source\PSoC4/CyLib.c ****     *
2027:Generated_Source\PSoC4/CyLib.c ****     *  Clears the low voltage detection interrupt status.
2028:Generated_Source\PSoC4/CyLib.c ****     *
2029:Generated_Source\PSoC4/CyLib.c ****     * \return
2030:Generated_Source\PSoC4/CyLib.c ****     *  None
2031:Generated_Source\PSoC4/CyLib.c ****     *
2032:Generated_Source\PSoC4/CyLib.c ****     *******************************************************************************/
2033:Generated_Source\PSoC4/CyLib.c ****     void CySysLvdClearInterrupt(void)
2034:Generated_Source\PSoC4/CyLib.c ****     {
2035:Generated_Source\PSoC4/CyLib.c ****         CY_LVD_PWR_INTR_REG = CY_SYS_LVD_INT;
2036:Generated_Source\PSoC4/CyLib.c ****     }
2037:Generated_Source\PSoC4/CyLib.c **** 
2038:Generated_Source\PSoC4/CyLib.c **** #endif /* (CY_IP_SRSSV2) */
2039:Generated_Source\PSoC4/CyLib.c **** 
2040:Generated_Source\PSoC4/CyLib.c **** 
2041:Generated_Source\PSoC4/CyLib.c **** /*******************************************************************************
2042:Generated_Source\PSoC4/CyLib.c **** * Function Name: CySysGetResetReason
2043:Generated_Source\PSoC4/CyLib.c **** ****************************************************************************//**
2044:Generated_Source\PSoC4/CyLib.c **** *
2045:Generated_Source\PSoC4/CyLib.c **** *  Reports the cause for the latest reset(s) that occurred in the system. All
2046:Generated_Source\PSoC4/CyLib.c **** *  the bits in the RES_CAUSE register assert when the corresponding reset cause
2047:Generated_Source\PSoC4/CyLib.c **** *  occurs and must be cleared by the firmware. These bits are cleared by the
2048:Generated_Source\PSoC4/CyLib.c **** *  hardware only during XRES, POR, or a detected brown-out.
2049:Generated_Source\PSoC4/CyLib.c **** *
2050:Generated_Source\PSoC4/CyLib.c **** *  \param reason: bits in the RES_CAUSE register to clear.
2051:Generated_Source\PSoC4/CyLib.c **** *   CY_SYS_RESET_WDT       - WDT caused a reset
2052:Generated_Source\PSoC4/CyLib.c **** *   CY_SYS_RESET_PROTFAULT - Occured protection violation that requires reset
2053:Generated_Source\PSoC4/CyLib.c **** *   CY_SYS_RESET_SW        - Cortex-M0 requested a system reset.
2054:Generated_Source\PSoC4/CyLib.c **** *
2055:Generated_Source\PSoC4/CyLib.c **** * \return
2056:Generated_Source\PSoC4/CyLib.c **** *  Status. Same enumerated bit values as used for the reason parameter.
ARM GAS  C:\Users\CHRIST~1\AppData\Local\Temp\cc4LKu7J.s 			page 52


2057:Generated_Source\PSoC4/CyLib.c **** *
2058:Generated_Source\PSoC4/CyLib.c **** *******************************************************************************/
2059:Generated_Source\PSoC4/CyLib.c **** uint32 CySysGetResetReason(uint32 reason)
2060:Generated_Source\PSoC4/CyLib.c **** {
 838              		.loc 1 2060 0
 839              		.cfi_startproc
 840 0000 80B5     		push	{r7, lr}
 841              		.cfi_def_cfa_offset 8
 842              		.cfi_offset 7, -8
 843              		.cfi_offset 14, -4
 844 0002 84B0     		sub	sp, sp, #16
 845              		.cfi_def_cfa_offset 24
 846 0004 00AF     		add	r7, sp, #0
 847              		.cfi_def_cfa_register 7
 848 0006 7860     		str	r0, [r7, #4]
2061:Generated_Source\PSoC4/CyLib.c ****     uint32 returnStatus;
2062:Generated_Source\PSoC4/CyLib.c **** 
2063:Generated_Source\PSoC4/CyLib.c ****     reason &= (CY_SYS_RESET_WDT | CY_SYS_RESET_PROTFAULT | CY_SYS_RESET_SW);
 849              		.loc 1 2063 0
 850 0008 7B68     		ldr	r3, [r7, #4]
 851 000a 1922     		mov	r2, #25
 852 000c 1340     		and	r3, r2
 853 000e 7B60     		str	r3, [r7, #4]
2064:Generated_Source\PSoC4/CyLib.c ****     returnStatus = CY_SYS_RES_CAUSE_REG &
 854              		.loc 1 2064 0
 855 0010 064B     		ldr	r3, .L47
 856 0012 1B68     		ldr	r3, [r3]
 857 0014 1922     		mov	r2, #25
 858 0016 1340     		and	r3, r2
 859 0018 FB60     		str	r3, [r7, #12]
2065:Generated_Source\PSoC4/CyLib.c ****                   (CY_SYS_RESET_WDT | CY_SYS_RESET_PROTFAULT | CY_SYS_RESET_SW);
2066:Generated_Source\PSoC4/CyLib.c ****     CY_SYS_RES_CAUSE_REG = reason;
 860              		.loc 1 2066 0
 861 001a 044B     		ldr	r3, .L47
 862 001c 7A68     		ldr	r2, [r7, #4]
 863 001e 1A60     		str	r2, [r3]
2067:Generated_Source\PSoC4/CyLib.c **** 
2068:Generated_Source\PSoC4/CyLib.c ****     return (returnStatus);
 864              		.loc 1 2068 0
 865 0020 FB68     		ldr	r3, [r7, #12]
2069:Generated_Source\PSoC4/CyLib.c **** }
 866              		.loc 1 2069 0
 867 0022 181C     		mov	r0, r3
 868 0024 BD46     		mov	sp, r7
 869 0026 04B0     		add	sp, sp, #16
 870              		@ sp needed
 871 0028 80BD     		pop	{r7, pc}
 872              	.L48:
 873 002a C046     		.align	2
 874              	.L47:
 875 002c 54000340 		.word	1073938516
 876              		.cfi_endproc
 877              	.LFE11:
 878              		.size	CySysGetResetReason, .-CySysGetResetReason
 879              		.section	.text.CyDisableInts,"ax",%progbits
 880              		.align	2
 881              		.global	CyDisableInts
ARM GAS  C:\Users\CHRIST~1\AppData\Local\Temp\cc4LKu7J.s 			page 53


 882              		.code	16
 883              		.thumb_func
 884              		.type	CyDisableInts, %function
 885              	CyDisableInts:
 886              	.LFB12:
2070:Generated_Source\PSoC4/CyLib.c **** 
2071:Generated_Source\PSoC4/CyLib.c **** 
2072:Generated_Source\PSoC4/CyLib.c **** /*******************************************************************************
2073:Generated_Source\PSoC4/CyLib.c **** * Function Name: CyDisableInts
2074:Generated_Source\PSoC4/CyLib.c **** ****************************************************************************//**
2075:Generated_Source\PSoC4/CyLib.c **** *
2076:Generated_Source\PSoC4/CyLib.c **** *  Disables all interrupts.
2077:Generated_Source\PSoC4/CyLib.c **** *
2078:Generated_Source\PSoC4/CyLib.c **** * \return
2079:Generated_Source\PSoC4/CyLib.c **** *  32 bit mask of previously enabled interrupts.
2080:Generated_Source\PSoC4/CyLib.c **** *
2081:Generated_Source\PSoC4/CyLib.c **** *******************************************************************************/
2082:Generated_Source\PSoC4/CyLib.c **** uint32 CyDisableInts(void)
2083:Generated_Source\PSoC4/CyLib.c **** {
 887              		.loc 1 2083 0
 888              		.cfi_startproc
 889 0000 80B5     		push	{r7, lr}
 890              		.cfi_def_cfa_offset 8
 891              		.cfi_offset 7, -8
 892              		.cfi_offset 14, -4
 893 0002 82B0     		sub	sp, sp, #8
 894              		.cfi_def_cfa_offset 16
 895 0004 00AF     		add	r7, sp, #0
 896              		.cfi_def_cfa_register 7
2084:Generated_Source\PSoC4/CyLib.c ****     uint32 intState;
2085:Generated_Source\PSoC4/CyLib.c **** 
2086:Generated_Source\PSoC4/CyLib.c ****     /* Get current interrupt state. */
2087:Generated_Source\PSoC4/CyLib.c ****     intState = CY_INT_CLEAR_REG;
 897              		.loc 1 2087 0
 898 0006 064B     		ldr	r3, .L51
 899 0008 1B68     		ldr	r3, [r3]
 900 000a 7B60     		str	r3, [r7, #4]
2088:Generated_Source\PSoC4/CyLib.c **** 
2089:Generated_Source\PSoC4/CyLib.c ****     /* Disable all interrupts. */
2090:Generated_Source\PSoC4/CyLib.c ****     CY_INT_CLEAR_REG = CY_INT_CLEAR_DISABLE_ALL;
 901              		.loc 1 2090 0
 902 000c 044B     		ldr	r3, .L51
 903 000e 0122     		mov	r2, #1
 904 0010 5242     		neg	r2, r2
 905 0012 1A60     		str	r2, [r3]
2091:Generated_Source\PSoC4/CyLib.c **** 
2092:Generated_Source\PSoC4/CyLib.c ****     return (intState);
 906              		.loc 1 2092 0
 907 0014 7B68     		ldr	r3, [r7, #4]
2093:Generated_Source\PSoC4/CyLib.c **** }
 908              		.loc 1 2093 0
 909 0016 181C     		mov	r0, r3
 910 0018 BD46     		mov	sp, r7
 911 001a 02B0     		add	sp, sp, #8
 912              		@ sp needed
 913 001c 80BD     		pop	{r7, pc}
 914              	.L52:
ARM GAS  C:\Users\CHRIST~1\AppData\Local\Temp\cc4LKu7J.s 			page 54


 915 001e C046     		.align	2
 916              	.L51:
 917 0020 80E100E0 		.word	-536813184
 918              		.cfi_endproc
 919              	.LFE12:
 920              		.size	CyDisableInts, .-CyDisableInts
 921              		.section	.text.CyEnableInts,"ax",%progbits
 922              		.align	2
 923              		.global	CyEnableInts
 924              		.code	16
 925              		.thumb_func
 926              		.type	CyEnableInts, %function
 927              	CyEnableInts:
 928              	.LFB13:
2094:Generated_Source\PSoC4/CyLib.c **** 
2095:Generated_Source\PSoC4/CyLib.c **** 
2096:Generated_Source\PSoC4/CyLib.c **** /*******************************************************************************
2097:Generated_Source\PSoC4/CyLib.c **** * Function Name: CyEnableInts
2098:Generated_Source\PSoC4/CyLib.c **** ****************************************************************************//**
2099:Generated_Source\PSoC4/CyLib.c **** *
2100:Generated_Source\PSoC4/CyLib.c **** *  Enables interrupts to a given state.
2101:Generated_Source\PSoC4/CyLib.c **** *
2102:Generated_Source\PSoC4/CyLib.c **** *  \param mask The 32 bit mask of interrupts to enable.
2103:Generated_Source\PSoC4/CyLib.c **** *
2104:Generated_Source\PSoC4/CyLib.c **** *******************************************************************************/
2105:Generated_Source\PSoC4/CyLib.c **** void CyEnableInts(uint32 mask)
2106:Generated_Source\PSoC4/CyLib.c **** {
 929              		.loc 1 2106 0
 930              		.cfi_startproc
 931 0000 80B5     		push	{r7, lr}
 932              		.cfi_def_cfa_offset 8
 933              		.cfi_offset 7, -8
 934              		.cfi_offset 14, -4
 935 0002 82B0     		sub	sp, sp, #8
 936              		.cfi_def_cfa_offset 16
 937 0004 00AF     		add	r7, sp, #0
 938              		.cfi_def_cfa_register 7
 939 0006 7860     		str	r0, [r7, #4]
2107:Generated_Source\PSoC4/CyLib.c ****     CY_INT_ENABLE_REG = mask;
 940              		.loc 1 2107 0
 941 0008 024B     		ldr	r3, .L54
 942 000a 7A68     		ldr	r2, [r7, #4]
 943 000c 1A60     		str	r2, [r3]
2108:Generated_Source\PSoC4/CyLib.c **** }
 944              		.loc 1 2108 0
 945 000e BD46     		mov	sp, r7
 946 0010 02B0     		add	sp, sp, #8
 947              		@ sp needed
 948 0012 80BD     		pop	{r7, pc}
 949              	.L55:
 950              		.align	2
 951              	.L54:
 952 0014 00E100E0 		.word	-536813312
 953              		.cfi_endproc
 954              	.LFE13:
 955              		.size	CyEnableInts, .-CyEnableInts
 956              		.section	.text.CyIntSetSysVector,"ax",%progbits
ARM GAS  C:\Users\CHRIST~1\AppData\Local\Temp\cc4LKu7J.s 			page 55


 957              		.align	2
 958              		.global	CyIntSetSysVector
 959              		.code	16
 960              		.thumb_func
 961              		.type	CyIntSetSysVector, %function
 962              	CyIntSetSysVector:
 963              	.LFB14:
2109:Generated_Source\PSoC4/CyLib.c **** 
2110:Generated_Source\PSoC4/CyLib.c **** 
2111:Generated_Source\PSoC4/CyLib.c **** /*******************************************************************************
2112:Generated_Source\PSoC4/CyLib.c **** * Function Name: CyIntSetSysVector
2113:Generated_Source\PSoC4/CyLib.c **** ****************************************************************************//**
2114:Generated_Source\PSoC4/CyLib.c **** *
2115:Generated_Source\PSoC4/CyLib.c **** *  Sets the interrupt vector of the specified system interrupt number. These
2116:Generated_Source\PSoC4/CyLib.c **** *  interrupts are for SysTick, PendSV and others.
2117:Generated_Source\PSoC4/CyLib.c **** *
2118:Generated_Source\PSoC4/CyLib.c **** *  \param number: System interrupt number:
2119:Generated_Source\PSoC4/CyLib.c **** *    CY_INT_NMI_IRQN        - Non Maskable Interrupt
2120:Generated_Source\PSoC4/CyLib.c **** *    CY_INT_HARD_FAULT_IRQN - Hard Fault Interrupt
2121:Generated_Source\PSoC4/CyLib.c **** *    CY_INT_SVCALL_IRQN     - SV Call Interrupt
2122:Generated_Source\PSoC4/CyLib.c **** *    CY_INT_PEND_SV_IRQN    - Pend SV Interrupt
2123:Generated_Source\PSoC4/CyLib.c **** *    CY_INT_SYSTICK_IRQN    - System Tick Interrupt
2124:Generated_Source\PSoC4/CyLib.c **** *
2125:Generated_Source\PSoC4/CyLib.c **** *  \param address Pointer to an interrupt service routine.
2126:Generated_Source\PSoC4/CyLib.c **** *
2127:Generated_Source\PSoC4/CyLib.c **** * \return The old ISR vector at this location.
2128:Generated_Source\PSoC4/CyLib.c **** *
2129:Generated_Source\PSoC4/CyLib.c **** *******************************************************************************/
2130:Generated_Source\PSoC4/CyLib.c **** cyisraddress CyIntSetSysVector(uint8 number, cyisraddress address)
2131:Generated_Source\PSoC4/CyLib.c **** {
 964              		.loc 1 2131 0
 965              		.cfi_startproc
 966 0000 80B5     		push	{r7, lr}
 967              		.cfi_def_cfa_offset 8
 968              		.cfi_offset 7, -8
 969              		.cfi_offset 14, -4
 970 0002 84B0     		sub	sp, sp, #16
 971              		.cfi_def_cfa_offset 24
 972 0004 00AF     		add	r7, sp, #0
 973              		.cfi_def_cfa_register 7
 974 0006 021C     		mov	r2, r0
 975 0008 3960     		str	r1, [r7]
 976 000a FB1D     		add	r3, r7, #7
 977 000c 1A70     		strb	r2, [r3]
2132:Generated_Source\PSoC4/CyLib.c ****     cyisraddress oldIsr;
2133:Generated_Source\PSoC4/CyLib.c ****     cyisraddress *ramVectorTable = (cyisraddress *) CY_INT_VECT_TABLE;
 978              		.loc 1 2133 0
 979 000e 8023     		mov	r3, #128
 980 0010 9B05     		lsl	r3, r3, #22
 981 0012 FB60     		str	r3, [r7, #12]
2134:Generated_Source\PSoC4/CyLib.c **** 
2135:Generated_Source\PSoC4/CyLib.c ****     CYASSERT(number < CY_INT_IRQ_BASE);
 982              		.loc 1 2135 0
 983 0014 FB1D     		add	r3, r7, #7
 984 0016 1B78     		ldrb	r3, [r3]
 985 0018 0F2B     		cmp	r3, #15
 986 001a 02D9     		bls	.L57
ARM GAS  C:\Users\CHRIST~1\AppData\Local\Temp\cc4LKu7J.s 			page 56


 987              		.loc 1 2135 0 is_stmt 0 discriminator 1
 988 001c 0020     		mov	r0, #0
 989 001e FFF7FEFF 		bl	CyHalt
 990              	.L57:
2136:Generated_Source\PSoC4/CyLib.c **** 
2137:Generated_Source\PSoC4/CyLib.c ****     /* Save old Interrupt service routine. */
2138:Generated_Source\PSoC4/CyLib.c ****     oldIsr = ramVectorTable[number];
 991              		.loc 1 2138 0 is_stmt 1
 992 0022 FB1D     		add	r3, r7, #7
 993 0024 1B78     		ldrb	r3, [r3]
 994 0026 9B00     		lsl	r3, r3, #2
 995 0028 FA68     		ldr	r2, [r7, #12]
 996 002a D318     		add	r3, r2, r3
 997 002c 1B68     		ldr	r3, [r3]
 998 002e BB60     		str	r3, [r7, #8]
2139:Generated_Source\PSoC4/CyLib.c **** 
2140:Generated_Source\PSoC4/CyLib.c ****     /* Set new Interrupt service routine. */
2141:Generated_Source\PSoC4/CyLib.c ****     ramVectorTable[number] = address;
 999              		.loc 1 2141 0
 1000 0030 FB1D     		add	r3, r7, #7
 1001 0032 1B78     		ldrb	r3, [r3]
 1002 0034 9B00     		lsl	r3, r3, #2
 1003 0036 FA68     		ldr	r2, [r7, #12]
 1004 0038 D318     		add	r3, r2, r3
 1005 003a 3A68     		ldr	r2, [r7]
 1006 003c 1A60     		str	r2, [r3]
2142:Generated_Source\PSoC4/CyLib.c **** 
2143:Generated_Source\PSoC4/CyLib.c ****     return(oldIsr);
 1007              		.loc 1 2143 0
 1008 003e BB68     		ldr	r3, [r7, #8]
2144:Generated_Source\PSoC4/CyLib.c **** }
 1009              		.loc 1 2144 0
 1010 0040 181C     		mov	r0, r3
 1011 0042 BD46     		mov	sp, r7
 1012 0044 04B0     		add	sp, sp, #16
 1013              		@ sp needed
 1014 0046 80BD     		pop	{r7, pc}
 1015              		.cfi_endproc
 1016              	.LFE14:
 1017              		.size	CyIntSetSysVector, .-CyIntSetSysVector
 1018              		.section	.text.CyIntGetSysVector,"ax",%progbits
 1019              		.align	2
 1020              		.global	CyIntGetSysVector
 1021              		.code	16
 1022              		.thumb_func
 1023              		.type	CyIntGetSysVector, %function
 1024              	CyIntGetSysVector:
 1025              	.LFB15:
2145:Generated_Source\PSoC4/CyLib.c **** 
2146:Generated_Source\PSoC4/CyLib.c **** 
2147:Generated_Source\PSoC4/CyLib.c **** /*******************************************************************************
2148:Generated_Source\PSoC4/CyLib.c **** * Function Name: CyIntGetSysVector
2149:Generated_Source\PSoC4/CyLib.c **** ****************************************************************************//**
2150:Generated_Source\PSoC4/CyLib.c **** *
2151:Generated_Source\PSoC4/CyLib.c **** *   Gets the interrupt vector of the specified system interrupt number. These
2152:Generated_Source\PSoC4/CyLib.c **** *   interrupts are for SysTick, PendSV and others.
2153:Generated_Source\PSoC4/CyLib.c **** *
ARM GAS  C:\Users\CHRIST~1\AppData\Local\Temp\cc4LKu7J.s 			page 57


2154:Generated_Source\PSoC4/CyLib.c **** *  \param number: System interrupt number:
2155:Generated_Source\PSoC4/CyLib.c **** *    CY_INT_NMI_IRQN        - Non Maskable Interrupt
2156:Generated_Source\PSoC4/CyLib.c **** *    CY_INT_HARD_FAULT_IRQN - Hard Fault Interrupt
2157:Generated_Source\PSoC4/CyLib.c **** *    CY_INT_SVCALL_IRQN     - SV Call Interrupt
2158:Generated_Source\PSoC4/CyLib.c **** *    CY_INT_PEND_SV_IRQN    - Pend SV Interrupt
2159:Generated_Source\PSoC4/CyLib.c **** *    CY_INT_SYSTICK_IRQN    - System Tick Interrupt
2160:Generated_Source\PSoC4/CyLib.c **** *
2161:Generated_Source\PSoC4/CyLib.c **** * \return Address of the ISR in the interrupt vector table.
2162:Generated_Source\PSoC4/CyLib.c **** *
2163:Generated_Source\PSoC4/CyLib.c **** *******************************************************************************/
2164:Generated_Source\PSoC4/CyLib.c **** cyisraddress CyIntGetSysVector(uint8 number)
2165:Generated_Source\PSoC4/CyLib.c **** {
 1026              		.loc 1 2165 0
 1027              		.cfi_startproc
 1028 0000 80B5     		push	{r7, lr}
 1029              		.cfi_def_cfa_offset 8
 1030              		.cfi_offset 7, -8
 1031              		.cfi_offset 14, -4
 1032 0002 84B0     		sub	sp, sp, #16
 1033              		.cfi_def_cfa_offset 24
 1034 0004 00AF     		add	r7, sp, #0
 1035              		.cfi_def_cfa_register 7
 1036 0006 021C     		mov	r2, r0
 1037 0008 FB1D     		add	r3, r7, #7
 1038 000a 1A70     		strb	r2, [r3]
2166:Generated_Source\PSoC4/CyLib.c ****     cyisraddress *ramVectorTable = (cyisraddress *) CY_INT_VECT_TABLE;
 1039              		.loc 1 2166 0
 1040 000c 8023     		mov	r3, #128
 1041 000e 9B05     		lsl	r3, r3, #22
 1042 0010 FB60     		str	r3, [r7, #12]
2167:Generated_Source\PSoC4/CyLib.c **** 
2168:Generated_Source\PSoC4/CyLib.c ****     CYASSERT(number < CY_INT_IRQ_BASE);
 1043              		.loc 1 2168 0
 1044 0012 FB1D     		add	r3, r7, #7
 1045 0014 1B78     		ldrb	r3, [r3]
 1046 0016 0F2B     		cmp	r3, #15
 1047 0018 02D9     		bls	.L60
 1048              		.loc 1 2168 0 is_stmt 0 discriminator 1
 1049 001a 0020     		mov	r0, #0
 1050 001c FFF7FEFF 		bl	CyHalt
 1051              	.L60:
2169:Generated_Source\PSoC4/CyLib.c **** 
2170:Generated_Source\PSoC4/CyLib.c ****     return(ramVectorTable[number]);
 1052              		.loc 1 2170 0 is_stmt 1
 1053 0020 FB1D     		add	r3, r7, #7
 1054 0022 1B78     		ldrb	r3, [r3]
 1055 0024 9B00     		lsl	r3, r3, #2
 1056 0026 FA68     		ldr	r2, [r7, #12]
 1057 0028 D318     		add	r3, r2, r3
 1058 002a 1B68     		ldr	r3, [r3]
2171:Generated_Source\PSoC4/CyLib.c **** }
 1059              		.loc 1 2171 0
 1060 002c 181C     		mov	r0, r3
 1061 002e BD46     		mov	sp, r7
 1062 0030 04B0     		add	sp, sp, #16
 1063              		@ sp needed
 1064 0032 80BD     		pop	{r7, pc}
ARM GAS  C:\Users\CHRIST~1\AppData\Local\Temp\cc4LKu7J.s 			page 58


 1065              		.cfi_endproc
 1066              	.LFE15:
 1067              		.size	CyIntGetSysVector, .-CyIntGetSysVector
 1068              		.section	.text.CyIntSetVector,"ax",%progbits
 1069              		.align	2
 1070              		.global	CyIntSetVector
 1071              		.code	16
 1072              		.thumb_func
 1073              		.type	CyIntSetVector, %function
 1074              	CyIntSetVector:
 1075              	.LFB16:
2172:Generated_Source\PSoC4/CyLib.c **** 
2173:Generated_Source\PSoC4/CyLib.c **** 
2174:Generated_Source\PSoC4/CyLib.c **** /*******************************************************************************
2175:Generated_Source\PSoC4/CyLib.c **** * Function Name: CyIntSetVector
2176:Generated_Source\PSoC4/CyLib.c **** ****************************************************************************//**
2177:Generated_Source\PSoC4/CyLib.c **** *
2178:Generated_Source\PSoC4/CyLib.c **** *  Sets the interrupt vector of the specified interrupt number.
2179:Generated_Source\PSoC4/CyLib.c **** *
2180:Generated_Source\PSoC4/CyLib.c **** *  \param number Valid range [0-31].  Interrupt number
2181:Generated_Source\PSoC4/CyLib.c **** *  \param address Pointer to an interrupt service routine
2182:Generated_Source\PSoC4/CyLib.c **** *
2183:Generated_Source\PSoC4/CyLib.c **** * \return Previous interrupt vector value.
2184:Generated_Source\PSoC4/CyLib.c **** *
2185:Generated_Source\PSoC4/CyLib.c **** *******************************************************************************/
2186:Generated_Source\PSoC4/CyLib.c **** cyisraddress CyIntSetVector(uint8 number, cyisraddress address)
2187:Generated_Source\PSoC4/CyLib.c **** {
 1076              		.loc 1 2187 0
 1077              		.cfi_startproc
 1078 0000 80B5     		push	{r7, lr}
 1079              		.cfi_def_cfa_offset 8
 1080              		.cfi_offset 7, -8
 1081              		.cfi_offset 14, -4
 1082 0002 84B0     		sub	sp, sp, #16
 1083              		.cfi_def_cfa_offset 24
 1084 0004 00AF     		add	r7, sp, #0
 1085              		.cfi_def_cfa_register 7
 1086 0006 021C     		mov	r2, r0
 1087 0008 3960     		str	r1, [r7]
 1088 000a FB1D     		add	r3, r7, #7
 1089 000c 1A70     		strb	r2, [r3]
2188:Generated_Source\PSoC4/CyLib.c ****     cyisraddress oldIsr;
2189:Generated_Source\PSoC4/CyLib.c ****     cyisraddress *ramVectorTable = (cyisraddress *) CY_INT_VECT_TABLE;
 1090              		.loc 1 2189 0
 1091 000e 8023     		mov	r3, #128
 1092 0010 9B05     		lsl	r3, r3, #22
 1093 0012 FB60     		str	r3, [r7, #12]
2190:Generated_Source\PSoC4/CyLib.c **** 
2191:Generated_Source\PSoC4/CyLib.c ****     CYASSERT(number < CY_NUM_INTERRUPTS);
 1094              		.loc 1 2191 0
 1095 0014 FB1D     		add	r3, r7, #7
 1096 0016 1B78     		ldrb	r3, [r3]
 1097 0018 182B     		cmp	r3, #24
 1098 001a 02D9     		bls	.L63
 1099              		.loc 1 2191 0 is_stmt 0 discriminator 1
 1100 001c 0020     		mov	r0, #0
 1101 001e FFF7FEFF 		bl	CyHalt
ARM GAS  C:\Users\CHRIST~1\AppData\Local\Temp\cc4LKu7J.s 			page 59


 1102              	.L63:
2192:Generated_Source\PSoC4/CyLib.c **** 
2193:Generated_Source\PSoC4/CyLib.c ****     /* Save old Interrupt service routine. */
2194:Generated_Source\PSoC4/CyLib.c ****     oldIsr = ramVectorTable[CY_INT_IRQ_BASE + number];
 1103              		.loc 1 2194 0 is_stmt 1
 1104 0022 FB1D     		add	r3, r7, #7
 1105 0024 1B78     		ldrb	r3, [r3]
 1106 0026 1033     		add	r3, r3, #16
 1107 0028 9B00     		lsl	r3, r3, #2
 1108 002a FA68     		ldr	r2, [r7, #12]
 1109 002c D318     		add	r3, r2, r3
 1110 002e 1B68     		ldr	r3, [r3]
 1111 0030 BB60     		str	r3, [r7, #8]
2195:Generated_Source\PSoC4/CyLib.c **** 
2196:Generated_Source\PSoC4/CyLib.c ****     /* Set new Interrupt service routine. */
2197:Generated_Source\PSoC4/CyLib.c ****     ramVectorTable[CY_INT_IRQ_BASE + number] = address;
 1112              		.loc 1 2197 0
 1113 0032 FB1D     		add	r3, r7, #7
 1114 0034 1B78     		ldrb	r3, [r3]
 1115 0036 1033     		add	r3, r3, #16
 1116 0038 9B00     		lsl	r3, r3, #2
 1117 003a FA68     		ldr	r2, [r7, #12]
 1118 003c D318     		add	r3, r2, r3
 1119 003e 3A68     		ldr	r2, [r7]
 1120 0040 1A60     		str	r2, [r3]
2198:Generated_Source\PSoC4/CyLib.c **** 
2199:Generated_Source\PSoC4/CyLib.c ****     return(oldIsr);
 1121              		.loc 1 2199 0
 1122 0042 BB68     		ldr	r3, [r7, #8]
2200:Generated_Source\PSoC4/CyLib.c **** }
 1123              		.loc 1 2200 0
 1124 0044 181C     		mov	r0, r3
 1125 0046 BD46     		mov	sp, r7
 1126 0048 04B0     		add	sp, sp, #16
 1127              		@ sp needed
 1128 004a 80BD     		pop	{r7, pc}
 1129              		.cfi_endproc
 1130              	.LFE16:
 1131              		.size	CyIntSetVector, .-CyIntSetVector
 1132              		.section	.text.CyIntGetVector,"ax",%progbits
 1133              		.align	2
 1134              		.global	CyIntGetVector
 1135              		.code	16
 1136              		.thumb_func
 1137              		.type	CyIntGetVector, %function
 1138              	CyIntGetVector:
 1139              	.LFB17:
2201:Generated_Source\PSoC4/CyLib.c **** 
2202:Generated_Source\PSoC4/CyLib.c **** 
2203:Generated_Source\PSoC4/CyLib.c **** /*******************************************************************************
2204:Generated_Source\PSoC4/CyLib.c **** * Function Name: CyIntGetVector
2205:Generated_Source\PSoC4/CyLib.c **** ****************************************************************************//**
2206:Generated_Source\PSoC4/CyLib.c **** *
2207:Generated_Source\PSoC4/CyLib.c **** *  Gets the interrupt vector of the specified interrupt number.
2208:Generated_Source\PSoC4/CyLib.c **** *
2209:Generated_Source\PSoC4/CyLib.c **** *  \param number: Valid range [0-31].  Interrupt number
2210:Generated_Source\PSoC4/CyLib.c **** *
ARM GAS  C:\Users\CHRIST~1\AppData\Local\Temp\cc4LKu7J.s 			page 60


2211:Generated_Source\PSoC4/CyLib.c **** * \return Address of the ISR in the interrupt vector table.
2212:Generated_Source\PSoC4/CyLib.c **** *
2213:Generated_Source\PSoC4/CyLib.c **** *******************************************************************************/
2214:Generated_Source\PSoC4/CyLib.c **** cyisraddress CyIntGetVector(uint8 number)
2215:Generated_Source\PSoC4/CyLib.c **** {
 1140              		.loc 1 2215 0
 1141              		.cfi_startproc
 1142 0000 80B5     		push	{r7, lr}
 1143              		.cfi_def_cfa_offset 8
 1144              		.cfi_offset 7, -8
 1145              		.cfi_offset 14, -4
 1146 0002 84B0     		sub	sp, sp, #16
 1147              		.cfi_def_cfa_offset 24
 1148 0004 00AF     		add	r7, sp, #0
 1149              		.cfi_def_cfa_register 7
 1150 0006 021C     		mov	r2, r0
 1151 0008 FB1D     		add	r3, r7, #7
 1152 000a 1A70     		strb	r2, [r3]
2216:Generated_Source\PSoC4/CyLib.c ****     cyisraddress *ramVectorTable = (cyisraddress *) CY_INT_VECT_TABLE;
 1153              		.loc 1 2216 0
 1154 000c 8023     		mov	r3, #128
 1155 000e 9B05     		lsl	r3, r3, #22
 1156 0010 FB60     		str	r3, [r7, #12]
2217:Generated_Source\PSoC4/CyLib.c **** 
2218:Generated_Source\PSoC4/CyLib.c ****     CYASSERT(number < CY_NUM_INTERRUPTS);
 1157              		.loc 1 2218 0
 1158 0012 FB1D     		add	r3, r7, #7
 1159 0014 1B78     		ldrb	r3, [r3]
 1160 0016 182B     		cmp	r3, #24
 1161 0018 02D9     		bls	.L66
 1162              		.loc 1 2218 0 is_stmt 0 discriminator 1
 1163 001a 0020     		mov	r0, #0
 1164 001c FFF7FEFF 		bl	CyHalt
 1165              	.L66:
2219:Generated_Source\PSoC4/CyLib.c **** 
2220:Generated_Source\PSoC4/CyLib.c ****     return (ramVectorTable[CY_INT_IRQ_BASE + number]);
 1166              		.loc 1 2220 0 is_stmt 1
 1167 0020 FB1D     		add	r3, r7, #7
 1168 0022 1B78     		ldrb	r3, [r3]
 1169 0024 1033     		add	r3, r3, #16
 1170 0026 9B00     		lsl	r3, r3, #2
 1171 0028 FA68     		ldr	r2, [r7, #12]
 1172 002a D318     		add	r3, r2, r3
 1173 002c 1B68     		ldr	r3, [r3]
2221:Generated_Source\PSoC4/CyLib.c **** }
 1174              		.loc 1 2221 0
 1175 002e 181C     		mov	r0, r3
 1176 0030 BD46     		mov	sp, r7
 1177 0032 04B0     		add	sp, sp, #16
 1178              		@ sp needed
 1179 0034 80BD     		pop	{r7, pc}
 1180              		.cfi_endproc
 1181              	.LFE17:
 1182              		.size	CyIntGetVector, .-CyIntGetVector
 1183              		.section	.text.CyIntSetPriority,"ax",%progbits
 1184              		.align	2
 1185              		.global	CyIntSetPriority
ARM GAS  C:\Users\CHRIST~1\AppData\Local\Temp\cc4LKu7J.s 			page 61


 1186              		.code	16
 1187              		.thumb_func
 1188              		.type	CyIntSetPriority, %function
 1189              	CyIntSetPriority:
 1190              	.LFB18:
2222:Generated_Source\PSoC4/CyLib.c **** 
2223:Generated_Source\PSoC4/CyLib.c **** /*******************************************************************************
2224:Generated_Source\PSoC4/CyLib.c **** * Function Name: CyIntSetPriority
2225:Generated_Source\PSoC4/CyLib.c **** ****************************************************************************//**
2226:Generated_Source\PSoC4/CyLib.c **** *
2227:Generated_Source\PSoC4/CyLib.c **** *  Sets the priority of the interrupt.
2228:Generated_Source\PSoC4/CyLib.c **** *
2229:Generated_Source\PSoC4/CyLib.c **** *  \param priority: Priority of the interrupt. 0 - 3, 0 being the highest.
2230:Generated_Source\PSoC4/CyLib.c **** *  \param number: The number of the interrupt, 0 - 31.
2231:Generated_Source\PSoC4/CyLib.c **** *
2232:Generated_Source\PSoC4/CyLib.c **** *******************************************************************************/
2233:Generated_Source\PSoC4/CyLib.c **** void CyIntSetPriority(uint8 number, uint8 priority)
2234:Generated_Source\PSoC4/CyLib.c **** {
 1191              		.loc 1 2234 0
 1192              		.cfi_startproc
 1193 0000 90B5     		push	{r4, r7, lr}
 1194              		.cfi_def_cfa_offset 12
 1195              		.cfi_offset 4, -12
 1196              		.cfi_offset 7, -8
 1197              		.cfi_offset 14, -4
 1198 0002 87B0     		sub	sp, sp, #28
 1199              		.cfi_def_cfa_offset 40
 1200 0004 00AF     		add	r7, sp, #0
 1201              		.cfi_def_cfa_register 7
 1202 0006 021C     		mov	r2, r0
 1203 0008 FB1D     		add	r3, r7, #7
 1204 000a 1A70     		strb	r2, [r3]
 1205 000c BB1D     		add	r3, r7, #6
 1206 000e 0A1C     		add	r2, r1, #0
 1207 0010 1A70     		strb	r2, [r3]
2235:Generated_Source\PSoC4/CyLib.c ****     uint8 interruptState;
2236:Generated_Source\PSoC4/CyLib.c ****     uint32 shift;
2237:Generated_Source\PSoC4/CyLib.c ****     uint32 value;
2238:Generated_Source\PSoC4/CyLib.c **** 
2239:Generated_Source\PSoC4/CyLib.c ****     CYASSERT(priority <= CY_MIN_PRIORITY);
 1208              		.loc 1 2239 0
 1209 0012 BB1D     		add	r3, r7, #6
 1210 0014 1B78     		ldrb	r3, [r3]
 1211 0016 032B     		cmp	r3, #3
 1212 0018 02D9     		bls	.L69
 1213              		.loc 1 2239 0 is_stmt 0 discriminator 1
 1214 001a 0020     		mov	r0, #0
 1215 001c FFF7FEFF 		bl	CyHalt
 1216              	.L69:
2240:Generated_Source\PSoC4/CyLib.c ****     CYASSERT(number < CY_NUM_INTERRUPTS);
 1217              		.loc 1 2240 0 is_stmt 1
 1218 0020 FB1D     		add	r3, r7, #7
 1219 0022 1B78     		ldrb	r3, [r3]
 1220 0024 182B     		cmp	r3, #24
 1221 0026 02D9     		bls	.L70
 1222              		.loc 1 2240 0 is_stmt 0 discriminator 1
 1223 0028 0020     		mov	r0, #0
ARM GAS  C:\Users\CHRIST~1\AppData\Local\Temp\cc4LKu7J.s 			page 62


 1224 002a FFF7FEFF 		bl	CyHalt
 1225              	.L70:
2241:Generated_Source\PSoC4/CyLib.c **** 
2242:Generated_Source\PSoC4/CyLib.c ****     shift = CY_INT_PRIORITY_SHIFT(number);
 1226              		.loc 1 2242 0 is_stmt 1
 1227 002e FB1D     		add	r3, r7, #7
 1228 0030 1B78     		ldrb	r3, [r3]
 1229 0032 0322     		mov	r2, #3
 1230 0034 1340     		and	r3, r2
 1231 0036 DB00     		lsl	r3, r3, #3
 1232 0038 0633     		add	r3, r3, #6
 1233 003a 7B61     		str	r3, [r7, #20]
2243:Generated_Source\PSoC4/CyLib.c **** 
2244:Generated_Source\PSoC4/CyLib.c ****     interruptState = CyEnterCriticalSection();
 1234              		.loc 1 2244 0
 1235 003c 1323     		mov	r3, #19
 1236 003e FC18     		add	r4, r7, r3
 1237 0040 FFF7FEFF 		bl	CyEnterCriticalSection
 1238 0044 031C     		mov	r3, r0
 1239 0046 2370     		strb	r3, [r4]
2245:Generated_Source\PSoC4/CyLib.c **** 
2246:Generated_Source\PSoC4/CyLib.c ****     value = CY_INT_PRIORITY_REG(number);
 1240              		.loc 1 2246 0
 1241 0048 FB1D     		add	r3, r7, #7
 1242 004a 1B78     		ldrb	r3, [r3]
 1243 004c 9B08     		lsr	r3, r3, #2
 1244 004e DBB2     		uxtb	r3, r3
 1245 0050 9B00     		lsl	r3, r3, #2
 1246 0052 144A     		ldr	r2, .L71
 1247 0054 9446     		mov	ip, r2
 1248 0056 6344     		add	r3, r3, ip
 1249 0058 1B68     		ldr	r3, [r3]
 1250 005a FB60     		str	r3, [r7, #12]
2247:Generated_Source\PSoC4/CyLib.c ****     value &= (uint32)(~((uint32)(CY_INT_PRIORITY_MASK << shift)));
 1251              		.loc 1 2247 0
 1252 005c 7B69     		ldr	r3, [r7, #20]
 1253 005e 0322     		mov	r2, #3
 1254 0060 9A40     		lsl	r2, r2, r3
 1255 0062 131C     		mov	r3, r2
 1256 0064 DA43     		mvn	r2, r3
 1257 0066 FB68     		ldr	r3, [r7, #12]
 1258 0068 1340     		and	r3, r2
 1259 006a FB60     		str	r3, [r7, #12]
2248:Generated_Source\PSoC4/CyLib.c ****     value |= ((uint32)priority << shift);
 1260              		.loc 1 2248 0
 1261 006c BB1D     		add	r3, r7, #6
 1262 006e 1A78     		ldrb	r2, [r3]
 1263 0070 7B69     		ldr	r3, [r7, #20]
 1264 0072 9A40     		lsl	r2, r2, r3
 1265 0074 131C     		mov	r3, r2
 1266 0076 FA68     		ldr	r2, [r7, #12]
 1267 0078 1343     		orr	r3, r2
 1268 007a FB60     		str	r3, [r7, #12]
2249:Generated_Source\PSoC4/CyLib.c ****     CY_INT_PRIORITY_REG(number) = value;
 1269              		.loc 1 2249 0
 1270 007c FB1D     		add	r3, r7, #7
 1271 007e 1B78     		ldrb	r3, [r3]
ARM GAS  C:\Users\CHRIST~1\AppData\Local\Temp\cc4LKu7J.s 			page 63


 1272 0080 9B08     		lsr	r3, r3, #2
 1273 0082 DBB2     		uxtb	r3, r3
 1274 0084 9B00     		lsl	r3, r3, #2
 1275 0086 074A     		ldr	r2, .L71
 1276 0088 9446     		mov	ip, r2
 1277 008a 6344     		add	r3, r3, ip
 1278 008c FA68     		ldr	r2, [r7, #12]
 1279 008e 1A60     		str	r2, [r3]
2250:Generated_Source\PSoC4/CyLib.c **** 
2251:Generated_Source\PSoC4/CyLib.c ****     CyExitCriticalSection(interruptState);
 1280              		.loc 1 2251 0
 1281 0090 1323     		mov	r3, #19
 1282 0092 FB18     		add	r3, r7, r3
 1283 0094 1B78     		ldrb	r3, [r3]
 1284 0096 181C     		mov	r0, r3
 1285 0098 FFF7FEFF 		bl	CyExitCriticalSection
2252:Generated_Source\PSoC4/CyLib.c **** }
 1286              		.loc 1 2252 0
 1287 009c BD46     		mov	sp, r7
 1288 009e 07B0     		add	sp, sp, #28
 1289              		@ sp needed
 1290 00a0 90BD     		pop	{r4, r7, pc}
 1291              	.L72:
 1292 00a2 C046     		.align	2
 1293              	.L71:
 1294 00a4 00E400E0 		.word	-536812544
 1295              		.cfi_endproc
 1296              	.LFE18:
 1297              		.size	CyIntSetPriority, .-CyIntSetPriority
 1298              		.section	.text.CyIntGetPriority,"ax",%progbits
 1299              		.align	2
 1300              		.global	CyIntGetPriority
 1301              		.code	16
 1302              		.thumb_func
 1303              		.type	CyIntGetPriority, %function
 1304              	CyIntGetPriority:
 1305              	.LFB19:
2253:Generated_Source\PSoC4/CyLib.c **** 
2254:Generated_Source\PSoC4/CyLib.c **** 
2255:Generated_Source\PSoC4/CyLib.c **** /*******************************************************************************
2256:Generated_Source\PSoC4/CyLib.c **** * Function Name: CyIntGetPriority
2257:Generated_Source\PSoC4/CyLib.c **** ****************************************************************************//**
2258:Generated_Source\PSoC4/CyLib.c **** *
2259:Generated_Source\PSoC4/CyLib.c **** *  Gets the priority of the interrupt.
2260:Generated_Source\PSoC4/CyLib.c **** *
2261:Generated_Source\PSoC4/CyLib.c **** *  \param number: The number of the interrupt, 0 - 31.
2262:Generated_Source\PSoC4/CyLib.c **** *
2263:Generated_Source\PSoC4/CyLib.c **** * \return
2264:Generated_Source\PSoC4/CyLib.c **** *  Priority of the interrupt. 0 - 3, 0 being the highest.
2265:Generated_Source\PSoC4/CyLib.c **** *
2266:Generated_Source\PSoC4/CyLib.c **** *******************************************************************************/
2267:Generated_Source\PSoC4/CyLib.c **** uint8 CyIntGetPriority(uint8 number)
2268:Generated_Source\PSoC4/CyLib.c **** {
 1306              		.loc 1 2268 0
 1307              		.cfi_startproc
 1308 0000 80B5     		push	{r7, lr}
 1309              		.cfi_def_cfa_offset 8
ARM GAS  C:\Users\CHRIST~1\AppData\Local\Temp\cc4LKu7J.s 			page 64


 1310              		.cfi_offset 7, -8
 1311              		.cfi_offset 14, -4
 1312 0002 84B0     		sub	sp, sp, #16
 1313              		.cfi_def_cfa_offset 24
 1314 0004 00AF     		add	r7, sp, #0
 1315              		.cfi_def_cfa_register 7
 1316 0006 021C     		mov	r2, r0
 1317 0008 FB1D     		add	r3, r7, #7
 1318 000a 1A70     		strb	r2, [r3]
2269:Generated_Source\PSoC4/CyLib.c ****     uint8 priority;
2270:Generated_Source\PSoC4/CyLib.c **** 
2271:Generated_Source\PSoC4/CyLib.c ****     CYASSERT(number < CY_NUM_INTERRUPTS);
 1319              		.loc 1 2271 0
 1320 000c FB1D     		add	r3, r7, #7
 1321 000e 1B78     		ldrb	r3, [r3]
 1322 0010 182B     		cmp	r3, #24
 1323 0012 02D9     		bls	.L74
 1324              		.loc 1 2271 0 is_stmt 0 discriminator 1
 1325 0014 0020     		mov	r0, #0
 1326 0016 FFF7FEFF 		bl	CyHalt
 1327              	.L74:
2272:Generated_Source\PSoC4/CyLib.c **** 
2273:Generated_Source\PSoC4/CyLib.c ****     priority = (uint8) (CY_INT_PRIORITY_REG(number) >> CY_INT_PRIORITY_SHIFT(number));
 1328              		.loc 1 2273 0 is_stmt 1
 1329 001a FB1D     		add	r3, r7, #7
 1330 001c 1B78     		ldrb	r3, [r3]
 1331 001e 9B08     		lsr	r3, r3, #2
 1332 0020 DBB2     		uxtb	r3, r3
 1333 0022 9B00     		lsl	r3, r3, #2
 1334 0024 0C4A     		ldr	r2, .L76
 1335 0026 9446     		mov	ip, r2
 1336 0028 6344     		add	r3, r3, ip
 1337 002a 1B68     		ldr	r3, [r3]
 1338 002c FA1D     		add	r2, r7, #7
 1339 002e 1278     		ldrb	r2, [r2]
 1340 0030 0321     		mov	r1, #3
 1341 0032 0A40     		and	r2, r1
 1342 0034 D200     		lsl	r2, r2, #3
 1343 0036 0632     		add	r2, r2, #6
 1344 0038 D340     		lsr	r3, r3, r2
 1345 003a 1A1C     		mov	r2, r3
 1346 003c 0F23     		mov	r3, #15
 1347 003e FB18     		add	r3, r7, r3
 1348 0040 1A70     		strb	r2, [r3]
2274:Generated_Source\PSoC4/CyLib.c **** 
2275:Generated_Source\PSoC4/CyLib.c ****     return (priority & (uint8) CY_INT_PRIORITY_MASK);
 1349              		.loc 1 2275 0
 1350 0042 0F23     		mov	r3, #15
 1351 0044 FB18     		add	r3, r7, r3
 1352 0046 1B78     		ldrb	r3, [r3]
 1353 0048 0322     		mov	r2, #3
 1354 004a 1340     		and	r3, r2
 1355 004c DBB2     		uxtb	r3, r3
2276:Generated_Source\PSoC4/CyLib.c **** }
 1356              		.loc 1 2276 0
 1357 004e 181C     		mov	r0, r3
 1358 0050 BD46     		mov	sp, r7
ARM GAS  C:\Users\CHRIST~1\AppData\Local\Temp\cc4LKu7J.s 			page 65


 1359 0052 04B0     		add	sp, sp, #16
 1360              		@ sp needed
 1361 0054 80BD     		pop	{r7, pc}
 1362              	.L77:
 1363 0056 C046     		.align	2
 1364              	.L76:
 1365 0058 00E400E0 		.word	-536812544
 1366              		.cfi_endproc
 1367              	.LFE19:
 1368              		.size	CyIntGetPriority, .-CyIntGetPriority
 1369              		.section	.text.CyIntEnable,"ax",%progbits
 1370              		.align	2
 1371              		.global	CyIntEnable
 1372              		.code	16
 1373              		.thumb_func
 1374              		.type	CyIntEnable, %function
 1375              	CyIntEnable:
 1376              	.LFB20:
2277:Generated_Source\PSoC4/CyLib.c **** 
2278:Generated_Source\PSoC4/CyLib.c **** 
2279:Generated_Source\PSoC4/CyLib.c **** /*******************************************************************************
2280:Generated_Source\PSoC4/CyLib.c **** * Function Name: CyIntEnable
2281:Generated_Source\PSoC4/CyLib.c **** ****************************************************************************//**
2282:Generated_Source\PSoC4/CyLib.c **** *
2283:Generated_Source\PSoC4/CyLib.c **** *  Enables the specified interrupt number.
2284:Generated_Source\PSoC4/CyLib.c **** *
2285:Generated_Source\PSoC4/CyLib.c **** *  \param number: Valid range [0-31].  Interrupt number
2286:Generated_Source\PSoC4/CyLib.c **** *
2287:Generated_Source\PSoC4/CyLib.c **** *******************************************************************************/
2288:Generated_Source\PSoC4/CyLib.c **** void CyIntEnable(uint8 number)
2289:Generated_Source\PSoC4/CyLib.c **** {
 1377              		.loc 1 2289 0
 1378              		.cfi_startproc
 1379 0000 80B5     		push	{r7, lr}
 1380              		.cfi_def_cfa_offset 8
 1381              		.cfi_offset 7, -8
 1382              		.cfi_offset 14, -4
 1383 0002 82B0     		sub	sp, sp, #8
 1384              		.cfi_def_cfa_offset 16
 1385 0004 00AF     		add	r7, sp, #0
 1386              		.cfi_def_cfa_register 7
 1387 0006 021C     		mov	r2, r0
 1388 0008 FB1D     		add	r3, r7, #7
 1389 000a 1A70     		strb	r2, [r3]
2290:Generated_Source\PSoC4/CyLib.c ****     CY_INT_ENABLE_REG = ((uint32) 0x01u << (CY_INT_ENABLE_RANGE_MASK & number));
 1390              		.loc 1 2290 0
 1391 000c 054B     		ldr	r3, .L79
 1392 000e FA1D     		add	r2, r7, #7
 1393 0010 1278     		ldrb	r2, [r2]
 1394 0012 1F21     		mov	r1, #31
 1395 0014 0A40     		and	r2, r1
 1396 0016 0121     		mov	r1, #1
 1397 0018 9140     		lsl	r1, r1, r2
 1398 001a 0A1C     		mov	r2, r1
 1399 001c 1A60     		str	r2, [r3]
2291:Generated_Source\PSoC4/CyLib.c **** }
 1400              		.loc 1 2291 0
ARM GAS  C:\Users\CHRIST~1\AppData\Local\Temp\cc4LKu7J.s 			page 66


 1401 001e BD46     		mov	sp, r7
 1402 0020 02B0     		add	sp, sp, #8
 1403              		@ sp needed
 1404 0022 80BD     		pop	{r7, pc}
 1405              	.L80:
 1406              		.align	2
 1407              	.L79:
 1408 0024 00E100E0 		.word	-536813312
 1409              		.cfi_endproc
 1410              	.LFE20:
 1411              		.size	CyIntEnable, .-CyIntEnable
 1412              		.section	.text.CyIntGetState,"ax",%progbits
 1413              		.align	2
 1414              		.global	CyIntGetState
 1415              		.code	16
 1416              		.thumb_func
 1417              		.type	CyIntGetState, %function
 1418              	CyIntGetState:
 1419              	.LFB21:
2292:Generated_Source\PSoC4/CyLib.c **** 
2293:Generated_Source\PSoC4/CyLib.c **** 
2294:Generated_Source\PSoC4/CyLib.c **** /*******************************************************************************
2295:Generated_Source\PSoC4/CyLib.c **** * Function Name: CyIntGetState
2296:Generated_Source\PSoC4/CyLib.c **** ****************************************************************************//**
2297:Generated_Source\PSoC4/CyLib.c **** *
2298:Generated_Source\PSoC4/CyLib.c **** *  Gets the enable state of the specified interrupt number.
2299:Generated_Source\PSoC4/CyLib.c **** *
2300:Generated_Source\PSoC4/CyLib.c **** *  \param number: Valid range [0-31].  Interrupt number.
2301:Generated_Source\PSoC4/CyLib.c **** *
2302:Generated_Source\PSoC4/CyLib.c **** * \return
2303:Generated_Source\PSoC4/CyLib.c **** *  Enable status: 1 if enabled, 0 if disabled
2304:Generated_Source\PSoC4/CyLib.c **** *
2305:Generated_Source\PSoC4/CyLib.c **** *******************************************************************************/
2306:Generated_Source\PSoC4/CyLib.c **** uint8 CyIntGetState(uint8 number)
2307:Generated_Source\PSoC4/CyLib.c **** {
 1420              		.loc 1 2307 0
 1421              		.cfi_startproc
 1422 0000 80B5     		push	{r7, lr}
 1423              		.cfi_def_cfa_offset 8
 1424              		.cfi_offset 7, -8
 1425              		.cfi_offset 14, -4
 1426 0002 82B0     		sub	sp, sp, #8
 1427              		.cfi_def_cfa_offset 16
 1428 0004 00AF     		add	r7, sp, #0
 1429              		.cfi_def_cfa_register 7
 1430 0006 021C     		mov	r2, r0
 1431 0008 FB1D     		add	r3, r7, #7
 1432 000a 1A70     		strb	r2, [r3]
2308:Generated_Source\PSoC4/CyLib.c ****     /* Get state of interrupt. */
2309:Generated_Source\PSoC4/CyLib.c ****     return ((0u != (CY_INT_ENABLE_REG & ((uint32) 0x01u << (CY_INT_ENABLE_RANGE_MASK & number)))) ?
 1433              		.loc 1 2309 0
 1434 000c 074B     		ldr	r3, .L83
 1435 000e 1A68     		ldr	r2, [r3]
 1436 0010 FB1D     		add	r3, r7, #7
 1437 0012 1B78     		ldrb	r3, [r3]
 1438 0014 1F21     		mov	r1, #31
 1439 0016 0B40     		and	r3, r1
ARM GAS  C:\Users\CHRIST~1\AppData\Local\Temp\cc4LKu7J.s 			page 67


 1440 0018 DA40     		lsr	r2, r2, r3
 1441 001a 131C     		mov	r3, r2
 1442 001c DBB2     		uxtb	r3, r3
 1443 001e 0122     		mov	r2, #1
 1444 0020 1340     		and	r3, r2
 1445 0022 DBB2     		uxtb	r3, r3
2310:Generated_Source\PSoC4/CyLib.c **** }
 1446              		.loc 1 2310 0
 1447 0024 181C     		mov	r0, r3
 1448 0026 BD46     		mov	sp, r7
 1449 0028 02B0     		add	sp, sp, #8
 1450              		@ sp needed
 1451 002a 80BD     		pop	{r7, pc}
 1452              	.L84:
 1453              		.align	2
 1454              	.L83:
 1455 002c 00E100E0 		.word	-536813312
 1456              		.cfi_endproc
 1457              	.LFE21:
 1458              		.size	CyIntGetState, .-CyIntGetState
 1459              		.section	.text.CyIntDisable,"ax",%progbits
 1460              		.align	2
 1461              		.global	CyIntDisable
 1462              		.code	16
 1463              		.thumb_func
 1464              		.type	CyIntDisable, %function
 1465              	CyIntDisable:
 1466              	.LFB22:
2311:Generated_Source\PSoC4/CyLib.c **** 
2312:Generated_Source\PSoC4/CyLib.c **** 
2313:Generated_Source\PSoC4/CyLib.c **** /*******************************************************************************
2314:Generated_Source\PSoC4/CyLib.c **** * Function Name: CyIntDisable
2315:Generated_Source\PSoC4/CyLib.c **** ****************************************************************************//**
2316:Generated_Source\PSoC4/CyLib.c **** *
2317:Generated_Source\PSoC4/CyLib.c **** *   Disables the specified interrupt number.
2318:Generated_Source\PSoC4/CyLib.c **** *
2319:Generated_Source\PSoC4/CyLib.c **** *   \param number: Valid range [0-31].  Interrupt number.
2320:Generated_Source\PSoC4/CyLib.c **** *
2321:Generated_Source\PSoC4/CyLib.c **** *******************************************************************************/
2322:Generated_Source\PSoC4/CyLib.c **** void CyIntDisable(uint8 number)
2323:Generated_Source\PSoC4/CyLib.c **** {
 1467              		.loc 1 2323 0
 1468              		.cfi_startproc
 1469 0000 80B5     		push	{r7, lr}
