ARM GAS  C:\Users\CHRIST~1\AppData\Local\Temp\ccCE9EGW.s 			page 1


   1              		.cpu cortex-m0plus
   2              		.fpu softvfp
   3              		.eabi_attribute 20, 1
   4              		.eabi_attribute 21, 1
   5              		.eabi_attribute 23, 3
   6              		.eabi_attribute 24, 1
   7              		.eabi_attribute 25, 1
   8              		.eabi_attribute 26, 1
   9              		.eabi_attribute 30, 6
  10              		.eabi_attribute 34, 0
  11              		.eabi_attribute 18, 4
  12              		.code	16
  13              		.file	"EzI2C_EZI2C.c"
  14              		.text
  15              	.Ltext0:
  16              		.cfi_sections	.debug_frame
  17              		.comm	EzI2C_curStatus,1,1
  18              		.comm	EzI2C_fsmState,1,1
  19              		.comm	EzI2C_dataBuffer1,4,4
  20              		.comm	EzI2C_bufSizeBuf1,2,2
  21              		.comm	EzI2C_protectBuf1,2,2
  22              		.comm	EzI2C_offsetBuf1,1,1
  23              		.comm	EzI2C_indexBuf1,2,2
  24              		.comm	EzI2C_addrBuf1,1,1
  25              		.comm	EzI2C_addrBuf2,1,1
  26              		.comm	EzI2C_dataBuffer2,4,4
  27              		.comm	EzI2C_bufSizeBuf2,2,2
  28              		.comm	EzI2C_protectBuf2,2,2
  29              		.comm	EzI2C_offsetBuf2,1,1
  30              		.comm	EzI2C_indexBuf2,2,2
  31              		.section	.text.EzI2C_EzI2CInit,"ax",%progbits
  32              		.align	2
  33              		.global	EzI2C_EzI2CInit
  34              		.code	16
  35              		.thumb_func
  36              		.type	EzI2C_EzI2CInit, %function
  37              	EzI2C_EzI2CInit:
  38              	.LFB1:
  39              		.file 1 "Generated_Source\\PSoC4\\EzI2C_EZI2C.c"
   1:Generated_Source\PSoC4/EzI2C_EZI2C.c **** /***************************************************************************//**
   2:Generated_Source\PSoC4/EzI2C_EZI2C.c **** * \file EzI2C_EZI2C.c
   3:Generated_Source\PSoC4/EzI2C_EZI2C.c **** * \version 3.20
   4:Generated_Source\PSoC4/EzI2C_EZI2C.c **** *
   5:Generated_Source\PSoC4/EzI2C_EZI2C.c **** * \brief
   6:Generated_Source\PSoC4/EzI2C_EZI2C.c **** *  This file provides the source code to the API for the SCB Component in
   7:Generated_Source\PSoC4/EzI2C_EZI2C.c **** *  EZI2C mode.
   8:Generated_Source\PSoC4/EzI2C_EZI2C.c **** *
   9:Generated_Source\PSoC4/EzI2C_EZI2C.c **** * Note:
  10:Generated_Source\PSoC4/EzI2C_EZI2C.c **** *
  11:Generated_Source\PSoC4/EzI2C_EZI2C.c **** *******************************************************************************
  12:Generated_Source\PSoC4/EzI2C_EZI2C.c **** * \copyright
  13:Generated_Source\PSoC4/EzI2C_EZI2C.c **** * Copyright 2013-2016, Cypress Semiconductor Corporation.  All rights reserved.
  14:Generated_Source\PSoC4/EzI2C_EZI2C.c **** * You may use this file only in accordance with the license, terms, conditions,
  15:Generated_Source\PSoC4/EzI2C_EZI2C.c **** * disclaimers, and limitations in the end user license agreement accompanying
  16:Generated_Source\PSoC4/EzI2C_EZI2C.c **** * the software package with which this file was provided.
  17:Generated_Source\PSoC4/EzI2C_EZI2C.c **** *******************************************************************************/
  18:Generated_Source\PSoC4/EzI2C_EZI2C.c **** 
ARM GAS  C:\Users\CHRIST~1\AppData\Local\Temp\ccCE9EGW.s 			page 2


  19:Generated_Source\PSoC4/EzI2C_EZI2C.c **** #include "EzI2C_PVT.h"
  20:Generated_Source\PSoC4/EzI2C_EZI2C.c **** #include "EzI2C_EZI2C_PVT.h"
  21:Generated_Source\PSoC4/EzI2C_EZI2C.c **** 
  22:Generated_Source\PSoC4/EzI2C_EZI2C.c **** 
  23:Generated_Source\PSoC4/EzI2C_EZI2C.c **** /***************************************
  24:Generated_Source\PSoC4/EzI2C_EZI2C.c **** *      EZI2C Private Vars
  25:Generated_Source\PSoC4/EzI2C_EZI2C.c **** ***************************************/
  26:Generated_Source\PSoC4/EzI2C_EZI2C.c **** 
  27:Generated_Source\PSoC4/EzI2C_EZI2C.c **** volatile uint8 EzI2C_curStatus; /* Status byte */
  28:Generated_Source\PSoC4/EzI2C_EZI2C.c **** uint8 EzI2C_fsmState;           /* FSM state   */
  29:Generated_Source\PSoC4/EzI2C_EZI2C.c **** 
  30:Generated_Source\PSoC4/EzI2C_EZI2C.c **** /* Variables intended to be used with Buffer 1: Primary slave address */
  31:Generated_Source\PSoC4/EzI2C_EZI2C.c **** volatile uint8 * EzI2C_dataBuffer1; /* Pointer to data buffer 1 */
  32:Generated_Source\PSoC4/EzI2C_EZI2C.c **** uint16 EzI2C_bufSizeBuf1;           /* Size of buffer 1 in bytes      */
  33:Generated_Source\PSoC4/EzI2C_EZI2C.c **** uint16 EzI2C_protectBuf1;           /* Start index of write protected area buffer 1 */
  34:Generated_Source\PSoC4/EzI2C_EZI2C.c **** uint8 EzI2C_offsetBuf1; /* Current offset within buffer 1 */
  35:Generated_Source\PSoC4/EzI2C_EZI2C.c **** uint16 EzI2C_indexBuf1;             /* Current index within buffer 1  */
  36:Generated_Source\PSoC4/EzI2C_EZI2C.c **** 
  37:Generated_Source\PSoC4/EzI2C_EZI2C.c **** #if(EzI2C_SECONDARY_ADDRESS_ENABLE_CONST)
  38:Generated_Source\PSoC4/EzI2C_EZI2C.c ****     uint8 EzI2C_addrBuf1; /* Primary slave address. Used for software comparison   */
  39:Generated_Source\PSoC4/EzI2C_EZI2C.c ****     uint8 EzI2C_addrBuf2; /* Secondary slave address. Used for software comparison */
  40:Generated_Source\PSoC4/EzI2C_EZI2C.c **** 
  41:Generated_Source\PSoC4/EzI2C_EZI2C.c ****     /* Variables intended to be used with Buffer 2: Primary slave address */
  42:Generated_Source\PSoC4/EzI2C_EZI2C.c ****     volatile uint8 * EzI2C_dataBuffer2; /* Pointer to data buffer 2 */
  43:Generated_Source\PSoC4/EzI2C_EZI2C.c ****     uint16 EzI2C_bufSizeBuf2;           /* Size of buffer 2 in bytes */
  44:Generated_Source\PSoC4/EzI2C_EZI2C.c ****     uint16 EzI2C_protectBuf2;           /* Start index of write protected area buffer 2 */
  45:Generated_Source\PSoC4/EzI2C_EZI2C.c ****     uint8 EzI2C_offsetBuf2; /* Current offset within buffer 2 */
  46:Generated_Source\PSoC4/EzI2C_EZI2C.c ****     uint16 EzI2C_indexBuf2;             /* Current index within buffer 2 */
  47:Generated_Source\PSoC4/EzI2C_EZI2C.c **** #endif /* (EzI2C_SECONDARY_ADDRESS_ENABLE_CONST) */
  48:Generated_Source\PSoC4/EzI2C_EZI2C.c **** 
  49:Generated_Source\PSoC4/EzI2C_EZI2C.c **** 
  50:Generated_Source\PSoC4/EzI2C_EZI2C.c **** /***************************************
  51:Generated_Source\PSoC4/EzI2C_EZI2C.c **** *      EZI2C Private Functions
  52:Generated_Source\PSoC4/EzI2C_EZI2C.c **** ***************************************/
  53:Generated_Source\PSoC4/EzI2C_EZI2C.c **** 
  54:Generated_Source\PSoC4/EzI2C_EZI2C.c **** #if(EzI2C_SECONDARY_ADDRESS_ENABLE_CONST)
  55:Generated_Source\PSoC4/EzI2C_EZI2C.c ****     static uint32 EzI2C_EzI2CUpdateRxMatchReg(uint32 addr1, uint32 addr2);
  56:Generated_Source\PSoC4/EzI2C_EZI2C.c **** #endif /* (EzI2C_SECONDARY_ADDRESS_ENABLE_CONST) */
  57:Generated_Source\PSoC4/EzI2C_EZI2C.c **** 
  58:Generated_Source\PSoC4/EzI2C_EZI2C.c **** #if(EzI2C_SCB_MODE_UNCONFIG_CONST_CFG)
  59:Generated_Source\PSoC4/EzI2C_EZI2C.c **** 
  60:Generated_Source\PSoC4/EzI2C_EZI2C.c ****     /***************************************
  61:Generated_Source\PSoC4/EzI2C_EZI2C.c ****     *  Configuration Structure Initialization
  62:Generated_Source\PSoC4/EzI2C_EZI2C.c ****     ***************************************/
  63:Generated_Source\PSoC4/EzI2C_EZI2C.c **** 
  64:Generated_Source\PSoC4/EzI2C_EZI2C.c ****     /* Constant configuration of EZI2C */
  65:Generated_Source\PSoC4/EzI2C_EZI2C.c ****     const EzI2C_EZI2C_INIT_STRUCT EzI2C_configEzI2C =
  66:Generated_Source\PSoC4/EzI2C_EZI2C.c ****     {
  67:Generated_Source\PSoC4/EzI2C_EZI2C.c ****         EzI2C_EZI2C_CLOCK_STRETCHING,
  68:Generated_Source\PSoC4/EzI2C_EZI2C.c ****         EzI2C_EZI2C_MEDIAN_FILTER_ENABLE,
  69:Generated_Source\PSoC4/EzI2C_EZI2C.c ****         EzI2C_EZI2C_NUMBER_OF_ADDRESSES,
  70:Generated_Source\PSoC4/EzI2C_EZI2C.c ****         EzI2C_EZI2C_PRIMARY_SLAVE_ADDRESS,
  71:Generated_Source\PSoC4/EzI2C_EZI2C.c ****         EzI2C_EZI2C_SECONDARY_SLAVE_ADDRESS,
  72:Generated_Source\PSoC4/EzI2C_EZI2C.c ****         EzI2C_EZI2C_SUB_ADDRESS_SIZE,
  73:Generated_Source\PSoC4/EzI2C_EZI2C.c ****         EzI2C_EZI2C_WAKE_ENABLE,
  74:Generated_Source\PSoC4/EzI2C_EZI2C.c ****         EzI2C_EZI2C_BYTE_MODE_ENABLE
  75:Generated_Source\PSoC4/EzI2C_EZI2C.c ****     };
ARM GAS  C:\Users\CHRIST~1\AppData\Local\Temp\ccCE9EGW.s 			page 3


  76:Generated_Source\PSoC4/EzI2C_EZI2C.c **** 
  77:Generated_Source\PSoC4/EzI2C_EZI2C.c ****     /*******************************************************************************
  78:Generated_Source\PSoC4/EzI2C_EZI2C.c ****     * Function Name: EzI2C_EzI2CInit
  79:Generated_Source\PSoC4/EzI2C_EZI2C.c ****     ****************************************************************************//**
  80:Generated_Source\PSoC4/EzI2C_EZI2C.c ****     *
  81:Generated_Source\PSoC4/EzI2C_EZI2C.c ****     *  Configures the EzI2C for EZI2C operation.
  82:Generated_Source\PSoC4/EzI2C_EZI2C.c ****     *
  83:Generated_Source\PSoC4/EzI2C_EZI2C.c ****     *  This function is intended specifically to be used when the EzI2C 
  84:Generated_Source\PSoC4/EzI2C_EZI2C.c ****     *  configuration is set to “Unconfigured EzI2C” in the customizer. 
  85:Generated_Source\PSoC4/EzI2C_EZI2C.c ****     *  After initializing the EzI2C in EZI2C mode using this function, 
  86:Generated_Source\PSoC4/EzI2C_EZI2C.c ****     *  the component can be enabled using the EzI2C_Start() or 
  87:Generated_Source\PSoC4/EzI2C_EZI2C.c ****     * EzI2C_Enable() function.
  88:Generated_Source\PSoC4/EzI2C_EZI2C.c ****     *  This function uses a pointer to a structure that provides the configuration 
  89:Generated_Source\PSoC4/EzI2C_EZI2C.c ****     *  settings. This structure contains the same information that would otherwise 
  90:Generated_Source\PSoC4/EzI2C_EZI2C.c ****     *  be provided by the customizer settings.
  91:Generated_Source\PSoC4/EzI2C_EZI2C.c ****     *
  92:Generated_Source\PSoC4/EzI2C_EZI2C.c ****     * \param config: pointer to a structure that contains the following list of 
  93:Generated_Source\PSoC4/EzI2C_EZI2C.c ****     *  fields. These fields match the selections available in the customizer. 
  94:Generated_Source\PSoC4/EzI2C_EZI2C.c ****     *  Refer to the customizer for further description of the settings.
  95:Generated_Source\PSoC4/EzI2C_EZI2C.c ****     *
  96:Generated_Source\PSoC4/EzI2C_EZI2C.c ****     *******************************************************************************/
  97:Generated_Source\PSoC4/EzI2C_EZI2C.c ****     void EzI2C_EzI2CInit(const EzI2C_EZI2C_INIT_STRUCT *config)
  98:Generated_Source\PSoC4/EzI2C_EZI2C.c ****     {
  99:Generated_Source\PSoC4/EzI2C_EZI2C.c ****         if(NULL == config)
 100:Generated_Source\PSoC4/EzI2C_EZI2C.c ****         {
 101:Generated_Source\PSoC4/EzI2C_EZI2C.c ****             CYASSERT(0u != 0u); /* Halt execution due to bad function parameter */
 102:Generated_Source\PSoC4/EzI2C_EZI2C.c ****         }
 103:Generated_Source\PSoC4/EzI2C_EZI2C.c ****         else
 104:Generated_Source\PSoC4/EzI2C_EZI2C.c ****         {
 105:Generated_Source\PSoC4/EzI2C_EZI2C.c ****             /* Configure pins */
 106:Generated_Source\PSoC4/EzI2C_EZI2C.c ****             EzI2C_SetPins(EzI2C_SCB_MODE_EZI2C, EzI2C_DUMMY_PARAM,
 107:Generated_Source\PSoC4/EzI2C_EZI2C.c ****                                                                       EzI2C_DUMMY_PARAM);
 108:Generated_Source\PSoC4/EzI2C_EZI2C.c **** 
 109:Generated_Source\PSoC4/EzI2C_EZI2C.c ****             /* Store internal configuration */
 110:Generated_Source\PSoC4/EzI2C_EZI2C.c ****             EzI2C_scbMode       = (uint8) EzI2C_SCB_MODE_EZI2C;
 111:Generated_Source\PSoC4/EzI2C_EZI2C.c ****             EzI2C_scbEnableWake = (uint8) config->enableWake;
 112:Generated_Source\PSoC4/EzI2C_EZI2C.c ****             EzI2C_scbEnableIntr = (uint8) EzI2C_SCB_IRQ_INTERNAL;
 113:Generated_Source\PSoC4/EzI2C_EZI2C.c **** 
 114:Generated_Source\PSoC4/EzI2C_EZI2C.c ****             EzI2C_numberOfAddr  = (uint8) config->numberOfAddresses;
 115:Generated_Source\PSoC4/EzI2C_EZI2C.c ****             EzI2C_subAddrSize   = (uint8) config->subAddrSize;
 116:Generated_Source\PSoC4/EzI2C_EZI2C.c **** 
 117:Generated_Source\PSoC4/EzI2C_EZI2C.c ****         #if (EzI2C_CY_SCBIP_V0)
 118:Generated_Source\PSoC4/EzI2C_EZI2C.c ****             /* Adjust SDA filter settings. Ticket ID#150521 */
 119:Generated_Source\PSoC4/EzI2C_EZI2C.c ****             EzI2C_SET_I2C_CFG_SDA_FILT_TRIM(EzI2C_EC_AM_I2C_CFG_SDA_FILT_TRIM);
 120:Generated_Source\PSoC4/EzI2C_EZI2C.c ****         #endif /* (EzI2C_CY_SCBIP_V0) */
 121:Generated_Source\PSoC4/EzI2C_EZI2C.c **** 
 122:Generated_Source\PSoC4/EzI2C_EZI2C.c ****             /* Adjust AF and DF filter settings, AF = 1, DF = 0. Ticket ID#176179 */
 123:Generated_Source\PSoC4/EzI2C_EZI2C.c ****             EzI2C_I2C_CFG_ANALOG_FITER_ENABLE;
 124:Generated_Source\PSoC4/EzI2C_EZI2C.c **** 
 125:Generated_Source\PSoC4/EzI2C_EZI2C.c ****             /* Configure I2C interface */
 126:Generated_Source\PSoC4/EzI2C_EZI2C.c ****             EzI2C_CTRL_REG     = EzI2C_GET_CTRL_BYTE_MODE  (config->enableByteMode)    |
 127:Generated_Source\PSoC4/EzI2C_EZI2C.c ****                                             EzI2C_GET_CTRL_ADDR_ACCEPT(config->numberOfAddresses) |
 128:Generated_Source\PSoC4/EzI2C_EZI2C.c ****                                             EzI2C_GET_CTRL_EC_AM_MODE (config->enableWake);
 129:Generated_Source\PSoC4/EzI2C_EZI2C.c **** 
 130:Generated_Source\PSoC4/EzI2C_EZI2C.c ****             EzI2C_I2C_CTRL_REG = EzI2C_EZI2C_CTRL;
 131:Generated_Source\PSoC4/EzI2C_EZI2C.c **** 
 132:Generated_Source\PSoC4/EzI2C_EZI2C.c ****             /* Configure RX direction */
ARM GAS  C:\Users\CHRIST~1\AppData\Local\Temp\ccCE9EGW.s 			page 4


 133:Generated_Source\PSoC4/EzI2C_EZI2C.c ****             EzI2C_RX_CTRL_REG = EzI2C_EZI2C_RX_CTRL |
 134:Generated_Source\PSoC4/EzI2C_EZI2C.c ****                                         EzI2C_GET_RX_CTRL_MEDIAN(EzI2C_DIGITAL_FILTER_DISABLE);
 135:Generated_Source\PSoC4/EzI2C_EZI2C.c ****                                                 ;
 136:Generated_Source\PSoC4/EzI2C_EZI2C.c ****             EzI2C_RX_FIFO_CTRL_REG = EzI2C_CLEAR_REG;
 137:Generated_Source\PSoC4/EzI2C_EZI2C.c **** 
 138:Generated_Source\PSoC4/EzI2C_EZI2C.c ****             /* Set default address and mask */
 139:Generated_Source\PSoC4/EzI2C_EZI2C.c ****             if(EzI2C_EZI2C_PRIMARY_ADDRESS == config->numberOfAddresses)
 140:Generated_Source\PSoC4/EzI2C_EZI2C.c ****             {
 141:Generated_Source\PSoC4/EzI2C_EZI2C.c ****                 EzI2C_RX_MATCH_REG = EzI2C_EzI2CUpdateRxMatchReg(config->primarySlaveAddr,
 142:Generated_Source\PSoC4/EzI2C_EZI2C.c ****                                                                                        config->prim
 143:Generated_Source\PSoC4/EzI2C_EZI2C.c ****             }
 144:Generated_Source\PSoC4/EzI2C_EZI2C.c ****             else
 145:Generated_Source\PSoC4/EzI2C_EZI2C.c ****             {
 146:Generated_Source\PSoC4/EzI2C_EZI2C.c ****                 EzI2C_RX_MATCH_REG = EzI2C_EzI2CUpdateRxMatchReg(config->primarySlaveAddr,
 147:Generated_Source\PSoC4/EzI2C_EZI2C.c ****                                                                                        config->seco
 148:Generated_Source\PSoC4/EzI2C_EZI2C.c ****             }
 149:Generated_Source\PSoC4/EzI2C_EZI2C.c **** 
 150:Generated_Source\PSoC4/EzI2C_EZI2C.c ****             /* Configure TX direction */
 151:Generated_Source\PSoC4/EzI2C_EZI2C.c ****             EzI2C_TX_CTRL_REG      = EzI2C_EZI2C_TX_CTRL;
 152:Generated_Source\PSoC4/EzI2C_EZI2C.c ****             EzI2C_TX_FIFO_CTRL_REG = ((0u != (config->enableClockStretch)) ?
 153:Generated_Source\PSoC4/EzI2C_EZI2C.c ****                                                  EzI2C_CLEAR_REG : EzI2C_EZI2C_TX_FIFO_CTRL);
 154:Generated_Source\PSoC4/EzI2C_EZI2C.c **** 
 155:Generated_Source\PSoC4/EzI2C_EZI2C.c ****             /* Configure interrupt sources */
 156:Generated_Source\PSoC4/EzI2C_EZI2C.c ****         #if (!EzI2C_CY_SCBIP_V1)
 157:Generated_Source\PSoC4/EzI2C_EZI2C.c ****            EzI2C_INTR_SPI_EC_MASK_REG = EzI2C_NO_INTR_SOURCES;
 158:Generated_Source\PSoC4/EzI2C_EZI2C.c ****         #endif /* (!EzI2C_CY_SCBIP_V1) */
 159:Generated_Source\PSoC4/EzI2C_EZI2C.c **** 
 160:Generated_Source\PSoC4/EzI2C_EZI2C.c ****             EzI2C_INTR_I2C_EC_MASK_REG = EzI2C_NO_INTR_SOURCES;
 161:Generated_Source\PSoC4/EzI2C_EZI2C.c ****             EzI2C_INTR_MASTER_MASK_REG = EzI2C_NO_INTR_SOURCES;
 162:Generated_Source\PSoC4/EzI2C_EZI2C.c ****             EzI2C_INTR_SLAVE_MASK_REG  = EzI2C_EZI2C_INTR_SLAVE_MASK;
 163:Generated_Source\PSoC4/EzI2C_EZI2C.c ****             EzI2C_INTR_TX_MASK_REG     = EzI2C_NO_INTR_SOURCES;
 164:Generated_Source\PSoC4/EzI2C_EZI2C.c **** 
 165:Generated_Source\PSoC4/EzI2C_EZI2C.c ****             /* Configure interrupt with EZI2C handler but do not enable it */
 166:Generated_Source\PSoC4/EzI2C_EZI2C.c ****             CyIntDisable    (EzI2C_ISR_NUMBER);
 167:Generated_Source\PSoC4/EzI2C_EZI2C.c ****             CyIntSetPriority(EzI2C_ISR_NUMBER, EzI2C_ISR_PRIORITY);
 168:Generated_Source\PSoC4/EzI2C_EZI2C.c ****             (void) CyIntSetVector(EzI2C_ISR_NUMBER, (0u != (config->enableClockStretch)) ?
 169:Generated_Source\PSoC4/EzI2C_EZI2C.c ****                                                                       (&EzI2C_EZI2C_STRETCH_ISR) :
 170:Generated_Source\PSoC4/EzI2C_EZI2C.c ****                                                                       (&EzI2C_EZI2C_NO_STRETCH_ISR)
 171:Generated_Source\PSoC4/EzI2C_EZI2C.c **** 
 172:Generated_Source\PSoC4/EzI2C_EZI2C.c ****             if(0u != (config->enableClockStretch))
 173:Generated_Source\PSoC4/EzI2C_EZI2C.c ****             {
 174:Generated_Source\PSoC4/EzI2C_EZI2C.c ****                 /* Configure interrupt sources */
 175:Generated_Source\PSoC4/EzI2C_EZI2C.c ****                 EzI2C_INTR_SLAVE_MASK_REG |= EzI2C_INTR_SLAVE_I2C_ADDR_MATCH;
 176:Generated_Source\PSoC4/EzI2C_EZI2C.c ****                 EzI2C_INTR_RX_MASK_REG     = EzI2C_NO_INTR_SOURCES;
 177:Generated_Source\PSoC4/EzI2C_EZI2C.c ****             }
 178:Generated_Source\PSoC4/EzI2C_EZI2C.c ****             else
 179:Generated_Source\PSoC4/EzI2C_EZI2C.c ****             {
 180:Generated_Source\PSoC4/EzI2C_EZI2C.c ****                 /* Enable Auto ACK/NACK features */
 181:Generated_Source\PSoC4/EzI2C_EZI2C.c ****                 EzI2C_I2C_CTRL_REG |= EzI2C_EZI2C_CTRL_AUTO;
 182:Generated_Source\PSoC4/EzI2C_EZI2C.c **** 
 183:Generated_Source\PSoC4/EzI2C_EZI2C.c ****                 /* Configure RX interrupt source */
 184:Generated_Source\PSoC4/EzI2C_EZI2C.c ****                 EzI2C_INTR_SLAVE_MASK_REG |= EzI2C_INTR_SLAVE_I2C_START;
 185:Generated_Source\PSoC4/EzI2C_EZI2C.c ****                 EzI2C_INTR_RX_MASK_REG     = EzI2C_INTR_RX_NOT_EMPTY;
 186:Generated_Source\PSoC4/EzI2C_EZI2C.c ****             }
 187:Generated_Source\PSoC4/EzI2C_EZI2C.c **** 
 188:Generated_Source\PSoC4/EzI2C_EZI2C.c ****             /* Configure global variables */
 189:Generated_Source\PSoC4/EzI2C_EZI2C.c ****             EzI2C_fsmState = EzI2C_EZI2C_FSM_IDLE;
ARM GAS  C:\Users\CHRIST~1\AppData\Local\Temp\ccCE9EGW.s 			page 5


 190:Generated_Source\PSoC4/EzI2C_EZI2C.c **** 
 191:Generated_Source\PSoC4/EzI2C_EZI2C.c ****             EzI2C_curStatus  = 0u;
 192:Generated_Source\PSoC4/EzI2C_EZI2C.c ****             EzI2C_indexBuf1  = 0u;
 193:Generated_Source\PSoC4/EzI2C_EZI2C.c ****             EzI2C_offsetBuf1 = 0u;
 194:Generated_Source\PSoC4/EzI2C_EZI2C.c ****             EzI2C_indexBuf2  = 0u;
 195:Generated_Source\PSoC4/EzI2C_EZI2C.c ****             EzI2C_offsetBuf2 = 0u;
 196:Generated_Source\PSoC4/EzI2C_EZI2C.c **** 
 197:Generated_Source\PSoC4/EzI2C_EZI2C.c ****             EzI2C_addrBuf1 = (uint8) config->primarySlaveAddr;
 198:Generated_Source\PSoC4/EzI2C_EZI2C.c ****             EzI2C_addrBuf2 = (uint8) config->secondarySlaveAddr;
 199:Generated_Source\PSoC4/EzI2C_EZI2C.c ****         }
 200:Generated_Source\PSoC4/EzI2C_EZI2C.c ****     }
 201:Generated_Source\PSoC4/EzI2C_EZI2C.c **** 
 202:Generated_Source\PSoC4/EzI2C_EZI2C.c **** #else
 203:Generated_Source\PSoC4/EzI2C_EZI2C.c **** 
 204:Generated_Source\PSoC4/EzI2C_EZI2C.c ****     /*******************************************************************************
 205:Generated_Source\PSoC4/EzI2C_EZI2C.c ****     * Function Name: EzI2C_EzI2CInit
 206:Generated_Source\PSoC4/EzI2C_EZI2C.c ****     ****************************************************************************//**
 207:Generated_Source\PSoC4/EzI2C_EZI2C.c ****     *
 208:Generated_Source\PSoC4/EzI2C_EZI2C.c ****     *  Configures the SCB for the EZI2C operation.
 209:Generated_Source\PSoC4/EzI2C_EZI2C.c ****     *
 210:Generated_Source\PSoC4/EzI2C_EZI2C.c ****     *******************************************************************************/
 211:Generated_Source\PSoC4/EzI2C_EZI2C.c ****     void EzI2C_EzI2CInit(void)
 212:Generated_Source\PSoC4/EzI2C_EZI2C.c ****     {
  40              		.loc 1 212 0
  41              		.cfi_startproc
  42 0000 80B5     		push	{r7, lr}
  43              		.cfi_def_cfa_offset 8
  44              		.cfi_offset 7, -8
  45              		.cfi_offset 14, -4
  46 0002 00AF     		add	r7, sp, #0
  47              		.cfi_def_cfa_register 7
 213:Generated_Source\PSoC4/EzI2C_EZI2C.c ****         /* Configure I2C interface */
 214:Generated_Source\PSoC4/EzI2C_EZI2C.c ****         EzI2C_CTRL_REG     = EzI2C_EZI2C_DEFAULT_CTRL;
  48              		.loc 1 214 0
  49 0004 274B     		ldr	r3, .L2
  50 0006 8022     		mov	r2, #128
  51 0008 5202     		lsl	r2, r2, #9
  52 000a 1A60     		str	r2, [r3]
 215:Generated_Source\PSoC4/EzI2C_EZI2C.c ****         EzI2C_I2C_CTRL_REG = EzI2C_EZI2C_DEFAULT_I2C_CTRL;
  53              		.loc 1 215 0
  54 000c 264B     		ldr	r3, .L2+4
  55 000e 274A     		ldr	r2, .L2+8
  56 0010 1A60     		str	r2, [r3]
 216:Generated_Source\PSoC4/EzI2C_EZI2C.c **** 
 217:Generated_Source\PSoC4/EzI2C_EZI2C.c ****     #if (EzI2C_CY_SCBIP_V0)
 218:Generated_Source\PSoC4/EzI2C_EZI2C.c ****         /* Adjust SDA filter settings. Ticket ID#150521 */
 219:Generated_Source\PSoC4/EzI2C_EZI2C.c ****         EzI2C_SET_I2C_CFG_SDA_FILT_TRIM(EzI2C_EC_AM_I2C_CFG_SDA_FILT_TRIM);
 220:Generated_Source\PSoC4/EzI2C_EZI2C.c ****     #endif /* (EzI2C_CY_SCBIP_V0) */
 221:Generated_Source\PSoC4/EzI2C_EZI2C.c **** 
 222:Generated_Source\PSoC4/EzI2C_EZI2C.c ****         /* Configure RX direction */
 223:Generated_Source\PSoC4/EzI2C_EZI2C.c ****         EzI2C_RX_CTRL_REG      = EzI2C_EZI2C_DEFAULT_RX_CTRL;
  57              		.loc 1 223 0
  58 0012 274B     		ldr	r3, .L2+12
  59 0014 274A     		ldr	r2, .L2+16
  60 0016 1A60     		str	r2, [r3]
 224:Generated_Source\PSoC4/EzI2C_EZI2C.c ****         EzI2C_RX_FIFO_CTRL_REG = EzI2C_EZI2C_DEFAULT_RX_FIFO_CTRL;
  61              		.loc 1 224 0
ARM GAS  C:\Users\CHRIST~1\AppData\Local\Temp\ccCE9EGW.s 			page 6


  62 0018 274B     		ldr	r3, .L2+20
  63 001a 0022     		mov	r2, #0
  64 001c 1A60     		str	r2, [r3]
 225:Generated_Source\PSoC4/EzI2C_EZI2C.c **** 
 226:Generated_Source\PSoC4/EzI2C_EZI2C.c ****         /* Set default address and mask */
 227:Generated_Source\PSoC4/EzI2C_EZI2C.c ****         EzI2C_RX_MATCH_REG     = EzI2C_EZI2C_DEFAULT_RX_MATCH;
  65              		.loc 1 227 0
  66 001e 274B     		ldr	r3, .L2+24
  67 0020 274A     		ldr	r2, .L2+28
  68 0022 1A60     		str	r2, [r3]
 228:Generated_Source\PSoC4/EzI2C_EZI2C.c **** 
 229:Generated_Source\PSoC4/EzI2C_EZI2C.c ****         /* Configure TX direction */
 230:Generated_Source\PSoC4/EzI2C_EZI2C.c ****         EzI2C_TX_CTRL_REG      = EzI2C_EZI2C_DEFAULT_TX_CTRL;
  69              		.loc 1 230 0
  70 0024 274B     		ldr	r3, .L2+32
  71 0026 234A     		ldr	r2, .L2+16
  72 0028 1A60     		str	r2, [r3]
 231:Generated_Source\PSoC4/EzI2C_EZI2C.c ****         EzI2C_TX_FIFO_CTRL_REG = EzI2C_EZI2C_DEFAULT_TX_FIFO_CTRL;
  73              		.loc 1 231 0
  74 002a 274B     		ldr	r3, .L2+36
  75 002c 0022     		mov	r2, #0
  76 002e 1A60     		str	r2, [r3]
 232:Generated_Source\PSoC4/EzI2C_EZI2C.c **** 
 233:Generated_Source\PSoC4/EzI2C_EZI2C.c ****         /* Configure interrupt with EZI2C handler but do not enable it */
 234:Generated_Source\PSoC4/EzI2C_EZI2C.c ****     #if !defined (CY_EXTERNAL_INTERRUPT_CONFIG)
 235:Generated_Source\PSoC4/EzI2C_EZI2C.c ****         CyIntDisable    (EzI2C_ISR_NUMBER);
  77              		.loc 1 235 0
  78 0030 0A20     		mov	r0, #10
  79 0032 FFF7FEFF 		bl	CyIntDisable
 236:Generated_Source\PSoC4/EzI2C_EZI2C.c ****         CyIntSetPriority(EzI2C_ISR_NUMBER, EzI2C_ISR_PRIORITY);
  80              		.loc 1 236 0
  81 0036 0A20     		mov	r0, #10
  82 0038 0321     		mov	r1, #3
  83 003a FFF7FEFF 		bl	CyIntSetPriority
 237:Generated_Source\PSoC4/EzI2C_EZI2C.c **** 
 238:Generated_Source\PSoC4/EzI2C_EZI2C.c ****     #if (EzI2C_EZI2C_SCL_STRETCH_ENABLE_CONST)
 239:Generated_Source\PSoC4/EzI2C_EZI2C.c ****         (void) CyIntSetVector(EzI2C_ISR_NUMBER, &EzI2C_EZI2C_STRETCH_ISR);
  84              		.loc 1 239 0
  85 003e 234B     		ldr	r3, .L2+40
  86 0040 0A20     		mov	r0, #10
  87 0042 191C     		mov	r1, r3
  88 0044 FFF7FEFF 		bl	CyIntSetVector
 240:Generated_Source\PSoC4/EzI2C_EZI2C.c ****     #else
 241:Generated_Source\PSoC4/EzI2C_EZI2C.c ****         (void) CyIntSetVector(EzI2C_ISR_NUMBER, &EzI2C_EZI2C_NO_STRETCH_ISR);
 242:Generated_Source\PSoC4/EzI2C_EZI2C.c ****     #endif /* (EzI2C_EZI2C_SCL_STRETCH_ENABLE_CONST) */
 243:Generated_Source\PSoC4/EzI2C_EZI2C.c **** 
 244:Generated_Source\PSoC4/EzI2C_EZI2C.c ****     #endif /* !defined (CY_EXTERNAL_INTERRUPT_CONFIG) */
 245:Generated_Source\PSoC4/EzI2C_EZI2C.c **** 
 246:Generated_Source\PSoC4/EzI2C_EZI2C.c ****         /* Configure interrupt sources */
 247:Generated_Source\PSoC4/EzI2C_EZI2C.c ****     #if (!EzI2C_CY_SCBIP_V1)
 248:Generated_Source\PSoC4/EzI2C_EZI2C.c ****         EzI2C_INTR_SPI_EC_MASK_REG = EzI2C_EZI2C_DEFAULT_INTR_SPI_EC_MASK;
  89              		.loc 1 248 0
  90 0048 214B     		ldr	r3, .L2+44
  91 004a 0022     		mov	r2, #0
  92 004c 1A60     		str	r2, [r3]
 249:Generated_Source\PSoC4/EzI2C_EZI2C.c ****     #endif /* (!EzI2C_CY_SCBIP_V1) */
 250:Generated_Source\PSoC4/EzI2C_EZI2C.c **** 
ARM GAS  C:\Users\CHRIST~1\AppData\Local\Temp\ccCE9EGW.s 			page 7


 251:Generated_Source\PSoC4/EzI2C_EZI2C.c ****         EzI2C_INTR_I2C_EC_MASK_REG = EzI2C_EZI2C_DEFAULT_INTR_I2C_EC_MASK;
  93              		.loc 1 251 0
  94 004e 214B     		ldr	r3, .L2+48
  95 0050 0022     		mov	r2, #0
  96 0052 1A60     		str	r2, [r3]
 252:Generated_Source\PSoC4/EzI2C_EZI2C.c ****         EzI2C_INTR_SLAVE_MASK_REG  = EzI2C_EZI2C_DEFAULT_INTR_SLAVE_MASK;
  97              		.loc 1 252 0
  98 0054 204B     		ldr	r3, .L2+52
  99 0056 5222     		mov	r2, #82
 100 0058 FF32     		add	r2, r2, #255
 101 005a 1A60     		str	r2, [r3]
 253:Generated_Source\PSoC4/EzI2C_EZI2C.c ****         EzI2C_INTR_MASTER_MASK_REG = EzI2C_EZI2C_DEFAULT_INTR_MASTER_MASK;
 102              		.loc 1 253 0
 103 005c 1F4B     		ldr	r3, .L2+56
 104 005e 0022     		mov	r2, #0
 105 0060 1A60     		str	r2, [r3]
 254:Generated_Source\PSoC4/EzI2C_EZI2C.c ****         EzI2C_INTR_RX_MASK_REG     = EzI2C_EZI2C_DEFAULT_INTR_RX_MASK;
 106              		.loc 1 254 0
 107 0062 1F4B     		ldr	r3, .L2+60
 108 0064 0022     		mov	r2, #0
 109 0066 1A60     		str	r2, [r3]
 255:Generated_Source\PSoC4/EzI2C_EZI2C.c ****         EzI2C_INTR_TX_MASK_REG     = EzI2C_EZI2C_DEFAULT_INTR_TX_MASK;
 110              		.loc 1 255 0
 111 0068 1E4B     		ldr	r3, .L2+64
 112 006a 0022     		mov	r2, #0
 113 006c 1A60     		str	r2, [r3]
 256:Generated_Source\PSoC4/EzI2C_EZI2C.c **** 
 257:Generated_Source\PSoC4/EzI2C_EZI2C.c ****         /* Configure global variables */
 258:Generated_Source\PSoC4/EzI2C_EZI2C.c ****         EzI2C_fsmState = EzI2C_EZI2C_FSM_IDLE;
 114              		.loc 1 258 0
 115 006e 1E4B     		ldr	r3, .L2+68
 116 0070 0022     		mov	r2, #0
 117 0072 1A70     		strb	r2, [r3]
 259:Generated_Source\PSoC4/EzI2C_EZI2C.c **** 
 260:Generated_Source\PSoC4/EzI2C_EZI2C.c ****         EzI2C_curStatus  = 0u;
 118              		.loc 1 260 0
 119 0074 1D4B     		ldr	r3, .L2+72
 120 0076 0022     		mov	r2, #0
 121 0078 1A70     		strb	r2, [r3]
 261:Generated_Source\PSoC4/EzI2C_EZI2C.c ****         EzI2C_indexBuf1  = 0u;
 122              		.loc 1 261 0
 123 007a 1D4B     		ldr	r3, .L2+76
 124 007c 0022     		mov	r2, #0
 125 007e 1A80     		strh	r2, [r3]
 262:Generated_Source\PSoC4/EzI2C_EZI2C.c ****         EzI2C_offsetBuf1 = 0u;
 126              		.loc 1 262 0
 127 0080 1C4B     		ldr	r3, .L2+80
 128 0082 0022     		mov	r2, #0
 129 0084 1A70     		strb	r2, [r3]
 263:Generated_Source\PSoC4/EzI2C_EZI2C.c **** 
 264:Generated_Source\PSoC4/EzI2C_EZI2C.c ****     #if(EzI2C_SECONDARY_ADDRESS_ENABLE_CONST)
 265:Generated_Source\PSoC4/EzI2C_EZI2C.c ****         EzI2C_indexBuf2  = 0u;
 130              		.loc 1 265 0
 131 0086 1C4B     		ldr	r3, .L2+84
 132 0088 0022     		mov	r2, #0
 133 008a 1A80     		strh	r2, [r3]
 266:Generated_Source\PSoC4/EzI2C_EZI2C.c ****         EzI2C_offsetBuf2 = 0u;
ARM GAS  C:\Users\CHRIST~1\AppData\Local\Temp\ccCE9EGW.s 			page 8


 134              		.loc 1 266 0
 135 008c 1B4B     		ldr	r3, .L2+88
 136 008e 0022     		mov	r2, #0
 137 0090 1A70     		strb	r2, [r3]
 267:Generated_Source\PSoC4/EzI2C_EZI2C.c **** 
 268:Generated_Source\PSoC4/EzI2C_EZI2C.c ****         EzI2C_addrBuf1 = EzI2C_EZI2C_PRIMARY_SLAVE_ADDRESS;
 138              		.loc 1 268 0
 139 0092 1B4B     		ldr	r3, .L2+92
 140 0094 0822     		mov	r2, #8
 141 0096 1A70     		strb	r2, [r3]
 269:Generated_Source\PSoC4/EzI2C_EZI2C.c ****         EzI2C_addrBuf2 = EzI2C_EZI2C_SECONDARY_SLAVE_ADDRESS;
 142              		.loc 1 269 0
 143 0098 1A4B     		ldr	r3, .L2+96
 144 009a 0922     		mov	r2, #9
 145 009c 1A70     		strb	r2, [r3]
 270:Generated_Source\PSoC4/EzI2C_EZI2C.c ****     #endif /* (EzI2C_SECONDARY_ADDRESS_ENABLE_CONST) */
 271:Generated_Source\PSoC4/EzI2C_EZI2C.c ****     }
 146              		.loc 1 271 0
 147 009e BD46     		mov	sp, r7
 148              		@ sp needed
 149 00a0 80BD     		pop	{r7, pc}
 150              	.L3:
 151 00a2 C046     		.align	2
 152              	.L2:
 153 00a4 00000940 		.word	1074331648
 154 00a8 60000940 		.word	1074331744
 155 00ac 00080040 		.word	1073743872
 156 00b0 00030940 		.word	1074332416
 157 00b4 07010080 		.word	-2147483385
 158 00b8 04030940 		.word	1074332420
 159 00bc 10030940 		.word	1074332432
 160 00c0 1000FC00 		.word	16515088
 161 00c4 00020940 		.word	1074332160
 162 00c8 04020940 		.word	1074332164
 163 00cc 00000000 		.word	EzI2C_EZI2C_STRETCH_ISR
 164 00d0 C80E0940 		.word	1074335432
 165 00d4 880E0940 		.word	1074335368
 166 00d8 480F0940 		.word	1074335560
 167 00dc 080F0940 		.word	1074335496
 168 00e0 C80F0940 		.word	1074335688
 169 00e4 880F0940 		.word	1074335624
 170 00e8 00000000 		.word	EzI2C_fsmState
 171 00ec 00000000 		.word	EzI2C_curStatus
 172 00f0 00000000 		.word	EzI2C_indexBuf1
 173 00f4 00000000 		.word	EzI2C_offsetBuf1
 174 00f8 00000000 		.word	EzI2C_indexBuf2
 175 00fc 00000000 		.word	EzI2C_offsetBuf2
 176 0100 00000000 		.word	EzI2C_addrBuf1
 177 0104 00000000 		.word	EzI2C_addrBuf2
 178              		.cfi_endproc
 179              	.LFE1:
 180              		.size	EzI2C_EzI2CInit, .-EzI2C_EzI2CInit
 181              		.section	.text.EzI2C_EzI2CStop,"ax",%progbits
 182              		.align	2
 183              		.global	EzI2C_EzI2CStop
 184              		.code	16
 185              		.thumb_func
ARM GAS  C:\Users\CHRIST~1\AppData\Local\Temp\ccCE9EGW.s 			page 9


 186              		.type	EzI2C_EzI2CStop, %function
 187              	EzI2C_EzI2CStop:
 188              	.LFB2:
 272:Generated_Source\PSoC4/EzI2C_EZI2C.c **** #endif /* (EzI2C_SCB_MODE_UNCONFIG_CONST_CFG) */
 273:Generated_Source\PSoC4/EzI2C_EZI2C.c **** 
 274:Generated_Source\PSoC4/EzI2C_EZI2C.c **** 
 275:Generated_Source\PSoC4/EzI2C_EZI2C.c **** /*******************************************************************************
 276:Generated_Source\PSoC4/EzI2C_EZI2C.c **** * Function Name: EzI2C_EzI2CStop
 277:Generated_Source\PSoC4/EzI2C_EZI2C.c **** ****************************************************************************//**
 278:Generated_Source\PSoC4/EzI2C_EZI2C.c **** *
 279:Generated_Source\PSoC4/EzI2C_EZI2C.c **** *  Resets the EZI2C FSM into the default state.
 280:Generated_Source\PSoC4/EzI2C_EZI2C.c **** *
 281:Generated_Source\PSoC4/EzI2C_EZI2C.c **** *******************************************************************************/
 282:Generated_Source\PSoC4/EzI2C_EZI2C.c **** void EzI2C_EzI2CStop(void)
 283:Generated_Source\PSoC4/EzI2C_EZI2C.c **** {
 189              		.loc 1 283 0
 190              		.cfi_startproc
 191 0000 80B5     		push	{r7, lr}
 192              		.cfi_def_cfa_offset 8
 193              		.cfi_offset 7, -8
 194              		.cfi_offset 14, -4
 195 0002 00AF     		add	r7, sp, #0
 196              		.cfi_def_cfa_register 7
 284:Generated_Source\PSoC4/EzI2C_EZI2C.c ****     EzI2C_fsmState = EzI2C_EZI2C_FSM_IDLE;
 197              		.loc 1 284 0
 198 0004 024B     		ldr	r3, .L5
 199 0006 0022     		mov	r2, #0
 200 0008 1A70     		strb	r2, [r3]
 285:Generated_Source\PSoC4/EzI2C_EZI2C.c **** }
 201              		.loc 1 285 0
 202 000a BD46     		mov	sp, r7
 203              		@ sp needed
 204 000c 80BD     		pop	{r7, pc}
 205              	.L6:
 206 000e C046     		.align	2
 207              	.L5:
 208 0010 00000000 		.word	EzI2C_fsmState
 209              		.cfi_endproc
 210              	.LFE2:
 211              		.size	EzI2C_EzI2CStop, .-EzI2C_EzI2CStop
 212              		.section	.text.EzI2C_EzI2CGetActivity,"ax",%progbits
 213              		.align	2
 214              		.global	EzI2C_EzI2CGetActivity
 215              		.code	16
 216              		.thumb_func
 217              		.type	EzI2C_EzI2CGetActivity, %function
 218              	EzI2C_EzI2CGetActivity:
 219              	.LFB3:
 286:Generated_Source\PSoC4/EzI2C_EZI2C.c **** 
 287:Generated_Source\PSoC4/EzI2C_EZI2C.c **** 
 288:Generated_Source\PSoC4/EzI2C_EZI2C.c **** /*******************************************************************************
 289:Generated_Source\PSoC4/EzI2C_EZI2C.c **** * Function Name: EzI2C_EzI2CGetActivity
 290:Generated_Source\PSoC4/EzI2C_EZI2C.c **** ****************************************************************************//**
 291:Generated_Source\PSoC4/EzI2C_EZI2C.c **** *
 292:Generated_Source\PSoC4/EzI2C_EZI2C.c **** *  Returns the EZI2C slave status.
 293:Generated_Source\PSoC4/EzI2C_EZI2C.c **** *  The read, write and error status flags reset to zero after this function
 294:Generated_Source\PSoC4/EzI2C_EZI2C.c **** *  call. The busy status flag is cleared when the transaction intended for
ARM GAS  C:\Users\CHRIST~1\AppData\Local\Temp\ccCE9EGW.s 			page 10


 295:Generated_Source\PSoC4/EzI2C_EZI2C.c **** *  the EZI2C slave completes.
 296:Generated_Source\PSoC4/EzI2C_EZI2C.c **** *
 297:Generated_Source\PSoC4/EzI2C_EZI2C.c **** * \return
 298:Generated_Source\PSoC4/EzI2C_EZI2C.c **** *  Returns the status of the EZI2C Slave activity.
 299:Generated_Source\PSoC4/EzI2C_EZI2C.c **** *  - EzI2C_EZI2C_STATUS_READ1 - Read transfer complete. The transfer 
 300:Generated_Source\PSoC4/EzI2C_EZI2C.c **** *    used the primary slave address. The error condition status bit must be 
 301:Generated_Source\PSoC4/EzI2C_EZI2C.c **** *    checked to ensure that read transfer was completed successfully.
 302:Generated_Source\PSoC4/EzI2C_EZI2C.c **** *  - EzI2C_EZI2C_STATUS_WRITE1 - Write transfer complete. The buffer 
 303:Generated_Source\PSoC4/EzI2C_EZI2C.c **** *    content was modified. The transfer used the primary slave address. 
 304:Generated_Source\PSoC4/EzI2C_EZI2C.c **** *    The error condition status bit must be checked to ensure that write 
 305:Generated_Source\PSoC4/EzI2C_EZI2C.c **** *    transfer was completed successfully.
 306:Generated_Source\PSoC4/EzI2C_EZI2C.c **** *  - EzI2C_EZI2C_STATUS_READ2 - Read transfer complete. The transfer
 307:Generated_Source\PSoC4/EzI2C_EZI2C.c **** *    used the secondary slave address. The error condition status bit must be 
 308:Generated_Source\PSoC4/EzI2C_EZI2C.c **** *    checked to ensure that read transfer was completed successfully.
 309:Generated_Source\PSoC4/EzI2C_EZI2C.c **** *  - EzI2C_EZI2C_STATUS_WRITE2 - Write transfer complete. The buffer
 310:Generated_Source\PSoC4/EzI2C_EZI2C.c **** *    content was modified. The transfer used the secondary slave address. 
 311:Generated_Source\PSoC4/EzI2C_EZI2C.c **** *    The error condition status bit must be checked to ensure that write 
 312:Generated_Source\PSoC4/EzI2C_EZI2C.c **** *    transfer was completed successfully.
 313:Generated_Source\PSoC4/EzI2C_EZI2C.c **** *  - EzI2C_EZI2C_STATUS_BUSY - A transfer intended for the primary 
 314:Generated_Source\PSoC4/EzI2C_EZI2C.c **** *    or secondary address is in progress. The status bit is set after an 
 315:Generated_Source\PSoC4/EzI2C_EZI2C.c **** *    address match and cleared on a Stop or ReStart condition.
 316:Generated_Source\PSoC4/EzI2C_EZI2C.c **** *  - EzI2C_EZI2C_STATUS_ERR - An error occurred during a transfer 
 317:Generated_Source\PSoC4/EzI2C_EZI2C.c **** *    intended for the primary or secondary slave address. The sources of error
 318:Generated_Source\PSoC4/EzI2C_EZI2C.c **** *    are: misplaced Start or Stop condition or lost arbitration while slave 
 319:Generated_Source\PSoC4/EzI2C_EZI2C.c **** *    drives SDA.
 320:Generated_Source\PSoC4/EzI2C_EZI2C.c **** *    The write buffer may contain invalid byte or part of the transaction when 
 321:Generated_Source\PSoC4/EzI2C_EZI2C.c **** *    EzI2C_EZI2C_STATUS_ERR and EzI2C_EZI2C_STATUS_WRITE1/2 
 322:Generated_Source\PSoC4/EzI2C_EZI2C.c **** *    is set. It is recommended to discard buffer content in this case.
 323:Generated_Source\PSoC4/EzI2C_EZI2C.c **** *
 324:Generated_Source\PSoC4/EzI2C_EZI2C.c **** * \globalvars
 325:Generated_Source\PSoC4/EzI2C_EZI2C.c **** *  EzI2C_curStatus - used to store the current status of the EZI2C 
 326:Generated_Source\PSoC4/EzI2C_EZI2C.c **** *  slave.
 327:Generated_Source\PSoC4/EzI2C_EZI2C.c **** *
 328:Generated_Source\PSoC4/EzI2C_EZI2C.c **** *******************************************************************************/
 329:Generated_Source\PSoC4/EzI2C_EZI2C.c **** uint32 EzI2C_EzI2CGetActivity(void)
 330:Generated_Source\PSoC4/EzI2C_EZI2C.c **** {
 220              		.loc 1 330 0
 221              		.cfi_startproc
 222 0000 80B5     		push	{r7, lr}
 223              		.cfi_def_cfa_offset 8
 224              		.cfi_offset 7, -8
 225              		.cfi_offset 14, -4
 226 0002 82B0     		sub	sp, sp, #8
 227              		.cfi_def_cfa_offset 16
 228 0004 00AF     		add	r7, sp, #0
 229              		.cfi_def_cfa_register 7
 331:Generated_Source\PSoC4/EzI2C_EZI2C.c ****     uint32 status;
 332:Generated_Source\PSoC4/EzI2C_EZI2C.c **** 
 333:Generated_Source\PSoC4/EzI2C_EZI2C.c ****     EzI2C_DisableInt();  /* Lock from interruption */
 230              		.loc 1 333 0
 231 0006 0A20     		mov	r0, #10
 232 0008 FFF7FEFF 		bl	CyIntDisable
 334:Generated_Source\PSoC4/EzI2C_EZI2C.c **** 
 335:Generated_Source\PSoC4/EzI2C_EZI2C.c ****     status = EzI2C_curStatus;
 233              		.loc 1 335 0
 234 000c 094B     		ldr	r3, .L9
 235 000e 1B78     		ldrb	r3, [r3]
ARM GAS  C:\Users\CHRIST~1\AppData\Local\Temp\ccCE9EGW.s 			page 11


 236 0010 DBB2     		uxtb	r3, r3
 237 0012 7B60     		str	r3, [r7, #4]
 336:Generated_Source\PSoC4/EzI2C_EZI2C.c **** 
 337:Generated_Source\PSoC4/EzI2C_EZI2C.c ****     /* Relay on address match event from HW as bus busy status */
 338:Generated_Source\PSoC4/EzI2C_EZI2C.c ****     #if(EzI2C_EZI2C_SCL_STRETCH_DISABLE)
 339:Generated_Source\PSoC4/EzI2C_EZI2C.c ****     {
 340:Generated_Source\PSoC4/EzI2C_EZI2C.c ****         /* For EzI2C_CY_SCBIP_V0 the wake is prohibited by customizer */
 341:Generated_Source\PSoC4/EzI2C_EZI2C.c ****         #if(EzI2C_EZI2C_EC_AM_ENABLE)
 342:Generated_Source\PSoC4/EzI2C_EZI2C.c ****         {
 343:Generated_Source\PSoC4/EzI2C_EZI2C.c ****             status |= EzI2C_CHECK_INTR_I2C_EC(EzI2C_INTR_I2C_EC_WAKE_UP) ?
 344:Generated_Source\PSoC4/EzI2C_EZI2C.c ****                         EzI2C_EZI2C_STATUS_BUSY : 0u;
 345:Generated_Source\PSoC4/EzI2C_EZI2C.c ****         }
 346:Generated_Source\PSoC4/EzI2C_EZI2C.c ****         #else
 347:Generated_Source\PSoC4/EzI2C_EZI2C.c ****         {
 348:Generated_Source\PSoC4/EzI2C_EZI2C.c ****             status |= EzI2C_CHECK_INTR_SLAVE(EzI2C_INTR_SLAVE_I2C_ADDR_MATCH) ?
 349:Generated_Source\PSoC4/EzI2C_EZI2C.c ****                         EzI2C_EZI2C_STATUS_BUSY : 0u;
 350:Generated_Source\PSoC4/EzI2C_EZI2C.c ****         }
 351:Generated_Source\PSoC4/EzI2C_EZI2C.c ****         #endif
 352:Generated_Source\PSoC4/EzI2C_EZI2C.c ****     }
 353:Generated_Source\PSoC4/EzI2C_EZI2C.c ****     #endif
 354:Generated_Source\PSoC4/EzI2C_EZI2C.c **** 
 355:Generated_Source\PSoC4/EzI2C_EZI2C.c ****     EzI2C_curStatus &= ((uint8) ~EzI2C_EZI2C_CLEAR_STATUS);
 238              		.loc 1 355 0
 239 0014 074B     		ldr	r3, .L9
 240 0016 1B78     		ldrb	r3, [r3]
 241 0018 DBB2     		uxtb	r3, r3
 242 001a 1F22     		mov	r2, #31
 243 001c 9343     		bic	r3, r2
 244 001e DAB2     		uxtb	r2, r3
 245 0020 044B     		ldr	r3, .L9
 246 0022 1A70     		strb	r2, [r3]
 356:Generated_Source\PSoC4/EzI2C_EZI2C.c **** 
 357:Generated_Source\PSoC4/EzI2C_EZI2C.c ****     EzI2C_EnableInt();   /* Release lock */
 247              		.loc 1 357 0
 248 0024 0A20     		mov	r0, #10
 249 0026 FFF7FEFF 		bl	CyIntEnable
 358:Generated_Source\PSoC4/EzI2C_EZI2C.c **** 
 359:Generated_Source\PSoC4/EzI2C_EZI2C.c ****     return(status);
 250              		.loc 1 359 0
 251 002a 7B68     		ldr	r3, [r7, #4]
 360:Generated_Source\PSoC4/EzI2C_EZI2C.c **** }
 252              		.loc 1 360 0
 253 002c 181C     		mov	r0, r3
 254 002e BD46     		mov	sp, r7
 255 0030 02B0     		add	sp, sp, #8
 256              		@ sp needed
 257 0032 80BD     		pop	{r7, pc}
 258              	.L10:
 259              		.align	2
 260              	.L9:
 261 0034 00000000 		.word	EzI2C_curStatus
 262              		.cfi_endproc
 263              	.LFE3:
 264              		.size	EzI2C_EzI2CGetActivity, .-EzI2C_EzI2CGetActivity
 265              		.section	.text.EzI2C_EzI2CSetAddress1,"ax",%progbits
 266              		.align	2
 267              		.global	EzI2C_EzI2CSetAddress1
ARM GAS  C:\Users\CHRIST~1\AppData\Local\Temp\ccCE9EGW.s 			page 12


 268              		.code	16
 269              		.thumb_func
 270              		.type	EzI2C_EzI2CSetAddress1, %function
 271              	EzI2C_EzI2CSetAddress1:
 272              	.LFB4:
 361:Generated_Source\PSoC4/EzI2C_EZI2C.c **** 
 362:Generated_Source\PSoC4/EzI2C_EZI2C.c **** 
 363:Generated_Source\PSoC4/EzI2C_EZI2C.c **** /*******************************************************************************
 364:Generated_Source\PSoC4/EzI2C_EZI2C.c **** * Function Name: EzI2C_EzI2CSetAddress1
 365:Generated_Source\PSoC4/EzI2C_EZI2C.c **** ****************************************************************************//**
 366:Generated_Source\PSoC4/EzI2C_EZI2C.c **** *
 367:Generated_Source\PSoC4/EzI2C_EZI2C.c **** *  Sets the primary EZI2C slave address.
 368:Generated_Source\PSoC4/EzI2C_EZI2C.c **** *
 369:Generated_Source\PSoC4/EzI2C_EZI2C.c **** * \param address: I2C slave address for the secondary device.
 370:Generated_Source\PSoC4/EzI2C_EZI2C.c **** *  This address is the 7-bit right-justified slave address and does not 
 371:Generated_Source\PSoC4/EzI2C_EZI2C.c **** *   include the R/W bit.
 372:Generated_Source\PSoC4/EzI2C_EZI2C.c **** *
 373:Generated_Source\PSoC4/EzI2C_EZI2C.c **** *  The address value is not checked to see if it violates the I2C spec. 
 374:Generated_Source\PSoC4/EzI2C_EZI2C.c **** *  The preferred addresses are in the range between 8 and 120 (0x08 to 0x78).
 375:Generated_Source\PSoC4/EzI2C_EZI2C.c **** *
 376:Generated_Source\PSoC4/EzI2C_EZI2C.c **** * \globalvars
 377:Generated_Source\PSoC4/EzI2C_EZI2C.c **** *  EzI2C_addrBuf1 - used to store the primary 7-bit slave address 
 378:Generated_Source\PSoC4/EzI2C_EZI2C.c **** *  value.
 379:Generated_Source\PSoC4/EzI2C_EZI2C.c **** *
 380:Generated_Source\PSoC4/EzI2C_EZI2C.c **** *******************************************************************************/
 381:Generated_Source\PSoC4/EzI2C_EZI2C.c **** void EzI2C_EzI2CSetAddress1(uint32 address)
 382:Generated_Source\PSoC4/EzI2C_EZI2C.c **** {
 273              		.loc 1 382 0
 274              		.cfi_startproc
 275 0000 90B5     		push	{r4, r7, lr}
 276              		.cfi_def_cfa_offset 12
 277              		.cfi_offset 4, -12
 278              		.cfi_offset 7, -8
 279              		.cfi_offset 14, -4
 280 0002 83B0     		sub	sp, sp, #12
 281              		.cfi_def_cfa_offset 24
 282 0004 00AF     		add	r7, sp, #0
 283              		.cfi_def_cfa_register 7
 284 0006 7860     		str	r0, [r7, #4]
 383:Generated_Source\PSoC4/EzI2C_EZI2C.c ****     #if(EzI2C_SECONDARY_ADDRESS_ENABLE)
 384:Generated_Source\PSoC4/EzI2C_EZI2C.c ****     {
 385:Generated_Source\PSoC4/EzI2C_EZI2C.c ****         EzI2C_addrBuf1 = (uint8) address;
 285              		.loc 1 385 0
 286 0008 7B68     		ldr	r3, [r7, #4]
 287 000a DAB2     		uxtb	r2, r3
 288 000c 074B     		ldr	r3, .L12
 289 000e 1A70     		strb	r2, [r3]
 386:Generated_Source\PSoC4/EzI2C_EZI2C.c **** 
 387:Generated_Source\PSoC4/EzI2C_EZI2C.c ****         EzI2C_RX_MATCH_REG = 
 290              		.loc 1 387 0
 291 0010 074C     		ldr	r4, .L12+4
 388:Generated_Source\PSoC4/EzI2C_EZI2C.c ****                         EzI2C_EzI2CUpdateRxMatchReg(address, (uint32) EzI2C_addrBuf2);
 292              		.loc 1 388 0
 293 0012 084B     		ldr	r3, .L12+8
 294 0014 1B78     		ldrb	r3, [r3]
 295 0016 1A1C     		mov	r2, r3
 296 0018 7B68     		ldr	r3, [r7, #4]
ARM GAS  C:\Users\CHRIST~1\AppData\Local\Temp\ccCE9EGW.s 			page 13


 297 001a 181C     		mov	r0, r3
 298 001c 111C     		mov	r1, r2
 299 001e FFF7FEFF 		bl	EzI2C_EzI2CUpdateRxMatchReg
 300 0022 031C     		mov	r3, r0
 387:Generated_Source\PSoC4/EzI2C_EZI2C.c ****                         EzI2C_EzI2CUpdateRxMatchReg(address, (uint32) EzI2C_addrBuf2);
 301              		.loc 1 387 0
 302 0024 2360     		str	r3, [r4]
 389:Generated_Source\PSoC4/EzI2C_EZI2C.c ****     }
 390:Generated_Source\PSoC4/EzI2C_EZI2C.c ****     #else
 391:Generated_Source\PSoC4/EzI2C_EZI2C.c ****     {
 392:Generated_Source\PSoC4/EzI2C_EZI2C.c ****         uint32 matchReg;
 393:Generated_Source\PSoC4/EzI2C_EZI2C.c **** 
 394:Generated_Source\PSoC4/EzI2C_EZI2C.c ****         matchReg = EzI2C_RX_MATCH_REG;
 395:Generated_Source\PSoC4/EzI2C_EZI2C.c **** 
 396:Generated_Source\PSoC4/EzI2C_EZI2C.c ****         /* Set address. */
 397:Generated_Source\PSoC4/EzI2C_EZI2C.c ****         matchReg &= (uint32) ~EzI2C_RX_MATCH_ADDR_MASK;
 398:Generated_Source\PSoC4/EzI2C_EZI2C.c ****         matchReg |= (uint32)  EzI2C_GET_I2C_8BIT_ADDRESS(address);
 399:Generated_Source\PSoC4/EzI2C_EZI2C.c **** 
 400:Generated_Source\PSoC4/EzI2C_EZI2C.c ****         EzI2C_RX_MATCH_REG = matchReg;
 401:Generated_Source\PSoC4/EzI2C_EZI2C.c ****     }
 402:Generated_Source\PSoC4/EzI2C_EZI2C.c ****     #endif
 403:Generated_Source\PSoC4/EzI2C_EZI2C.c **** }
 303              		.loc 1 403 0
 304 0026 BD46     		mov	sp, r7
 305 0028 03B0     		add	sp, sp, #12
 306              		@ sp needed
 307 002a 90BD     		pop	{r4, r7, pc}
 308              	.L13:
 309              		.align	2
 310              	.L12:
 311 002c 00000000 		.word	EzI2C_addrBuf1
 312 0030 10030940 		.word	1074332432
 313 0034 00000000 		.word	EzI2C_addrBuf2
 314              		.cfi_endproc
 315              	.LFE4:
 316              		.size	EzI2C_EzI2CSetAddress1, .-EzI2C_EzI2CSetAddress1
 317              		.section	.text.EzI2C_EzI2CGetAddress1,"ax",%progbits
 318              		.align	2
 319              		.global	EzI2C_EzI2CGetAddress1
 320              		.code	16
 321              		.thumb_func
 322              		.type	EzI2C_EzI2CGetAddress1, %function
 323              	EzI2C_EzI2CGetAddress1:
 324              	.LFB5:
 404:Generated_Source\PSoC4/EzI2C_EZI2C.c **** 
 405:Generated_Source\PSoC4/EzI2C_EZI2C.c **** 
 406:Generated_Source\PSoC4/EzI2C_EZI2C.c **** /*******************************************************************************
 407:Generated_Source\PSoC4/EzI2C_EZI2C.c **** * Function Name: EzI2C_EzI2CGetAddress1
 408:Generated_Source\PSoC4/EzI2C_EZI2C.c **** ****************************************************************************//**
 409:Generated_Source\PSoC4/EzI2C_EZI2C.c **** *
 410:Generated_Source\PSoC4/EzI2C_EZI2C.c **** *  Returns primary the EZ I2C slave address.
 411:Generated_Source\PSoC4/EzI2C_EZI2C.c **** *  This address is the 7-bit right-justified slave address and does not include 
 412:Generated_Source\PSoC4/EzI2C_EZI2C.c **** *  the R/W bit.
 413:Generated_Source\PSoC4/EzI2C_EZI2C.c **** *
 414:Generated_Source\PSoC4/EzI2C_EZI2C.c **** * \return
 415:Generated_Source\PSoC4/EzI2C_EZI2C.c **** *  Primary EZI2C slave address.
 416:Generated_Source\PSoC4/EzI2C_EZI2C.c **** *
ARM GAS  C:\Users\CHRIST~1\AppData\Local\Temp\ccCE9EGW.s 			page 14


 417:Generated_Source\PSoC4/EzI2C_EZI2C.c **** * \globalvars
 418:Generated_Source\PSoC4/EzI2C_EZI2C.c **** *  EzI2C_addrBuf1 - used to store the primary 7-bit slave address 
 419:Generated_Source\PSoC4/EzI2C_EZI2C.c **** *  value.
 420:Generated_Source\PSoC4/EzI2C_EZI2C.c **** *
 421:Generated_Source\PSoC4/EzI2C_EZI2C.c **** *******************************************************************************/
 422:Generated_Source\PSoC4/EzI2C_EZI2C.c **** uint32 EzI2C_EzI2CGetAddress1(void)
 423:Generated_Source\PSoC4/EzI2C_EZI2C.c **** {
 325              		.loc 1 423 0
 326              		.cfi_startproc
 327 0000 80B5     		push	{r7, lr}
 328              		.cfi_def_cfa_offset 8
 329              		.cfi_offset 7, -8
 330              		.cfi_offset 14, -4
 331 0002 82B0     		sub	sp, sp, #8
 332              		.cfi_def_cfa_offset 16
 333 0004 00AF     		add	r7, sp, #0
 334              		.cfi_def_cfa_register 7
 424:Generated_Source\PSoC4/EzI2C_EZI2C.c ****     uint32 address;
 425:Generated_Source\PSoC4/EzI2C_EZI2C.c **** 
 426:Generated_Source\PSoC4/EzI2C_EZI2C.c ****     #if(EzI2C_SECONDARY_ADDRESS_ENABLE)
 427:Generated_Source\PSoC4/EzI2C_EZI2C.c ****     {
 428:Generated_Source\PSoC4/EzI2C_EZI2C.c ****         address = (uint32) EzI2C_addrBuf1;
 335              		.loc 1 428 0
 336 0006 044B     		ldr	r3, .L16
 337 0008 1B78     		ldrb	r3, [r3]
 338 000a 7B60     		str	r3, [r7, #4]
 429:Generated_Source\PSoC4/EzI2C_EZI2C.c ****     }
 430:Generated_Source\PSoC4/EzI2C_EZI2C.c ****     #else
 431:Generated_Source\PSoC4/EzI2C_EZI2C.c ****     {
 432:Generated_Source\PSoC4/EzI2C_EZI2C.c ****         address = (EzI2C_GET_RX_MATCH_ADDR(EzI2C_RX_MATCH_REG) >>
 433:Generated_Source\PSoC4/EzI2C_EZI2C.c ****                    EzI2C_I2C_SLAVE_ADDR_POS);
 434:Generated_Source\PSoC4/EzI2C_EZI2C.c ****     }
 435:Generated_Source\PSoC4/EzI2C_EZI2C.c ****     #endif
 436:Generated_Source\PSoC4/EzI2C_EZI2C.c **** 
 437:Generated_Source\PSoC4/EzI2C_EZI2C.c ****     return(address);
 339              		.loc 1 437 0
 340 000c 7B68     		ldr	r3, [r7, #4]
 438:Generated_Source\PSoC4/EzI2C_EZI2C.c **** }
 341              		.loc 1 438 0
 342 000e 181C     		mov	r0, r3
 343 0010 BD46     		mov	sp, r7
 344 0012 02B0     		add	sp, sp, #8
 345              		@ sp needed
 346 0014 80BD     		pop	{r7, pc}
 347              	.L17:
 348 0016 C046     		.align	2
 349              	.L16:
 350 0018 00000000 		.word	EzI2C_addrBuf1
 351              		.cfi_endproc
 352              	.LFE5:
 353              		.size	EzI2C_EzI2CGetAddress1, .-EzI2C_EzI2CGetAddress1
 354              		.section	.text.EzI2C_EzI2CSetBuffer1,"ax",%progbits
 355              		.align	2
 356              		.global	EzI2C_EzI2CSetBuffer1
 357              		.code	16
 358              		.thumb_func
 359              		.type	EzI2C_EzI2CSetBuffer1, %function
ARM GAS  C:\Users\CHRIST~1\AppData\Local\Temp\ccCE9EGW.s 			page 15


 360              	EzI2C_EzI2CSetBuffer1:
 361              	.LFB6:
 439:Generated_Source\PSoC4/EzI2C_EZI2C.c **** 
 440:Generated_Source\PSoC4/EzI2C_EZI2C.c **** 
 441:Generated_Source\PSoC4/EzI2C_EZI2C.c **** /*******************************************************************************
 442:Generated_Source\PSoC4/EzI2C_EZI2C.c **** * Function Name: EzI2C_EzI2CSetBuffer1
 443:Generated_Source\PSoC4/EzI2C_EZI2C.c **** ****************************************************************************//**
 444:Generated_Source\PSoC4/EzI2C_EZI2C.c **** *
 445:Generated_Source\PSoC4/EzI2C_EZI2C.c **** *  Sets up the data buffer to be exposed to the I2C master on a primary slave
 446:Generated_Source\PSoC4/EzI2C_EZI2C.c **** *  address request.
 447:Generated_Source\PSoC4/EzI2C_EZI2C.c **** *
 448:Generated_Source\PSoC4/EzI2C_EZI2C.c **** * \param bufSize: Size of the buffer in bytes.
 449:Generated_Source\PSoC4/EzI2C_EZI2C.c **** * \param rwBoundary: Number of data bytes starting from the beginning of the 
 450:Generated_Source\PSoC4/EzI2C_EZI2C.c **** *  buffer with read and write access. Data bytes located at offset rwBoundary 
 451:Generated_Source\PSoC4/EzI2C_EZI2C.c **** *  or greater are read only.
 452:Generated_Source\PSoC4/EzI2C_EZI2C.c **** *  This value must be less than or equal to the buffer size.
 453:Generated_Source\PSoC4/EzI2C_EZI2C.c **** * \param buffer: Pointer to the data buffer.
 454:Generated_Source\PSoC4/EzI2C_EZI2C.c **** *
 455:Generated_Source\PSoC4/EzI2C_EZI2C.c **** * \sideeffect
 456:Generated_Source\PSoC4/EzI2C_EZI2C.c **** *  Calling this function in the middle of a transaction intended for the 
 457:Generated_Source\PSoC4/EzI2C_EZI2C.c **** *  primary slave address leads to unexpected behavior.
 458:Generated_Source\PSoC4/EzI2C_EZI2C.c **** *
 459:Generated_Source\PSoC4/EzI2C_EZI2C.c **** * \globalvars
 460:Generated_Source\PSoC4/EzI2C_EZI2C.c **** *  EzI2C_dataBuffer1 – the pointer to the buffer to be exposed to the
 461:Generated_Source\PSoC4/EzI2C_EZI2C.c **** *  master on a primary address.
 462:Generated_Source\PSoC4/EzI2C_EZI2C.c **** *  EzI2C_bufSizeBuf1 - the size of the buffer to be exposed to the 
 463:Generated_Source\PSoC4/EzI2C_EZI2C.c **** *  master on a primary address.
 464:Generated_Source\PSoC4/EzI2C_EZI2C.c **** *  EzI2C_protectBuf1 - the start index of the read-only region in the
 465:Generated_Source\PSoC4/EzI2C_EZI2C.c **** *  buffer to be exposed to the master on a primary address. The read-only region
 466:Generated_Source\PSoC4/EzI2C_EZI2C.c **** *  continues up to the end the buffer.
 467:Generated_Source\PSoC4/EzI2C_EZI2C.c **** *
 468:Generated_Source\PSoC4/EzI2C_EZI2C.c **** *******************************************************************************/
 469:Generated_Source\PSoC4/EzI2C_EZI2C.c **** void EzI2C_EzI2CSetBuffer1(uint32 bufSize, uint32 rwBoundary, volatile uint8 * buffer)
 470:Generated_Source\PSoC4/EzI2C_EZI2C.c **** {
 362              		.loc 1 470 0
 363              		.cfi_startproc
 364 0000 80B5     		push	{r7, lr}
 365              		.cfi_def_cfa_offset 8
 366              		.cfi_offset 7, -8
 367              		.cfi_offset 14, -4
 368 0002 84B0     		sub	sp, sp, #16
 369              		.cfi_def_cfa_offset 24
 370 0004 00AF     		add	r7, sp, #0
 371              		.cfi_def_cfa_register 7
 372 0006 F860     		str	r0, [r7, #12]
 373 0008 B960     		str	r1, [r7, #8]
 374 000a 7A60     		str	r2, [r7, #4]
 471:Generated_Source\PSoC4/EzI2C_EZI2C.c ****     if (NULL != buffer)
 375              		.loc 1 471 0
 376 000c 7B68     		ldr	r3, [r7, #4]
 377 000e 002B     		cmp	r3, #0
 378 0010 10D0     		beq	.L18
 472:Generated_Source\PSoC4/EzI2C_EZI2C.c ****     {
 473:Generated_Source\PSoC4/EzI2C_EZI2C.c ****         EzI2C_DisableInt();  /* Lock from interruption */
 379              		.loc 1 473 0
 380 0012 0A20     		mov	r0, #10
 381 0014 FFF7FEFF 		bl	CyIntDisable
ARM GAS  C:\Users\CHRIST~1\AppData\Local\Temp\ccCE9EGW.s 			page 16


 474:Generated_Source\PSoC4/EzI2C_EZI2C.c **** 
 475:Generated_Source\PSoC4/EzI2C_EZI2C.c ****         EzI2C_dataBuffer1 =  buffer;
 382              		.loc 1 475 0
 383 0018 084B     		ldr	r3, .L20
 384 001a 7A68     		ldr	r2, [r7, #4]
 385 001c 1A60     		str	r2, [r3]
 476:Generated_Source\PSoC4/EzI2C_EZI2C.c ****         EzI2C_bufSizeBuf1 = (uint16) bufSize;
 386              		.loc 1 476 0
 387 001e FB68     		ldr	r3, [r7, #12]
 388 0020 9AB2     		uxth	r2, r3
 389 0022 074B     		ldr	r3, .L20+4
 390 0024 1A80     		strh	r2, [r3]
 477:Generated_Source\PSoC4/EzI2C_EZI2C.c ****         EzI2C_protectBuf1 = (uint16) rwBoundary;
 391              		.loc 1 477 0
 392 0026 BB68     		ldr	r3, [r7, #8]
 393 0028 9AB2     		uxth	r2, r3
 394 002a 064B     		ldr	r3, .L20+8
 395 002c 1A80     		strh	r2, [r3]
 478:Generated_Source\PSoC4/EzI2C_EZI2C.c **** 
 479:Generated_Source\PSoC4/EzI2C_EZI2C.c ****         EzI2C_EnableInt();   /* Release lock */
 396              		.loc 1 479 0
 397 002e 0A20     		mov	r0, #10
 398 0030 FFF7FEFF 		bl	CyIntEnable
 399              	.L18:
 480:Generated_Source\PSoC4/EzI2C_EZI2C.c ****     }
 481:Generated_Source\PSoC4/EzI2C_EZI2C.c **** }
 400              		.loc 1 481 0
 401 0034 BD46     		mov	sp, r7
 402 0036 04B0     		add	sp, sp, #16
 403              		@ sp needed
 404 0038 80BD     		pop	{r7, pc}
 405              	.L21:
 406 003a C046     		.align	2
 407              	.L20:
 408 003c 00000000 		.word	EzI2C_dataBuffer1
 409 0040 00000000 		.word	EzI2C_bufSizeBuf1
 410 0044 00000000 		.word	EzI2C_protectBuf1
 411              		.cfi_endproc
 412              	.LFE6:
 413              		.size	EzI2C_EzI2CSetBuffer1, .-EzI2C_EzI2CSetBuffer1
 414              		.section	.text.EzI2C_EzI2CSetReadBoundaryBuffer1,"ax",%progbits
 415              		.align	2
 416              		.global	EzI2C_EzI2CSetReadBoundaryBuffer1
 417              		.code	16
 418              		.thumb_func
 419              		.type	EzI2C_EzI2CSetReadBoundaryBuffer1, %function
 420              	EzI2C_EzI2CSetReadBoundaryBuffer1:
 421              	.LFB7:
 482:Generated_Source\PSoC4/EzI2C_EZI2C.c **** 
 483:Generated_Source\PSoC4/EzI2C_EZI2C.c **** 
 484:Generated_Source\PSoC4/EzI2C_EZI2C.c **** /*******************************************************************************
 485:Generated_Source\PSoC4/EzI2C_EZI2C.c **** * Function Name: EzI2C_EzI2CSetReadBoundaryBuffer1
 486:Generated_Source\PSoC4/EzI2C_EZI2C.c **** ****************************************************************************//**
 487:Generated_Source\PSoC4/EzI2C_EZI2C.c **** *
 488:Generated_Source\PSoC4/EzI2C_EZI2C.c **** *  Sets the read only boundary in the data buffer to be exposed to the I2C
 489:Generated_Source\PSoC4/EzI2C_EZI2C.c **** *  master on a primary slave address request.
 490:Generated_Source\PSoC4/EzI2C_EZI2C.c **** *
ARM GAS  C:\Users\CHRIST~1\AppData\Local\Temp\ccCE9EGW.s 			page 17


 491:Generated_Source\PSoC4/EzI2C_EZI2C.c **** * \param rwBoundry: Number of data bytes starting from the beginning of the 
 492:Generated_Source\PSoC4/EzI2C_EZI2C.c **** *  buffer with read and write access. Data bytes located at offset rwBoundary 
 493:Generated_Source\PSoC4/EzI2C_EZI2C.c **** *  or greater are read only.
 494:Generated_Source\PSoC4/EzI2C_EZI2C.c **** *  This value must be less than or equal to the buffer size.
 495:Generated_Source\PSoC4/EzI2C_EZI2C.c **** *
 496:Generated_Source\PSoC4/EzI2C_EZI2C.c **** * \sideeffect
 497:Generated_Source\PSoC4/EzI2C_EZI2C.c **** *  Calling this function in the middle of a transaction intended for the 
 498:Generated_Source\PSoC4/EzI2C_EZI2C.c **** *  primary slave address leads to unexpected behavior.
 499:Generated_Source\PSoC4/EzI2C_EZI2C.c **** *
 500:Generated_Source\PSoC4/EzI2C_EZI2C.c **** * \globalvars
 501:Generated_Source\PSoC4/EzI2C_EZI2C.c **** *  EzI2C_protectBuf1 - the start index of the read-only region in the
 502:Generated_Source\PSoC4/EzI2C_EZI2C.c **** *  buffer to be exposed to the master on a primary address. The read-only region
 503:Generated_Source\PSoC4/EzI2C_EZI2C.c **** *  continues up to the end the buffer.
 504:Generated_Source\PSoC4/EzI2C_EZI2C.c **** *
 505:Generated_Source\PSoC4/EzI2C_EZI2C.c **** *******************************************************************************/
 506:Generated_Source\PSoC4/EzI2C_EZI2C.c **** void EzI2C_EzI2CSetReadBoundaryBuffer1(uint32 rwBoundary)
 507:Generated_Source\PSoC4/EzI2C_EZI2C.c **** {
 422              		.loc 1 507 0
 423              		.cfi_startproc
 424 0000 80B5     		push	{r7, lr}
 425              		.cfi_def_cfa_offset 8
 426              		.cfi_offset 7, -8
 427              		.cfi_offset 14, -4
 428 0002 82B0     		sub	sp, sp, #8
 429              		.cfi_def_cfa_offset 16
 430 0004 00AF     		add	r7, sp, #0
 431              		.cfi_def_cfa_register 7
 432 0006 7860     		str	r0, [r7, #4]
 508:Generated_Source\PSoC4/EzI2C_EZI2C.c ****     EzI2C_protectBuf1 = (uint16) rwBoundary;
 433              		.loc 1 508 0
 434 0008 7B68     		ldr	r3, [r7, #4]
 435 000a 9AB2     		uxth	r2, r3
 436 000c 024B     		ldr	r3, .L23
 437 000e 1A80     		strh	r2, [r3]
 509:Generated_Source\PSoC4/EzI2C_EZI2C.c **** }
 438              		.loc 1 509 0
 439 0010 BD46     		mov	sp, r7
 440 0012 02B0     		add	sp, sp, #8
 441              		@ sp needed
 442 0014 80BD     		pop	{r7, pc}
 443              	.L24:
 444 0016 C046     		.align	2
 445              	.L23:
 446 0018 00000000 		.word	EzI2C_protectBuf1
 447              		.cfi_endproc
 448              	.LFE7:
 449              		.size	EzI2C_EzI2CSetReadBoundaryBuffer1, .-EzI2C_EzI2CSetReadBoundaryBuffer1
 450              		.section	.text.EzI2C_EzI2CUpdateRxMatchReg,"ax",%progbits
 451              		.align	2
 452              		.code	16
 453              		.thumb_func
 454              		.type	EzI2C_EzI2CUpdateRxMatchReg, %function
 455              	EzI2C_EzI2CUpdateRxMatchReg:
 456              	.LFB8:
 510:Generated_Source\PSoC4/EzI2C_EZI2C.c **** 
 511:Generated_Source\PSoC4/EzI2C_EZI2C.c **** 
 512:Generated_Source\PSoC4/EzI2C_EZI2C.c **** #if(EzI2C_SECONDARY_ADDRESS_ENABLE_CONST)
ARM GAS  C:\Users\CHRIST~1\AppData\Local\Temp\ccCE9EGW.s 			page 18


 513:Generated_Source\PSoC4/EzI2C_EZI2C.c ****     /*******************************************************************************
 514:Generated_Source\PSoC4/EzI2C_EZI2C.c ****     * Function Name: EzI2C_EzI2CUpdateRxMatchReg
 515:Generated_Source\PSoC4/EzI2C_EZI2C.c ****     ****************************************************************************//**
 516:Generated_Source\PSoC4/EzI2C_EZI2C.c ****     *
 517:Generated_Source\PSoC4/EzI2C_EZI2C.c ****     *  Returns the value of the RX MATCH register for addr1 and addr2. The addr1 is
 518:Generated_Source\PSoC4/EzI2C_EZI2C.c ****     *  accepted as the primary address and it is written to RX_MATCH.ADDRESS
 519:Generated_Source\PSoC4/EzI2C_EZI2C.c ****     *  (addr1 << 0x01).
 520:Generated_Source\PSoC4/EzI2C_EZI2C.c ****     *  The RX_MATCH.MASK is set as follow: addr1 and addr2 equal bits set to 1
 521:Generated_Source\PSoC4/EzI2C_EZI2C.c ****     *  otherwise 0.
 522:Generated_Source\PSoC4/EzI2C_EZI2C.c ****     *
 523:Generated_Source\PSoC4/EzI2C_EZI2C.c ****     * \param addr1: I2C slave address for the primary device.
 524:Generated_Source\PSoC4/EzI2C_EZI2C.c ****     * \param addr2: I2C slave address for the secondary device.
 525:Generated_Source\PSoC4/EzI2C_EZI2C.c ****     *  This address is the 7-bit right-justified slave address and does
 526:Generated_Source\PSoC4/EzI2C_EZI2C.c ****     *  not include the R/W bit.
 527:Generated_Source\PSoC4/EzI2C_EZI2C.c ****     *
 528:Generated_Source\PSoC4/EzI2C_EZI2C.c ****     * \return
 529:Generated_Source\PSoC4/EzI2C_EZI2C.c ****     *  Value of RX MATCH register.
 530:Generated_Source\PSoC4/EzI2C_EZI2C.c ****     *
 531:Generated_Source\PSoC4/EzI2C_EZI2C.c ****     *******************************************************************************/
 532:Generated_Source\PSoC4/EzI2C_EZI2C.c ****     static uint32 EzI2C_EzI2CUpdateRxMatchReg(uint32 addr1, uint32 addr2)
 533:Generated_Source\PSoC4/EzI2C_EZI2C.c ****     {
 457              		.loc 1 533 0
 458              		.cfi_startproc
 459 0000 80B5     		push	{r7, lr}
 460              		.cfi_def_cfa_offset 8
 461              		.cfi_offset 7, -8
 462              		.cfi_offset 14, -4
 463 0002 84B0     		sub	sp, sp, #16
 464              		.cfi_def_cfa_offset 24
 465 0004 00AF     		add	r7, sp, #0
 466              		.cfi_def_cfa_register 7
 467 0006 7860     		str	r0, [r7, #4]
 468 0008 3960     		str	r1, [r7]
 534:Generated_Source\PSoC4/EzI2C_EZI2C.c ****         uint32 matchReg;
 535:Generated_Source\PSoC4/EzI2C_EZI2C.c **** 
 536:Generated_Source\PSoC4/EzI2C_EZI2C.c ****         matchReg  = ~(addr1 ^ addr2); /* If (addr1 and addr2) bit matches - mask bit equals 1, in o
 469              		.loc 1 536 0
 470 000a 7A68     		ldr	r2, [r7, #4]
 471 000c 3B68     		ldr	r3, [r7]
 472 000e 5340     		eor	r3, r2
 473 0010 DB43     		mvn	r3, r3
 474 0012 FB60     		str	r3, [r7, #12]
 537:Generated_Source\PSoC4/EzI2C_EZI2C.c **** 
 538:Generated_Source\PSoC4/EzI2C_EZI2C.c ****         matchReg  = (uint32) (EzI2C_GET_I2C_8BIT_ADDRESS(matchReg) << EzI2C_RX_MATCH_MASK_POS);
 475              		.loc 1 538 0
 476 0014 FB68     		ldr	r3, [r7, #12]
 477 0016 5B00     		lsl	r3, r3, #1
 478 0018 FF22     		mov	r2, #255
 479 001a 1340     		and	r3, r2
 480 001c 1B04     		lsl	r3, r3, #16
 481 001e FB60     		str	r3, [r7, #12]
 539:Generated_Source\PSoC4/EzI2C_EZI2C.c ****         matchReg |= EzI2C_GET_I2C_8BIT_ADDRESS(addr1);
 482              		.loc 1 539 0
 483 0020 7B68     		ldr	r3, [r7, #4]
 484 0022 5B00     		lsl	r3, r3, #1
 485 0024 FF22     		mov	r2, #255
 486 0026 1340     		and	r3, r2
ARM GAS  C:\Users\CHRIST~1\AppData\Local\Temp\ccCE9EGW.s 			page 19


 487 0028 FA68     		ldr	r2, [r7, #12]
 488 002a 1343     		orr	r3, r2
 489 002c FB60     		str	r3, [r7, #12]
 540:Generated_Source\PSoC4/EzI2C_EZI2C.c **** 
 541:Generated_Source\PSoC4/EzI2C_EZI2C.c ****         return(matchReg);
 490              		.loc 1 541 0
 491 002e FB68     		ldr	r3, [r7, #12]
 542:Generated_Source\PSoC4/EzI2C_EZI2C.c ****     }
 492              		.loc 1 542 0
 493 0030 181C     		mov	r0, r3
 494 0032 BD46     		mov	sp, r7
 495 0034 04B0     		add	sp, sp, #16
 496              		@ sp needed
 497 0036 80BD     		pop	{r7, pc}
 498              		.cfi_endproc
 499              	.LFE8:
 500              		.size	EzI2C_EzI2CUpdateRxMatchReg, .-EzI2C_EzI2CUpdateRxMatchReg
 501              		.section	.text.EzI2C_EzI2CSetAddress2,"ax",%progbits
 502              		.align	2
 503              		.global	EzI2C_EzI2CSetAddress2
 504              		.code	16
 505              		.thumb_func
 506              		.type	EzI2C_EzI2CSetAddress2, %function
 507              	EzI2C_EzI2CSetAddress2:
 508              	.LFB9:
 543:Generated_Source\PSoC4/EzI2C_EZI2C.c **** 
 544:Generated_Source\PSoC4/EzI2C_EZI2C.c ****     /*******************************************************************************
 545:Generated_Source\PSoC4/EzI2C_EZI2C.c ****     * Function Name: EzI2C_EzI2CSetAddress2
 546:Generated_Source\PSoC4/EzI2C_EZI2C.c ****     ****************************************************************************//**
 547:Generated_Source\PSoC4/EzI2C_EZI2C.c ****     *
 548:Generated_Source\PSoC4/EzI2C_EZI2C.c ****     *  Sets the secondary EZI2C slave address.
 549:Generated_Source\PSoC4/EzI2C_EZI2C.c ****     *
 550:Generated_Source\PSoC4/EzI2C_EZI2C.c ****     * \param address: secondary I2C slave address.
 551:Generated_Source\PSoC4/EzI2C_EZI2C.c ****     *  This address is the 7-bit right-justified slave address and does not 
 552:Generated_Source\PSoC4/EzI2C_EZI2C.c ****     *  include the R/W bit.
 553:Generated_Source\PSoC4/EzI2C_EZI2C.c ****     *  The address value is not checked to see if it violates the I2C spec. 
 554:Generated_Source\PSoC4/EzI2C_EZI2C.c ****     *  The preferred addresses are in the range between 8 and 120 (0x08 to 0x78).
 555:Generated_Source\PSoC4/EzI2C_EZI2C.c ****     *
 556:Generated_Source\PSoC4/EzI2C_EZI2C.c ****     * \globalvars
 557:Generated_Source\PSoC4/EzI2C_EZI2C.c ****     *  EzI2C_addrBuf2 - used to store the secondary 7-bit slave address 
 558:Generated_Source\PSoC4/EzI2C_EZI2C.c ****     *  value.
 559:Generated_Source\PSoC4/EzI2C_EZI2C.c ****     *
 560:Generated_Source\PSoC4/EzI2C_EZI2C.c ****     *******************************************************************************/
 561:Generated_Source\PSoC4/EzI2C_EZI2C.c ****     void EzI2C_EzI2CSetAddress2(uint32 address)
 562:Generated_Source\PSoC4/EzI2C_EZI2C.c ****     {
 509              		.loc 1 562 0
 510              		.cfi_startproc
 511 0000 90B5     		push	{r4, r7, lr}
 512              		.cfi_def_cfa_offset 12
 513              		.cfi_offset 4, -12
 514              		.cfi_offset 7, -8
 515              		.cfi_offset 14, -4
 516 0002 83B0     		sub	sp, sp, #12
 517              		.cfi_def_cfa_offset 24
 518 0004 00AF     		add	r7, sp, #0
 519              		.cfi_def_cfa_register 7
 520 0006 7860     		str	r0, [r7, #4]
ARM GAS  C:\Users\CHRIST~1\AppData\Local\Temp\ccCE9EGW.s 			page 20


 563:Generated_Source\PSoC4/EzI2C_EZI2C.c ****         EzI2C_addrBuf2 = (uint8) address;
 521              		.loc 1 563 0
 522 0008 7B68     		ldr	r3, [r7, #4]
 523 000a DAB2     		uxtb	r2, r3
 524 000c 074B     		ldr	r3, .L28
 525 000e 1A70     		strb	r2, [r3]
 564:Generated_Source\PSoC4/EzI2C_EZI2C.c **** 
 565:Generated_Source\PSoC4/EzI2C_EZI2C.c ****         EzI2C_RX_MATCH_REG = 
 526              		.loc 1 565 0
 527 0010 074C     		ldr	r4, .L28+4
 566:Generated_Source\PSoC4/EzI2C_EZI2C.c ****                         EzI2C_EzI2CUpdateRxMatchReg((uint32) EzI2C_addrBuf1, address);
 528              		.loc 1 566 0
 529 0012 084B     		ldr	r3, .L28+8
 530 0014 1B78     		ldrb	r3, [r3]
 531 0016 1A1C     		mov	r2, r3
 532 0018 7B68     		ldr	r3, [r7, #4]
 533 001a 101C     		mov	r0, r2
 534 001c 191C     		mov	r1, r3
 535 001e FFF7FEFF 		bl	EzI2C_EzI2CUpdateRxMatchReg
 536 0022 031C     		mov	r3, r0
 565:Generated_Source\PSoC4/EzI2C_EZI2C.c ****                         EzI2C_EzI2CUpdateRxMatchReg((uint32) EzI2C_addrBuf1, address);
 537              		.loc 1 565 0
 538 0024 2360     		str	r3, [r4]
 567:Generated_Source\PSoC4/EzI2C_EZI2C.c ****     }
 539              		.loc 1 567 0
 540 0026 BD46     		mov	sp, r7
 541 0028 03B0     		add	sp, sp, #12
 542              		@ sp needed
 543 002a 90BD     		pop	{r4, r7, pc}
 544              	.L29:
 545              		.align	2
 546              	.L28:
 547 002c 00000000 		.word	EzI2C_addrBuf2
 548 0030 10030940 		.word	1074332432
 549 0034 00000000 		.word	EzI2C_addrBuf1
 550              		.cfi_endproc
 551              	.LFE9:
 552              		.size	EzI2C_EzI2CSetAddress2, .-EzI2C_EzI2CSetAddress2
 553              		.section	.text.EzI2C_EzI2CGetAddress2,"ax",%progbits
 554              		.align	2
 555              		.global	EzI2C_EzI2CGetAddress2
 556              		.code	16
 557              		.thumb_func
 558              		.type	EzI2C_EzI2CGetAddress2, %function
 559              	EzI2C_EzI2CGetAddress2:
 560              	.LFB10:
 568:Generated_Source\PSoC4/EzI2C_EZI2C.c **** 
 569:Generated_Source\PSoC4/EzI2C_EZI2C.c **** 
 570:Generated_Source\PSoC4/EzI2C_EZI2C.c ****     /*******************************************************************************
 571:Generated_Source\PSoC4/EzI2C_EZI2C.c ****     * Function Name: EzI2C_EzI2CGetAddress2
 572:Generated_Source\PSoC4/EzI2C_EZI2C.c ****     ****************************************************************************//**
 573:Generated_Source\PSoC4/EzI2C_EZI2C.c ****     *
 574:Generated_Source\PSoC4/EzI2C_EZI2C.c ****     *  Returns the secondary EZ I2C slave address.
 575:Generated_Source\PSoC4/EzI2C_EZI2C.c ****     *  This address is the 7-bit right-justified slave address and does not include 
 576:Generated_Source\PSoC4/EzI2C_EZI2C.c ****     *  the R/W bit.
 577:Generated_Source\PSoC4/EzI2C_EZI2C.c ****     *
 578:Generated_Source\PSoC4/EzI2C_EZI2C.c ****     * \return
ARM GAS  C:\Users\CHRIST~1\AppData\Local\Temp\ccCE9EGW.s 			page 21


 579:Generated_Source\PSoC4/EzI2C_EZI2C.c ****     *  Secondary I2C slave address.
 580:Generated_Source\PSoC4/EzI2C_EZI2C.c ****     *
 581:Generated_Source\PSoC4/EzI2C_EZI2C.c ****     * \globalvars
 582:Generated_Source\PSoC4/EzI2C_EZI2C.c ****     *  EzI2C_addrBuf2 - used to store the secondary 7-bit slave address 
 583:Generated_Source\PSoC4/EzI2C_EZI2C.c ****     *  value.
 584:Generated_Source\PSoC4/EzI2C_EZI2C.c ****     *
 585:Generated_Source\PSoC4/EzI2C_EZI2C.c ****     *******************************************************************************/
 586:Generated_Source\PSoC4/EzI2C_EZI2C.c ****     uint32 EzI2C_EzI2CGetAddress2(void)
 587:Generated_Source\PSoC4/EzI2C_EZI2C.c ****     {
 561              		.loc 1 587 0
 562              		.cfi_startproc
 563 0000 80B5     		push	{r7, lr}
 564              		.cfi_def_cfa_offset 8
 565              		.cfi_offset 7, -8
 566              		.cfi_offset 14, -4
 567 0002 00AF     		add	r7, sp, #0
 568              		.cfi_def_cfa_register 7
 588:Generated_Source\PSoC4/EzI2C_EZI2C.c ****         return((uint32) EzI2C_addrBuf2);
 569              		.loc 1 588 0
 570 0004 024B     		ldr	r3, .L32
 571 0006 1B78     		ldrb	r3, [r3]
 589:Generated_Source\PSoC4/EzI2C_EZI2C.c ****     }
 572              		.loc 1 589 0
 573 0008 181C     		mov	r0, r3
 574 000a BD46     		mov	sp, r7
 575              		@ sp needed
 576 000c 80BD     		pop	{r7, pc}
 577              	.L33:
 578 000e C046     		.align	2
 579              	.L32:
 580 0010 00000000 		.word	EzI2C_addrBuf2
 581              		.cfi_endproc
 582              	.LFE10:
 583              		.size	EzI2C_EzI2CGetAddress2, .-EzI2C_EzI2CGetAddress2
 584              		.section	.text.EzI2C_EzI2CSetBuffer2,"ax",%progbits
 585              		.align	2
 586              		.global	EzI2C_EzI2CSetBuffer2
 587              		.code	16
 588              		.thumb_func
 589              		.type	EzI2C_EzI2CSetBuffer2, %function
 590              	EzI2C_EzI2CSetBuffer2:
 591              	.LFB11:
 590:Generated_Source\PSoC4/EzI2C_EZI2C.c **** 
 591:Generated_Source\PSoC4/EzI2C_EZI2C.c **** 
 592:Generated_Source\PSoC4/EzI2C_EZI2C.c ****     /*******************************************************************************
 593:Generated_Source\PSoC4/EzI2C_EZI2C.c ****     * Function Name: EzI2C_EzI2CSetBuffer2
 594:Generated_Source\PSoC4/EzI2C_EZI2C.c ****     ****************************************************************************//**
 595:Generated_Source\PSoC4/EzI2C_EZI2C.c ****     *
 596:Generated_Source\PSoC4/EzI2C_EZI2C.c ****     *  Sets up the data buffer to be exposed to the I2C master on a secondary slave
 597:Generated_Source\PSoC4/EzI2C_EZI2C.c ****     *  address request.
 598:Generated_Source\PSoC4/EzI2C_EZI2C.c ****     *
 599:Generated_Source\PSoC4/EzI2C_EZI2C.c ****     * \param bufSize: Size of the buffer in bytes.
 600:Generated_Source\PSoC4/EzI2C_EZI2C.c ****     * \param rwBoundary: Number of data bytes starting from the beginning of the 
 601:Generated_Source\PSoC4/EzI2C_EZI2C.c ****     *  buffer with read and write access. Data bytes located at offset rwBoundary 
 602:Generated_Source\PSoC4/EzI2C_EZI2C.c ****     *  or greater are read only.
 603:Generated_Source\PSoC4/EzI2C_EZI2C.c ****     *  This value must be less than or equal to the buffer size.
 604:Generated_Source\PSoC4/EzI2C_EZI2C.c ****     * \param buffer: Pointer to the data buffer.
ARM GAS  C:\Users\CHRIST~1\AppData\Local\Temp\ccCE9EGW.s 			page 22


 605:Generated_Source\PSoC4/EzI2C_EZI2C.c ****     *
 606:Generated_Source\PSoC4/EzI2C_EZI2C.c ****     * \sideeffects
 607:Generated_Source\PSoC4/EzI2C_EZI2C.c ****     *  Calling this function in the middle of a transaction intended for the 
 608:Generated_Source\PSoC4/EzI2C_EZI2C.c ****     *  secondary slave address leads to unexpected behavior.
 609:Generated_Source\PSoC4/EzI2C_EZI2C.c ****     *
 610:Generated_Source\PSoC4/EzI2C_EZI2C.c ****     * \globalvars
 611:Generated_Source\PSoC4/EzI2C_EZI2C.c ****     *  EzI2C_dataBuffer2 – the pointer to the buffer to be exposed to the
 612:Generated_Source\PSoC4/EzI2C_EZI2C.c ****     *  master on a secondary address.
 613:Generated_Source\PSoC4/EzI2C_EZI2C.c ****     *  EzI2C_bufSizeBuf2 - the size of the buffer to be exposed to the 
 614:Generated_Source\PSoC4/EzI2C_EZI2C.c ****     *  master on a secondary address.
 615:Generated_Source\PSoC4/EzI2C_EZI2C.c ****     *  EzI2C_protectBuf2 - the start index of the read-only region in the
 616:Generated_Source\PSoC4/EzI2C_EZI2C.c ****     *  buffer to be exposed to the master on a secondary address. The read-only 
 617:Generated_Source\PSoC4/EzI2C_EZI2C.c ****     *  region continues up to the end the buffer.
 618:Generated_Source\PSoC4/EzI2C_EZI2C.c ****     *
 619:Generated_Source\PSoC4/EzI2C_EZI2C.c ****     *******************************************************************************/
 620:Generated_Source\PSoC4/EzI2C_EZI2C.c ****     void EzI2C_EzI2CSetBuffer2(uint32 bufSize, uint32 rwBoundary, volatile uint8 * buffer)
 621:Generated_Source\PSoC4/EzI2C_EZI2C.c ****     {
 592              		.loc 1 621 0
 593              		.cfi_startproc
 594 0000 80B5     		push	{r7, lr}
 595              		.cfi_def_cfa_offset 8
 596              		.cfi_offset 7, -8
 597              		.cfi_offset 14, -4
 598 0002 84B0     		sub	sp, sp, #16
 599              		.cfi_def_cfa_offset 24
 600 0004 00AF     		add	r7, sp, #0
 601              		.cfi_def_cfa_register 7
 602 0006 F860     		str	r0, [r7, #12]
 603 0008 B960     		str	r1, [r7, #8]
 604 000a 7A60     		str	r2, [r7, #4]
 622:Generated_Source\PSoC4/EzI2C_EZI2C.c ****         if (NULL != buffer)
 605              		.loc 1 622 0
 606 000c 7B68     		ldr	r3, [r7, #4]
 607 000e 002B     		cmp	r3, #0
 608 0010 10D0     		beq	.L34
 623:Generated_Source\PSoC4/EzI2C_EZI2C.c ****         {
 624:Generated_Source\PSoC4/EzI2C_EZI2C.c ****             EzI2C_DisableInt();  /* Lock from interruption */
 609              		.loc 1 624 0
 610 0012 0A20     		mov	r0, #10
 611 0014 FFF7FEFF 		bl	CyIntDisable
 625:Generated_Source\PSoC4/EzI2C_EZI2C.c **** 
 626:Generated_Source\PSoC4/EzI2C_EZI2C.c ****             EzI2C_dataBuffer2 =  buffer;
 612              		.loc 1 626 0
 613 0018 084B     		ldr	r3, .L36
 614 001a 7A68     		ldr	r2, [r7, #4]
 615 001c 1A60     		str	r2, [r3]
 627:Generated_Source\PSoC4/EzI2C_EZI2C.c ****             EzI2C_bufSizeBuf2 = (uint16) bufSize;
 616              		.loc 1 627 0
 617 001e FB68     		ldr	r3, [r7, #12]
 618 0020 9AB2     		uxth	r2, r3
 619 0022 074B     		ldr	r3, .L36+4
 620 0024 1A80     		strh	r2, [r3]
 628:Generated_Source\PSoC4/EzI2C_EZI2C.c ****             EzI2C_protectBuf2 = (uint16) rwBoundary;
 621              		.loc 1 628 0
 622 0026 BB68     		ldr	r3, [r7, #8]
 623 0028 9AB2     		uxth	r2, r3
 624 002a 064B     		ldr	r3, .L36+8
ARM GAS  C:\Users\CHRIST~1\AppData\Local\Temp\ccCE9EGW.s 			page 23


 625 002c 1A80     		strh	r2, [r3]
 629:Generated_Source\PSoC4/EzI2C_EZI2C.c **** 
 630:Generated_Source\PSoC4/EzI2C_EZI2C.c ****             EzI2C_EnableInt();   /* Release lock */
 626              		.loc 1 630 0
 627 002e 0A20     		mov	r0, #10
 628 0030 FFF7FEFF 		bl	CyIntEnable
 629              	.L34:
 631:Generated_Source\PSoC4/EzI2C_EZI2C.c ****         }
 632:Generated_Source\PSoC4/EzI2C_EZI2C.c ****     }
 630              		.loc 1 632 0
 631 0034 BD46     		mov	sp, r7
 632 0036 04B0     		add	sp, sp, #16
 633              		@ sp needed
 634 0038 80BD     		pop	{r7, pc}
 635              	.L37:
 636 003a C046     		.align	2
 637              	.L36:
 638 003c 00000000 		.word	EzI2C_dataBuffer2
 639 0040 00000000 		.word	EzI2C_bufSizeBuf2
 640 0044 00000000 		.word	EzI2C_protectBuf2
 641              		.cfi_endproc
 642              	.LFE11:
 643              		.size	EzI2C_EzI2CSetBuffer2, .-EzI2C_EzI2CSetBuffer2
 644              		.section	.text.EzI2C_EzI2CSetReadBoundaryBuffer2,"ax",%progbits
 645              		.align	2
 646              		.global	EzI2C_EzI2CSetReadBoundaryBuffer2
 647              		.code	16
 648              		.thumb_func
 649              		.type	EzI2C_EzI2CSetReadBoundaryBuffer2, %function
 650              	EzI2C_EzI2CSetReadBoundaryBuffer2:
 651              	.LFB12:
 633:Generated_Source\PSoC4/EzI2C_EZI2C.c **** 
 634:Generated_Source\PSoC4/EzI2C_EZI2C.c **** 
 635:Generated_Source\PSoC4/EzI2C_EZI2C.c ****     /*******************************************************************************
 636:Generated_Source\PSoC4/EzI2C_EZI2C.c ****     * Function Name: EzI2C_EzI2CSetReadBoundaryBuffer2
 637:Generated_Source\PSoC4/EzI2C_EZI2C.c ****     ****************************************************************************//**
 638:Generated_Source\PSoC4/EzI2C_EZI2C.c ****     *
 639:Generated_Source\PSoC4/EzI2C_EZI2C.c ****     *  Sets the read only boundary in the data buffer to be exposed to the I2C
 640:Generated_Source\PSoC4/EzI2C_EZI2C.c ****     *  master on a secondary address request.
 641:Generated_Source\PSoC4/EzI2C_EZI2C.c ****     *
 642:Generated_Source\PSoC4/EzI2C_EZI2C.c ****     *  \param rwBoundary: Number of data bytes starting from the beginning of the
 643:Generated_Source\PSoC4/EzI2C_EZI2C.c ****     *   buffer with read and write access. Data bytes located at offset rwBoundary 
 644:Generated_Source\PSoC4/EzI2C_EZI2C.c ****     *   or greater are read only.
 645:Generated_Source\PSoC4/EzI2C_EZI2C.c ****     *   This value must be less than or equal to the buffer size.
 646:Generated_Source\PSoC4/EzI2C_EZI2C.c ****     *
 647:Generated_Source\PSoC4/EzI2C_EZI2C.c ****     *  \sideeffect
 648:Generated_Source\PSoC4/EzI2C_EZI2C.c ****     *   Calling this function in the middle of a transaction intended for the 
 649:Generated_Source\PSoC4/EzI2C_EZI2C.c ****     *   secondary slave address leads to unexpected behavior.
 650:Generated_Source\PSoC4/EzI2C_EZI2C.c ****     *
 651:Generated_Source\PSoC4/EzI2C_EZI2C.c ****     * \globalvars
 652:Generated_Source\PSoC4/EzI2C_EZI2C.c ****     *  EzI2C_protectBuf2 - the start index of the read-only region in the
 653:Generated_Source\PSoC4/EzI2C_EZI2C.c ****     *  buffer to be exposed to the master on a secondary address. The read-only 
 654:Generated_Source\PSoC4/EzI2C_EZI2C.c ****     *  region continues up to the end the buffe
 655:Generated_Source\PSoC4/EzI2C_EZI2C.c ****     *
 656:Generated_Source\PSoC4/EzI2C_EZI2C.c ****     *******************************************************************************/
 657:Generated_Source\PSoC4/EzI2C_EZI2C.c ****     void EzI2C_EzI2CSetReadBoundaryBuffer2(uint32 rwBoundary)
 658:Generated_Source\PSoC4/EzI2C_EZI2C.c ****     {
ARM GAS  C:\Users\CHRIST~1\AppData\Local\Temp\ccCE9EGW.s 			page 24


 652              		.loc 1 658 0
 653              		.cfi_startproc
 654 0000 80B5     		push	{r7, lr}
 655              		.cfi_def_cfa_offset 8
 656              		.cfi_offset 7, -8
 657              		.cfi_offset 14, -4
 658 0002 82B0     		sub	sp, sp, #8
 659              		.cfi_def_cfa_offset 16
 660 0004 00AF     		add	r7, sp, #0
 661              		.cfi_def_cfa_register 7
 662 0006 7860     		str	r0, [r7, #4]
 659:Generated_Source\PSoC4/EzI2C_EZI2C.c ****         EzI2C_protectBuf2 = (uint16) rwBoundary;
 663              		.loc 1 659 0
 664 0008 7B68     		ldr	r3, [r7, #4]
 665 000a 9AB2     		uxth	r2, r3
 666 000c 024B     		ldr	r3, .L39
 667 000e 1A80     		strh	r2, [r3]
 660:Generated_Source\PSoC4/EzI2C_EZI2C.c ****     }
 668              		.loc 1 660 0
 669 0010 BD46     		mov	sp, r7
 670 0012 02B0     		add	sp, sp, #8
 671              		@ sp needed
 672 0014 80BD     		pop	{r7, pc}
 673              	.L40:
 674 0016 C046     		.align	2
 675              	.L39:
 676 0018 00000000 		.word	EzI2C_protectBuf2
 677              		.cfi_endproc
 678              	.LFE12:
 679              		.size	EzI2C_EzI2CSetReadBoundaryBuffer2, .-EzI2C_EzI2CSetReadBoundaryBuffer2
 680              		.text
 681              	.Letext0:
 682              		.file 2 "Generated_Source\\PSoC4/cytypes.h"