ARM GAS  C:\Users\CHRIST~1\AppData\Local\Temp\ccTEtyyK.s 			page 1


   1              		.cpu cortex-m0plus
   2              		.fpu softvfp
   3              		.eabi_attribute 20, 1
   4              		.eabi_attribute 21, 1
   5              		.eabi_attribute 23, 3
   6              		.eabi_attribute 24, 1
   7              		.eabi_attribute 25, 1
   8              		.eabi_attribute 26, 1
   9              		.eabi_attribute 30, 6
  10              		.eabi_attribute 34, 0
  11              		.eabi_attribute 18, 4
  12              		.code	16
  13              		.file	"Filters.c"
  14              		.text
  15              	.Ltext0:
  16              		.cfi_sections	.debug_frame
  17              		.global	Lpf
  18              		.bss
  19              		.align	2
  20              		.type	Lpf, %object
  21              		.size	Lpf, 16
  22              	Lpf:
  23 0000 00000000 		.space	16
  23      00000000 
  23      00000000 
  23      00000000 
  24              		.global	IIRFilterCoefficient
  25              		.align	2
  26              		.type	IIRFilterCoefficient, %object
  27              		.size	IIRFilterCoefficient, 8
  28              	IIRFilterCoefficient:
  29 0010 00000000 		.space	8
  29      00000000 
  30              		.global	vlp
  31              		.align	2
  32              		.type	vlp, %object
  33              		.size	vlp, 4
  34              	vlp:
  35 0018 00000000 		.space	4
  36              		.section	.text.InitFilters,"ax",%progbits
  37              		.align	2
  38              		.global	InitFilters
  39              		.code	16
  40              		.thumb_func
  41              		.type	InitFilters, %function
  42              	InitFilters:
  43              	.LFB35:
  44              		.file 1 "Filters.c"
   1:Filters.c     **** /*******************************************************************************
   2:Filters.c     **** * File Name: Filters.c
   3:Filters.c     **** *
   4:Filters.c     **** * Version: 1.0
   5:Filters.c     **** *
   6:Filters.c     **** * Description:
   7:Filters.c     **** * This is source code for IIR low pass and high pass filters.
   8:Filters.c     **** *
   9:Filters.c     **** * Code Tested With:
ARM GAS  C:\Users\CHRIST~1\AppData\Local\Temp\ccTEtyyK.s 			page 2


  10:Filters.c     **** * PSoC Creator 3.3 SP2 build 9598
  11:Filters.c     **** *
  12:Filters.c     **** ********************************************************************************
  13:Filters.c     **** * Copyright (2015) , Cypress Semiconductor Corporation.
  14:Filters.c     **** ********************************************************************************
  15:Filters.c     **** * This software is owned by Cypress Semiconductor Corporation (Cypress) and is
  16:Filters.c     **** * protected by and subject to worldwide patent protection (United States and
  17:Filters.c     **** * foreign), United States copyright laws and international treaty provisions.
  18:Filters.c     **** * Cypress hereby grants to licensee a personal, non-exclusive, non-transferable
  19:Filters.c     **** * license to copy, use, modify, create derivative works of, and compile the
  20:Filters.c     **** * Cypress Source Code and derivative works for the sole purpose of creating
  21:Filters.c     **** * custom software in support of licensee product to be used only in conjunction
  22:Filters.c     **** * with a Cypress integrated circuit as specified in the applicable agreement.
  23:Filters.c     **** * Any reproduction, modification, translation, compilation, or representation of
  24:Filters.c     **** * this software except as specified above is prohibited without the express
  25:Filters.c     **** * written permission of Cypress.
  26:Filters.c     **** *
  27:Filters.c     **** * Disclaimer: CYPRESS MAKES NO WARRANTY OF ANY KIND, EXPRESS OR IMPLIED, WITH
  28:Filters.c     **** * REGARD TO THIS MATERIAL, INCLUDING, BUT NOT LIMITED TO, THE IMPLIED
  29:Filters.c     **** * WARRANTIES OF MERCHANTABILITY AND FITNESS FOR A PARTICULAR PURPOSE.
  30:Filters.c     **** * Cypress reserves the right to make changes without further notice to the
  31:Filters.c     **** * materials described herein. Cypress does not assume any liability arising out
  32:Filters.c     **** * of the application or use of any product or circuit described herein. Cypress
  33:Filters.c     **** * does not authorize its products for use as critical components in life-support
  34:Filters.c     **** * systems where a malfunction or failure may reasonably be expected to result in
  35:Filters.c     **** * significant injury to the user. The inclusion of Cypress' product in a life
  36:Filters.c     **** * support systems application implies that the manufacturer assumes all risk of
  37:Filters.c     **** * such use and in doing so indemnifies Cypress against all charges. Use may be
  38:Filters.c     **** * limited by and subject to the applicable Cypress software license agreement.
  39:Filters.c     **** *******************************************************************************/
  40:Filters.c     **** 
  41:Filters.c     **** #include <project.h>
  42:Filters.c     **** #include <filters.h>
  43:Filters.c     **** 
  44:Filters.c     **** int32 Lpf[FILTER_CHANNELS] = {0};
  45:Filters.c     **** int16 IIRFilterCoefficient[FILTER_CHANNELS] = {0};
  46:Filters.c     **** 
  47:Filters.c     **** int32 vlp = 0;
  48:Filters.c     **** 
  49:Filters.c     **** /****************************************************************************** 
  50:Filters.c     **** * Function Name: InitFilters
  51:Filters.c     **** *******************************************************************************
  52:Filters.c     **** *
  53:Filters.c     **** * Summary:
  54:Filters.c     **** *  This function initializes the filters
  55:Filters.c     **** *  
  56:Filters.c     **** *
  57:Filters.c     **** * Parameters:  
  58:Filters.c     **** *  None
  59:Filters.c     **** *
  60:Filters.c     **** * Return: 
  61:Filters.c     **** *  None
  62:Filters.c     **** *
  63:Filters.c     **** *******************************************************************************/
  64:Filters.c     **** void InitFilters(void)
  65:Filters.c     **** {
  45              		.loc 1 65 0
ARM GAS  C:\Users\CHRIST~1\AppData\Local\Temp\ccTEtyyK.s 			page 3


  46              		.cfi_startproc
  47 0000 80B5     		push	{r7, lr}
  48              		.cfi_def_cfa_offset 8
  49              		.cfi_offset 7, -8
  50              		.cfi_offset 14, -4
  51 0002 82B0     		sub	sp, sp, #8
  52              		.cfi_def_cfa_offset 16
  53 0004 00AF     		add	r7, sp, #0
  54              		.cfi_def_cfa_register 7
  66:Filters.c     **** 	uint8 Channel;
  67:Filters.c     **** 	for (Channel=0; Channel<FILTER_CHANNELS; Channel++)
  55              		.loc 1 67 0
  56 0006 FB1D     		add	r3, r7, #7
  57 0008 0022     		mov	r2, #0
  58 000a 1A70     		strb	r2, [r3]
  59 000c 0BE0     		b	.L2
  60              	.L3:
  68:Filters.c     **** 	{
  69:Filters.c     **** 		Lpf[Channel]=(1 << (ADC_SAR_MAX_RESOLUTION - 1) << 8);
  61              		.loc 1 69 0 discriminator 3
  62 000e FB1D     		add	r3, r7, #7
  63 0010 1A78     		ldrb	r2, [r3]
  64 0012 084B     		ldr	r3, .L4
  65 0014 9200     		lsl	r2, r2, #2
  66 0016 8021     		mov	r1, #128
  67 0018 0903     		lsl	r1, r1, #12
  68 001a D150     		str	r1, [r2, r3]
  67:Filters.c     **** 	{
  69              		.loc 1 67 0 discriminator 3
  70 001c FB1D     		add	r3, r7, #7
  71 001e 1A78     		ldrb	r2, [r3]
  72 0020 FB1D     		add	r3, r7, #7
  73 0022 0132     		add	r2, r2, #1
  74 0024 1A70     		strb	r2, [r3]
  75              	.L2:
  67:Filters.c     **** 	{
  76              		.loc 1 67 0 is_stmt 0 discriminator 1
  77 0026 FB1D     		add	r3, r7, #7
  78 0028 1B78     		ldrb	r3, [r3]
  79 002a 032B     		cmp	r3, #3
  80 002c EFD9     		bls	.L3
  70:Filters.c     **** 	}
  71:Filters.c     **** }
  81              		.loc 1 71 0 is_stmt 1
  82 002e BD46     		mov	sp, r7
  83 0030 02B0     		add	sp, sp, #8
  84              		@ sp needed
  85 0032 80BD     		pop	{r7, pc}
  86              	.L5:
  87              		.align	2
  88              	.L4:
  89 0034 00000000 		.word	Lpf
  90              		.cfi_endproc
  91              	.LFE35:
  92              		.size	InitFilters, .-InitFilters
  93              		.global	__aeabi_idiv
  94              		.section	.text.LowPassFilter,"ax",%progbits
ARM GAS  C:\Users\CHRIST~1\AppData\Local\Temp\ccTEtyyK.s 			page 4


  95              		.align	2
  96              		.global	LowPassFilter
  97              		.code	16
  98              		.thumb_func
  99              		.type	LowPassFilter, %function
 100              	LowPassFilter:
 101              	.LFB36:
  72:Filters.c     **** 
  73:Filters.c     **** /*******************************************************************************
  74:Filters.c     **** * Function Name: int32 LowPassFilter(int32 input, uint8 Channel)
  75:Filters.c     **** ********************************************************************************
  76:Filters.c     **** *
  77:Filters.c     **** * Summary:
  78:Filters.c     **** *  This function implements an IIR low pass filter
  79:Filters.c     **** *
  80:Filters.c     **** * Parameters:
  81:Filters.c     **** *  int32 input - Input value to be filtered
  82:Filters.c     **** *  uint8 Channel - IIR filter channel number
  83:Filters.c     **** *
  84:Filters.c     **** * Return:
  85:Filters.c     **** *  int32 - Filtered output
  86:Filters.c     **** *
  87:Filters.c     **** * Side Effects:
  88:Filters.c     **** *   None
  89:Filters.c     **** *******************************************************************************/
  90:Filters.c     **** int32 LowPassFilter(int32 input, uint8 Channel)
  91:Filters.c     **** {
 102              		.loc 1 91 0
 103              		.cfi_startproc
 104 0000 90B5     		push	{r4, r7, lr}
 105              		.cfi_def_cfa_offset 12
 106              		.cfi_offset 4, -12
 107              		.cfi_offset 7, -8
 108              		.cfi_offset 14, -4
 109 0002 83B0     		sub	sp, sp, #12
 110              		.cfi_def_cfa_offset 24
 111 0004 00AF     		add	r7, sp, #0
 112              		.cfi_def_cfa_register 7
 113 0006 7860     		str	r0, [r7, #4]
 114 0008 0A1C     		mov	r2, r1
 115 000a FB1C     		add	r3, r7, #3
 116 000c 1A70     		strb	r2, [r3]
  92:Filters.c     ****     input <<= 8;
 117              		.loc 1 92 0
 118 000e 7B68     		ldr	r3, [r7, #4]
 119 0010 1B02     		lsl	r3, r3, #8
 120 0012 7B60     		str	r3, [r7, #4]
  93:Filters.c     ****     Lpf[Channel] = (input + (IIRFilterCoefficient[Channel] - 1)*Lpf[Channel])/IIRFilterCoefficient[
 121              		.loc 1 93 0
 122 0014 FB1C     		add	r3, r7, #3
 123 0016 1C78     		ldrb	r4, [r3]
 124 0018 FB1C     		add	r3, r7, #3
 125 001a 1A78     		ldrb	r2, [r3]
 126 001c 124B     		ldr	r3, .L8
 127 001e 5200     		lsl	r2, r2, #1
 128 0020 D35A     		ldrh	r3, [r2, r3]
 129 0022 1BB2     		sxth	r3, r3
ARM GAS  C:\Users\CHRIST~1\AppData\Local\Temp\ccTEtyyK.s 			page 5


 130 0024 013B     		sub	r3, r3, #1
 131 0026 FA1C     		add	r2, r7, #3
 132 0028 1178     		ldrb	r1, [r2]
 133 002a 104A     		ldr	r2, .L8+4
 134 002c 8900     		lsl	r1, r1, #2
 135 002e 8A58     		ldr	r2, [r1, r2]
 136 0030 5A43     		mul	r2, r3
 137 0032 7B68     		ldr	r3, [r7, #4]
 138 0034 D118     		add	r1, r2, r3
 139 0036 FB1C     		add	r3, r7, #3
 140 0038 1A78     		ldrb	r2, [r3]
 141 003a 0B4B     		ldr	r3, .L8
 142 003c 5200     		lsl	r2, r2, #1
 143 003e D35A     		ldrh	r3, [r2, r3]
 144 0040 1BB2     		sxth	r3, r3
 145 0042 081C     		mov	r0, r1
 146 0044 191C     		mov	r1, r3
 147 0046 FFF7FEFF 		bl	__aeabi_idiv
 148 004a 031C     		mov	r3, r0
 149 004c 191C     		mov	r1, r3
 150 004e 074B     		ldr	r3, .L8+4
 151 0050 A200     		lsl	r2, r4, #2
 152 0052 D150     		str	r1, [r2, r3]
  94:Filters.c     ****     return(Lpf[Channel] >> 8);
 153              		.loc 1 94 0
 154 0054 FB1C     		add	r3, r7, #3
 155 0056 1A78     		ldrb	r2, [r3]
 156 0058 044B     		ldr	r3, .L8+4
 157 005a 9200     		lsl	r2, r2, #2
 158 005c D358     		ldr	r3, [r2, r3]
 159 005e 1B12     		asr	r3, r3, #8
  95:Filters.c     **** }
 160              		.loc 1 95 0
 161 0060 181C     		mov	r0, r3
 162 0062 BD46     		mov	sp, r7
 163 0064 03B0     		add	sp, sp, #12
 164              		@ sp needed
 165 0066 90BD     		pop	{r4, r7, pc}
 166              	.L9:
 167              		.align	2
 168              	.L8:
 169 0068 00000000 		.word	IIRFilterCoefficient
 170 006c 00000000 		.word	Lpf
 171              		.cfi_endproc
 172              	.LFE36:
 173              		.size	LowPassFilter, .-LowPassFilter
 174              		.section	.text.SetFilterCoefficient,"ax",%progbits
 175              		.align	2
 176              		.global	SetFilterCoefficient
 177              		.code	16
 178              		.thumb_func
 179              		.type	SetFilterCoefficient, %function
 180              	SetFilterCoefficient:
 181              	.LFB37:
  96:Filters.c     **** 
  97:Filters.c     **** /*******************************************************************************
  98:Filters.c     **** * Function Name: void SetFilterCoefficient(uint16 FilterCoefficient, uint8 Channel)
ARM GAS  C:\Users\CHRIST~1\AppData\Local\Temp\ccTEtyyK.s 			page 6


  99:Filters.c     **** ********************************************************************************
 100:Filters.c     **** *
 101:Filters.c     **** * Summary:
 102:Filters.c     **** *  This function sets the filter coefficient for a filter channel
 103:Filters.c     **** *
 104:Filters.c     **** * Parameters:
 105:Filters.c     **** *  uint16 FilterCoefficient - Filter coefficient for the particular channel
 106:Filters.c     **** *  uint8 Channel - IIR filter channel number
 107:Filters.c     **** *
 108:Filters.c     **** * Return:
 109:Filters.c     **** *  None
 110:Filters.c     **** *
 111:Filters.c     **** * Side Effects:
 112:Filters.c     **** *   None
 113:Filters.c     **** *******************************************************************************/
 114:Filters.c     **** void SetFilterCoefficient(uint16 FilterCoefficient, uint8 Channel)
 115:Filters.c     **** {
 182              		.loc 1 115 0
 183              		.cfi_startproc
 184 0000 80B5     		push	{r7, lr}
 185              		.cfi_def_cfa_offset 8
 186              		.cfi_offset 7, -8
 187              		.cfi_offset 14, -4
 188 0002 82B0     		sub	sp, sp, #8
 189              		.cfi_def_cfa_offset 16
 190 0004 00AF     		add	r7, sp, #0
 191              		.cfi_def_cfa_register 7
 192 0006 021C     		mov	r2, r0
 193 0008 BB1D     		add	r3, r7, #6
 194 000a 1A80     		strh	r2, [r3]
 195 000c 7B1D     		add	r3, r7, #5
 196 000e 0A1C     		add	r2, r1, #0
 197 0010 1A70     		strb	r2, [r3]
 116:Filters.c     **** 	IIRFilterCoefficient[Channel] = FilterCoefficient;
 198              		.loc 1 116 0
 199 0012 7B1D     		add	r3, r7, #5
 200 0014 1A78     		ldrb	r2, [r3]
 201 0016 BB1D     		add	r3, r7, #6
 202 0018 1988     		ldrh	r1, [r3]
 203 001a 034B     		ldr	r3, .L11
 204 001c 5200     		lsl	r2, r2, #1
 205 001e D152     		strh	r1, [r2, r3]
 117:Filters.c     **** }
 206              		.loc 1 117 0
 207 0020 BD46     		mov	sp, r7
 208 0022 02B0     		add	sp, sp, #8
 209              		@ sp needed
 210 0024 80BD     		pop	{r7, pc}
 211              	.L12:
 212 0026 C046     		.align	2
 213              	.L11:
 214 0028 00000000 		.word	IIRFilterCoefficient
 215              		.cfi_endproc
 216              	.LFE37:
 217              		.size	SetFilterCoefficient, .-SetFilterCoefficient
 218              		.section	.text.InitLowPassFilter,"ax",%progbits
 219              		.align	2
ARM GAS  C:\Users\CHRIST~1\AppData\Local\Temp\ccTEtyyK.s 			page 7


 220              		.global	InitLowPassFilter
 221              		.code	16
 222              		.thumb_func
 223              		.type	InitLowPassFilter, %function
 224              	InitLowPassFilter:
 225              	.LFB38:
 118:Filters.c     **** 
 119:Filters.c     **** /*******************************************************************************
 120:Filters.c     **** * Function Name: void InitLowPassFilter(int32 InitValue, uint8 Channel)
 121:Filters.c     **** ********************************************************************************
 122:Filters.c     **** *
 123:Filters.c     **** * Summary:
 124:Filters.c     **** *  This function initializes a particular low pass filter channel
 125:Filters.c     **** *
 126:Filters.c     **** * Parameters:
 127:Filters.c     **** *  int32 InitValue - Value to be initialized
 128:Filters.c     **** *  uint8 Channel - IIR filter channel number
 129:Filters.c     **** *
 130:Filters.c     **** * Return:
 131:Filters.c     **** *  None
 132:Filters.c     **** *
 133:Filters.c     **** * Side Effects:
 134:Filters.c     **** *   None
 135:Filters.c     **** *******************************************************************************/
 136:Filters.c     **** void InitLowPassFilter(int32 InitValue, uint8 Channel)
 137:Filters.c     **** {
 226              		.loc 1 137 0
 227              		.cfi_startproc
 228 0000 80B5     		push	{r7, lr}
 229              		.cfi_def_cfa_offset 8
 230              		.cfi_offset 7, -8
 231              		.cfi_offset 14, -4
 232 0002 82B0     		sub	sp, sp, #8
 233              		.cfi_def_cfa_offset 16
 234 0004 00AF     		add	r7, sp, #0
 235              		.cfi_def_cfa_register 7
 236 0006 7860     		str	r0, [r7, #4]
 237 0008 0A1C     		mov	r2, r1
 238 000a FB1C     		add	r3, r7, #3
 239 000c 1A70     		strb	r2, [r3]
 138:Filters.c     **** 	Lpf[Channel] = InitValue << 8;
 240              		.loc 1 138 0
 241 000e FB1C     		add	r3, r7, #3
 242 0010 1A78     		ldrb	r2, [r3]
 243 0012 7B68     		ldr	r3, [r7, #4]
 244 0014 1902     		lsl	r1, r3, #8
 245 0016 034B     		ldr	r3, .L14
 246 0018 9200     		lsl	r2, r2, #2
 247 001a D150     		str	r1, [r2, r3]
 139:Filters.c     **** }
 248              		.loc 1 139 0
 249 001c BD46     		mov	sp, r7
 250 001e 02B0     		add	sp, sp, #8
 251              		@ sp needed
 252 0020 80BD     		pop	{r7, pc}
 253              	.L15:
 254 0022 C046     		.align	2
ARM GAS  C:\Users\CHRIST~1\AppData\Local\Temp\ccTEtyyK.s 			page 8


 255              	.L14:
 256 0024 00000000 		.word	Lpf
 257              		.cfi_endproc
 258              	.LFE38:
 259              		.size	InitLowPassFilter, .-InitLowPassFilter
 260              		.section	.text.InitHighPassFilter,"ax",%progbits
 261              		.align	2
 262              		.global	InitHighPassFilter
 263              		.code	16
 264              		.thumb_func
 265              		.type	InitHighPassFilter, %function
 266              	InitHighPassFilter:
 267              	.LFB39:
 140:Filters.c     **** 
 141:Filters.c     **** /*******************************************************************************
 142:Filters.c     **** * Function Name: void InitHighPassFilter(int16 input)
 143:Filters.c     **** ********************************************************************************
 144:Filters.c     **** *
 145:Filters.c     **** * Summary:
 146:Filters.c     **** *  This function initializes the high pass filter with a particular value
 147:Filters.c     **** *
 148:Filters.c     **** * Parameters:
 149:Filters.c     **** *  int16 input - initialization value
 150:Filters.c     **** *
 151:Filters.c     **** * Return:
 152:Filters.c     **** *  None
 153:Filters.c     **** *
 154:Filters.c     **** * Side Effects:
 155:Filters.c     **** *   None
 156:Filters.c     **** *******************************************************************************/
 157:Filters.c     **** void InitHighPassFilter(int16 input)
 158:Filters.c     **** {
 268              		.loc 1 158 0
 269              		.cfi_startproc
 270 0000 80B5     		push	{r7, lr}
 271              		.cfi_def_cfa_offset 8
 272              		.cfi_offset 7, -8
 273              		.cfi_offset 14, -4
 274 0002 82B0     		sub	sp, sp, #8
 275              		.cfi_def_cfa_offset 16
 276 0004 00AF     		add	r7, sp, #0
 277              		.cfi_def_cfa_register 7
 278 0006 021C     		mov	r2, r0
 279 0008 BB1D     		add	r3, r7, #6
 280 000a 1A80     		strh	r2, [r3]
 159:Filters.c     **** 	vlp = (int32)input;	
 281              		.loc 1 159 0
 282 000c BB1D     		add	r3, r7, #6
 283 000e 0022     		mov	r2, #0
 284 0010 9A5E     		ldrsh	r2, [r3, r2]
 285 0012 024B     		ldr	r3, .L17
 286 0014 1A60     		str	r2, [r3]
 160:Filters.c     **** }
 287              		.loc 1 160 0
 288 0016 BD46     		mov	sp, r7
 289 0018 02B0     		add	sp, sp, #8
 290              		@ sp needed
ARM GAS  C:\Users\CHRIST~1\AppData\Local\Temp\ccTEtyyK.s 			page 9


 291 001a 80BD     		pop	{r7, pc}
 292              	.L18:
 293              		.align	2
 294              	.L17:
 295 001c 00000000 		.word	vlp
 296              		.cfi_endproc
 297              	.LFE39:
 298              		.size	InitHighPassFilter, .-InitHighPassFilter
 299              		.section	.text.HighPassFilter,"ax",%progbits
 300              		.align	2
 301              		.global	HighPassFilter
 302              		.code	16
 303              		.thumb_func
 304              		.type	HighPassFilter, %function
 305              	HighPassFilter:
 306              	.LFB40:
 161:Filters.c     **** 
 162:Filters.c     **** 
 163:Filters.c     **** /*******************************************************************************
 164:Filters.c     **** * Function Name: int16 HighPassFilter(int16 input)
 165:Filters.c     **** ********************************************************************************
 166:Filters.c     **** *
 167:Filters.c     **** * Summary:
 168:Filters.c     **** *  This function implements a high pass filter
 169:Filters.c     **** *
 170:Filters.c     **** * Parameters:
 171:Filters.c     **** *  int16 input - 16 bit signed input
 172:Filters.c     **** *
 173:Filters.c     **** * Return:
 174:Filters.c     **** *  int16 - High pass filtered output
 175:Filters.c     **** *
 176:Filters.c     **** * Side Effects:
 177:Filters.c     **** *   None
 178:Filters.c     **** *******************************************************************************/
 179:Filters.c     **** int16 HighPassFilter(int16 input)
 180:Filters.c     **** {
 307              		.loc 1 180 0
 308              		.cfi_startproc
 309 0000 80B5     		push	{r7, lr}
 310              		.cfi_def_cfa_offset 8
 311              		.cfi_offset 7, -8
 312              		.cfi_offset 14, -4
 313 0002 84B0     		sub	sp, sp, #16
 314              		.cfi_def_cfa_offset 24
 315 0004 00AF     		add	r7, sp, #0
 316              		.cfi_def_cfa_register 7
 317 0006 021C     		mov	r2, r0
 318 0008 BB1D     		add	r3, r7, #6
 319 000a 1A80     		strh	r2, [r3]
 181:Filters.c     **** 	int16 vhp;
 182:Filters.c     ****     uint8 scale = 6;
 320              		.loc 1 182 0
 321 000c 0F23     		mov	r3, #15
 322 000e FB18     		add	r3, r7, r3
 323 0010 0622     		mov	r2, #6
 324 0012 1A70     		strb	r2, [r3]
 183:Filters.c     **** 	
ARM GAS  C:\Users\CHRIST~1\AppData\Local\Temp\ccTEtyyK.s 			page 10


 184:Filters.c     **** 	vhp = input-vlp;
 325              		.loc 1 184 0
 326 0014 BB1D     		add	r3, r7, #6
 327 0016 1A88     		ldrh	r2, [r3]
 328 0018 134B     		ldr	r3, .L21
 329 001a 1B68     		ldr	r3, [r3]
 330 001c 9BB2     		uxth	r3, r3
 331 001e D31A     		sub	r3, r2, r3
 332 0020 9AB2     		uxth	r2, r3
 333 0022 0C23     		mov	r3, #12
 334 0024 FB18     		add	r3, r7, r3
 335 0026 1A80     		strh	r2, [r3]
 185:Filters.c     **** 	vlp += vhp >> scale;
 336              		.loc 1 185 0
 337 0028 0C23     		mov	r3, #12
 338 002a FB18     		add	r3, r7, r3
 339 002c 0022     		mov	r2, #0
 340 002e 9A5E     		ldrsh	r2, [r3, r2]
 341 0030 0F23     		mov	r3, #15
 342 0032 FB18     		add	r3, r7, r3
 343 0034 1B78     		ldrb	r3, [r3]
 344 0036 1A41     		asr	r2, r2, r3
 345 0038 0B4B     		ldr	r3, .L21
 346 003a 1B68     		ldr	r3, [r3]
 347 003c D218     		add	r2, r2, r3
 348 003e 0A4B     		ldr	r3, .L21
 349 0040 1A60     		str	r2, [r3]
 186:Filters.c     **** 	return vhp - (1 << (scale - 1));
 350              		.loc 1 186 0
 351 0042 0C23     		mov	r3, #12
 352 0044 FB18     		add	r3, r7, r3
 353 0046 1A88     		ldrh	r2, [r3]
 354 0048 0F23     		mov	r3, #15
 355 004a FB18     		add	r3, r7, r3
 356 004c 1B78     		ldrb	r3, [r3]
 357 004e 013B     		sub	r3, r3, #1
 358 0050 0121     		mov	r1, #1
 359 0052 9940     		lsl	r1, r1, r3
 360 0054 0B1C     		mov	r3, r1
 361 0056 9BB2     		uxth	r3, r3
 362 0058 D31A     		sub	r3, r2, r3
 363 005a 9BB2     		uxth	r3, r3
 364 005c 9BB2     		uxth	r3, r3
 365 005e 1BB2     		sxth	r3, r3
 187:Filters.c     **** }
 366              		.loc 1 187 0
 367 0060 181C     		mov	r0, r3
 368 0062 BD46     		mov	sp, r7
 369 0064 04B0     		add	sp, sp, #16
 370              		@ sp needed
 371 0066 80BD     		pop	{r7, pc}
 372              	.L22:
 373              		.align	2
 374              	.L21:
 375 0068 00000000 		.word	vlp
 376              		.cfi_endproc
 377              	.LFE40:
ARM GAS  C:\Users\CHRIST~1\AppData\Local\Temp\ccTEtyyK.s 			page 11


 378              		.size	HighPassFilter, .-HighPassFilter
 379              		.text
 380              	.Letext0:
 381              		.file 2 "Generated_Source\\PSoC4/cytypes.h"