ARM GAS  C:\Users\CHRIST~1\AppData\Local\Temp\ccYkVB7y.s 			page 1


   1              		.cpu cortex-m0plus
   2              		.fpu softvfp
   3              		.eabi_attribute 20, 1
   4              		.eabi_attribute 21, 1
   5              		.eabi_attribute 23, 3
   6              		.eabi_attribute 24, 1
   7              		.eabi_attribute 25, 1
   8              		.eabi_attribute 26, 1
   9              		.eabi_attribute 30, 6
  10              		.eabi_attribute 34, 0
  11              		.eabi_attribute 18, 4
  12              		.code	16
  13              		.file	"Humidity.c"
  14              		.text
  15              	.Ltext0:
  16              		.cfi_sections	.debug_frame
  17              		.section	.text.HumidityTask,"ax",%progbits
  18              		.align	2
  19              		.global	HumidityTask
  20              		.code	16
  21              		.thumb_func
  22              		.type	HumidityTask, %function
  23              	HumidityTask:
  24              	.LFB35:
  25              		.file 1 "Humidity.c"
   1:Humidity.c    **** /*******************************************************************************
   2:Humidity.c    **** * File Name: Humidity.c
   3:Humidity.c    **** *
   4:Humidity.c    **** * Version: 1.0
   5:Humidity.c    **** *
   6:Humidity.c    **** * Description:
   7:Humidity.c    **** * This is the source file for Humidity measurement.
   8:Humidity.c    **** *
   9:Humidity.c    **** ********************************************************************************
  10:Humidity.c    **** * Copyright (2016) , Cypress Semiconductor Corporation.
  11:Humidity.c    **** ********************************************************************************
  12:Humidity.c    **** * This software is owned by Cypress Semiconductor Corporation (Cypress) and is
  13:Humidity.c    **** * protected by and subject to worldwide patent protection (United States and
  14:Humidity.c    **** * foreign), United States copyright laws and international treaty provisions.
  15:Humidity.c    **** * Cypress hereby grants to licensee a personal, non-exclusive, non-transferable
  16:Humidity.c    **** * license to copy, use, modify, create derivative works of, and compile the
  17:Humidity.c    **** * Cypress Source Code and derivative works for the sole purpose of creating
  18:Humidity.c    **** * custom software in support of licensee product to be used only in conjunction
  19:Humidity.c    **** * with a Cypress integrated circuit as specified in the applicable agreement.
  20:Humidity.c    **** * Any reproduction, modification, translation, compilation, or representation of
  21:Humidity.c    **** * this software except as specified above is prohibited without the express
  22:Humidity.c    **** * written permission of Cypress.
  23:Humidity.c    **** *
  24:Humidity.c    **** * Disclaimer: CYPRESS MAKES NO WARRANTY OF ANY KIND, EXPRESS OR IMPLIED, WITH
  25:Humidity.c    **** * REGARD TO THIS MATERIAL, INCLUDING, BUT NOT LIMITED TO, THE IMPLIED
  26:Humidity.c    **** * WARRANTIES OF MERCHANTABILITY AND FITNESS FOR A PARTICULAR PURPOSE.
  27:Humidity.c    **** * Cypress reserves the right to make changes without further notice to the
  28:Humidity.c    **** * materials described herein. Cypress does not assume any liability arising out
  29:Humidity.c    **** * of the application or use of any product or circuit described herein. Cypress
  30:Humidity.c    **** * does not authorize its products for use as critical components in life-support
  31:Humidity.c    **** * systems where a malfunction or failure may reasonably be expected to result in
  32:Humidity.c    **** * significant injury to the user. The inclusion of Cypress' product in a life
ARM GAS  C:\Users\CHRIST~1\AppData\Local\Temp\ccYkVB7y.s 			page 2


  33:Humidity.c    **** * support systems application implies that the manufacturer assumes all risk of
  34:Humidity.c    **** * such use and in doing so indemnifies Cypress against all charges. Use may be
  35:Humidity.c    **** * limited by and subject to the applicable Cypress software license agreement.
  36:Humidity.c    **** *******************************************************************************/
  37:Humidity.c    **** #include <project.h>
  38:Humidity.c    **** #include "main.h"
  39:Humidity.c    **** #include "humidity.h"
  40:Humidity.c    **** #include "filters.h"
  41:Humidity.c    **** 
  42:Humidity.c    **** 
  43:Humidity.c    **** /*******************************************************************************
  44:Humidity.c    **** * Function Name: void HumidityTask(void)
  45:Humidity.c    **** ********************************************************************************
  46:Humidity.c    **** *
  47:Humidity.c    **** * Summary:
  48:Humidity.c    **** *  This function performs humidity measurement.
  49:Humidity.c    **** *  The function checks if CSD scan is complete, reads the raw counts, converts the
  50:Humidity.c    **** *  raw counts to capacitance, and capacitance to humidity.
  51:Humidity.c    **** *
  52:Humidity.c    **** * Parameters:
  53:Humidity.c    **** *  None
  54:Humidity.c    **** *
  55:Humidity.c    **** * Return:
  56:Humidity.c    **** *  None.
  57:Humidity.c    **** *
  58:Humidity.c    **** * Side Effects:
  59:Humidity.c    **** *   None
  60:Humidity.c    **** *******************************************************************************/
  61:Humidity.c    **** void HumidityTask(void)
  62:Humidity.c    **** {
  26              		.loc 1 62 0
  27              		.cfi_startproc
  28 0000 80B5     		push	{r7, lr}
  29              		.cfi_def_cfa_offset 8
  30              		.cfi_offset 7, -8
  31              		.cfi_offset 14, -4
  32 0002 82B0     		sub	sp, sp, #8
  33              		.cfi_def_cfa_offset 16
  34 0004 00AF     		add	r7, sp, #0
  35              		.cfi_def_cfa_register 7
  63:Humidity.c    **** 	
  64:Humidity.c    ****     uint32 sensorraw;
  65:Humidity.c    ****     uint32 refraw;
  66:Humidity.c    **** 
  67:Humidity.c    **** 
  68:Humidity.c    **** 	/* Check if CSD scan is complete */
  69:Humidity.c    **** 	if(!(CSD_IsBusy()))
  36              		.loc 1 69 0
  37 0006 FFF7FEFF 		bl	CSD_IsBusy
  38 000a 031E     		sub	r3, r0, #0
  39 000c 24D1     		bne	.L1
  70:Humidity.c    **** 	{
  71:Humidity.c    **** 		/* Read reference capacitor raw counts */
  72:Humidity.c    ****         refraw = CSD_BUTTON0_SNS1_RAW0_VALUE;
  40              		.loc 1 72 0
  41 000e 144B     		ldr	r3, .L3
  42 0010 5B8E     		ldrh	r3, [r3, #50]
ARM GAS  C:\Users\CHRIST~1\AppData\Local\Temp\ccYkVB7y.s 			page 3


  43 0012 7B60     		str	r3, [r7, #4]
  73:Humidity.c    ****         sensorraw = CSD_BUTTON0_SNS0_RAW0_VALUE;
  44              		.loc 1 73 0
  45 0014 124B     		ldr	r3, .L3
  46 0016 1B8D     		ldrh	r3, [r3, #40]
  47 0018 3B60     		str	r3, [r7]
  74:Humidity.c    ****         
  75:Humidity.c    **** //        CSD_GetParam(CSD_BUTTON0_SNS1_RAW0_PARAM_ID,&refraw);
  76:Humidity.c    **** //        CSD_GetParam(CSD_BUTTON0_SNS0_RAW0_PARAM_ID,&sensorraw);
  77:Humidity.c    ****             
  78:Humidity.c    ****         /* Pass the raw counts through low pass filter */
  79:Humidity.c    **** 		ProcessValues.RawCountsRefCap = refraw; //LowPassFilter(refraw, LPF_CHANNEL_REFCAP);
  48              		.loc 1 79 0
  49 001a 7B68     		ldr	r3, [r7, #4]
  50 001c 9AB2     		uxth	r2, r3
  51 001e 114B     		ldr	r3, .L3+4
  52 0020 DA83     		strh	r2, [r3, #30]
  80:Humidity.c    ****         ProcessValues.RawCountsHumidity = sensorraw; //LowPassFilter(sensorraw, LPF_CHANNEL_HUMIDIT
  53              		.loc 1 80 0
  54 0022 3B68     		ldr	r3, [r7]
  55 0024 9AB2     		uxth	r2, r3
  56 0026 0F4B     		ldr	r3, .L3+4
  57 0028 1A84     		strh	r2, [r3, #32]
  81:Humidity.c    **** 
  82:Humidity.c    ****         /* Convert raw counts to capacitance */
  83:Humidity.c    **** 		ProcessValues.SensorCapacitance = CalculateCapacitance(ProcessValues.RawCountsHumidity, ProcessVa
  58              		.loc 1 83 0
  59 002a 0E4B     		ldr	r3, .L3+4
  60 002c 1A8C     		ldrh	r2, [r3, #32]
  61 002e 0D4B     		ldr	r3, .L3+4
  62 0030 DB8B     		ldrh	r3, [r3, #30]
  63 0032 101C     		mov	r0, r2
  64 0034 191C     		mov	r1, r3
  65 0036 FFF7FEFF 		bl	CalculateCapacitance
  66 003a 031C     		mov	r3, r0
  67 003c 1A1C     		mov	r2, r3
  68 003e 094B     		ldr	r3, .L3+4
  69 0040 5A84     		strh	r2, [r3, #34]
  84:Humidity.c    **** 		
  85:Humidity.c    **** 		/* Calculate humidity */
  86:Humidity.c    **** 		ProcessValues.Humidity = CalculateHumidity(ProcessValues.SensorCapacitance);
  70              		.loc 1 86 0
  71 0042 084B     		ldr	r3, .L3+4
  72 0044 5B8C     		ldrh	r3, [r3, #34]
  73 0046 181C     		mov	r0, r3
  74 0048 FFF7FEFF 		bl	CalculateHumidity
  75 004c 031C     		mov	r3, r0
  76 004e 1A1C     		mov	r2, r3
  77 0050 044B     		ldr	r3, .L3+4
  78 0052 9A84     		strh	r2, [r3, #36]
  87:Humidity.c    **** 
  88:Humidity.c    ****         CSD_ScanAllWidgets();
  79              		.loc 1 88 0
  80 0054 FFF7FEFF 		bl	CSD_ScanAllWidgets
  81              	.L1:
  89:Humidity.c    **** 	}	
  90:Humidity.c    **** }
ARM GAS  C:\Users\CHRIST~1\AppData\Local\Temp\ccYkVB7y.s 			page 4


  82              		.loc 1 90 0
  83 0058 BD46     		mov	sp, r7
  84 005a 02B0     		add	sp, sp, #8
  85              		@ sp needed
  86 005c 80BD     		pop	{r7, pc}
  87              	.L4:
  88 005e C046     		.align	2
  89              	.L3:
  90 0060 00000000 		.word	CSD_dsRam
  91 0064 00000000 		.word	ProcessValues
  92              		.cfi_endproc
  93              	.LFE35:
  94              		.size	HumidityTask, .-HumidityTask
  95              		.global	__aeabi_i2f
  96              		.global	__aeabi_fmul
  97              		.global	__aeabi_fdiv
  98              		.global	__aeabi_f2uiz
  99              		.section	.text.CalculateCapacitance,"ax",%progbits
 100              		.align	2
 101              		.global	CalculateCapacitance
 102              		.code	16
 103              		.thumb_func
 104              		.type	CalculateCapacitance, %function
 105              	CalculateCapacitance:
 106              	.LFB36:
  91:Humidity.c    **** 
  92:Humidity.c    **** /*******************************************************************************
  93:Humidity.c    **** * Function Name: uint16 CalculateCapacitance(uint16 RawCounts, uint16 RefsensorCounts)
  94:Humidity.c    **** ********************************************************************************
  95:Humidity.c    **** *
  96:Humidity.c    **** * Summary:
  97:Humidity.c    **** *  This function calculates capacitance from raw count.
  98:Humidity.c    **** *
  99:Humidity.c    **** * Parameters:
 100:Humidity.c    **** *  uint16 RawCounts - Raw count corresponding to Humidity sensor
 101:Humidity.c    **** *  uint16 RefsensorCounts - Raw count corresponding to Reference capacitor
 102:Humidity.c    **** *
 103:Humidity.c    **** * Return:
 104:Humidity.c    **** *  Capacitance of the Humidity sensor
 105:Humidity.c    **** *
 106:Humidity.c    **** * Side Effects:
 107:Humidity.c    **** *   None
 108:Humidity.c    **** *******************************************************************************/
 109:Humidity.c    **** uint16 CalculateCapacitance(uint16 rawCounts, uint16 refsensorCounts)
 110:Humidity.c    **** {
 107              		.loc 1 110 0
 108              		.cfi_startproc
 109 0000 90B5     		push	{r4, r7, lr}
 110              		.cfi_def_cfa_offset 12
 111              		.cfi_offset 4, -12
 112              		.cfi_offset 7, -8
 113              		.cfi_offset 14, -4
 114 0002 83B0     		sub	sp, sp, #12
 115              		.cfi_def_cfa_offset 24
 116 0004 00AF     		add	r7, sp, #0
 117              		.cfi_def_cfa_register 7
 118 0006 021C     		mov	r2, r0
ARM GAS  C:\Users\CHRIST~1\AppData\Local\Temp\ccYkVB7y.s 			page 5


 119 0008 BB1D     		add	r3, r7, #6
 120 000a 1A80     		strh	r2, [r3]
 121 000c 3B1D     		add	r3, r7, #4
 122 000e 0A1C     		add	r2, r1, #0
 123 0010 1A80     		strh	r2, [r3]
 111:Humidity.c    ****     return (uint16)((float)(rawCounts - OFFSETCOUNT) * (CREF - COFFSET) / (float)(refsensorCounts -
 124              		.loc 1 111 0
 125 0012 BB1D     		add	r3, r7, #6
 126 0014 1B88     		ldrh	r3, [r3]
 127 0016 124A     		ldr	r2, .L7
 128 0018 9446     		mov	ip, r2
 129 001a 6344     		add	r3, r3, ip
 130 001c 181C     		mov	r0, r3
 131 001e FFF7FEFF 		bl	__aeabi_i2f
 132 0022 031C     		add	r3, r0, #0
 133 0024 181C     		add	r0, r3, #0
 134 0026 0F49     		ldr	r1, .L7+4
 135 0028 FFF7FEFF 		bl	__aeabi_fmul
 136 002c 031C     		add	r3, r0, #0
 137 002e 1C1C     		add	r4, r3, #0
 138 0030 3B1D     		add	r3, r7, #4
 139 0032 1B88     		ldrh	r3, [r3]
 140 0034 0A4A     		ldr	r2, .L7
 141 0036 9446     		mov	ip, r2
 142 0038 6344     		add	r3, r3, ip
 143 003a 181C     		mov	r0, r3
 144 003c FFF7FEFF 		bl	__aeabi_i2f
 145 0040 031C     		add	r3, r0, #0
 146 0042 201C     		add	r0, r4, #0
 147 0044 191C     		add	r1, r3, #0
 148 0046 FFF7FEFF 		bl	__aeabi_fdiv
 149 004a 031C     		add	r3, r0, #0
 150 004c 181C     		add	r0, r3, #0
 151 004e FFF7FEFF 		bl	__aeabi_f2uiz
 152 0052 031C     		mov	r3, r0
 153 0054 9BB2     		uxth	r3, r3
 112:Humidity.c    **** }
 154              		.loc 1 112 0
 155 0056 181C     		mov	r0, r3
 156 0058 BD46     		mov	sp, r7
 157 005a 03B0     		add	sp, sp, #12
 158              		@ sp needed
 159 005c 90BD     		pop	{r4, r7, pc}
 160              	.L8:
 161 005e C046     		.align	2
 162              	.L7:
 163 0060 00FAFFFF 		.word	-1536
 164 0064 0080DE44 		.word	1155432448
 165              		.cfi_endproc
 166              	.LFE36:
 167              		.size	CalculateCapacitance, .-CalculateCapacitance
 168              		.global	__aeabi_idiv
 169              		.section	.text.CalculateHumidity,"ax",%progbits
 170              		.align	2
 171              		.global	CalculateHumidity
 172              		.code	16
 173              		.thumb_func
ARM GAS  C:\Users\CHRIST~1\AppData\Local\Temp\ccYkVB7y.s 			page 6


 174              		.type	CalculateHumidity, %function
 175              	CalculateHumidity:
 176              	.LFB37:
 113:Humidity.c    **** 
 114:Humidity.c    **** /*******************************************************************************
 115:Humidity.c    **** * Function Name: uint16 CalculateHumidity(uint16 Capacitance)
 116:Humidity.c    **** ********************************************************************************
 117:Humidity.c    **** *
 118:Humidity.c    **** * Summary:
 119:Humidity.c    **** *  This function calculates humidity from capacitance
 120:Humidity.c    **** 
 121:Humidity.c    **** * Parameters:
 122:Humidity.c    **** *  uint16 Capacitance - Capacitance of the humidity sensor
 123:Humidity.c    **** *
 124:Humidity.c    **** * Return:
 125:Humidity.c    **** *  Calculated Humidity value
 126:Humidity.c    **** *
 127:Humidity.c    **** * Side Effects:
 128:Humidity.c    **** *   None
 129:Humidity.c    **** *******************************************************************************/
 130:Humidity.c    **** uint16 CalculateHumidity(uint16 capacitance)
 131:Humidity.c    **** {
 177              		.loc 1 131 0
 178              		.cfi_startproc
 179 0000 80B5     		push	{r7, lr}
 180              		.cfi_def_cfa_offset 8
 181              		.cfi_offset 7, -8
 182              		.cfi_offset 14, -4
 183 0002 84B0     		sub	sp, sp, #16
 184              		.cfi_def_cfa_offset 24
 185 0004 00AF     		add	r7, sp, #0
 186              		.cfi_def_cfa_register 7
 187 0006 021C     		mov	r2, r0
 188 0008 BB1D     		add	r3, r7, #6
 189 000a 1A80     		strh	r2, [r3]
 132:Humidity.c    ****     int16 humidity;
 133:Humidity.c    ****     int16 delta;
 134:Humidity.c    ****     
 135:Humidity.c    ****     /* Find capacitance difference from nominal capacitance at 55% RH */
 136:Humidity.c    ****     delta = capacitance - CAPACITANCE_AT_55_RH;
 190              		.loc 1 136 0
 191 000c BB1D     		add	r3, r7, #6
 192 000e 1B88     		ldrh	r3, [r3]
 193 0010 1B4A     		ldr	r2, .L14
 194 0012 9446     		mov	ip, r2
 195 0014 6344     		add	r3, r3, ip
 196 0016 9AB2     		uxth	r2, r3
 197 0018 0E23     		mov	r3, #14
 198 001a FB18     		add	r3, r7, r3
 199 001c 1A80     		strh	r2, [r3]
 137:Humidity.c    ****     
 138:Humidity.c    ****     /* Calculate humidity from capacitance difference and sensor sensitivity */
 139:Humidity.c    ****     humidity = ((delta * SENSITIVITY_DENOMINATOR) / SENSITIVITY_NUMERATOR) + NOMINAL_HUMIDITY;
 200              		.loc 1 139 0
 201 001e 0E23     		mov	r3, #14
 202 0020 FB18     		add	r3, r7, r3
 203 0022 0022     		mov	r2, #0
ARM GAS  C:\Users\CHRIST~1\AppData\Local\Temp\ccYkVB7y.s 			page 7


 204 0024 9B5E     		ldrsh	r3, [r3, r2]
 205 0026 6422     		mov	r2, #100
 206 0028 5343     		mul	r3, r2
 207 002a 181C     		mov	r0, r3
 208 002c 1F21     		mov	r1, #31
 209 002e FFF7FEFF 		bl	__aeabi_idiv
 210 0032 031C     		mov	r3, r0
 211 0034 9BB2     		uxth	r3, r3
 212 0036 134A     		ldr	r2, .L14+4
 213 0038 9446     		mov	ip, r2
 214 003a 6344     		add	r3, r3, ip
 215 003c 9AB2     		uxth	r2, r3
 216 003e 0C23     		mov	r3, #12
 217 0040 FB18     		add	r3, r7, r3
 218 0042 1A80     		strh	r2, [r3]
 140:Humidity.c    ****     
 141:Humidity.c    ****     /* If humidity is less than zero, limit it to 0; If humidity is greater than 1000 (100%), limit
 142:Humidity.c    ****     humidity = (humidity < HUMIDITY_0_PERCENT) ? HUMIDITY_0_PERCENT : (humidity > HUMIDITY_100_PERC
 219              		.loc 1 142 0
 220 0044 0C23     		mov	r3, #12
 221 0046 FB18     		add	r3, r7, r3
 222 0048 0022     		mov	r2, #0
 223 004a 9B5E     		ldrsh	r3, [r3, r2]
 224 004c 002B     		cmp	r3, #0
 225 004e 0BDB     		blt	.L10
 226              		.loc 1 142 0 is_stmt 0 discriminator 1
 227 0050 0C23     		mov	r3, #12
 228 0052 FB18     		add	r3, r7, r3
 229 0054 1B88     		ldrh	r3, [r3]
 230 0056 19B2     		sxth	r1, r3
 231 0058 FA22     		mov	r2, #250
 232 005a 9200     		lsl	r2, r2, #2
 233 005c 9142     		cmp	r1, r2
 234 005e 01DD     		ble	.L11
 235 0060 FA23     		mov	r3, #250
 236 0062 9B00     		lsl	r3, r3, #2
 237              	.L11:
 238 0064 9AB2     		uxth	r2, r3
 239 0066 00E0     		b	.L12
 240              	.L10:
 241              		.loc 1 142 0 discriminator 2
 242 0068 0022     		mov	r2, #0
 243              	.L12:
 244              		.loc 1 142 0 discriminator 4
 245 006a 0C23     		mov	r3, #12
 246 006c FB18     		add	r3, r7, r3
 247 006e 1A80     		strh	r2, [r3]
 143:Humidity.c    **** 
 144:Humidity.c    ****     /* Return Humidity value */
 145:Humidity.c    ****     return humidity;
 248              		.loc 1 145 0 is_stmt 1 discriminator 4
 249 0070 0C23     		mov	r3, #12
 250 0072 FB18     		add	r3, r7, r3
 251 0074 1B88     		ldrh	r3, [r3]
 146:Humidity.c    **** }
 252              		.loc 1 146 0 discriminator 4
 253 0076 181C     		mov	r0, r3
ARM GAS  C:\Users\CHRIST~1\AppData\Local\Temp\ccYkVB7y.s 			page 8


 254 0078 BD46     		mov	sp, r7
 255 007a 04B0     		add	sp, sp, #16
 256              		@ sp needed
 257 007c 80BD     		pop	{r7, pc}
 258              	.L15:
 259 007e C046     		.align	2
 260              	.L14:
 261 0080 F8F8FFFF 		.word	-1800
 262 0084 26020000 		.word	550
 263              		.cfi_endproc
 264              	.LFE37:
 265              		.size	CalculateHumidity, .-CalculateHumidity
 266              		.section	.text.Humidity_Start,"ax",%progbits
 267              		.align	2
 268              		.global	Humidity_Start
 269              		.code	16
 270              		.thumb_func
 271              		.type	Humidity_Start, %function
 272              	Humidity_Start:
 273              	.LFB38:
 147:Humidity.c    **** 
 148:Humidity.c    **** 
 149:Humidity.c    **** void Humidity_Start(void)
 150:Humidity.c    **** {
 274              		.loc 1 150 0
 275              		.cfi_startproc
 276 0000 80B5     		push	{r7, lr}
 277              		.cfi_def_cfa_offset 8
 278              		.cfi_offset 7, -8
 279              		.cfi_offset 14, -4
 280 0002 00AF     		add	r7, sp, #0
 281              		.cfi_def_cfa_register 7
 151:Humidity.c    **** 	/* Start CSD block and start scan */
 152:Humidity.c    **** 	CSD_Start();
 282              		.loc 1 152 0
 283 0004 FFF7FEFF 		bl	CSD_Start
 153:Humidity.c    ****     CSD_ScanAllWidgets();
 284              		.loc 1 153 0
 285 0008 FFF7FEFF 		bl	CSD_ScanAllWidgets
 154:Humidity.c    **** 
 155:Humidity.c    ****     /* Initialize humidity values to zero */
 156:Humidity.c    ****     ProcessValues.Humidity = 0;
 286              		.loc 1 156 0
 287 000c 064B     		ldr	r3, .L17
 288 000e 0022     		mov	r2, #0
 289 0010 9A84     		strh	r2, [r3, #36]
 157:Humidity.c    ****     ProcessValues.RawCountsHumidity = 0;
 290              		.loc 1 157 0
 291 0012 054B     		ldr	r3, .L17
 292 0014 0022     		mov	r2, #0
 293 0016 1A84     		strh	r2, [r3, #32]
 158:Humidity.c    ****     ProcessValues.RawCountsRefCap = 0;
 294              		.loc 1 158 0
 295 0018 034B     		ldr	r3, .L17
 296 001a 0022     		mov	r2, #0
 297 001c DA83     		strh	r2, [r3, #30]
 159:Humidity.c    ****     ProcessValues.SensorCapacitance = 0;
ARM GAS  C:\Users\CHRIST~1\AppData\Local\Temp\ccYkVB7y.s 			page 9


 298              		.loc 1 159 0
 299 001e 024B     		ldr	r3, .L17
 300 0020 0022     		mov	r2, #0
 301 0022 5A84     		strh	r2, [r3, #34]
 160:Humidity.c    **** }
 302              		.loc 1 160 0
 303 0024 BD46     		mov	sp, r7
 304              		@ sp needed
 305 0026 80BD     		pop	{r7, pc}
 306              	.L18:
 307              		.align	2
 308              	.L17:
 309 0028 00000000 		.word	ProcessValues
 310              		.cfi_endproc
 311              	.LFE38:
 312              		.size	Humidity_Start, .-Humidity_Start
 313              		.section	.text.Humidity_Stop,"ax",%progbits
 314              		.align	2
 315              		.global	Humidity_Stop
 316              		.code	16
 317              		.thumb_func
 318              		.type	Humidity_Stop, %function
 319              	Humidity_Stop:
 320              	.LFB39:
 161:Humidity.c    **** 
 162:Humidity.c    **** void Humidity_Stop(void)
 163:Humidity.c    **** {
 321              		.loc 1 163 0
 322              		.cfi_startproc
 323 0000 80B5     		push	{r7, lr}
 324              		.cfi_def_cfa_offset 8
 325              		.cfi_offset 7, -8
 326              		.cfi_offset 14, -4
 327 0002 00AF     		add	r7, sp, #0
 328              		.cfi_def_cfa_register 7
 164:Humidity.c    **** 	/* Stop the CSD block */
 165:Humidity.c    **** 	CSD_Stop();
 329              		.loc 1 165 0
 330 0004 FFF7FEFF 		bl	CSD_Stop
 166:Humidity.c    **** 
 167:Humidity.c    ****     /* Initialize humidity values to zero */
 168:Humidity.c    ****     ProcessValues.Humidity = 0;
 331              		.loc 1 168 0
 332 0008 064B     		ldr	r3, .L20
 333 000a 0022     		mov	r2, #0
 334 000c 9A84     		strh	r2, [r3, #36]
 169:Humidity.c    ****     ProcessValues.RawCountsHumidity = 0;
 335              		.loc 1 169 0
 336 000e 054B     		ldr	r3, .L20
 337 0010 0022     		mov	r2, #0
 338 0012 1A84     		strh	r2, [r3, #32]
 170:Humidity.c    ****     ProcessValues.RawCountsRefCap = 0;
 339              		.loc 1 170 0
 340 0014 034B     		ldr	r3, .L20
 341 0016 0022     		mov	r2, #0
 342 0018 DA83     		strh	r2, [r3, #30]
 171:Humidity.c    ****     ProcessValues.SensorCapacitance = 0;
ARM GAS  C:\Users\CHRIST~1\AppData\Local\Temp\ccYkVB7y.s 			page 10


 343              		.loc 1 171 0
 344 001a 024B     		ldr	r3, .L20
 345 001c 0022     		mov	r2, #0
 346 001e 5A84     		strh	r2, [r3, #34]
 172:Humidity.c    ****     
 173:Humidity.c    **** }
 347              		.loc 1 173 0
 348 0020 BD46     		mov	sp, r7
 349              		@ sp needed
 350 0022 80BD     		pop	{r7, pc}
 351              	.L21:
 352              		.align	2
 353              	.L20:
 354 0024 00000000 		.word	ProcessValues
 355              		.cfi_endproc
 356              	.LFE39:
 357              		.size	Humidity_Stop, .-Humidity_Stop
 358              		.text
 359              	.Letext0:
 360              		.file 2 "Generated_Source\\PSoC4/cytypes.h"
 361              		.file 3 "Generated_Source\\PSoC4/CSD_Configuration.h"
 362              		.file 4 "Generated_Source\\PSoC4/CSD_Structure.h"
 363              		.file 5 "main.h"