ARM GAS  C:\Users\CHRIST~1\AppData\Local\Temp\ccMURj4l.s 			page 1


   1              		.cpu cortex-m0plus
   2              		.fpu softvfp
   3              		.eabi_attribute 20, 1
   4              		.eabi_attribute 21, 1
   5              		.eabi_attribute 23, 3
   6              		.eabi_attribute 24, 1
   7              		.eabi_attribute 25, 1
   8              		.eabi_attribute 26, 1
   9              		.eabi_attribute 30, 6
  10              		.eabi_attribute 34, 0
  11              		.eabi_attribute 18, 4
  12              		.code	16
  13              		.file	"InductiveProx.c"
  14              		.text
  15              	.Ltext0:
  16              		.cfi_sections	.debug_frame
  17              		.global	IPSBaselineSamples
  18              		.bss
  19              		.align	1
  20              		.type	IPSBaselineSamples, %object
  21              		.size	IPSBaselineSamples, 2
  22              	IPSBaselineSamples:
  23 0000 0000     		.space	2
  24              		.section	.text.IPSTask,"ax",%progbits
  25              		.align	2
  26              		.global	IPSTask
  27              		.code	16
  28              		.thumb_func
  29              		.type	IPSTask, %function
  30              	IPSTask:
  31              	.LFB35:
  32              		.file 1 "InductiveProx.c"
   1:InductiveProx.c **** /*******************************************************************************
   2:InductiveProx.c **** * File Name: InductiveProx.c
   3:InductiveProx.c **** *
   4:InductiveProx.c **** * Description:
   5:InductiveProx.c **** * This is the source file for Inductive Proximity Sensing.
   6:InductiveProx.c **** *
   7:InductiveProx.c **** ********************************************************************************
   8:InductiveProx.c **** * Copyright (2016) , Cypress Semiconductor Corporation.
   9:InductiveProx.c **** ********************************************************************************
  10:InductiveProx.c **** * This software is owned by Cypress Semiconductor Corporation (Cypress) and is
  11:InductiveProx.c **** * protected by and subject to worldwide patent protection (United States and
  12:InductiveProx.c **** * foreign), United States copyright laws and international treaty provisions.
  13:InductiveProx.c **** * Cypress hereby grants to licensee a personal, non-exclusive, non-transferable
  14:InductiveProx.c **** * license to copy, use, modify, create derivative works of, and compile the
  15:InductiveProx.c **** * Cypress Source Code and derivative works for the sole purpose of creating
  16:InductiveProx.c **** * custom software in support of licensee product to be used only in conjunction
  17:InductiveProx.c **** * with a Cypress integrated circuit as specified in the applicable agreement.
  18:InductiveProx.c **** * Any reproduction, modification, translation, compilation, or representation of
  19:InductiveProx.c **** * this software except as specified above is prohibited without the express
  20:InductiveProx.c **** * written permission of Cypress.
  21:InductiveProx.c **** *
  22:InductiveProx.c **** * Disclaimer: CYPRESS MAKES NO WARRANTY OF ANY KIND, EXPRESS OR IMPLIED, WITH
  23:InductiveProx.c **** * REGARD TO THIS MATERIAL, INCLUDING, BUT NOT LIMITED TO, THE IMPLIED
  24:InductiveProx.c **** * WARRANTIES OF MERCHANTABILITY AND FITNESS FOR A PARTICULAR PURPOSE.
  25:InductiveProx.c **** * Cypress reserves the right to make changes without further notice to the
ARM GAS  C:\Users\CHRIST~1\AppData\Local\Temp\ccMURj4l.s 			page 2


  26:InductiveProx.c **** * materials described herein. Cypress does not assume any liability arising out
  27:InductiveProx.c **** * of the application or use of any product or circuit described herein. Cypress
  28:InductiveProx.c **** * does not authorize its products for use as critical components in life-support
  29:InductiveProx.c **** * systems where a malfunction or failure may reasonably be expected to result in
  30:InductiveProx.c **** * significant injury to the user. The inclusion of Cypress' product in a life
  31:InductiveProx.c **** * support systems application implies that the manufacturer assumes all risk of
  32:InductiveProx.c **** * such use and in doing so indemnifies Cypress against all charges. Use may be
  33:InductiveProx.c **** * limited by and subject to the applicable Cypress software license agreement.
  34:InductiveProx.c **** *******************************************************************************/
  35:InductiveProx.c **** 
  36:InductiveProx.c **** #include <project.h>
  37:InductiveProx.c **** #include <InductiveProx.h>
  38:InductiveProx.c **** #include <main.h>
  39:InductiveProx.c **** #include <filters.h>
  40:InductiveProx.c **** 
  41:InductiveProx.c **** uint16 IPSBaselineSamples = 0;      /* Number of baseline samples acquired */
  42:InductiveProx.c **** 
  43:InductiveProx.c **** /*******************************************************************************
  44:InductiveProx.c **** * Function Name: void IPSTask(void)
  45:InductiveProx.c **** ********************************************************************************
  46:InductiveProx.c **** *
  47:InductiveProx.c **** * Summary:
  48:InductiveProx.c **** * This function reads the inductive proximity sensor data, decides the presence of metal and 
  49:InductiveProx.c **** * updates the I2C variables.  It may also indicate the presence of metal using the red LED.
  50:InductiveProx.c **** *
  51:InductiveProx.c **** * Parameters:
  52:InductiveProx.c **** *  None
  53:InductiveProx.c **** *
  54:InductiveProx.c **** * Return:
  55:InductiveProx.c **** *  None.
  56:InductiveProx.c **** *
  57:InductiveProx.c **** * Side Effects:
  58:InductiveProx.c **** *   None
  59:InductiveProx.c **** *******************************************************************************/
  60:InductiveProx.c **** void IPSTask(void)
  61:InductiveProx.c **** {
  33              		.loc 1 61 0
  34              		.cfi_startproc
  35 0000 80B5     		push	{r7, lr}
  36              		.cfi_def_cfa_offset 8
  37              		.cfi_offset 7, -8
  38              		.cfi_offset 14, -4
  39 0002 00AF     		add	r7, sp, #0
  40              		.cfi_def_cfa_register 7
  62:InductiveProx.c ****     /* Get the ADC Count */
  63:InductiveProx.c **** 	ProcessValues.IPSRawCounts = LowPassFilter(ADC_GetResult16(ADC_CHANNEL_IPS), LPF_CHANNEL_IPS);
  41              		.loc 1 63 0
  42 0004 0620     		mov	r0, #6
  43 0006 FFF7FEFF 		bl	ADC_GetResult16
  44 000a 031C     		mov	r3, r0
  45 000c 181C     		mov	r0, r3
  46 000e 0321     		mov	r1, #3
  47 0010 FFF7FEFF 		bl	LowPassFilter
  48 0014 031C     		mov	r3, r0
  49 0016 9AB2     		uxth	r2, r3
  50 0018 084B     		ldr	r3, .L4
  51 001a DA82     		strh	r2, [r3, #22]
ARM GAS  C:\Users\CHRIST~1\AppData\Local\Temp\ccMURj4l.s 			page 3


  64:InductiveProx.c **** 	
  65:InductiveProx.c ****     /* Update baseline */
  66:InductiveProx.c ****     IPS_UpdateBaseline();
  52              		.loc 1 66 0
  53 001c FFF7FEFF 		bl	IPS_UpdateBaseline
  67:InductiveProx.c ****     
  68:InductiveProx.c ****     /* Check if sensor data is below threshold */
  69:InductiveProx.c ****     if(ProcessValues.IPSDifferenceCounts > IPS_THRESHOLD)
  54              		.loc 1 69 0
  55 0020 064B     		ldr	r3, .L4
  56 0022 1B8B     		ldrh	r3, [r3, #24]
  57 0024 1BB2     		sxth	r3, r3
  58 0026 322B     		cmp	r3, #50
  59 0028 03DD     		ble	.L2
  70:InductiveProx.c ****     {
  71:InductiveProx.c ****         /* Enable Trigger variable */
  72:InductiveProx.c ****         ProcessValues.IPSTrigger = TRIGGERED;
  60              		.loc 1 72 0
  61 002a 044B     		ldr	r3, .L4
  62 002c 0122     		mov	r2, #1
  63 002e 9A83     		strh	r2, [r3, #28]
  64 0030 02E0     		b	.L1
  65              	.L2:
  73:InductiveProx.c ****         
  74:InductiveProx.c ****         #ifdef IPS_LED_ENABLED 
  75:InductiveProx.c ****             LED_Red_Write(LED_ON); 
  76:InductiveProx.c ****         #endif
  77:InductiveProx.c ****     }    
  78:InductiveProx.c ****     else
  79:InductiveProx.c ****     {
  80:InductiveProx.c ****         ProcessValues.IPSTrigger = NOT_TRIGGERED; 
  66              		.loc 1 80 0
  67 0032 024B     		ldr	r3, .L4
  68 0034 0022     		mov	r2, #0
  69 0036 9A83     		strh	r2, [r3, #28]
  70              	.L1:
  81:InductiveProx.c ****         
  82:InductiveProx.c ****         #ifdef IPS_LED_ENABLED 
  83:InductiveProx.c ****             LED_Red_Write(LED_OFF); 
  84:InductiveProx.c ****         #endif
  85:InductiveProx.c ****     }
  86:InductiveProx.c **** }
  71              		.loc 1 86 0
  72 0038 BD46     		mov	sp, r7
  73              		@ sp needed
  74 003a 80BD     		pop	{r7, pc}
  75              	.L5:
  76              		.align	2
  77              	.L4:
  78 003c 00000000 		.word	ProcessValues
  79              		.cfi_endproc
  80              	.LFE35:
  81              		.size	IPSTask, .-IPSTask
  82              		.section	.text.IPS_UpdateBaseline,"ax",%progbits
  83              		.align	2
  84              		.global	IPS_UpdateBaseline
  85              		.code	16
ARM GAS  C:\Users\CHRIST~1\AppData\Local\Temp\ccMURj4l.s 			page 4


  86              		.thumb_func
  87              		.type	IPS_UpdateBaseline, %function
  88              	IPS_UpdateBaseline:
  89              	.LFB36:
  87:InductiveProx.c **** 
  88:InductiveProx.c **** /*******************************************************************************
  89:InductiveProx.c **** * Function Name: void IPS_UpdateBaseline(void)
  90:InductiveProx.c **** ********************************************************************************
  91:InductiveProx.c **** *
  92:InductiveProx.c **** * Summary:
  93:InductiveProx.c **** * This function initializes a 'baseline' value of IPS signal during program startup
  94:InductiveProx.c **** * which is used during normal operation as a reference for comparison of the signal.
  95:InductiveProx.c **** * The difference count is also calculated only when signal from metal is detected.
  96:InductiveProx.c **** *
  97:InductiveProx.c **** * Parameters:
  98:InductiveProx.c **** *  None
  99:InductiveProx.c **** *
 100:InductiveProx.c **** * Return:
 101:InductiveProx.c **** *  None.
 102:InductiveProx.c **** *
 103:InductiveProx.c **** * Side Effects:
 104:InductiveProx.c **** *   None
 105:InductiveProx.c **** *******************************************************************************/
 106:InductiveProx.c **** void IPS_UpdateBaseline(void)
 107:InductiveProx.c **** {   
  90              		.loc 1 107 0
  91              		.cfi_startproc
  92 0000 80B5     		push	{r7, lr}
  93              		.cfi_def_cfa_offset 8
  94              		.cfi_offset 7, -8
  95              		.cfi_offset 14, -4
  96 0002 82B0     		sub	sp, sp, #8
  97              		.cfi_def_cfa_offset 16
  98 0004 00AF     		add	r7, sp, #0
  99              		.cfi_def_cfa_register 7
 108:InductiveProx.c ****     /* Initialize baseline with the first sample of IPSrawcount */
 109:InductiveProx.c ****     if (IPSBaselineSamples == 0)
 100              		.loc 1 109 0
 101 0006 214B     		ldr	r3, .L11
 102 0008 1B88     		ldrh	r3, [r3]
 103 000a 002B     		cmp	r3, #0
 104 000c 0AD1     		bne	.L7
 110:InductiveProx.c ****     {
 111:InductiveProx.c ****         ProcessValues.IPSBaselineCounts = ProcessValues.IPSRawCounts;
 105              		.loc 1 111 0
 106 000e 204B     		ldr	r3, .L11+4
 107 0010 DA8A     		ldrh	r2, [r3, #22]
 108 0012 1F4B     		ldr	r3, .L11+4
 109 0014 5A83     		strh	r2, [r3, #26]
 112:InductiveProx.c ****         IPSBaselineSamples++;
 110              		.loc 1 112 0
 111 0016 1D4B     		ldr	r3, .L11
 112 0018 1B88     		ldrh	r3, [r3]
 113 001a 0133     		add	r3, r3, #1
 114 001c 9AB2     		uxth	r2, r3
 115 001e 1B4B     		ldr	r3, .L11
 116 0020 1A80     		strh	r2, [r3]
ARM GAS  C:\Users\CHRIST~1\AppData\Local\Temp\ccMURj4l.s 			page 5


 117 0022 30E0     		b	.L6
 118              	.L7:
 113:InductiveProx.c ****     }
 114:InductiveProx.c ****     /* Update baseline only during startup/ initial # of samples */
 115:InductiveProx.c ****     else if (IPSBaselineSamples < IPS_BASELINE_SAMPLES)
 119              		.loc 1 115 0
 120 0024 194B     		ldr	r3, .L11
 121 0026 1B88     		ldrh	r3, [r3]
 122 0028 1A4A     		ldr	r2, .L11+8
 123 002a 9342     		cmp	r3, r2
 124 002c 18D8     		bhi	.L9
 116:InductiveProx.c ****     {
 117:InductiveProx.c ****         ProcessValues.IPSBaselineCounts += ProcessValues.IPSRawCounts;
 125              		.loc 1 117 0
 126 002e 184B     		ldr	r3, .L11+4
 127 0030 5B8B     		ldrh	r3, [r3, #26]
 128 0032 9AB2     		uxth	r2, r3
 129 0034 164B     		ldr	r3, .L11+4
 130 0036 DB8A     		ldrh	r3, [r3, #22]
 131 0038 9BB2     		uxth	r3, r3
 132 003a D318     		add	r3, r2, r3
 133 003c 9BB2     		uxth	r3, r3
 134 003e 9AB2     		uxth	r2, r3
 135 0040 134B     		ldr	r3, .L11+4
 136 0042 5A83     		strh	r2, [r3, #26]
 118:InductiveProx.c ****         ProcessValues.IPSBaselineCounts = ProcessValues.IPSBaselineCounts >> 1;
 137              		.loc 1 118 0
 138 0044 124B     		ldr	r3, .L11+4
 139 0046 5B8B     		ldrh	r3, [r3, #26]
 140 0048 1BB2     		sxth	r3, r3
 141 004a 5B10     		asr	r3, r3, #1
 142 004c 9AB2     		uxth	r2, r3
 143 004e 104B     		ldr	r3, .L11+4
 144 0050 5A83     		strh	r2, [r3, #26]
 119:InductiveProx.c ****         IPSBaselineSamples++;
 145              		.loc 1 119 0
 146 0052 0E4B     		ldr	r3, .L11
 147 0054 1B88     		ldrh	r3, [r3]
 148 0056 0133     		add	r3, r3, #1
 149 0058 9AB2     		uxth	r2, r3
 150 005a 0C4B     		ldr	r3, .L11
 151 005c 1A80     		strh	r2, [r3]
 152 005e 12E0     		b	.L6
 153              	.L9:
 154              	.LBB2:
 120:InductiveProx.c ****     }
 121:InductiveProx.c ****     /* Calculate difference counts during normal sensing */
 122:InductiveProx.c ****     else
 123:InductiveProx.c ****     {
 124:InductiveProx.c ****         /* For metal detection, rawcounts should drop below baseline, i.e. diffCounts must be posit
 125:InductiveProx.c ****         int16 diffCounts = ProcessValues.IPSBaselineCounts - ProcessValues.IPSRawCounts;
 155              		.loc 1 125 0
 156 0060 0B4B     		ldr	r3, .L11+4
 157 0062 5B8B     		ldrh	r3, [r3, #26]
 158 0064 9AB2     		uxth	r2, r3
 159 0066 0A4B     		ldr	r3, .L11+4
 160 0068 DB8A     		ldrh	r3, [r3, #22]
ARM GAS  C:\Users\CHRIST~1\AppData\Local\Temp\ccMURj4l.s 			page 6


 161 006a 9BB2     		uxth	r3, r3
 162 006c D31A     		sub	r3, r2, r3
 163 006e 9AB2     		uxth	r2, r3
 164 0070 BB1D     		add	r3, r7, #6
 165 0072 1A80     		strh	r2, [r3]
 126:InductiveProx.c ****         
 127:InductiveProx.c ****         /* Update difference count variable with signal from metal only */
 128:InductiveProx.c ****         ProcessValues.IPSDifferenceCounts = diffCounts > 0 ? diffCounts : 0;
 166              		.loc 1 128 0
 167 0074 BB1D     		add	r3, r7, #6
 168 0076 1B88     		ldrh	r3, [r3]
 169 0078 1AB2     		sxth	r2, r3
 170 007a 002A     		cmp	r2, #0
 171 007c 00DA     		bge	.L10
 172 007e 0023     		mov	r3, #0
 173              	.L10:
 174 0080 9AB2     		uxth	r2, r3
 175 0082 034B     		ldr	r3, .L11+4
 176 0084 1A83     		strh	r2, [r3, #24]
 177              	.L6:
 178              	.LBE2:
 129:InductiveProx.c ****     }
 130:InductiveProx.c ****     
 131:InductiveProx.c **** }
 179              		.loc 1 131 0
 180 0086 BD46     		mov	sp, r7
 181 0088 02B0     		add	sp, sp, #8
 182              		@ sp needed
 183 008a 80BD     		pop	{r7, pc}
 184              	.L12:
 185              		.align	2
 186              	.L11:
 187 008c 00000000 		.word	IPSBaselineSamples
 188 0090 00000000 		.word	ProcessValues
 189 0094 E7030000 		.word	999
 190              		.cfi_endproc
 191              	.LFE36:
 192              		.size	IPS_UpdateBaseline, .-IPS_UpdateBaseline
 193              		.section	.text.IPS_Start,"ax",%progbits
 194              		.align	2
 195              		.global	IPS_Start
 196              		.code	16
 197              		.thumb_func
 198              		.type	IPS_Start, %function
 199              	IPS_Start:
 200              	.LFB37:
 132:InductiveProx.c **** 
 133:InductiveProx.c **** void IPS_Start(void)
 134:InductiveProx.c **** {
 201              		.loc 1 134 0
 202              		.cfi_startproc
 203 0000 80B5     		push	{r7, lr}
 204              		.cfi_def_cfa_offset 8
 205              		.cfi_offset 7, -8
 206              		.cfi_offset 14, -4
 207 0002 00AF     		add	r7, sp, #0
 208              		.cfi_def_cfa_register 7
ARM GAS  C:\Users\CHRIST~1\AppData\Local\Temp\ccMURj4l.s 			page 7


 135:InductiveProx.c **** 	 /* Start Excitation PWM */
 136:InductiveProx.c ****     ExcitationPWM_Start();	
 209              		.loc 1 136 0
 210 0004 FFF7FEFF 		bl	ExcitationPWM_Start
 137:InductiveProx.c **** 
 138:InductiveProx.c ****     /* Start Down Mixer Component */
 139:InductiveProx.c ****     DownMixer_Start();
 211              		.loc 1 139 0
 212 0008 FFF7FEFF 		bl	DownMixer_Start
 140:InductiveProx.c ****     
 141:InductiveProx.c ****     /* Start Rectifier Component */
 142:InductiveProx.c ****     Rectifier_Start();
 213              		.loc 1 142 0
 214 000c FFF7FEFF 		bl	Rectifier_Start
 143:InductiveProx.c **** 
 144:InductiveProx.c ****     /* Initialize IPS related process values to zero */
 145:InductiveProx.c ****     ProcessValues.IPSRawCounts = 0;
 215              		.loc 1 145 0
 216 0010 064B     		ldr	r3, .L14
 217 0012 0022     		mov	r2, #0
 218 0014 DA82     		strh	r2, [r3, #22]
 146:InductiveProx.c ****     ProcessValues.IPSBaselineCounts = 0;
 219              		.loc 1 146 0
 220 0016 054B     		ldr	r3, .L14
 221 0018 0022     		mov	r2, #0
 222 001a 5A83     		strh	r2, [r3, #26]
 147:InductiveProx.c ****     ProcessValues.IPSDifferenceCounts = 0;
 223              		.loc 1 147 0
 224 001c 034B     		ldr	r3, .L14
 225 001e 0022     		mov	r2, #0
 226 0020 1A83     		strh	r2, [r3, #24]
 148:InductiveProx.c ****     ProcessValues.IPSTrigger = 0;
 227              		.loc 1 148 0
 228 0022 024B     		ldr	r3, .L14
 229 0024 0022     		mov	r2, #0
 230 0026 9A83     		strh	r2, [r3, #28]
 149:InductiveProx.c ****     
 150:InductiveProx.c ****     #ifdef IPS_LED_ENABLED 
 151:InductiveProx.c ****         LED_Red_Write(LED_ON); 
 152:InductiveProx.c ****     #endif
 153:InductiveProx.c ****     
 154:InductiveProx.c **** }
 231              		.loc 1 154 0
 232 0028 BD46     		mov	sp, r7
 233              		@ sp needed
 234 002a 80BD     		pop	{r7, pc}
 235              	.L15:
 236              		.align	2
 237              	.L14:
 238 002c 00000000 		.word	ProcessValues
 239              		.cfi_endproc
 240              	.LFE37:
 241              		.size	IPS_Start, .-IPS_Start
 242              		.section	.text.IPS_Stop,"ax",%progbits
 243              		.align	2
 244              		.global	IPS_Stop
 245              		.code	16
ARM GAS  C:\Users\CHRIST~1\AppData\Local\Temp\ccMURj4l.s 			page 8


 246              		.thumb_func
 247              		.type	IPS_Stop, %function
 248              	IPS_Stop:
 249              	.LFB38:
 155:InductiveProx.c **** 
 156:InductiveProx.c **** void IPS_Stop(void)
 157:InductiveProx.c **** {
 250              		.loc 1 157 0
 251              		.cfi_startproc
 252 0000 80B5     		push	{r7, lr}
 253              		.cfi_def_cfa_offset 8
 254              		.cfi_offset 7, -8
 255              		.cfi_offset 14, -4
 256 0002 00AF     		add	r7, sp, #0
 257              		.cfi_def_cfa_register 7
 158:InductiveProx.c ****  	/* Stop Excitation PWM */
 159:InductiveProx.c ****     ExcitationPWM_Stop();
 258              		.loc 1 159 0
 259 0004 FFF7FEFF 		bl	ExcitationPWM_Stop
 160:InductiveProx.c ****    
 161:InductiveProx.c ****     /* Initialize IPS related process values to zero */
 162:InductiveProx.c ****     ProcessValues.IPSRawCounts = 0;
 260              		.loc 1 162 0
 261 0008 064B     		ldr	r3, .L17
 262 000a 0022     		mov	r2, #0
 263 000c DA82     		strh	r2, [r3, #22]
 163:InductiveProx.c ****     ProcessValues.IPSBaselineCounts = 0;
 264              		.loc 1 163 0
 265 000e 054B     		ldr	r3, .L17
 266 0010 0022     		mov	r2, #0
 267 0012 5A83     		strh	r2, [r3, #26]
 164:InductiveProx.c ****     ProcessValues.IPSDifferenceCounts = 0;
 268              		.loc 1 164 0
 269 0014 034B     		ldr	r3, .L17
 270 0016 0022     		mov	r2, #0
 271 0018 1A83     		strh	r2, [r3, #24]
 165:InductiveProx.c ****     ProcessValues.IPSTrigger = 0;
 272              		.loc 1 165 0
 273 001a 024B     		ldr	r3, .L17
 274 001c 0022     		mov	r2, #0
 275 001e 9A83     		strh	r2, [r3, #28]
 166:InductiveProx.c ****     
 167:InductiveProx.c ****     #ifdef IPS_LED_ENABLED 
 168:InductiveProx.c ****         LED_Red_Write(LED_OFF); 
 169:InductiveProx.c ****     #endif
 170:InductiveProx.c **** }
 276              		.loc 1 170 0
 277 0020 BD46     		mov	sp, r7
 278              		@ sp needed
 279 0022 80BD     		pop	{r7, pc}
 280              	.L18:
 281              		.align	2
 282              	.L17:
 283 0024 00000000 		.word	ProcessValues
 284              		.cfi_endproc
 285              	.LFE38:
 286              		.size	IPS_Stop, .-IPS_Stop
ARM GAS  C:\Users\CHRIST~1\AppData\Local\Temp\ccMURj4l.s 			page 9


 287              		.text
 288              	.Letext0:
 289              		.file 2 "Generated_Source\\PSoC4/cytypes.h"
 290              		.file 3 "./main.h"