ARM GAS  C:\Users\CHRIST~1\AppData\Local\Temp\ccwDaf54.s 			page 1


   1              		.cpu cortex-m0plus
   2              		.fpu softvfp
   3              		.eabi_attribute 20, 1
   4              		.eabi_attribute 21, 1
   5              		.eabi_attribute 23, 3
   6              		.eabi_attribute 24, 1
   7              		.eabi_attribute 25, 1
   8              		.eabi_attribute 26, 1
   9              		.eabi_attribute 30, 6
  10              		.eabi_attribute 34, 0
  11              		.eabi_attribute 18, 4
  12              		.code	16
  13              		.file	"Timebase5s.c"
  14              		.text
  15              	.Ltext0:
  16              		.cfi_sections	.debug_frame
  17              		.global	Timebase5s_initVar
  18              		.bss
  19              		.type	Timebase5s_initVar, %object
  20              		.size	Timebase5s_initVar, 1
  21              	Timebase5s_initVar:
  22 0000 00       		.space	1
  23              		.section	.text.Timebase5s_Init,"ax",%progbits
  24              		.align	2
  25              		.global	Timebase5s_Init
  26              		.code	16
  27              		.thumb_func
  28              		.type	Timebase5s_Init, %function
  29              	Timebase5s_Init:
  30              	.LFB1:
  31              		.file 1 "Generated_Source\\PSoC4\\Timebase5s.c"
   1:Generated_Source\PSoC4/Timebase5s.c **** /*******************************************************************************
   2:Generated_Source\PSoC4/Timebase5s.c **** * File Name: Timebase5s.c
   3:Generated_Source\PSoC4/Timebase5s.c **** * Version 2.10
   4:Generated_Source\PSoC4/Timebase5s.c **** *
   5:Generated_Source\PSoC4/Timebase5s.c **** * Description:
   6:Generated_Source\PSoC4/Timebase5s.c **** *  This file provides the source code to the API for the Timebase5s
   7:Generated_Source\PSoC4/Timebase5s.c **** *  component
   8:Generated_Source\PSoC4/Timebase5s.c **** *
   9:Generated_Source\PSoC4/Timebase5s.c **** * Note:
  10:Generated_Source\PSoC4/Timebase5s.c **** *  None
  11:Generated_Source\PSoC4/Timebase5s.c **** *
  12:Generated_Source\PSoC4/Timebase5s.c **** ********************************************************************************
  13:Generated_Source\PSoC4/Timebase5s.c **** * Copyright 2013-2015, Cypress Semiconductor Corporation.  All rights reserved.
  14:Generated_Source\PSoC4/Timebase5s.c **** * You may use this file only in accordance with the license, terms, conditions,
  15:Generated_Source\PSoC4/Timebase5s.c **** * disclaimers, and limitations in the end user license agreement accompanying
  16:Generated_Source\PSoC4/Timebase5s.c **** * the software package with which this file was provided.
  17:Generated_Source\PSoC4/Timebase5s.c **** *******************************************************************************/
  18:Generated_Source\PSoC4/Timebase5s.c **** 
  19:Generated_Source\PSoC4/Timebase5s.c **** #include "Timebase5s.h"
  20:Generated_Source\PSoC4/Timebase5s.c **** 
  21:Generated_Source\PSoC4/Timebase5s.c **** uint8 Timebase5s_initVar = 0u;
  22:Generated_Source\PSoC4/Timebase5s.c **** 
  23:Generated_Source\PSoC4/Timebase5s.c **** 
  24:Generated_Source\PSoC4/Timebase5s.c **** /*******************************************************************************
  25:Generated_Source\PSoC4/Timebase5s.c **** * Function Name: Timebase5s_Init
  26:Generated_Source\PSoC4/Timebase5s.c **** ********************************************************************************
ARM GAS  C:\Users\CHRIST~1\AppData\Local\Temp\ccwDaf54.s 			page 2


  27:Generated_Source\PSoC4/Timebase5s.c **** *
  28:Generated_Source\PSoC4/Timebase5s.c **** * Summary:
  29:Generated_Source\PSoC4/Timebase5s.c **** *  Initialize/Restore default Timebase5s configuration.
  30:Generated_Source\PSoC4/Timebase5s.c **** *
  31:Generated_Source\PSoC4/Timebase5s.c **** * Parameters:
  32:Generated_Source\PSoC4/Timebase5s.c **** *  None
  33:Generated_Source\PSoC4/Timebase5s.c **** *
  34:Generated_Source\PSoC4/Timebase5s.c **** * Return:
  35:Generated_Source\PSoC4/Timebase5s.c **** *  None
  36:Generated_Source\PSoC4/Timebase5s.c **** *
  37:Generated_Source\PSoC4/Timebase5s.c **** *******************************************************************************/
  38:Generated_Source\PSoC4/Timebase5s.c **** void Timebase5s_Init(void)
  39:Generated_Source\PSoC4/Timebase5s.c **** {
  32              		.loc 1 39 0
  33              		.cfi_startproc
  34 0000 80B5     		push	{r7, lr}
  35              		.cfi_def_cfa_offset 8
  36              		.cfi_offset 7, -8
  37              		.cfi_offset 14, -4
  38 0002 00AF     		add	r7, sp, #0
  39              		.cfi_def_cfa_register 7
  40:Generated_Source\PSoC4/Timebase5s.c **** 
  41:Generated_Source\PSoC4/Timebase5s.c ****     /* Set values from customizer to CTRL */
  42:Generated_Source\PSoC4/Timebase5s.c ****     #if (Timebase5s__QUAD == Timebase5s_CONFIG)
  43:Generated_Source\PSoC4/Timebase5s.c ****         Timebase5s_CONTROL_REG = Timebase5s_CTRL_QUAD_BASE_CONFIG;
  44:Generated_Source\PSoC4/Timebase5s.c ****         
  45:Generated_Source\PSoC4/Timebase5s.c ****         /* Set values from customizer to CTRL1 */
  46:Generated_Source\PSoC4/Timebase5s.c ****         Timebase5s_TRIG_CONTROL1_REG  = Timebase5s_QUAD_SIGNALS_MODES;
  47:Generated_Source\PSoC4/Timebase5s.c **** 
  48:Generated_Source\PSoC4/Timebase5s.c ****         /* Set values from customizer to INTR */
  49:Generated_Source\PSoC4/Timebase5s.c ****         Timebase5s_SetInterruptMode(Timebase5s_QUAD_INTERRUPT_MASK);
  50:Generated_Source\PSoC4/Timebase5s.c ****         
  51:Generated_Source\PSoC4/Timebase5s.c ****          /* Set other values */
  52:Generated_Source\PSoC4/Timebase5s.c ****         Timebase5s_SetCounterMode(Timebase5s_COUNT_DOWN);
  53:Generated_Source\PSoC4/Timebase5s.c ****         Timebase5s_WritePeriod(Timebase5s_QUAD_PERIOD_INIT_VALUE);
  54:Generated_Source\PSoC4/Timebase5s.c ****         Timebase5s_WriteCounter(Timebase5s_QUAD_PERIOD_INIT_VALUE);
  55:Generated_Source\PSoC4/Timebase5s.c ****     #endif  /* (Timebase5s__QUAD == Timebase5s_CONFIG) */
  56:Generated_Source\PSoC4/Timebase5s.c **** 
  57:Generated_Source\PSoC4/Timebase5s.c ****     #if (Timebase5s__TIMER == Timebase5s_CONFIG)
  58:Generated_Source\PSoC4/Timebase5s.c ****         Timebase5s_CONTROL_REG = Timebase5s_CTRL_TIMER_BASE_CONFIG;
  40              		.loc 1 58 0
  41 0004 0B4B     		ldr	r3, .L2
  42 0006 8022     		mov	r2, #128
  43 0008 5202     		lsl	r2, r2, #9
  44 000a 1A60     		str	r2, [r3]
  59:Generated_Source\PSoC4/Timebase5s.c ****         
  60:Generated_Source\PSoC4/Timebase5s.c ****         /* Set values from customizer to CTRL1 */
  61:Generated_Source\PSoC4/Timebase5s.c ****         Timebase5s_TRIG_CONTROL1_REG  = Timebase5s_TIMER_SIGNALS_MODES;
  45              		.loc 1 61 0
  46 000c 0A4B     		ldr	r3, .L2+4
  47 000e 0C22     		mov	r2, #12
  48 0010 1A60     		str	r2, [r3]
  62:Generated_Source\PSoC4/Timebase5s.c ****     
  63:Generated_Source\PSoC4/Timebase5s.c ****         /* Set values from customizer to INTR */
  64:Generated_Source\PSoC4/Timebase5s.c ****         Timebase5s_SetInterruptMode(Timebase5s_TC_INTERRUPT_MASK);
  49              		.loc 1 64 0
  50 0012 0120     		mov	r0, #1
ARM GAS  C:\Users\CHRIST~1\AppData\Local\Temp\ccwDaf54.s 			page 3


  51 0014 FFF7FEFF 		bl	Timebase5s_SetInterruptMode
  65:Generated_Source\PSoC4/Timebase5s.c ****         
  66:Generated_Source\PSoC4/Timebase5s.c ****         /* Set other values from customizer */
  67:Generated_Source\PSoC4/Timebase5s.c ****         Timebase5s_WritePeriod(Timebase5s_TC_PERIOD_VALUE );
  52              		.loc 1 67 0
  53 0018 084B     		ldr	r3, .L2+8
  54 001a 181C     		mov	r0, r3
  55 001c FFF7FEFF 		bl	Timebase5s_WritePeriod
  68:Generated_Source\PSoC4/Timebase5s.c **** 
  69:Generated_Source\PSoC4/Timebase5s.c ****         #if (Timebase5s__COMPARE == Timebase5s_TC_COMP_CAP_MODE)
  70:Generated_Source\PSoC4/Timebase5s.c ****             Timebase5s_WriteCompare(Timebase5s_TC_COMPARE_VALUE);
  56              		.loc 1 70 0
  57 0020 074B     		ldr	r3, .L2+12
  58 0022 181C     		mov	r0, r3
  59 0024 FFF7FEFF 		bl	Timebase5s_WriteCompare
  71:Generated_Source\PSoC4/Timebase5s.c **** 
  72:Generated_Source\PSoC4/Timebase5s.c ****             #if (1u == Timebase5s_TC_COMPARE_SWAP)
  73:Generated_Source\PSoC4/Timebase5s.c ****                 Timebase5s_SetCompareSwap(1u);
  74:Generated_Source\PSoC4/Timebase5s.c ****                 Timebase5s_WriteCompareBuf(Timebase5s_TC_COMPARE_BUF_VALUE);
  75:Generated_Source\PSoC4/Timebase5s.c ****             #endif  /* (1u == Timebase5s_TC_COMPARE_SWAP) */
  76:Generated_Source\PSoC4/Timebase5s.c ****         #endif  /* (Timebase5s__COMPARE == Timebase5s_TC_COMP_CAP_MODE) */
  77:Generated_Source\PSoC4/Timebase5s.c **** 
  78:Generated_Source\PSoC4/Timebase5s.c ****         /* Initialize counter value */
  79:Generated_Source\PSoC4/Timebase5s.c ****         #if (Timebase5s_CY_TCPWM_V2 && Timebase5s_TIMER_UPDOWN_CNT_USED && !Timebase5s_CY_TCPWM_400
  80:Generated_Source\PSoC4/Timebase5s.c ****             Timebase5s_WriteCounter(1u);
  81:Generated_Source\PSoC4/Timebase5s.c ****         #elif(Timebase5s__COUNT_DOWN == Timebase5s_TC_COUNTER_MODE)
  82:Generated_Source\PSoC4/Timebase5s.c ****             Timebase5s_WriteCounter(Timebase5s_TC_PERIOD_VALUE);
  60              		.loc 1 82 0
  61 0028 044B     		ldr	r3, .L2+8
  62 002a 181C     		mov	r0, r3
  63 002c FFF7FEFF 		bl	Timebase5s_WriteCounter
  83:Generated_Source\PSoC4/Timebase5s.c ****         #else
  84:Generated_Source\PSoC4/Timebase5s.c ****             Timebase5s_WriteCounter(0u);
  85:Generated_Source\PSoC4/Timebase5s.c ****         #endif /* (Timebase5s_CY_TCPWM_V2 && Timebase5s_TIMER_UPDOWN_CNT_USED && !Timebase5s_CY_TCP
  86:Generated_Source\PSoC4/Timebase5s.c ****     #endif  /* (Timebase5s__TIMER == Timebase5s_CONFIG) */
  87:Generated_Source\PSoC4/Timebase5s.c **** 
  88:Generated_Source\PSoC4/Timebase5s.c ****     #if (Timebase5s__PWM_SEL == Timebase5s_CONFIG)
  89:Generated_Source\PSoC4/Timebase5s.c ****         Timebase5s_CONTROL_REG = Timebase5s_CTRL_PWM_BASE_CONFIG;
  90:Generated_Source\PSoC4/Timebase5s.c **** 
  91:Generated_Source\PSoC4/Timebase5s.c ****         #if (Timebase5s__PWM_PR == Timebase5s_PWM_MODE)
  92:Generated_Source\PSoC4/Timebase5s.c ****             Timebase5s_CONTROL_REG |= Timebase5s_CTRL_PWM_RUN_MODE;
  93:Generated_Source\PSoC4/Timebase5s.c ****             Timebase5s_WriteCounter(Timebase5s_PWM_PR_INIT_VALUE);
  94:Generated_Source\PSoC4/Timebase5s.c ****         #else
  95:Generated_Source\PSoC4/Timebase5s.c ****             Timebase5s_CONTROL_REG |= Timebase5s_CTRL_PWM_ALIGN | Timebase5s_CTRL_PWM_KILL_EVENT;
  96:Generated_Source\PSoC4/Timebase5s.c ****             
  97:Generated_Source\PSoC4/Timebase5s.c ****             /* Initialize counter value */
  98:Generated_Source\PSoC4/Timebase5s.c ****             #if (Timebase5s_CY_TCPWM_V2 && Timebase5s_PWM_UPDOWN_CNT_USED && !Timebase5s_CY_TCPWM_4
  99:Generated_Source\PSoC4/Timebase5s.c ****                 Timebase5s_WriteCounter(1u);
 100:Generated_Source\PSoC4/Timebase5s.c ****             #elif (Timebase5s__RIGHT == Timebase5s_PWM_ALIGN)
 101:Generated_Source\PSoC4/Timebase5s.c ****                 Timebase5s_WriteCounter(Timebase5s_PWM_PERIOD_VALUE);
 102:Generated_Source\PSoC4/Timebase5s.c ****             #else 
 103:Generated_Source\PSoC4/Timebase5s.c ****                 Timebase5s_WriteCounter(0u);
 104:Generated_Source\PSoC4/Timebase5s.c ****             #endif  /* (Timebase5s_CY_TCPWM_V2 && Timebase5s_PWM_UPDOWN_CNT_USED && !Timebase5s_CY_
 105:Generated_Source\PSoC4/Timebase5s.c ****         #endif  /* (Timebase5s__PWM_PR == Timebase5s_PWM_MODE) */
 106:Generated_Source\PSoC4/Timebase5s.c **** 
 107:Generated_Source\PSoC4/Timebase5s.c ****         #if (Timebase5s__PWM_DT == Timebase5s_PWM_MODE)
 108:Generated_Source\PSoC4/Timebase5s.c ****             Timebase5s_CONTROL_REG |= Timebase5s_CTRL_PWM_DEAD_TIME_CYCLE;
ARM GAS  C:\Users\CHRIST~1\AppData\Local\Temp\ccwDaf54.s 			page 4


 109:Generated_Source\PSoC4/Timebase5s.c ****         #endif  /* (Timebase5s__PWM_DT == Timebase5s_PWM_MODE) */
 110:Generated_Source\PSoC4/Timebase5s.c **** 
 111:Generated_Source\PSoC4/Timebase5s.c ****         #if (Timebase5s__PWM == Timebase5s_PWM_MODE)
 112:Generated_Source\PSoC4/Timebase5s.c ****             Timebase5s_CONTROL_REG |= Timebase5s_CTRL_PWM_PRESCALER;
 113:Generated_Source\PSoC4/Timebase5s.c ****         #endif  /* (Timebase5s__PWM == Timebase5s_PWM_MODE) */
 114:Generated_Source\PSoC4/Timebase5s.c **** 
 115:Generated_Source\PSoC4/Timebase5s.c ****         /* Set values from customizer to CTRL1 */
 116:Generated_Source\PSoC4/Timebase5s.c ****         Timebase5s_TRIG_CONTROL1_REG  = Timebase5s_PWM_SIGNALS_MODES;
 117:Generated_Source\PSoC4/Timebase5s.c ****     
 118:Generated_Source\PSoC4/Timebase5s.c ****         /* Set values from customizer to INTR */
 119:Generated_Source\PSoC4/Timebase5s.c ****         Timebase5s_SetInterruptMode(Timebase5s_PWM_INTERRUPT_MASK);
 120:Generated_Source\PSoC4/Timebase5s.c **** 
 121:Generated_Source\PSoC4/Timebase5s.c ****         /* Set values from customizer to CTRL2 */
 122:Generated_Source\PSoC4/Timebase5s.c ****         #if (Timebase5s__PWM_PR == Timebase5s_PWM_MODE)
 123:Generated_Source\PSoC4/Timebase5s.c ****             Timebase5s_TRIG_CONTROL2_REG =
 124:Generated_Source\PSoC4/Timebase5s.c ****                     (Timebase5s_CC_MATCH_NO_CHANGE    |
 125:Generated_Source\PSoC4/Timebase5s.c ****                     Timebase5s_OVERLOW_NO_CHANGE      |
 126:Generated_Source\PSoC4/Timebase5s.c ****                     Timebase5s_UNDERFLOW_NO_CHANGE);
 127:Generated_Source\PSoC4/Timebase5s.c ****         #else
 128:Generated_Source\PSoC4/Timebase5s.c ****             #if (Timebase5s__LEFT == Timebase5s_PWM_ALIGN)
 129:Generated_Source\PSoC4/Timebase5s.c ****                 Timebase5s_TRIG_CONTROL2_REG = Timebase5s_PWM_MODE_LEFT;
 130:Generated_Source\PSoC4/Timebase5s.c ****             #endif  /* ( Timebase5s_PWM_LEFT == Timebase5s_PWM_ALIGN) */
 131:Generated_Source\PSoC4/Timebase5s.c **** 
 132:Generated_Source\PSoC4/Timebase5s.c ****             #if (Timebase5s__RIGHT == Timebase5s_PWM_ALIGN)
 133:Generated_Source\PSoC4/Timebase5s.c ****                 Timebase5s_TRIG_CONTROL2_REG = Timebase5s_PWM_MODE_RIGHT;
 134:Generated_Source\PSoC4/Timebase5s.c ****             #endif  /* ( Timebase5s_PWM_RIGHT == Timebase5s_PWM_ALIGN) */
 135:Generated_Source\PSoC4/Timebase5s.c **** 
 136:Generated_Source\PSoC4/Timebase5s.c ****             #if (Timebase5s__CENTER == Timebase5s_PWM_ALIGN)
 137:Generated_Source\PSoC4/Timebase5s.c ****                 Timebase5s_TRIG_CONTROL2_REG = Timebase5s_PWM_MODE_CENTER;
 138:Generated_Source\PSoC4/Timebase5s.c ****             #endif  /* ( Timebase5s_PWM_CENTER == Timebase5s_PWM_ALIGN) */
 139:Generated_Source\PSoC4/Timebase5s.c **** 
 140:Generated_Source\PSoC4/Timebase5s.c ****             #if (Timebase5s__ASYMMETRIC == Timebase5s_PWM_ALIGN)
 141:Generated_Source\PSoC4/Timebase5s.c ****                 Timebase5s_TRIG_CONTROL2_REG = Timebase5s_PWM_MODE_ASYM;
 142:Generated_Source\PSoC4/Timebase5s.c ****             #endif  /* (Timebase5s__ASYMMETRIC == Timebase5s_PWM_ALIGN) */
 143:Generated_Source\PSoC4/Timebase5s.c ****         #endif  /* (Timebase5s__PWM_PR == Timebase5s_PWM_MODE) */
 144:Generated_Source\PSoC4/Timebase5s.c **** 
 145:Generated_Source\PSoC4/Timebase5s.c ****         /* Set other values from customizer */
 146:Generated_Source\PSoC4/Timebase5s.c ****         Timebase5s_WritePeriod(Timebase5s_PWM_PERIOD_VALUE );
 147:Generated_Source\PSoC4/Timebase5s.c ****         Timebase5s_WriteCompare(Timebase5s_PWM_COMPARE_VALUE);
 148:Generated_Source\PSoC4/Timebase5s.c **** 
 149:Generated_Source\PSoC4/Timebase5s.c ****         #if (1u == Timebase5s_PWM_COMPARE_SWAP)
 150:Generated_Source\PSoC4/Timebase5s.c ****             Timebase5s_SetCompareSwap(1u);
 151:Generated_Source\PSoC4/Timebase5s.c ****             Timebase5s_WriteCompareBuf(Timebase5s_PWM_COMPARE_BUF_VALUE);
 152:Generated_Source\PSoC4/Timebase5s.c ****         #endif  /* (1u == Timebase5s_PWM_COMPARE_SWAP) */
 153:Generated_Source\PSoC4/Timebase5s.c **** 
 154:Generated_Source\PSoC4/Timebase5s.c ****         #if (1u == Timebase5s_PWM_PERIOD_SWAP)
 155:Generated_Source\PSoC4/Timebase5s.c ****             Timebase5s_SetPeriodSwap(1u);
 156:Generated_Source\PSoC4/Timebase5s.c ****             Timebase5s_WritePeriodBuf(Timebase5s_PWM_PERIOD_BUF_VALUE);
 157:Generated_Source\PSoC4/Timebase5s.c ****         #endif  /* (1u == Timebase5s_PWM_PERIOD_SWAP) */
 158:Generated_Source\PSoC4/Timebase5s.c ****     #endif  /* (Timebase5s__PWM_SEL == Timebase5s_CONFIG) */
 159:Generated_Source\PSoC4/Timebase5s.c ****     
 160:Generated_Source\PSoC4/Timebase5s.c **** }
  64              		.loc 1 160 0
  65 0030 BD46     		mov	sp, r7
  66              		@ sp needed
  67 0032 80BD     		pop	{r7, pc}
  68              	.L3:
ARM GAS  C:\Users\CHRIST~1\AppData\Local\Temp\ccwDaf54.s 			page 5


  69              		.align	2
  70              	.L2:
  71 0034 00010140 		.word	1073807616
  72 0038 24010140 		.word	1073807652
  73 003c 87130000 		.word	4999
  74 0040 C4090000 		.word	2500
  75              		.cfi_endproc
  76              	.LFE1:
  77              		.size	Timebase5s_Init, .-Timebase5s_Init
  78              		.section	.text.Timebase5s_Enable,"ax",%progbits
  79              		.align	2
  80              		.global	Timebase5s_Enable
  81              		.code	16
  82              		.thumb_func
  83              		.type	Timebase5s_Enable, %function
  84              	Timebase5s_Enable:
  85              	.LFB2:
 161:Generated_Source\PSoC4/Timebase5s.c **** 
 162:Generated_Source\PSoC4/Timebase5s.c **** 
 163:Generated_Source\PSoC4/Timebase5s.c **** /*******************************************************************************
 164:Generated_Source\PSoC4/Timebase5s.c **** * Function Name: Timebase5s_Enable
 165:Generated_Source\PSoC4/Timebase5s.c **** ********************************************************************************
 166:Generated_Source\PSoC4/Timebase5s.c **** *
 167:Generated_Source\PSoC4/Timebase5s.c **** * Summary:
 168:Generated_Source\PSoC4/Timebase5s.c **** *  Enables the Timebase5s.
 169:Generated_Source\PSoC4/Timebase5s.c **** *
 170:Generated_Source\PSoC4/Timebase5s.c **** * Parameters:
 171:Generated_Source\PSoC4/Timebase5s.c **** *  None
 172:Generated_Source\PSoC4/Timebase5s.c **** *
 173:Generated_Source\PSoC4/Timebase5s.c **** * Return:
 174:Generated_Source\PSoC4/Timebase5s.c **** *  None
 175:Generated_Source\PSoC4/Timebase5s.c **** *
 176:Generated_Source\PSoC4/Timebase5s.c **** *******************************************************************************/
 177:Generated_Source\PSoC4/Timebase5s.c **** void Timebase5s_Enable(void)
 178:Generated_Source\PSoC4/Timebase5s.c **** {
  86              		.loc 1 178 0
  87              		.cfi_startproc
  88 0000 90B5     		push	{r4, r7, lr}
  89              		.cfi_def_cfa_offset 12
  90              		.cfi_offset 4, -12
  91              		.cfi_offset 7, -8
  92              		.cfi_offset 14, -4
  93 0002 83B0     		sub	sp, sp, #12
  94              		.cfi_def_cfa_offset 24
  95 0004 00AF     		add	r7, sp, #0
  96              		.cfi_def_cfa_register 7
 179:Generated_Source\PSoC4/Timebase5s.c ****     uint8 enableInterrupts;
 180:Generated_Source\PSoC4/Timebase5s.c **** 
 181:Generated_Source\PSoC4/Timebase5s.c ****     enableInterrupts = CyEnterCriticalSection();
  97              		.loc 1 181 0
  98 0006 FC1D     		add	r4, r7, #7
  99 0008 FFF7FEFF 		bl	CyEnterCriticalSection
 100 000c 031C     		mov	r3, r0
 101 000e 2370     		strb	r3, [r4]
 182:Generated_Source\PSoC4/Timebase5s.c ****     Timebase5s_BLOCK_CONTROL_REG |= Timebase5s_MASK;
 102              		.loc 1 182 0
 103 0010 084B     		ldr	r3, .L5
ARM GAS  C:\Users\CHRIST~1\AppData\Local\Temp\ccwDaf54.s 			page 6


 104 0012 084A     		ldr	r2, .L5
 105 0014 1268     		ldr	r2, [r2]
 106 0016 0121     		mov	r1, #1
 107 0018 0A43     		orr	r2, r1
 108 001a 1A60     		str	r2, [r3]
 183:Generated_Source\PSoC4/Timebase5s.c ****     CyExitCriticalSection(enableInterrupts);
 109              		.loc 1 183 0
 110 001c FB1D     		add	r3, r7, #7
 111 001e 1B78     		ldrb	r3, [r3]
 112 0020 181C     		mov	r0, r3
 113 0022 FFF7FEFF 		bl	CyExitCriticalSection
 184:Generated_Source\PSoC4/Timebase5s.c **** 
 185:Generated_Source\PSoC4/Timebase5s.c ****     /* Start Timer or PWM if start input is absent */
 186:Generated_Source\PSoC4/Timebase5s.c ****     #if (Timebase5s__PWM_SEL == Timebase5s_CONFIG)
 187:Generated_Source\PSoC4/Timebase5s.c ****         #if (0u == Timebase5s_PWM_START_SIGNAL_PRESENT)
 188:Generated_Source\PSoC4/Timebase5s.c ****             Timebase5s_TriggerCommand(Timebase5s_MASK, Timebase5s_CMD_START);
 189:Generated_Source\PSoC4/Timebase5s.c ****         #endif /* (0u == Timebase5s_PWM_START_SIGNAL_PRESENT) */
 190:Generated_Source\PSoC4/Timebase5s.c ****     #endif /* (Timebase5s__PWM_SEL == Timebase5s_CONFIG) */
 191:Generated_Source\PSoC4/Timebase5s.c **** 
 192:Generated_Source\PSoC4/Timebase5s.c ****     #if (Timebase5s__TIMER == Timebase5s_CONFIG)
 193:Generated_Source\PSoC4/Timebase5s.c ****         #if (0u == Timebase5s_TC_START_SIGNAL_PRESENT)
 194:Generated_Source\PSoC4/Timebase5s.c ****             Timebase5s_TriggerCommand(Timebase5s_MASK, Timebase5s_CMD_START);
 114              		.loc 1 194 0
 115 0026 0120     		mov	r0, #1
 116 0028 1821     		mov	r1, #24
 117 002a FFF7FEFF 		bl	Timebase5s_TriggerCommand
 195:Generated_Source\PSoC4/Timebase5s.c ****         #endif /* (0u == Timebase5s_TC_START_SIGNAL_PRESENT) */
 196:Generated_Source\PSoC4/Timebase5s.c ****     #endif /* (Timebase5s__TIMER == Timebase5s_CONFIG) */
 197:Generated_Source\PSoC4/Timebase5s.c ****     
 198:Generated_Source\PSoC4/Timebase5s.c ****     #if (Timebase5s__QUAD == Timebase5s_CONFIG)
 199:Generated_Source\PSoC4/Timebase5s.c ****         #if (0u != Timebase5s_QUAD_AUTO_START)
 200:Generated_Source\PSoC4/Timebase5s.c ****             Timebase5s_TriggerCommand(Timebase5s_MASK, Timebase5s_CMD_RELOAD);
 201:Generated_Source\PSoC4/Timebase5s.c ****         #endif /* (0u != Timebase5s_QUAD_AUTO_START) */
 202:Generated_Source\PSoC4/Timebase5s.c ****     #endif  /* (Timebase5s__QUAD == Timebase5s_CONFIG) */
 203:Generated_Source\PSoC4/Timebase5s.c **** }
 118              		.loc 1 203 0
 119 002e BD46     		mov	sp, r7
 120 0030 03B0     		add	sp, sp, #12
 121              		@ sp needed
 122 0032 90BD     		pop	{r4, r7, pc}
 123              	.L6:
 124              		.align	2
 125              	.L5:
 126 0034 00000140 		.word	1073807360
 127              		.cfi_endproc
 128              	.LFE2:
 129              		.size	Timebase5s_Enable, .-Timebase5s_Enable
 130              		.section	.text.Timebase5s_Start,"ax",%progbits
 131              		.align	2
 132              		.global	Timebase5s_Start
 133              		.code	16
 134              		.thumb_func
 135              		.type	Timebase5s_Start, %function
 136              	Timebase5s_Start:
 137              	.LFB3:
 204:Generated_Source\PSoC4/Timebase5s.c **** 
 205:Generated_Source\PSoC4/Timebase5s.c **** 
ARM GAS  C:\Users\CHRIST~1\AppData\Local\Temp\ccwDaf54.s 			page 7


 206:Generated_Source\PSoC4/Timebase5s.c **** /*******************************************************************************
 207:Generated_Source\PSoC4/Timebase5s.c **** * Function Name: Timebase5s_Start
 208:Generated_Source\PSoC4/Timebase5s.c **** ********************************************************************************
 209:Generated_Source\PSoC4/Timebase5s.c **** *
 210:Generated_Source\PSoC4/Timebase5s.c **** * Summary:
 211:Generated_Source\PSoC4/Timebase5s.c **** *  Initializes the Timebase5s with default customizer
 212:Generated_Source\PSoC4/Timebase5s.c **** *  values when called the first time and enables the Timebase5s.
 213:Generated_Source\PSoC4/Timebase5s.c **** *  For subsequent calls the configuration is left unchanged and the component is
 214:Generated_Source\PSoC4/Timebase5s.c **** *  just enabled.
 215:Generated_Source\PSoC4/Timebase5s.c **** *
 216:Generated_Source\PSoC4/Timebase5s.c **** * Parameters:
 217:Generated_Source\PSoC4/Timebase5s.c **** *  None
 218:Generated_Source\PSoC4/Timebase5s.c **** *
 219:Generated_Source\PSoC4/Timebase5s.c **** * Return:
 220:Generated_Source\PSoC4/Timebase5s.c **** *  None
 221:Generated_Source\PSoC4/Timebase5s.c **** *
 222:Generated_Source\PSoC4/Timebase5s.c **** * Global variables:
 223:Generated_Source\PSoC4/Timebase5s.c **** *  Timebase5s_initVar: global variable is used to indicate initial
 224:Generated_Source\PSoC4/Timebase5s.c **** *  configuration of this component.  The variable is initialized to zero and set
 225:Generated_Source\PSoC4/Timebase5s.c **** *  to 1 the first time Timebase5s_Start() is called. This allows
 226:Generated_Source\PSoC4/Timebase5s.c **** *  enabling/disabling a component without re-initialization in all subsequent
 227:Generated_Source\PSoC4/Timebase5s.c **** *  calls to the Timebase5s_Start() routine.
 228:Generated_Source\PSoC4/Timebase5s.c **** *
 229:Generated_Source\PSoC4/Timebase5s.c **** *******************************************************************************/
 230:Generated_Source\PSoC4/Timebase5s.c **** void Timebase5s_Start(void)
 231:Generated_Source\PSoC4/Timebase5s.c **** {
 138              		.loc 1 231 0
 139              		.cfi_startproc
 140 0000 80B5     		push	{r7, lr}
 141              		.cfi_def_cfa_offset 8
 142              		.cfi_offset 7, -8
 143              		.cfi_offset 14, -4
 144 0002 00AF     		add	r7, sp, #0
 145              		.cfi_def_cfa_register 7
 232:Generated_Source\PSoC4/Timebase5s.c ****     if (0u == Timebase5s_initVar)
 146              		.loc 1 232 0
 147 0004 064B     		ldr	r3, .L9
 148 0006 1B78     		ldrb	r3, [r3]
 149 0008 002B     		cmp	r3, #0
 150 000a 04D1     		bne	.L8
 233:Generated_Source\PSoC4/Timebase5s.c ****     {
 234:Generated_Source\PSoC4/Timebase5s.c ****         Timebase5s_Init();
 151              		.loc 1 234 0
 152 000c FFF7FEFF 		bl	Timebase5s_Init
 235:Generated_Source\PSoC4/Timebase5s.c ****         Timebase5s_initVar = 1u;
 153              		.loc 1 235 0
 154 0010 034B     		ldr	r3, .L9
 155 0012 0122     		mov	r2, #1
 156 0014 1A70     		strb	r2, [r3]
 157              	.L8:
 236:Generated_Source\PSoC4/Timebase5s.c ****     }
 237:Generated_Source\PSoC4/Timebase5s.c **** 
 238:Generated_Source\PSoC4/Timebase5s.c ****     Timebase5s_Enable();
 158              		.loc 1 238 0
 159 0016 FFF7FEFF 		bl	Timebase5s_Enable
 239:Generated_Source\PSoC4/Timebase5s.c **** }
 160              		.loc 1 239 0
ARM GAS  C:\Users\CHRIST~1\AppData\Local\Temp\ccwDaf54.s 			page 8


 161 001a BD46     		mov	sp, r7
 162              		@ sp needed
 163 001c 80BD     		pop	{r7, pc}
 164              	.L10:
 165 001e C046     		.align	2
 166              	.L9:
 167 0020 00000000 		.word	Timebase5s_initVar
 168              		.cfi_endproc
 169              	.LFE3:
 170              		.size	Timebase5s_Start, .-Timebase5s_Start
 171              		.section	.text.Timebase5s_Stop,"ax",%progbits
 172              		.align	2
 173              		.global	Timebase5s_Stop
 174              		.code	16
 175              		.thumb_func
 176              		.type	Timebase5s_Stop, %function
 177              	Timebase5s_Stop:
 178              	.LFB4:
 240:Generated_Source\PSoC4/Timebase5s.c **** 
 241:Generated_Source\PSoC4/Timebase5s.c **** 
 242:Generated_Source\PSoC4/Timebase5s.c **** /*******************************************************************************
 243:Generated_Source\PSoC4/Timebase5s.c **** * Function Name: Timebase5s_Stop
 244:Generated_Source\PSoC4/Timebase5s.c **** ********************************************************************************
 245:Generated_Source\PSoC4/Timebase5s.c **** *
 246:Generated_Source\PSoC4/Timebase5s.c **** * Summary:
 247:Generated_Source\PSoC4/Timebase5s.c **** *  Disables the Timebase5s.
 248:Generated_Source\PSoC4/Timebase5s.c **** *
 249:Generated_Source\PSoC4/Timebase5s.c **** * Parameters:
 250:Generated_Source\PSoC4/Timebase5s.c **** *  None
 251:Generated_Source\PSoC4/Timebase5s.c **** *
 252:Generated_Source\PSoC4/Timebase5s.c **** * Return:
 253:Generated_Source\PSoC4/Timebase5s.c **** *  None
 254:Generated_Source\PSoC4/Timebase5s.c **** *
 255:Generated_Source\PSoC4/Timebase5s.c **** *******************************************************************************/
 256:Generated_Source\PSoC4/Timebase5s.c **** void Timebase5s_Stop(void)
 257:Generated_Source\PSoC4/Timebase5s.c **** {
 179              		.loc 1 257 0
 180              		.cfi_startproc
 181 0000 90B5     		push	{r4, r7, lr}
 182              		.cfi_def_cfa_offset 12
 183              		.cfi_offset 4, -12
 184              		.cfi_offset 7, -8
 185              		.cfi_offset 14, -4
 186 0002 83B0     		sub	sp, sp, #12
 187              		.cfi_def_cfa_offset 24
 188 0004 00AF     		add	r7, sp, #0
 189              		.cfi_def_cfa_register 7
 258:Generated_Source\PSoC4/Timebase5s.c ****     uint8 enableInterrupts;
 259:Generated_Source\PSoC4/Timebase5s.c **** 
 260:Generated_Source\PSoC4/Timebase5s.c ****     enableInterrupts = CyEnterCriticalSection();
 190              		.loc 1 260 0
 191 0006 FC1D     		add	r4, r7, #7
 192 0008 FFF7FEFF 		bl	CyEnterCriticalSection
 193 000c 031C     		mov	r3, r0
 194 000e 2370     		strb	r3, [r4]
 261:Generated_Source\PSoC4/Timebase5s.c **** 
 262:Generated_Source\PSoC4/Timebase5s.c ****     Timebase5s_BLOCK_CONTROL_REG &= (uint32)~Timebase5s_MASK;
ARM GAS  C:\Users\CHRIST~1\AppData\Local\Temp\ccwDaf54.s 			page 9


 195              		.loc 1 262 0
 196 0010 064B     		ldr	r3, .L12
 197 0012 064A     		ldr	r2, .L12
 198 0014 1268     		ldr	r2, [r2]
 199 0016 0121     		mov	r1, #1
 200 0018 8A43     		bic	r2, r1
 201 001a 1A60     		str	r2, [r3]
 263:Generated_Source\PSoC4/Timebase5s.c **** 
 264:Generated_Source\PSoC4/Timebase5s.c ****     CyExitCriticalSection(enableInterrupts);
 202              		.loc 1 264 0
 203 001c FB1D     		add	r3, r7, #7
 204 001e 1B78     		ldrb	r3, [r3]
 205 0020 181C     		mov	r0, r3
 206 0022 FFF7FEFF 		bl	CyExitCriticalSection
 265:Generated_Source\PSoC4/Timebase5s.c **** }
 207              		.loc 1 265 0
 208 0026 BD46     		mov	sp, r7
 209 0028 03B0     		add	sp, sp, #12
 210              		@ sp needed
 211 002a 90BD     		pop	{r4, r7, pc}
 212              	.L13:
 213              		.align	2
 214              	.L12:
 215 002c 00000140 		.word	1073807360
 216              		.cfi_endproc
 217              	.LFE4:
 218              		.size	Timebase5s_Stop, .-Timebase5s_Stop
 219              		.section	.text.Timebase5s_SetMode,"ax",%progbits
 220              		.align	2
 221              		.global	Timebase5s_SetMode
 222              		.code	16
 223              		.thumb_func
 224              		.type	Timebase5s_SetMode, %function
 225              	Timebase5s_SetMode:
 226              	.LFB5:
 266:Generated_Source\PSoC4/Timebase5s.c **** 
 267:Generated_Source\PSoC4/Timebase5s.c **** 
 268:Generated_Source\PSoC4/Timebase5s.c **** /*******************************************************************************
 269:Generated_Source\PSoC4/Timebase5s.c **** * Function Name: Timebase5s_SetMode
 270:Generated_Source\PSoC4/Timebase5s.c **** ********************************************************************************
 271:Generated_Source\PSoC4/Timebase5s.c **** *
 272:Generated_Source\PSoC4/Timebase5s.c **** * Summary:
 273:Generated_Source\PSoC4/Timebase5s.c **** *  Sets the operation mode of the Timebase5s. This function is used when
 274:Generated_Source\PSoC4/Timebase5s.c **** *  configured as a generic Timebase5s and the actual mode of operation is
 275:Generated_Source\PSoC4/Timebase5s.c **** *  set at runtime. The mode must be set while the component is disabled.
 276:Generated_Source\PSoC4/Timebase5s.c **** *
 277:Generated_Source\PSoC4/Timebase5s.c **** * Parameters:
 278:Generated_Source\PSoC4/Timebase5s.c **** *  mode: Mode for the Timebase5s to operate in
 279:Generated_Source\PSoC4/Timebase5s.c **** *   Values:
 280:Generated_Source\PSoC4/Timebase5s.c **** *   - Timebase5s_MODE_TIMER_COMPARE - Timer / Counter with
 281:Generated_Source\PSoC4/Timebase5s.c **** *                                                 compare capability
 282:Generated_Source\PSoC4/Timebase5s.c **** *         - Timebase5s_MODE_TIMER_CAPTURE - Timer / Counter with
 283:Generated_Source\PSoC4/Timebase5s.c **** *                                                 capture capability
 284:Generated_Source\PSoC4/Timebase5s.c **** *         - Timebase5s_MODE_QUAD - Quadrature decoder
 285:Generated_Source\PSoC4/Timebase5s.c **** *         - Timebase5s_MODE_PWM - PWM
 286:Generated_Source\PSoC4/Timebase5s.c **** *         - Timebase5s_MODE_PWM_DT - PWM with dead time
 287:Generated_Source\PSoC4/Timebase5s.c **** *         - Timebase5s_MODE_PWM_PR - PWM with pseudo random capability
ARM GAS  C:\Users\CHRIST~1\AppData\Local\Temp\ccwDaf54.s 			page 10


 288:Generated_Source\PSoC4/Timebase5s.c **** *
 289:Generated_Source\PSoC4/Timebase5s.c **** * Return:
 290:Generated_Source\PSoC4/Timebase5s.c **** *  None
 291:Generated_Source\PSoC4/Timebase5s.c **** *
 292:Generated_Source\PSoC4/Timebase5s.c **** *******************************************************************************/
 293:Generated_Source\PSoC4/Timebase5s.c **** void Timebase5s_SetMode(uint32 mode)
 294:Generated_Source\PSoC4/Timebase5s.c **** {
 227              		.loc 1 294 0
 228              		.cfi_startproc
 229 0000 90B5     		push	{r4, r7, lr}
 230              		.cfi_def_cfa_offset 12
 231              		.cfi_offset 4, -12
 232              		.cfi_offset 7, -8
 233              		.cfi_offset 14, -4
 234 0002 85B0     		sub	sp, sp, #20
 235              		.cfi_def_cfa_offset 32
 236 0004 00AF     		add	r7, sp, #0
 237              		.cfi_def_cfa_register 7
 238 0006 7860     		str	r0, [r7, #4]
 295:Generated_Source\PSoC4/Timebase5s.c ****     uint8 enableInterrupts;
 296:Generated_Source\PSoC4/Timebase5s.c **** 
 297:Generated_Source\PSoC4/Timebase5s.c ****     enableInterrupts = CyEnterCriticalSection();
 239              		.loc 1 297 0
 240 0008 0F23     		mov	r3, #15
 241 000a FC18     		add	r4, r7, r3
 242 000c FFF7FEFF 		bl	CyEnterCriticalSection
 243 0010 031C     		mov	r3, r0
 244 0012 2370     		strb	r3, [r4]
 298:Generated_Source\PSoC4/Timebase5s.c **** 
 299:Generated_Source\PSoC4/Timebase5s.c ****     Timebase5s_CONTROL_REG &= (uint32)~Timebase5s_MODE_MASK;
 245              		.loc 1 299 0
 246 0014 0A4B     		ldr	r3, .L15
 247 0016 0A4A     		ldr	r2, .L15
 248 0018 1268     		ldr	r2, [r2]
 249 001a 0A49     		ldr	r1, .L15+4
 250 001c 0A40     		and	r2, r1
 251 001e 1A60     		str	r2, [r3]
 300:Generated_Source\PSoC4/Timebase5s.c ****     Timebase5s_CONTROL_REG |= mode;
 252              		.loc 1 300 0
 253 0020 074B     		ldr	r3, .L15
 254 0022 074A     		ldr	r2, .L15
 255 0024 1168     		ldr	r1, [r2]
 256 0026 7A68     		ldr	r2, [r7, #4]
 257 0028 0A43     		orr	r2, r1
 258 002a 1A60     		str	r2, [r3]
 301:Generated_Source\PSoC4/Timebase5s.c **** 
 302:Generated_Source\PSoC4/Timebase5s.c ****     CyExitCriticalSection(enableInterrupts);
 259              		.loc 1 302 0
 260 002c 0F23     		mov	r3, #15
 261 002e FB18     		add	r3, r7, r3
 262 0030 1B78     		ldrb	r3, [r3]
 263 0032 181C     		mov	r0, r3
 264 0034 FFF7FEFF 		bl	CyExitCriticalSection
 303:Generated_Source\PSoC4/Timebase5s.c **** }
 265              		.loc 1 303 0
 266 0038 BD46     		mov	sp, r7
 267 003a 05B0     		add	sp, sp, #20
ARM GAS  C:\Users\CHRIST~1\AppData\Local\Temp\ccwDaf54.s 			page 11


 268              		@ sp needed
 269 003c 90BD     		pop	{r4, r7, pc}
 270              	.L16:
 271 003e C046     		.align	2
 272              	.L15:
 273 0040 00010140 		.word	1073807616
 274 0044 FFFFFFF8 		.word	-117440513
 275              		.cfi_endproc
 276              	.LFE5:
 277              		.size	Timebase5s_SetMode, .-Timebase5s_SetMode
 278              		.section	.text.Timebase5s_SetQDMode,"ax",%progbits
 279              		.align	2
 280              		.global	Timebase5s_SetQDMode
 281              		.code	16
 282              		.thumb_func
 283              		.type	Timebase5s_SetQDMode, %function
 284              	Timebase5s_SetQDMode:
 285              	.LFB6:
 304:Generated_Source\PSoC4/Timebase5s.c **** 
 305:Generated_Source\PSoC4/Timebase5s.c **** 
 306:Generated_Source\PSoC4/Timebase5s.c **** /*******************************************************************************
 307:Generated_Source\PSoC4/Timebase5s.c **** * Function Name: Timebase5s_SetQDMode
 308:Generated_Source\PSoC4/Timebase5s.c **** ********************************************************************************
 309:Generated_Source\PSoC4/Timebase5s.c **** *
 310:Generated_Source\PSoC4/Timebase5s.c **** * Summary:
 311:Generated_Source\PSoC4/Timebase5s.c **** *  Sets the the Quadrature Decoder to one of the 3 supported modes.
 312:Generated_Source\PSoC4/Timebase5s.c **** *  Its functionality is only applicable to Quadrature Decoder operation.
 313:Generated_Source\PSoC4/Timebase5s.c **** *
 314:Generated_Source\PSoC4/Timebase5s.c **** * Parameters:
 315:Generated_Source\PSoC4/Timebase5s.c **** *  qdMode: Quadrature Decoder mode
 316:Generated_Source\PSoC4/Timebase5s.c **** *   Values:
 317:Generated_Source\PSoC4/Timebase5s.c **** *         - Timebase5s_MODE_X1 - Counts on phi 1 rising
 318:Generated_Source\PSoC4/Timebase5s.c **** *         - Timebase5s_MODE_X2 - Counts on both edges of phi1 (2x faster)
 319:Generated_Source\PSoC4/Timebase5s.c **** *         - Timebase5s_MODE_X4 - Counts on both edges of phi1 and phi2
 320:Generated_Source\PSoC4/Timebase5s.c **** *                                        (4x faster)
 321:Generated_Source\PSoC4/Timebase5s.c **** *
 322:Generated_Source\PSoC4/Timebase5s.c **** * Return:
 323:Generated_Source\PSoC4/Timebase5s.c **** *  None
 324:Generated_Source\PSoC4/Timebase5s.c **** *
 325:Generated_Source\PSoC4/Timebase5s.c **** *******************************************************************************/
 326:Generated_Source\PSoC4/Timebase5s.c **** void Timebase5s_SetQDMode(uint32 qdMode)
 327:Generated_Source\PSoC4/Timebase5s.c **** {
 286              		.loc 1 327 0
 287              		.cfi_startproc
 288 0000 90B5     		push	{r4, r7, lr}
 289              		.cfi_def_cfa_offset 12
 290              		.cfi_offset 4, -12
 291              		.cfi_offset 7, -8
 292              		.cfi_offset 14, -4
 293 0002 85B0     		sub	sp, sp, #20
 294              		.cfi_def_cfa_offset 32
 295 0004 00AF     		add	r7, sp, #0
 296              		.cfi_def_cfa_register 7
 297 0006 7860     		str	r0, [r7, #4]
 328:Generated_Source\PSoC4/Timebase5s.c ****     uint8 enableInterrupts;
 329:Generated_Source\PSoC4/Timebase5s.c **** 
 330:Generated_Source\PSoC4/Timebase5s.c ****     enableInterrupts = CyEnterCriticalSection();
ARM GAS  C:\Users\CHRIST~1\AppData\Local\Temp\ccwDaf54.s 			page 12


 298              		.loc 1 330 0
 299 0008 0F23     		mov	r3, #15
 300 000a FC18     		add	r4, r7, r3
 301 000c FFF7FEFF 		bl	CyEnterCriticalSection
 302 0010 031C     		mov	r3, r0
 303 0012 2370     		strb	r3, [r4]
 331:Generated_Source\PSoC4/Timebase5s.c **** 
 332:Generated_Source\PSoC4/Timebase5s.c ****     Timebase5s_CONTROL_REG &= (uint32)~Timebase5s_QUAD_MODE_MASK;
 304              		.loc 1 332 0
 305 0014 0A4B     		ldr	r3, .L18
 306 0016 0A4A     		ldr	r2, .L18
 307 0018 1268     		ldr	r2, [r2]
 308 001a 0A49     		ldr	r1, .L18+4
 309 001c 0A40     		and	r2, r1
 310 001e 1A60     		str	r2, [r3]
 333:Generated_Source\PSoC4/Timebase5s.c ****     Timebase5s_CONTROL_REG |= qdMode;
 311              		.loc 1 333 0
 312 0020 074B     		ldr	r3, .L18
 313 0022 074A     		ldr	r2, .L18
 314 0024 1168     		ldr	r1, [r2]
 315 0026 7A68     		ldr	r2, [r7, #4]
 316 0028 0A43     		orr	r2, r1
 317 002a 1A60     		str	r2, [r3]
 334:Generated_Source\PSoC4/Timebase5s.c **** 
 335:Generated_Source\PSoC4/Timebase5s.c ****     CyExitCriticalSection(enableInterrupts);
 318              		.loc 1 335 0
 319 002c 0F23     		mov	r3, #15
 320 002e FB18     		add	r3, r7, r3
 321 0030 1B78     		ldrb	r3, [r3]
 322 0032 181C     		mov	r0, r3
 323 0034 FFF7FEFF 		bl	CyExitCriticalSection
 336:Generated_Source\PSoC4/Timebase5s.c **** }
 324              		.loc 1 336 0
 325 0038 BD46     		mov	sp, r7
 326 003a 05B0     		add	sp, sp, #20
 327              		@ sp needed
 328 003c 90BD     		pop	{r4, r7, pc}
 329              	.L19:
 330 003e C046     		.align	2
 331              	.L18:
 332 0040 00010140 		.word	1073807616
 333 0044 FFFF8FFF 		.word	-7340033
 334              		.cfi_endproc
 335              	.LFE6:
 336              		.size	Timebase5s_SetQDMode, .-Timebase5s_SetQDMode
 337              		.section	.text.Timebase5s_SetPrescaler,"ax",%progbits
 338              		.align	2
 339              		.global	Timebase5s_SetPrescaler
 340              		.code	16
 341              		.thumb_func
 342              		.type	Timebase5s_SetPrescaler, %function
 343              	Timebase5s_SetPrescaler:
 344              	.LFB7:
 337:Generated_Source\PSoC4/Timebase5s.c **** 
 338:Generated_Source\PSoC4/Timebase5s.c **** 
 339:Generated_Source\PSoC4/Timebase5s.c **** /*******************************************************************************
 340:Generated_Source\PSoC4/Timebase5s.c **** * Function Name: Timebase5s_SetPrescaler
ARM GAS  C:\Users\CHRIST~1\AppData\Local\Temp\ccwDaf54.s 			page 13


 341:Generated_Source\PSoC4/Timebase5s.c **** ********************************************************************************
 342:Generated_Source\PSoC4/Timebase5s.c **** *
 343:Generated_Source\PSoC4/Timebase5s.c **** * Summary:
 344:Generated_Source\PSoC4/Timebase5s.c **** *  Sets the prescaler value that is applied to the clock input.  Not applicable
 345:Generated_Source\PSoC4/Timebase5s.c **** *  to a PWM with the dead time mode or Quadrature Decoder mode.
 346:Generated_Source\PSoC4/Timebase5s.c **** *
 347:Generated_Source\PSoC4/Timebase5s.c **** * Parameters:
 348:Generated_Source\PSoC4/Timebase5s.c **** *  prescaler: Prescaler divider value
 349:Generated_Source\PSoC4/Timebase5s.c **** *   Values:
 350:Generated_Source\PSoC4/Timebase5s.c **** *         - Timebase5s_PRESCALE_DIVBY1    - Divide by 1 (no prescaling)
 351:Generated_Source\PSoC4/Timebase5s.c **** *         - Timebase5s_PRESCALE_DIVBY2    - Divide by 2
 352:Generated_Source\PSoC4/Timebase5s.c **** *         - Timebase5s_PRESCALE_DIVBY4    - Divide by 4
 353:Generated_Source\PSoC4/Timebase5s.c **** *         - Timebase5s_PRESCALE_DIVBY8    - Divide by 8
 354:Generated_Source\PSoC4/Timebase5s.c **** *         - Timebase5s_PRESCALE_DIVBY16   - Divide by 16
 355:Generated_Source\PSoC4/Timebase5s.c **** *         - Timebase5s_PRESCALE_DIVBY32   - Divide by 32
 356:Generated_Source\PSoC4/Timebase5s.c **** *         - Timebase5s_PRESCALE_DIVBY64   - Divide by 64
 357:Generated_Source\PSoC4/Timebase5s.c **** *         - Timebase5s_PRESCALE_DIVBY128  - Divide by 128
 358:Generated_Source\PSoC4/Timebase5s.c **** *
 359:Generated_Source\PSoC4/Timebase5s.c **** * Return:
 360:Generated_Source\PSoC4/Timebase5s.c **** *  None
 361:Generated_Source\PSoC4/Timebase5s.c **** *
 362:Generated_Source\PSoC4/Timebase5s.c **** *******************************************************************************/
 363:Generated_Source\PSoC4/Timebase5s.c **** void Timebase5s_SetPrescaler(uint32 prescaler)
 364:Generated_Source\PSoC4/Timebase5s.c **** {
 345              		.loc 1 364 0
 346              		.cfi_startproc
 347 0000 90B5     		push	{r4, r7, lr}
 348              		.cfi_def_cfa_offset 12
 349              		.cfi_offset 4, -12
 350              		.cfi_offset 7, -8
 351              		.cfi_offset 14, -4
 352 0002 85B0     		sub	sp, sp, #20
 353              		.cfi_def_cfa_offset 32
 354 0004 00AF     		add	r7, sp, #0
 355              		.cfi_def_cfa_register 7
 356 0006 7860     		str	r0, [r7, #4]
 365:Generated_Source\PSoC4/Timebase5s.c ****     uint8 enableInterrupts;
 366:Generated_Source\PSoC4/Timebase5s.c **** 
 367:Generated_Source\PSoC4/Timebase5s.c ****     enableInterrupts = CyEnterCriticalSection();
 357              		.loc 1 367 0
 358 0008 0F23     		mov	r3, #15
 359 000a FC18     		add	r4, r7, r3
 360 000c FFF7FEFF 		bl	CyEnterCriticalSection
 361 0010 031C     		mov	r3, r0
 362 0012 2370     		strb	r3, [r4]
 368:Generated_Source\PSoC4/Timebase5s.c **** 
 369:Generated_Source\PSoC4/Timebase5s.c ****     Timebase5s_CONTROL_REG &= (uint32)~Timebase5s_PRESCALER_MASK;
 363              		.loc 1 369 0
 364 0014 0A4B     		ldr	r3, .L21
 365 0016 0A4A     		ldr	r2, .L21
 366 0018 1268     		ldr	r2, [r2]
 367 001a 0A49     		ldr	r1, .L21+4
 368 001c 0A40     		and	r2, r1
 369 001e 1A60     		str	r2, [r3]
 370:Generated_Source\PSoC4/Timebase5s.c ****     Timebase5s_CONTROL_REG |= prescaler;
 370              		.loc 1 370 0
 371 0020 074B     		ldr	r3, .L21
ARM GAS  C:\Users\CHRIST~1\AppData\Local\Temp\ccwDaf54.s 			page 14


 372 0022 074A     		ldr	r2, .L21
 373 0024 1168     		ldr	r1, [r2]
 374 0026 7A68     		ldr	r2, [r7, #4]
 375 0028 0A43     		orr	r2, r1
 376 002a 1A60     		str	r2, [r3]
 371:Generated_Source\PSoC4/Timebase5s.c **** 
 372:Generated_Source\PSoC4/Timebase5s.c ****     CyExitCriticalSection(enableInterrupts);
 377              		.loc 1 372 0
 378 002c 0F23     		mov	r3, #15
 379 002e FB18     		add	r3, r7, r3
 380 0030 1B78     		ldrb	r3, [r3]
 381 0032 181C     		mov	r0, r3
 382 0034 FFF7FEFF 		bl	CyExitCriticalSection
 373:Generated_Source\PSoC4/Timebase5s.c **** }
 383              		.loc 1 373 0
 384 0038 BD46     		mov	sp, r7
 385 003a 05B0     		add	sp, sp, #20
 386              		@ sp needed
 387 003c 90BD     		pop	{r4, r7, pc}
 388              	.L22:
 389 003e C046     		.align	2
 390              	.L21:
 391 0040 00010140 		.word	1073807616
 392 0044 FF00FFFF 		.word	-65281
 393              		.cfi_endproc
 394              	.LFE7:
 395              		.size	Timebase5s_SetPrescaler, .-Timebase5s_SetPrescaler
 396              		.section	.text.Timebase5s_SetOneShot,"ax",%progbits
 397              		.align	2
 398              		.global	Timebase5s_SetOneShot
 399              		.code	16
 400              		.thumb_func
 401              		.type	Timebase5s_SetOneShot, %function
 402              	Timebase5s_SetOneShot:
 403              	.LFB8:
 374:Generated_Source\PSoC4/Timebase5s.c **** 
 375:Generated_Source\PSoC4/Timebase5s.c **** 
 376:Generated_Source\PSoC4/Timebase5s.c **** /*******************************************************************************
 377:Generated_Source\PSoC4/Timebase5s.c **** * Function Name: Timebase5s_SetOneShot
 378:Generated_Source\PSoC4/Timebase5s.c **** ********************************************************************************
 379:Generated_Source\PSoC4/Timebase5s.c **** *
 380:Generated_Source\PSoC4/Timebase5s.c **** * Summary:
 381:Generated_Source\PSoC4/Timebase5s.c **** *  Writes the register that controls whether the Timebase5s runs
 382:Generated_Source\PSoC4/Timebase5s.c **** *  continuously or stops when terminal count is reached.  By default the
 383:Generated_Source\PSoC4/Timebase5s.c **** *  Timebase5s operates in the continuous mode.
 384:Generated_Source\PSoC4/Timebase5s.c **** *
 385:Generated_Source\PSoC4/Timebase5s.c **** * Parameters:
 386:Generated_Source\PSoC4/Timebase5s.c **** *  oneShotEnable
 387:Generated_Source\PSoC4/Timebase5s.c **** *   Values:
 388:Generated_Source\PSoC4/Timebase5s.c **** *     - 0 - Continuous
 389:Generated_Source\PSoC4/Timebase5s.c **** *     - 1 - Enable One Shot
 390:Generated_Source\PSoC4/Timebase5s.c **** *
 391:Generated_Source\PSoC4/Timebase5s.c **** * Return:
 392:Generated_Source\PSoC4/Timebase5s.c **** *  None
 393:Generated_Source\PSoC4/Timebase5s.c **** *
 394:Generated_Source\PSoC4/Timebase5s.c **** *******************************************************************************/
 395:Generated_Source\PSoC4/Timebase5s.c **** void Timebase5s_SetOneShot(uint32 oneShotEnable)
ARM GAS  C:\Users\CHRIST~1\AppData\Local\Temp\ccwDaf54.s 			page 15


 396:Generated_Source\PSoC4/Timebase5s.c **** {
 404              		.loc 1 396 0
 405              		.cfi_startproc
 406 0000 90B5     		push	{r4, r7, lr}
 407              		.cfi_def_cfa_offset 12
 408              		.cfi_offset 4, -12
 409              		.cfi_offset 7, -8
 410              		.cfi_offset 14, -4
 411 0002 85B0     		sub	sp, sp, #20
 412              		.cfi_def_cfa_offset 32
 413 0004 00AF     		add	r7, sp, #0
 414              		.cfi_def_cfa_register 7
 415 0006 7860     		str	r0, [r7, #4]
 397:Generated_Source\PSoC4/Timebase5s.c ****     uint8 enableInterrupts;
 398:Generated_Source\PSoC4/Timebase5s.c **** 
 399:Generated_Source\PSoC4/Timebase5s.c ****     enableInterrupts = CyEnterCriticalSection();
 416              		.loc 1 399 0
 417 0008 0F23     		mov	r3, #15
 418 000a FC18     		add	r4, r7, r3
 419 000c FFF7FEFF 		bl	CyEnterCriticalSection
 420 0010 031C     		mov	r3, r0
 421 0012 2370     		strb	r3, [r4]
 400:Generated_Source\PSoC4/Timebase5s.c **** 
 401:Generated_Source\PSoC4/Timebase5s.c ****     Timebase5s_CONTROL_REG &= (uint32)~Timebase5s_ONESHOT_MASK;
 422              		.loc 1 401 0
 423 0014 0B4B     		ldr	r3, .L24
 424 0016 0B4A     		ldr	r2, .L24
 425 0018 1268     		ldr	r2, [r2]
 426 001a 0B49     		ldr	r1, .L24+4
 427 001c 0A40     		and	r2, r1
 428 001e 1A60     		str	r2, [r3]
 402:Generated_Source\PSoC4/Timebase5s.c ****     Timebase5s_CONTROL_REG |= ((uint32)((oneShotEnable & Timebase5s_1BIT_MASK) <<
 429              		.loc 1 402 0
 430 0020 084B     		ldr	r3, .L24
 431 0022 084A     		ldr	r2, .L24
 432 0024 1168     		ldr	r1, [r2]
 433 0026 7A68     		ldr	r2, [r7, #4]
 434 0028 0120     		mov	r0, #1
 435 002a 0240     		and	r2, r0
 436 002c 9204     		lsl	r2, r2, #18
 437 002e 0A43     		orr	r2, r1
 438 0030 1A60     		str	r2, [r3]
 403:Generated_Source\PSoC4/Timebase5s.c ****                                                                Timebase5s_ONESHOT_SHIFT));
 404:Generated_Source\PSoC4/Timebase5s.c **** 
 405:Generated_Source\PSoC4/Timebase5s.c ****     CyExitCriticalSection(enableInterrupts);
 439              		.loc 1 405 0
 440 0032 0F23     		mov	r3, #15
 441 0034 FB18     		add	r3, r7, r3
 442 0036 1B78     		ldrb	r3, [r3]
 443 0038 181C     		mov	r0, r3
 444 003a FFF7FEFF 		bl	CyExitCriticalSection
 406:Generated_Source\PSoC4/Timebase5s.c **** }
 445              		.loc 1 406 0
 446 003e BD46     		mov	sp, r7
 447 0040 05B0     		add	sp, sp, #20
 448              		@ sp needed
 449 0042 90BD     		pop	{r4, r7, pc}
ARM GAS  C:\Users\CHRIST~1\AppData\Local\Temp\ccwDaf54.s 			page 16


 450              	.L25:
 451              		.align	2
 452              	.L24:
 453 0044 00010140 		.word	1073807616
 454 0048 FFFFFBFF 		.word	-262145
 455              		.cfi_endproc
 456              	.LFE8:
 457              		.size	Timebase5s_SetOneShot, .-Timebase5s_SetOneShot
 458              		.section	.text.Timebase5s_SetPWMMode,"ax",%progbits
 459              		.align	2
 460              		.global	Timebase5s_SetPWMMode
 461              		.code	16
 462              		.thumb_func
 463              		.type	Timebase5s_SetPWMMode, %function
 464              	Timebase5s_SetPWMMode:
 465              	.LFB9:
 407:Generated_Source\PSoC4/Timebase5s.c **** 
 408:Generated_Source\PSoC4/Timebase5s.c **** 
 409:Generated_Source\PSoC4/Timebase5s.c **** /*******************************************************************************
 410:Generated_Source\PSoC4/Timebase5s.c **** * Function Name: Timebase5s_SetPWMMode
 411:Generated_Source\PSoC4/Timebase5s.c **** ********************************************************************************
 412:Generated_Source\PSoC4/Timebase5s.c **** *
 413:Generated_Source\PSoC4/Timebase5s.c **** * Summary:
 414:Generated_Source\PSoC4/Timebase5s.c **** *  Writes the control register that determines what mode of operation the PWM
 415:Generated_Source\PSoC4/Timebase5s.c **** *  output lines are driven in.  There is a setting for what to do on a
 416:Generated_Source\PSoC4/Timebase5s.c **** *  comparison match (CC_MATCH), on an overflow (OVERFLOW) and on an underflow
 417:Generated_Source\PSoC4/Timebase5s.c **** *  (UNDERFLOW).  The value for each of the three must be ORed together to form
 418:Generated_Source\PSoC4/Timebase5s.c **** *  the mode.
 419:Generated_Source\PSoC4/Timebase5s.c **** *
 420:Generated_Source\PSoC4/Timebase5s.c **** * Parameters:
 421:Generated_Source\PSoC4/Timebase5s.c **** *  modeMask: A combination of three mode settings.  Mask must include a value
 422:Generated_Source\PSoC4/Timebase5s.c **** *  for each of the three or use one of the preconfigured PWM settings.
 423:Generated_Source\PSoC4/Timebase5s.c **** *   Values:
 424:Generated_Source\PSoC4/Timebase5s.c **** *     - CC_MATCH_SET        - Set on comparison match
 425:Generated_Source\PSoC4/Timebase5s.c **** *     - CC_MATCH_CLEAR      - Clear on comparison match
 426:Generated_Source\PSoC4/Timebase5s.c **** *     - CC_MATCH_INVERT     - Invert on comparison match
 427:Generated_Source\PSoC4/Timebase5s.c **** *     - CC_MATCH_NO_CHANGE  - No change on comparison match
 428:Generated_Source\PSoC4/Timebase5s.c **** *     - OVERLOW_SET         - Set on overflow
 429:Generated_Source\PSoC4/Timebase5s.c **** *     - OVERLOW_CLEAR       - Clear on  overflow
 430:Generated_Source\PSoC4/Timebase5s.c **** *     - OVERLOW_INVERT      - Invert on overflow
 431:Generated_Source\PSoC4/Timebase5s.c **** *     - OVERLOW_NO_CHANGE   - No change on overflow
 432:Generated_Source\PSoC4/Timebase5s.c **** *     - UNDERFLOW_SET       - Set on underflow
 433:Generated_Source\PSoC4/Timebase5s.c **** *     - UNDERFLOW_CLEAR     - Clear on underflow
 434:Generated_Source\PSoC4/Timebase5s.c **** *     - UNDERFLOW_INVERT    - Invert on underflow
 435:Generated_Source\PSoC4/Timebase5s.c **** *     - UNDERFLOW_NO_CHANGE - No change on underflow
 436:Generated_Source\PSoC4/Timebase5s.c **** *     - PWM_MODE_LEFT       - Setting for left aligned PWM.  Should be combined
 437:Generated_Source\PSoC4/Timebase5s.c **** *                             with up counting mode
 438:Generated_Source\PSoC4/Timebase5s.c **** *     - PWM_MODE_RIGHT      - Setting for right aligned PWM.  Should be combined
 439:Generated_Source\PSoC4/Timebase5s.c **** *                             with down counting mode
 440:Generated_Source\PSoC4/Timebase5s.c **** *     - PWM_MODE_CENTER     - Setting for center aligned PWM.  Should be
 441:Generated_Source\PSoC4/Timebase5s.c **** *                             combined with up/down 0 mode
 442:Generated_Source\PSoC4/Timebase5s.c **** *     - PWM_MODE_ASYM       - Setting for asymmetric PWM.  Should be combined
 443:Generated_Source\PSoC4/Timebase5s.c **** *                             with up/down 1 mode
 444:Generated_Source\PSoC4/Timebase5s.c **** *
 445:Generated_Source\PSoC4/Timebase5s.c **** * Return:
 446:Generated_Source\PSoC4/Timebase5s.c **** *  None
 447:Generated_Source\PSoC4/Timebase5s.c **** *
ARM GAS  C:\Users\CHRIST~1\AppData\Local\Temp\ccwDaf54.s 			page 17


 448:Generated_Source\PSoC4/Timebase5s.c **** *******************************************************************************/
 449:Generated_Source\PSoC4/Timebase5s.c **** void Timebase5s_SetPWMMode(uint32 modeMask)
 450:Generated_Source\PSoC4/Timebase5s.c **** {
 466              		.loc 1 450 0
 467              		.cfi_startproc
 468 0000 80B5     		push	{r7, lr}
 469              		.cfi_def_cfa_offset 8
 470              		.cfi_offset 7, -8
 471              		.cfi_offset 14, -4
 472 0002 82B0     		sub	sp, sp, #8
 473              		.cfi_def_cfa_offset 16
 474 0004 00AF     		add	r7, sp, #0
 475              		.cfi_def_cfa_register 7
 476 0006 7860     		str	r0, [r7, #4]
 451:Generated_Source\PSoC4/Timebase5s.c ****     Timebase5s_TRIG_CONTROL2_REG = (modeMask & Timebase5s_6BIT_MASK);
 477              		.loc 1 451 0
 478 0008 034B     		ldr	r3, .L27
 479 000a 7A68     		ldr	r2, [r7, #4]
 480 000c 3F21     		mov	r1, #63
 481 000e 0A40     		and	r2, r1
 482 0010 1A60     		str	r2, [r3]
 452:Generated_Source\PSoC4/Timebase5s.c **** }
 483              		.loc 1 452 0
 484 0012 BD46     		mov	sp, r7
 485 0014 02B0     		add	sp, sp, #8
 486              		@ sp needed
 487 0016 80BD     		pop	{r7, pc}
 488              	.L28:
 489              		.align	2
 490              	.L27:
 491 0018 28010140 		.word	1073807656
 492              		.cfi_endproc
 493              	.LFE9:
 494              		.size	Timebase5s_SetPWMMode, .-Timebase5s_SetPWMMode
 495              		.section	.text.Timebase5s_SetPWMSyncKill,"ax",%progbits
 496              		.align	2
 497              		.global	Timebase5s_SetPWMSyncKill
 498              		.code	16
 499              		.thumb_func
 500              		.type	Timebase5s_SetPWMSyncKill, %function
 501              	Timebase5s_SetPWMSyncKill:
 502              	.LFB10:
 453:Generated_Source\PSoC4/Timebase5s.c **** 
 454:Generated_Source\PSoC4/Timebase5s.c **** 
 455:Generated_Source\PSoC4/Timebase5s.c **** 
 456:Generated_Source\PSoC4/Timebase5s.c **** /*******************************************************************************
 457:Generated_Source\PSoC4/Timebase5s.c **** * Function Name: Timebase5s_SetPWMSyncKill
 458:Generated_Source\PSoC4/Timebase5s.c **** ********************************************************************************
 459:Generated_Source\PSoC4/Timebase5s.c **** *
 460:Generated_Source\PSoC4/Timebase5s.c **** * Summary:
 461:Generated_Source\PSoC4/Timebase5s.c **** *  Writes the register that controls whether the PWM kill signal (stop input)
 462:Generated_Source\PSoC4/Timebase5s.c **** *  causes asynchronous or synchronous kill operation.  By default the kill
 463:Generated_Source\PSoC4/Timebase5s.c **** *  operation is asynchronous.  This functionality is only applicable to the PWM
 464:Generated_Source\PSoC4/Timebase5s.c **** *  and PWM with dead time modes.
 465:Generated_Source\PSoC4/Timebase5s.c **** *
 466:Generated_Source\PSoC4/Timebase5s.c **** *  For Synchronous mode the kill signal disables both the line and line_n
 467:Generated_Source\PSoC4/Timebase5s.c **** *  signals until the next terminal count.
ARM GAS  C:\Users\CHRIST~1\AppData\Local\Temp\ccwDaf54.s 			page 18


 468:Generated_Source\PSoC4/Timebase5s.c **** *
 469:Generated_Source\PSoC4/Timebase5s.c **** *  For Asynchronous mode the kill signal disables both the line and line_n
 470:Generated_Source\PSoC4/Timebase5s.c **** *  signals when the kill signal is present.  This mode should only be used
 471:Generated_Source\PSoC4/Timebase5s.c **** *  when the kill signal (stop input) is configured in the pass through mode
 472:Generated_Source\PSoC4/Timebase5s.c **** *  (Level sensitive signal).
 473:Generated_Source\PSoC4/Timebase5s.c **** 
 474:Generated_Source\PSoC4/Timebase5s.c **** *
 475:Generated_Source\PSoC4/Timebase5s.c **** * Parameters:
 476:Generated_Source\PSoC4/Timebase5s.c **** *  syncKillEnable
 477:Generated_Source\PSoC4/Timebase5s.c **** *   Values:
 478:Generated_Source\PSoC4/Timebase5s.c **** *     - 0 - Asynchronous
 479:Generated_Source\PSoC4/Timebase5s.c **** *     - 1 - Synchronous
 480:Generated_Source\PSoC4/Timebase5s.c **** *
 481:Generated_Source\PSoC4/Timebase5s.c **** * Return:
 482:Generated_Source\PSoC4/Timebase5s.c **** *  None
 483:Generated_Source\PSoC4/Timebase5s.c **** *
 484:Generated_Source\PSoC4/Timebase5s.c **** *******************************************************************************/
 485:Generated_Source\PSoC4/Timebase5s.c **** void Timebase5s_SetPWMSyncKill(uint32 syncKillEnable)
 486:Generated_Source\PSoC4/Timebase5s.c **** {
 503              		.loc 1 486 0
 504              		.cfi_startproc
 505 0000 90B5     		push	{r4, r7, lr}
 506              		.cfi_def_cfa_offset 12
 507              		.cfi_offset 4, -12
 508              		.cfi_offset 7, -8
 509              		.cfi_offset 14, -4
 510 0002 85B0     		sub	sp, sp, #20
 511              		.cfi_def_cfa_offset 32
 512 0004 00AF     		add	r7, sp, #0
 513              		.cfi_def_cfa_register 7
 514 0006 7860     		str	r0, [r7, #4]
 487:Generated_Source\PSoC4/Timebase5s.c ****     uint8 enableInterrupts;
 488:Generated_Source\PSoC4/Timebase5s.c **** 
 489:Generated_Source\PSoC4/Timebase5s.c ****     enableInterrupts = CyEnterCriticalSection();
 515              		.loc 1 489 0
 516 0008 0F23     		mov	r3, #15
 517 000a FC18     		add	r4, r7, r3
 518 000c FFF7FEFF 		bl	CyEnterCriticalSection
 519 0010 031C     		mov	r3, r0
 520 0012 2370     		strb	r3, [r4]
 490:Generated_Source\PSoC4/Timebase5s.c **** 
 491:Generated_Source\PSoC4/Timebase5s.c ****     Timebase5s_CONTROL_REG &= (uint32)~Timebase5s_PWM_SYNC_KILL_MASK;
 521              		.loc 1 491 0
 522 0014 0B4B     		ldr	r3, .L30
 523 0016 0B4A     		ldr	r2, .L30
 524 0018 1268     		ldr	r2, [r2]
 525 001a 0421     		mov	r1, #4
 526 001c 8A43     		bic	r2, r1
 527 001e 1A60     		str	r2, [r3]
 492:Generated_Source\PSoC4/Timebase5s.c ****     Timebase5s_CONTROL_REG |= ((uint32)((syncKillEnable & Timebase5s_1BIT_MASK)  <<
 528              		.loc 1 492 0
 529 0020 084B     		ldr	r3, .L30
 530 0022 084A     		ldr	r2, .L30
 531 0024 1168     		ldr	r1, [r2]
 532 0026 7A68     		ldr	r2, [r7, #4]
 533 0028 0120     		mov	r0, #1
 534 002a 0240     		and	r2, r0
ARM GAS  C:\Users\CHRIST~1\AppData\Local\Temp\ccwDaf54.s 			page 19


 535 002c 9200     		lsl	r2, r2, #2
 536 002e 0A43     		orr	r2, r1
 537 0030 1A60     		str	r2, [r3]
 493:Generated_Source\PSoC4/Timebase5s.c ****                                                Timebase5s_PWM_SYNC_KILL_SHIFT));
 494:Generated_Source\PSoC4/Timebase5s.c **** 
 495:Generated_Source\PSoC4/Timebase5s.c ****     CyExitCriticalSection(enableInterrupts);
 538              		.loc 1 495 0
 539 0032 0F23     		mov	r3, #15
 540 0034 FB18     		add	r3, r7, r3
 541 0036 1B78     		ldrb	r3, [r3]
 542 0038 181C     		mov	r0, r3
 543 003a FFF7FEFF 		bl	CyExitCriticalSection
 496:Generated_Source\PSoC4/Timebase5s.c **** }
 544              		.loc 1 496 0
 545 003e BD46     		mov	sp, r7
 546 0040 05B0     		add	sp, sp, #20
 547              		@ sp needed
 548 0042 90BD     		pop	{r4, r7, pc}
 549              	.L31:
 550              		.align	2
 551              	.L30:
 552 0044 00010140 		.word	1073807616
 553              		.cfi_endproc
 554              	.LFE10:
 555              		.size	Timebase5s_SetPWMSyncKill, .-Timebase5s_SetPWMSyncKill
 556              		.section	.text.Timebase5s_SetPWMStopOnKill,"ax",%progbits
 557              		.align	2
 558              		.global	Timebase5s_SetPWMStopOnKill
 559              		.code	16
 560              		.thumb_func
 561              		.type	Timebase5s_SetPWMStopOnKill, %function
 562              	Timebase5s_SetPWMStopOnKill:
 563              	.LFB11:
 497:Generated_Source\PSoC4/Timebase5s.c **** 
 498:Generated_Source\PSoC4/Timebase5s.c **** 
 499:Generated_Source\PSoC4/Timebase5s.c **** /*******************************************************************************
 500:Generated_Source\PSoC4/Timebase5s.c **** * Function Name: Timebase5s_SetPWMStopOnKill
 501:Generated_Source\PSoC4/Timebase5s.c **** ********************************************************************************
 502:Generated_Source\PSoC4/Timebase5s.c **** *
 503:Generated_Source\PSoC4/Timebase5s.c **** * Summary:
 504:Generated_Source\PSoC4/Timebase5s.c **** *  Writes the register that controls whether the PWM kill signal (stop input)
 505:Generated_Source\PSoC4/Timebase5s.c **** *  causes the PWM counter to stop.  By default the kill operation does not stop
 506:Generated_Source\PSoC4/Timebase5s.c **** *  the counter.  This functionality is only applicable to the three PWM modes.
 507:Generated_Source\PSoC4/Timebase5s.c **** *
 508:Generated_Source\PSoC4/Timebase5s.c **** *
 509:Generated_Source\PSoC4/Timebase5s.c **** * Parameters:
 510:Generated_Source\PSoC4/Timebase5s.c **** *  stopOnKillEnable
 511:Generated_Source\PSoC4/Timebase5s.c **** *   Values:
 512:Generated_Source\PSoC4/Timebase5s.c **** *     - 0 - Don't stop
 513:Generated_Source\PSoC4/Timebase5s.c **** *     - 1 - Stop
 514:Generated_Source\PSoC4/Timebase5s.c **** *
 515:Generated_Source\PSoC4/Timebase5s.c **** * Return:
 516:Generated_Source\PSoC4/Timebase5s.c **** *  None
 517:Generated_Source\PSoC4/Timebase5s.c **** *
 518:Generated_Source\PSoC4/Timebase5s.c **** *******************************************************************************/
 519:Generated_Source\PSoC4/Timebase5s.c **** void Timebase5s_SetPWMStopOnKill(uint32 stopOnKillEnable)
 520:Generated_Source\PSoC4/Timebase5s.c **** {
ARM GAS  C:\Users\CHRIST~1\AppData\Local\Temp\ccwDaf54.s 			page 20


 564              		.loc 1 520 0
 565              		.cfi_startproc
 566 0000 90B5     		push	{r4, r7, lr}
 567              		.cfi_def_cfa_offset 12
 568              		.cfi_offset 4, -12
 569              		.cfi_offset 7, -8
 570              		.cfi_offset 14, -4
 571 0002 85B0     		sub	sp, sp, #20
 572              		.cfi_def_cfa_offset 32
 573 0004 00AF     		add	r7, sp, #0
 574              		.cfi_def_cfa_register 7
 575 0006 7860     		str	r0, [r7, #4]
 521:Generated_Source\PSoC4/Timebase5s.c ****     uint8 enableInterrupts;
 522:Generated_Source\PSoC4/Timebase5s.c **** 
 523:Generated_Source\PSoC4/Timebase5s.c ****     enableInterrupts = CyEnterCriticalSection();
 576              		.loc 1 523 0
 577 0008 0F23     		mov	r3, #15
 578 000a FC18     		add	r4, r7, r3
 579 000c FFF7FEFF 		bl	CyEnterCriticalSection
 580 0010 031C     		mov	r3, r0
 581 0012 2370     		strb	r3, [r4]
 524:Generated_Source\PSoC4/Timebase5s.c **** 
 525:Generated_Source\PSoC4/Timebase5s.c ****     Timebase5s_CONTROL_REG &= (uint32)~Timebase5s_PWM_STOP_KILL_MASK;
 582              		.loc 1 525 0
 583 0014 0B4B     		ldr	r3, .L33
 584 0016 0B4A     		ldr	r2, .L33
 585 0018 1268     		ldr	r2, [r2]
 586 001a 0821     		mov	r1, #8
 587 001c 8A43     		bic	r2, r1
 588 001e 1A60     		str	r2, [r3]
 526:Generated_Source\PSoC4/Timebase5s.c ****     Timebase5s_CONTROL_REG |= ((uint32)((stopOnKillEnable & Timebase5s_1BIT_MASK)  <<
 589              		.loc 1 526 0
 590 0020 084B     		ldr	r3, .L33
 591 0022 084A     		ldr	r2, .L33
 592 0024 1168     		ldr	r1, [r2]
 593 0026 7A68     		ldr	r2, [r7, #4]
 594 0028 0120     		mov	r0, #1
 595 002a 0240     		and	r2, r0
 596 002c D200     		lsl	r2, r2, #3
 597 002e 0A43     		orr	r2, r1
 598 0030 1A60     		str	r2, [r3]
 527:Generated_Source\PSoC4/Timebase5s.c ****                                                          Timebase5s_PWM_STOP_KILL_SHIFT));
 528:Generated_Source\PSoC4/Timebase5s.c **** 
 529:Generated_Source\PSoC4/Timebase5s.c ****     CyExitCriticalSection(enableInterrupts);
 599              		.loc 1 529 0
 600 0032 0F23     		mov	r3, #15
 601 0034 FB18     		add	r3, r7, r3
 602 0036 1B78     		ldrb	r3, [r3]
 603 0038 181C     		mov	r0, r3
 604 003a FFF7FEFF 		bl	CyExitCriticalSection
 530:Generated_Source\PSoC4/Timebase5s.c **** }
 605              		.loc 1 530 0
 606 003e BD46     		mov	sp, r7
 607 0040 05B0     		add	sp, sp, #20
 608              		@ sp needed
 609 0042 90BD     		pop	{r4, r7, pc}
 610              	.L34:
ARM GAS  C:\Users\CHRIST~1\AppData\Local\Temp\ccwDaf54.s 			page 21


 611              		.align	2
 612              	.L33:
 613 0044 00010140 		.word	1073807616
 614              		.cfi_endproc
 615              	.LFE11:
 616              		.size	Timebase5s_SetPWMStopOnKill, .-Timebase5s_SetPWMStopOnKill
 617              		.section	.text.Timebase5s_SetPWMDeadTime,"ax",%progbits
 618              		.align	2
 619              		.global	Timebase5s_SetPWMDeadTime
 620              		.code	16
 621              		.thumb_func
 622              		.type	Timebase5s_SetPWMDeadTime, %function
 623              	Timebase5s_SetPWMDeadTime:
 624              	.LFB12:
 531:Generated_Source\PSoC4/Timebase5s.c **** 
 532:Generated_Source\PSoC4/Timebase5s.c **** 
 533:Generated_Source\PSoC4/Timebase5s.c **** /*******************************************************************************
 534:Generated_Source\PSoC4/Timebase5s.c **** * Function Name: Timebase5s_SetPWMDeadTime
 535:Generated_Source\PSoC4/Timebase5s.c **** ********************************************************************************
 536:Generated_Source\PSoC4/Timebase5s.c **** *
 537:Generated_Source\PSoC4/Timebase5s.c **** * Summary:
 538:Generated_Source\PSoC4/Timebase5s.c **** *  Writes the dead time control value.  This value delays the rising edge of
 539:Generated_Source\PSoC4/Timebase5s.c **** *  both the line and line_n signals the designated number of cycles resulting
 540:Generated_Source\PSoC4/Timebase5s.c **** *  in both signals being inactive for that many cycles.  This functionality is
 541:Generated_Source\PSoC4/Timebase5s.c **** *  only applicable to the PWM in the dead time mode.
 542:Generated_Source\PSoC4/Timebase5s.c **** 
 543:Generated_Source\PSoC4/Timebase5s.c **** *
 544:Generated_Source\PSoC4/Timebase5s.c **** * Parameters:
 545:Generated_Source\PSoC4/Timebase5s.c **** *  Dead time to insert
 546:Generated_Source\PSoC4/Timebase5s.c **** *   Values: 0 to 255
 547:Generated_Source\PSoC4/Timebase5s.c **** *
 548:Generated_Source\PSoC4/Timebase5s.c **** * Return:
 549:Generated_Source\PSoC4/Timebase5s.c **** *  None
 550:Generated_Source\PSoC4/Timebase5s.c **** *
 551:Generated_Source\PSoC4/Timebase5s.c **** *******************************************************************************/
 552:Generated_Source\PSoC4/Timebase5s.c **** void Timebase5s_SetPWMDeadTime(uint32 deadTime)
 553:Generated_Source\PSoC4/Timebase5s.c **** {
 625              		.loc 1 553 0
 626              		.cfi_startproc
 627 0000 90B5     		push	{r4, r7, lr}
 628              		.cfi_def_cfa_offset 12
 629              		.cfi_offset 4, -12
 630              		.cfi_offset 7, -8
 631              		.cfi_offset 14, -4
 632 0002 85B0     		sub	sp, sp, #20
 633              		.cfi_def_cfa_offset 32
 634 0004 00AF     		add	r7, sp, #0
 635              		.cfi_def_cfa_register 7
 636 0006 7860     		str	r0, [r7, #4]
 554:Generated_Source\PSoC4/Timebase5s.c ****     uint8 enableInterrupts;
 555:Generated_Source\PSoC4/Timebase5s.c **** 
 556:Generated_Source\PSoC4/Timebase5s.c ****     enableInterrupts = CyEnterCriticalSection();
 637              		.loc 1 556 0
 638 0008 0F23     		mov	r3, #15
 639 000a FC18     		add	r4, r7, r3
 640 000c FFF7FEFF 		bl	CyEnterCriticalSection
 641 0010 031C     		mov	r3, r0
ARM GAS  C:\Users\CHRIST~1\AppData\Local\Temp\ccwDaf54.s 			page 22


 642 0012 2370     		strb	r3, [r4]
 557:Generated_Source\PSoC4/Timebase5s.c **** 
 558:Generated_Source\PSoC4/Timebase5s.c ****     Timebase5s_CONTROL_REG &= (uint32)~Timebase5s_PRESCALER_MASK;
 643              		.loc 1 558 0
 644 0014 0B4B     		ldr	r3, .L36
 645 0016 0B4A     		ldr	r2, .L36
 646 0018 1268     		ldr	r2, [r2]
 647 001a 0B49     		ldr	r1, .L36+4
 648 001c 0A40     		and	r2, r1
 649 001e 1A60     		str	r2, [r3]
 559:Generated_Source\PSoC4/Timebase5s.c ****     Timebase5s_CONTROL_REG |= ((uint32)((deadTime & Timebase5s_8BIT_MASK) <<
 650              		.loc 1 559 0
 651 0020 084B     		ldr	r3, .L36
 652 0022 084A     		ldr	r2, .L36
 653 0024 1168     		ldr	r1, [r2]
 654 0026 7A68     		ldr	r2, [r7, #4]
 655 0028 1202     		lsl	r2, r2, #8
 656 002a 1204     		lsl	r2, r2, #16
 657 002c 120C     		lsr	r2, r2, #16
 658 002e 0A43     		orr	r2, r1
 659 0030 1A60     		str	r2, [r3]
 560:Generated_Source\PSoC4/Timebase5s.c ****                                                           Timebase5s_PRESCALER_SHIFT));
 561:Generated_Source\PSoC4/Timebase5s.c **** 
 562:Generated_Source\PSoC4/Timebase5s.c ****     CyExitCriticalSection(enableInterrupts);
 660              		.loc 1 562 0
 661 0032 0F23     		mov	r3, #15
 662 0034 FB18     		add	r3, r7, r3
 663 0036 1B78     		ldrb	r3, [r3]
 664 0038 181C     		mov	r0, r3
 665 003a FFF7FEFF 		bl	CyExitCriticalSection
 563:Generated_Source\PSoC4/Timebase5s.c **** }
 666              		.loc 1 563 0
 667 003e BD46     		mov	sp, r7
 668 0040 05B0     		add	sp, sp, #20
 669              		@ sp needed
 670 0042 90BD     		pop	{r4, r7, pc}
 671              	.L37:
 672              		.align	2
 673              	.L36:
 674 0044 00010140 		.word	1073807616
 675 0048 FF00FFFF 		.word	-65281
 676              		.cfi_endproc
 677              	.LFE12:
 678              		.size	Timebase5s_SetPWMDeadTime, .-Timebase5s_SetPWMDeadTime
 679              		.section	.text.Timebase5s_SetPWMInvert,"ax",%progbits
 680              		.align	2
 681              		.global	Timebase5s_SetPWMInvert
 682              		.code	16
 683              		.thumb_func
 684              		.type	Timebase5s_SetPWMInvert, %function
 685              	Timebase5s_SetPWMInvert:
 686              	.LFB13:
 564:Generated_Source\PSoC4/Timebase5s.c **** 
 565:Generated_Source\PSoC4/Timebase5s.c **** 
 566:Generated_Source\PSoC4/Timebase5s.c **** /*******************************************************************************
 567:Generated_Source\PSoC4/Timebase5s.c **** * Function Name: Timebase5s_SetPWMInvert
 568:Generated_Source\PSoC4/Timebase5s.c **** ********************************************************************************
ARM GAS  C:\Users\CHRIST~1\AppData\Local\Temp\ccwDaf54.s 			page 23


 569:Generated_Source\PSoC4/Timebase5s.c **** *
 570:Generated_Source\PSoC4/Timebase5s.c **** * Summary:
 571:Generated_Source\PSoC4/Timebase5s.c **** *  Writes the bits that control whether the line and line_n outputs are
 572:Generated_Source\PSoC4/Timebase5s.c **** *  inverted from their normal output values.  This functionality is only
 573:Generated_Source\PSoC4/Timebase5s.c **** *  applicable to the three PWM modes.
 574:Generated_Source\PSoC4/Timebase5s.c **** *
 575:Generated_Source\PSoC4/Timebase5s.c **** * Parameters:
 576:Generated_Source\PSoC4/Timebase5s.c **** *  mask: Mask of outputs to invert.
 577:Generated_Source\PSoC4/Timebase5s.c **** *   Values:
 578:Generated_Source\PSoC4/Timebase5s.c **** *         - Timebase5s_INVERT_LINE   - Inverts the line output
 579:Generated_Source\PSoC4/Timebase5s.c **** *         - Timebase5s_INVERT_LINE_N - Inverts the line_n output
 580:Generated_Source\PSoC4/Timebase5s.c **** *
 581:Generated_Source\PSoC4/Timebase5s.c **** * Return:
 582:Generated_Source\PSoC4/Timebase5s.c **** *  None
 583:Generated_Source\PSoC4/Timebase5s.c **** *
 584:Generated_Source\PSoC4/Timebase5s.c **** *******************************************************************************/
 585:Generated_Source\PSoC4/Timebase5s.c **** void Timebase5s_SetPWMInvert(uint32 mask)
 586:Generated_Source\PSoC4/Timebase5s.c **** {
 687              		.loc 1 586 0
 688              		.cfi_startproc
 689 0000 90B5     		push	{r4, r7, lr}
 690              		.cfi_def_cfa_offset 12
 691              		.cfi_offset 4, -12
 692              		.cfi_offset 7, -8
 693              		.cfi_offset 14, -4
 694 0002 85B0     		sub	sp, sp, #20
 695              		.cfi_def_cfa_offset 32
 696 0004 00AF     		add	r7, sp, #0
 697              		.cfi_def_cfa_register 7
 698 0006 7860     		str	r0, [r7, #4]
 587:Generated_Source\PSoC4/Timebase5s.c ****     uint8 enableInterrupts;
 588:Generated_Source\PSoC4/Timebase5s.c **** 
 589:Generated_Source\PSoC4/Timebase5s.c ****     enableInterrupts = CyEnterCriticalSection();
 699              		.loc 1 589 0
 700 0008 0F23     		mov	r3, #15
 701 000a FC18     		add	r4, r7, r3
 702 000c FFF7FEFF 		bl	CyEnterCriticalSection
 703 0010 031C     		mov	r3, r0
 704 0012 2370     		strb	r3, [r4]
 590:Generated_Source\PSoC4/Timebase5s.c **** 
 591:Generated_Source\PSoC4/Timebase5s.c ****     Timebase5s_CONTROL_REG &= (uint32)~Timebase5s_INV_OUT_MASK;
 705              		.loc 1 591 0
 706 0014 0A4B     		ldr	r3, .L39
 707 0016 0A4A     		ldr	r2, .L39
 708 0018 1268     		ldr	r2, [r2]
 709 001a 0A49     		ldr	r1, .L39+4
 710 001c 0A40     		and	r2, r1
 711 001e 1A60     		str	r2, [r3]
 592:Generated_Source\PSoC4/Timebase5s.c ****     Timebase5s_CONTROL_REG |= mask;
 712              		.loc 1 592 0
 713 0020 074B     		ldr	r3, .L39
 714 0022 074A     		ldr	r2, .L39
 715 0024 1168     		ldr	r1, [r2]
 716 0026 7A68     		ldr	r2, [r7, #4]
 717 0028 0A43     		orr	r2, r1
 718 002a 1A60     		str	r2, [r3]
 593:Generated_Source\PSoC4/Timebase5s.c **** 
ARM GAS  C:\Users\CHRIST~1\AppData\Local\Temp\ccwDaf54.s 			page 24


 594:Generated_Source\PSoC4/Timebase5s.c ****     CyExitCriticalSection(enableInterrupts);
 719              		.loc 1 594 0
 720 002c 0F23     		mov	r3, #15
 721 002e FB18     		add	r3, r7, r3
 722 0030 1B78     		ldrb	r3, [r3]
 723 0032 181C     		mov	r0, r3
 724 0034 FFF7FEFF 		bl	CyExitCriticalSection
 595:Generated_Source\PSoC4/Timebase5s.c **** }
 725              		.loc 1 595 0
 726 0038 BD46     		mov	sp, r7
 727 003a 05B0     		add	sp, sp, #20
 728              		@ sp needed
 729 003c 90BD     		pop	{r4, r7, pc}
 730              	.L40:
 731 003e C046     		.align	2
 732              	.L39:
 733 0040 00010140 		.word	1073807616
 734 0044 FFFFCFFF 		.word	-3145729
 735              		.cfi_endproc
 736              	.LFE13:
 737              		.size	Timebase5s_SetPWMInvert, .-Timebase5s_SetPWMInvert
 738              		.section	.text.Timebase5s_WriteCounter,"ax",%progbits
 739              		.align	2
 740              		.global	Timebase5s_WriteCounter
 741              		.code	16
 742              		.thumb_func
 743              		.type	Timebase5s_WriteCounter, %function
 744              	Timebase5s_WriteCounter:
 745              	.LFB14:
 596:Generated_Source\PSoC4/Timebase5s.c **** 
 597:Generated_Source\PSoC4/Timebase5s.c **** 
 598:Generated_Source\PSoC4/Timebase5s.c **** 
 599:Generated_Source\PSoC4/Timebase5s.c **** /*******************************************************************************
 600:Generated_Source\PSoC4/Timebase5s.c **** * Function Name: Timebase5s_WriteCounter
 601:Generated_Source\PSoC4/Timebase5s.c **** ********************************************************************************
 602:Generated_Source\PSoC4/Timebase5s.c **** *
 603:Generated_Source\PSoC4/Timebase5s.c **** * Summary:
 604:Generated_Source\PSoC4/Timebase5s.c **** *  Writes a new 16bit counter value directly into the counter register, thus
 605:Generated_Source\PSoC4/Timebase5s.c **** *  setting the counter (not the period) to the value written. It is not
 606:Generated_Source\PSoC4/Timebase5s.c **** *  advised to write to this field when the counter is running.
 607:Generated_Source\PSoC4/Timebase5s.c **** *
 608:Generated_Source\PSoC4/Timebase5s.c **** * Parameters:
 609:Generated_Source\PSoC4/Timebase5s.c **** *  count: value to write
 610:Generated_Source\PSoC4/Timebase5s.c **** *
 611:Generated_Source\PSoC4/Timebase5s.c **** * Return:
 612:Generated_Source\PSoC4/Timebase5s.c **** *  None
 613:Generated_Source\PSoC4/Timebase5s.c **** *
 614:Generated_Source\PSoC4/Timebase5s.c **** *******************************************************************************/
 615:Generated_Source\PSoC4/Timebase5s.c **** void Timebase5s_WriteCounter(uint32 count)
 616:Generated_Source\PSoC4/Timebase5s.c **** {
 746              		.loc 1 616 0
 747              		.cfi_startproc
 748 0000 80B5     		push	{r7, lr}
 749              		.cfi_def_cfa_offset 8
 750              		.cfi_offset 7, -8
 751              		.cfi_offset 14, -4
 752 0002 82B0     		sub	sp, sp, #8
ARM GAS  C:\Users\CHRIST~1\AppData\Local\Temp\ccwDaf54.s 			page 25


 753              		.cfi_def_cfa_offset 16
 754 0004 00AF     		add	r7, sp, #0
 755              		.cfi_def_cfa_register 7
 756 0006 7860     		str	r0, [r7, #4]
 617:Generated_Source\PSoC4/Timebase5s.c ****     Timebase5s_COUNTER_REG = (count & Timebase5s_16BIT_MASK);
 757              		.loc 1 617 0
 758 0008 034B     		ldr	r3, .L42
 759 000a 7A68     		ldr	r2, [r7, #4]
 760 000c 1204     		lsl	r2, r2, #16
 761 000e 120C     		lsr	r2, r2, #16
 762 0010 1A60     		str	r2, [r3]
 618:Generated_Source\PSoC4/Timebase5s.c **** }
 763              		.loc 1 618 0
 764 0012 BD46     		mov	sp, r7
 765 0014 02B0     		add	sp, sp, #8
 766              		@ sp needed
 767 0016 80BD     		pop	{r7, pc}
 768              	.L43:
 769              		.align	2
 770              	.L42:
 771 0018 08010140 		.word	1073807624
 772              		.cfi_endproc
 773              	.LFE14:
 774              		.size	Timebase5s_WriteCounter, .-Timebase5s_WriteCounter
 775              		.section	.text.Timebase5s_ReadCounter,"ax",%progbits
 776              		.align	2
 777              		.global	Timebase5s_ReadCounter
 778              		.code	16
 779              		.thumb_func
 780              		.type	Timebase5s_ReadCounter, %function
 781              	Timebase5s_ReadCounter:
 782              	.LFB15:
 619:Generated_Source\PSoC4/Timebase5s.c **** 
 620:Generated_Source\PSoC4/Timebase5s.c **** 
 621:Generated_Source\PSoC4/Timebase5s.c **** /*******************************************************************************
 622:Generated_Source\PSoC4/Timebase5s.c **** * Function Name: Timebase5s_ReadCounter
 623:Generated_Source\PSoC4/Timebase5s.c **** ********************************************************************************
 624:Generated_Source\PSoC4/Timebase5s.c **** *
 625:Generated_Source\PSoC4/Timebase5s.c **** * Summary:
 626:Generated_Source\PSoC4/Timebase5s.c **** *  Reads the current counter value.
 627:Generated_Source\PSoC4/Timebase5s.c **** *
 628:Generated_Source\PSoC4/Timebase5s.c **** * Parameters:
 629:Generated_Source\PSoC4/Timebase5s.c **** *  None
 630:Generated_Source\PSoC4/Timebase5s.c **** *
 631:Generated_Source\PSoC4/Timebase5s.c **** * Return:
 632:Generated_Source\PSoC4/Timebase5s.c **** *  Current counter value
 633:Generated_Source\PSoC4/Timebase5s.c **** *
 634:Generated_Source\PSoC4/Timebase5s.c **** *******************************************************************************/
 635:Generated_Source\PSoC4/Timebase5s.c **** uint32 Timebase5s_ReadCounter(void)
 636:Generated_Source\PSoC4/Timebase5s.c **** {
 783              		.loc 1 636 0
 784              		.cfi_startproc
 785 0000 80B5     		push	{r7, lr}
 786              		.cfi_def_cfa_offset 8
 787              		.cfi_offset 7, -8
 788              		.cfi_offset 14, -4
 789 0002 00AF     		add	r7, sp, #0
ARM GAS  C:\Users\CHRIST~1\AppData\Local\Temp\ccwDaf54.s 			page 26


 790              		.cfi_def_cfa_register 7
 637:Generated_Source\PSoC4/Timebase5s.c ****     return (Timebase5s_COUNTER_REG & Timebase5s_16BIT_MASK);
 791              		.loc 1 637 0
 792 0004 034B     		ldr	r3, .L46
 793 0006 1B68     		ldr	r3, [r3]
 794 0008 1B04     		lsl	r3, r3, #16
 795 000a 1B0C     		lsr	r3, r3, #16
 638:Generated_Source\PSoC4/Timebase5s.c **** }
 796              		.loc 1 638 0
 797 000c 181C     		mov	r0, r3
 798 000e BD46     		mov	sp, r7
 799              		@ sp needed
 800 0010 80BD     		pop	{r7, pc}
 801              	.L47:
 802 0012 C046     		.align	2
 803              	.L46:
 804 0014 08010140 		.word	1073807624
 805              		.cfi_endproc
 806              	.LFE15:
 807              		.size	Timebase5s_ReadCounter, .-Timebase5s_ReadCounter
 808              		.section	.text.Timebase5s_SetCounterMode,"ax",%progbits
 809              		.align	2
 810              		.global	Timebase5s_SetCounterMode
 811              		.code	16
 812              		.thumb_func
 813              		.type	Timebase5s_SetCounterMode, %function
 814              	Timebase5s_SetCounterMode:
 815              	.LFB16:
 639:Generated_Source\PSoC4/Timebase5s.c **** 
 640:Generated_Source\PSoC4/Timebase5s.c **** 
 641:Generated_Source\PSoC4/Timebase5s.c **** /*******************************************************************************
 642:Generated_Source\PSoC4/Timebase5s.c **** * Function Name: Timebase5s_SetCounterMode
 643:Generated_Source\PSoC4/Timebase5s.c **** ********************************************************************************
 644:Generated_Source\PSoC4/Timebase5s.c **** *
 645:Generated_Source\PSoC4/Timebase5s.c **** * Summary:
 646:Generated_Source\PSoC4/Timebase5s.c **** *  Sets the counter mode.  Applicable to all modes except Quadrature Decoder
 647:Generated_Source\PSoC4/Timebase5s.c **** *  and the PWM with a pseudo random output.
 648:Generated_Source\PSoC4/Timebase5s.c **** *
 649:Generated_Source\PSoC4/Timebase5s.c **** * Parameters:
 650:Generated_Source\PSoC4/Timebase5s.c **** *  counterMode: Enumerated counter type values
 651:Generated_Source\PSoC4/Timebase5s.c **** *   Values:
 652:Generated_Source\PSoC4/Timebase5s.c **** *     - Timebase5s_COUNT_UP       - Counts up
 653:Generated_Source\PSoC4/Timebase5s.c **** *     - Timebase5s_COUNT_DOWN     - Counts down
 654:Generated_Source\PSoC4/Timebase5s.c **** *     - Timebase5s_COUNT_UPDOWN0  - Counts up and down. Terminal count
 655:Generated_Source\PSoC4/Timebase5s.c **** *                                         generated when counter reaches 0
 656:Generated_Source\PSoC4/Timebase5s.c **** *     - Timebase5s_COUNT_UPDOWN1  - Counts up and down. Terminal count
 657:Generated_Source\PSoC4/Timebase5s.c **** *                                         generated both when counter reaches 0
 658:Generated_Source\PSoC4/Timebase5s.c **** *                                         and period
 659:Generated_Source\PSoC4/Timebase5s.c **** *
 660:Generated_Source\PSoC4/Timebase5s.c **** * Return:
 661:Generated_Source\PSoC4/Timebase5s.c **** *  None
 662:Generated_Source\PSoC4/Timebase5s.c **** *
 663:Generated_Source\PSoC4/Timebase5s.c **** *******************************************************************************/
 664:Generated_Source\PSoC4/Timebase5s.c **** void Timebase5s_SetCounterMode(uint32 counterMode)
 665:Generated_Source\PSoC4/Timebase5s.c **** {
 816              		.loc 1 665 0
 817              		.cfi_startproc
ARM GAS  C:\Users\CHRIST~1\AppData\Local\Temp\ccwDaf54.s 			page 27


 818 0000 90B5     		push	{r4, r7, lr}
 819              		.cfi_def_cfa_offset 12
 820              		.cfi_offset 4, -12
 821              		.cfi_offset 7, -8
 822              		.cfi_offset 14, -4
 823 0002 85B0     		sub	sp, sp, #20
 824              		.cfi_def_cfa_offset 32
 825 0004 00AF     		add	r7, sp, #0
 826              		.cfi_def_cfa_register 7
 827 0006 7860     		str	r0, [r7, #4]
 666:Generated_Source\PSoC4/Timebase5s.c ****     uint8 enableInterrupts;
 667:Generated_Source\PSoC4/Timebase5s.c **** 
 668:Generated_Source\PSoC4/Timebase5s.c ****     enableInterrupts = CyEnterCriticalSection();
 828              		.loc 1 668 0
 829 0008 0F23     		mov	r3, #15
 830 000a FC18     		add	r4, r7, r3
 831 000c FFF7FEFF 		bl	CyEnterCriticalSection
 832 0010 031C     		mov	r3, r0
 833 0012 2370     		strb	r3, [r4]
 669:Generated_Source\PSoC4/Timebase5s.c **** 
 670:Generated_Source\PSoC4/Timebase5s.c ****     Timebase5s_CONTROL_REG &= (uint32)~Timebase5s_UPDOWN_MASK;
 834              		.loc 1 670 0
 835 0014 0A4B     		ldr	r3, .L49
 836 0016 0A4A     		ldr	r2, .L49
 837 0018 1268     		ldr	r2, [r2]
 838 001a 0A49     		ldr	r1, .L49+4
 839 001c 0A40     		and	r2, r1
 840 001e 1A60     		str	r2, [r3]
 671:Generated_Source\PSoC4/Timebase5s.c ****     Timebase5s_CONTROL_REG |= counterMode;
 841              		.loc 1 671 0
 842 0020 074B     		ldr	r3, .L49
 843 0022 074A     		ldr	r2, .L49
 844 0024 1168     		ldr	r1, [r2]
 845 0026 7A68     		ldr	r2, [r7, #4]
 846 0028 0A43     		orr	r2, r1
 847 002a 1A60     		str	r2, [r3]
 672:Generated_Source\PSoC4/Timebase5s.c **** 
 673:Generated_Source\PSoC4/Timebase5s.c ****     CyExitCriticalSection(enableInterrupts);
 848              		.loc 1 673 0
 849 002c 0F23     		mov	r3, #15
 850 002e FB18     		add	r3, r7, r3
 851 0030 1B78     		ldrb	r3, [r3]
 852 0032 181C     		mov	r0, r3
 853 0034 FFF7FEFF 		bl	CyExitCriticalSection
 674:Generated_Source\PSoC4/Timebase5s.c **** }
 854              		.loc 1 674 0
 855 0038 BD46     		mov	sp, r7
 856 003a 05B0     		add	sp, sp, #20
 857              		@ sp needed
 858 003c 90BD     		pop	{r4, r7, pc}
 859              	.L50:
 860 003e C046     		.align	2
 861              	.L49:
 862 0040 00010140 		.word	1073807616
 863 0044 FFFFFCFF 		.word	-196609
 864              		.cfi_endproc
 865              	.LFE16:
ARM GAS  C:\Users\CHRIST~1\AppData\Local\Temp\ccwDaf54.s 			page 28


 866              		.size	Timebase5s_SetCounterMode, .-Timebase5s_SetCounterMode
 867              		.section	.text.Timebase5s_WritePeriod,"ax",%progbits
 868              		.align	2
 869              		.global	Timebase5s_WritePeriod
 870              		.code	16
 871              		.thumb_func
 872              		.type	Timebase5s_WritePeriod, %function
 873              	Timebase5s_WritePeriod:
 874              	.LFB17:
 675:Generated_Source\PSoC4/Timebase5s.c **** 
 676:Generated_Source\PSoC4/Timebase5s.c **** 
 677:Generated_Source\PSoC4/Timebase5s.c **** /*******************************************************************************
 678:Generated_Source\PSoC4/Timebase5s.c **** * Function Name: Timebase5s_WritePeriod
 679:Generated_Source\PSoC4/Timebase5s.c **** ********************************************************************************
 680:Generated_Source\PSoC4/Timebase5s.c **** *
 681:Generated_Source\PSoC4/Timebase5s.c **** * Summary:
 682:Generated_Source\PSoC4/Timebase5s.c **** *  Writes the 16 bit period register with the new period value.
 683:Generated_Source\PSoC4/Timebase5s.c **** *  To cause the counter to count for N cycles this register should be written
 684:Generated_Source\PSoC4/Timebase5s.c **** *  with N-1 (counts from 0 to period inclusive).
 685:Generated_Source\PSoC4/Timebase5s.c **** *
 686:Generated_Source\PSoC4/Timebase5s.c **** * Parameters:
 687:Generated_Source\PSoC4/Timebase5s.c **** *  period: Period value
 688:Generated_Source\PSoC4/Timebase5s.c **** *
 689:Generated_Source\PSoC4/Timebase5s.c **** * Return:
 690:Generated_Source\PSoC4/Timebase5s.c **** *  None
 691:Generated_Source\PSoC4/Timebase5s.c **** *
 692:Generated_Source\PSoC4/Timebase5s.c **** *******************************************************************************/
 693:Generated_Source\PSoC4/Timebase5s.c **** void Timebase5s_WritePeriod(uint32 period)
 694:Generated_Source\PSoC4/Timebase5s.c **** {
 875              		.loc 1 694 0
 876              		.cfi_startproc
 877 0000 80B5     		push	{r7, lr}
 878              		.cfi_def_cfa_offset 8
 879              		.cfi_offset 7, -8
 880              		.cfi_offset 14, -4
 881 0002 82B0     		sub	sp, sp, #8
 882              		.cfi_def_cfa_offset 16
 883 0004 00AF     		add	r7, sp, #0
 884              		.cfi_def_cfa_register 7
 885 0006 7860     		str	r0, [r7, #4]
 695:Generated_Source\PSoC4/Timebase5s.c ****     Timebase5s_PERIOD_REG = (period & Timebase5s_16BIT_MASK);
 886              		.loc 1 695 0
 887 0008 034B     		ldr	r3, .L52
 888 000a 7A68     		ldr	r2, [r7, #4]
 889 000c 1204     		lsl	r2, r2, #16
 890 000e 120C     		lsr	r2, r2, #16
 891 0010 1A60     		str	r2, [r3]
 696:Generated_Source\PSoC4/Timebase5s.c **** }
 892              		.loc 1 696 0
 893 0012 BD46     		mov	sp, r7
 894 0014 02B0     		add	sp, sp, #8
 895              		@ sp needed
 896 0016 80BD     		pop	{r7, pc}
 897              	.L53:
 898              		.align	2
 899              	.L52:
 900 0018 14010140 		.word	1073807636
ARM GAS  C:\Users\CHRIST~1\AppData\Local\Temp\ccwDaf54.s 			page 29


 901              		.cfi_endproc
 902              	.LFE17:
 903              		.size	Timebase5s_WritePeriod, .-Timebase5s_WritePeriod
 904              		.section	.text.Timebase5s_ReadPeriod,"ax",%progbits
 905              		.align	2
 906              		.global	Timebase5s_ReadPeriod
 907              		.code	16
 908              		.thumb_func
 909              		.type	Timebase5s_ReadPeriod, %function
 910              	Timebase5s_ReadPeriod:
 911              	.LFB18:
 697:Generated_Source\PSoC4/Timebase5s.c **** 
 698:Generated_Source\PSoC4/Timebase5s.c **** 
 699:Generated_Source\PSoC4/Timebase5s.c **** /*******************************************************************************
 700:Generated_Source\PSoC4/Timebase5s.c **** * Function Name: Timebase5s_ReadPeriod
 701:Generated_Source\PSoC4/Timebase5s.c **** ********************************************************************************
 702:Generated_Source\PSoC4/Timebase5s.c **** *
 703:Generated_Source\PSoC4/Timebase5s.c **** * Summary:
 704:Generated_Source\PSoC4/Timebase5s.c **** *  Reads the 16 bit period register.
 705:Generated_Source\PSoC4/Timebase5s.c **** *
 706:Generated_Source\PSoC4/Timebase5s.c **** * Parameters:
 707:Generated_Source\PSoC4/Timebase5s.c **** *  None
 708:Generated_Source\PSoC4/Timebase5s.c **** *
 709:Generated_Source\PSoC4/Timebase5s.c **** * Return:
 710:Generated_Source\PSoC4/Timebase5s.c **** *  Period value
 711:Generated_Source\PSoC4/Timebase5s.c **** *
 712:Generated_Source\PSoC4/Timebase5s.c **** *******************************************************************************/
 713:Generated_Source\PSoC4/Timebase5s.c **** uint32 Timebase5s_ReadPeriod(void)
 714:Generated_Source\PSoC4/Timebase5s.c **** {
 912              		.loc 1 714 0
 913              		.cfi_startproc
 914 0000 80B5     		push	{r7, lr}
 915              		.cfi_def_cfa_offset 8
 916              		.cfi_offset 7, -8
 917              		.cfi_offset 14, -4
 918 0002 00AF     		add	r7, sp, #0
 919              		.cfi_def_cfa_register 7
 715:Generated_Source\PSoC4/Timebase5s.c ****     return (Timebase5s_PERIOD_REG & Timebase5s_16BIT_MASK);
 920              		.loc 1 715 0
 921 0004 034B     		ldr	r3, .L56
 922 0006 1B68     		ldr	r3, [r3]
 923 0008 1B04     		lsl	r3, r3, #16
 924 000a 1B0C     		lsr	r3, r3, #16
 716:Generated_Source\PSoC4/Timebase5s.c **** }
 925              		.loc 1 716 0
 926 000c 181C     		mov	r0, r3
 927 000e BD46     		mov	sp, r7
 928              		@ sp needed
 929 0010 80BD     		pop	{r7, pc}
 930              	.L57:
 931 0012 C046     		.align	2
 932              	.L56:
 933 0014 14010140 		.word	1073807636
 934              		.cfi_endproc
 935              	.LFE18:
 936              		.size	Timebase5s_ReadPeriod, .-Timebase5s_ReadPeriod
 937              		.section	.text.Timebase5s_SetCompareSwap,"ax",%progbits
ARM GAS  C:\Users\CHRIST~1\AppData\Local\Temp\ccwDaf54.s 			page 30


 938              		.align	2
 939              		.global	Timebase5s_SetCompareSwap
 940              		.code	16
 941              		.thumb_func
 942              		.type	Timebase5s_SetCompareSwap, %function
 943              	Timebase5s_SetCompareSwap:
 944              	.LFB19:
 717:Generated_Source\PSoC4/Timebase5s.c **** 
 718:Generated_Source\PSoC4/Timebase5s.c **** 
 719:Generated_Source\PSoC4/Timebase5s.c **** /*******************************************************************************
 720:Generated_Source\PSoC4/Timebase5s.c **** * Function Name: Timebase5s_SetCompareSwap
 721:Generated_Source\PSoC4/Timebase5s.c **** ********************************************************************************
 722:Generated_Source\PSoC4/Timebase5s.c **** *
 723:Generated_Source\PSoC4/Timebase5s.c **** * Summary:
 724:Generated_Source\PSoC4/Timebase5s.c **** *  Writes the register that controls whether the compare registers are
 725:Generated_Source\PSoC4/Timebase5s.c **** *  swapped. When enabled in the Timer/Counter mode(without capture) the swap
 726:Generated_Source\PSoC4/Timebase5s.c **** *  occurs at a TC event. In the PWM mode the swap occurs at the next TC event
 727:Generated_Source\PSoC4/Timebase5s.c **** *  following a hardware switch event.
 728:Generated_Source\PSoC4/Timebase5s.c **** *
 729:Generated_Source\PSoC4/Timebase5s.c **** * Parameters:
 730:Generated_Source\PSoC4/Timebase5s.c **** *  swapEnable
 731:Generated_Source\PSoC4/Timebase5s.c **** *   Values:
 732:Generated_Source\PSoC4/Timebase5s.c **** *     - 0 - Disable swap
 733:Generated_Source\PSoC4/Timebase5s.c **** *     - 1 - Enable swap
 734:Generated_Source\PSoC4/Timebase5s.c **** *
 735:Generated_Source\PSoC4/Timebase5s.c **** * Return:
 736:Generated_Source\PSoC4/Timebase5s.c **** *  None
 737:Generated_Source\PSoC4/Timebase5s.c **** *
 738:Generated_Source\PSoC4/Timebase5s.c **** *******************************************************************************/
 739:Generated_Source\PSoC4/Timebase5s.c **** void Timebase5s_SetCompareSwap(uint32 swapEnable)
 740:Generated_Source\PSoC4/Timebase5s.c **** {
 945              		.loc 1 740 0
 946              		.cfi_startproc
 947 0000 90B5     		push	{r4, r7, lr}
 948              		.cfi_def_cfa_offset 12
 949              		.cfi_offset 4, -12
 950              		.cfi_offset 7, -8
 951              		.cfi_offset 14, -4
 952 0002 85B0     		sub	sp, sp, #20
 953              		.cfi_def_cfa_offset 32
 954 0004 00AF     		add	r7, sp, #0
 955              		.cfi_def_cfa_register 7
 956 0006 7860     		str	r0, [r7, #4]
 741:Generated_Source\PSoC4/Timebase5s.c ****     uint8 enableInterrupts;
 742:Generated_Source\PSoC4/Timebase5s.c **** 
 743:Generated_Source\PSoC4/Timebase5s.c ****     enableInterrupts = CyEnterCriticalSection();
 957              		.loc 1 743 0
 958 0008 0F23     		mov	r3, #15
 959 000a FC18     		add	r4, r7, r3
 960 000c FFF7FEFF 		bl	CyEnterCriticalSection
 961 0010 031C     		mov	r3, r0
 962 0012 2370     		strb	r3, [r4]
 744:Generated_Source\PSoC4/Timebase5s.c **** 
 745:Generated_Source\PSoC4/Timebase5s.c ****     Timebase5s_CONTROL_REG &= (uint32)~Timebase5s_RELOAD_CC_MASK;
 963              		.loc 1 745 0
 964 0014 0B4B     		ldr	r3, .L59
 965 0016 0B4A     		ldr	r2, .L59
ARM GAS  C:\Users\CHRIST~1\AppData\Local\Temp\ccwDaf54.s 			page 31


 966 0018 1268     		ldr	r2, [r2]
 967 001a 0121     		mov	r1, #1
 968 001c 8A43     		bic	r2, r1
 969 001e 1A60     		str	r2, [r3]
 746:Generated_Source\PSoC4/Timebase5s.c ****     Timebase5s_CONTROL_REG |= (swapEnable & Timebase5s_1BIT_MASK);
 970              		.loc 1 746 0
 971 0020 084B     		ldr	r3, .L59
 972 0022 084A     		ldr	r2, .L59
 973 0024 1168     		ldr	r1, [r2]
 974 0026 7A68     		ldr	r2, [r7, #4]
 975 0028 0120     		mov	r0, #1
 976 002a 0240     		and	r2, r0
 977 002c 0A43     		orr	r2, r1
 978 002e 1A60     		str	r2, [r3]
 747:Generated_Source\PSoC4/Timebase5s.c **** 
 748:Generated_Source\PSoC4/Timebase5s.c ****     CyExitCriticalSection(enableInterrupts);
 979              		.loc 1 748 0
 980 0030 0F23     		mov	r3, #15
 981 0032 FB18     		add	r3, r7, r3
 982 0034 1B78     		ldrb	r3, [r3]
 983 0036 181C     		mov	r0, r3
 984 0038 FFF7FEFF 		bl	CyExitCriticalSection
 749:Generated_Source\PSoC4/Timebase5s.c **** }
 985              		.loc 1 749 0
 986 003c BD46     		mov	sp, r7
 987 003e 05B0     		add	sp, sp, #20
 988              		@ sp needed
 989 0040 90BD     		pop	{r4, r7, pc}
 990              	.L60:
 991 0042 C046     		.align	2
 992              	.L59:
 993 0044 00010140 		.word	1073807616
 994              		.cfi_endproc
 995              	.LFE19:
 996              		.size	Timebase5s_SetCompareSwap, .-Timebase5s_SetCompareSwap
 997              		.section	.text.Timebase5s_WritePeriodBuf,"ax",%progbits
 998              		.align	2
 999              		.global	Timebase5s_WritePeriodBuf
 1000              		.code	16
 1001              		.thumb_func
 1002              		.type	Timebase5s_WritePeriodBuf, %function
 1003              	Timebase5s_WritePeriodBuf:
 1004              	.LFB20:
 750:Generated_Source\PSoC4/Timebase5s.c **** 
 751:Generated_Source\PSoC4/Timebase5s.c **** 
 752:Generated_Source\PSoC4/Timebase5s.c **** /*******************************************************************************
 753:Generated_Source\PSoC4/Timebase5s.c **** * Function Name: Timebase5s_WritePeriodBuf
 754:Generated_Source\PSoC4/Timebase5s.c **** ********************************************************************************
 755:Generated_Source\PSoC4/Timebase5s.c **** *
 756:Generated_Source\PSoC4/Timebase5s.c **** * Summary:
 757:Generated_Source\PSoC4/Timebase5s.c **** *  Writes the 16 bit period buf register with the new period value.
 758:Generated_Source\PSoC4/Timebase5s.c **** *
 759:Generated_Source\PSoC4/Timebase5s.c **** * Parameters:
 760:Generated_Source\PSoC4/Timebase5s.c **** *  periodBuf: Period value
 761:Generated_Source\PSoC4/Timebase5s.c **** *
 762:Generated_Source\PSoC4/Timebase5s.c **** * Return:
 763:Generated_Source\PSoC4/Timebase5s.c **** *  None
ARM GAS  C:\Users\CHRIST~1\AppData\Local\Temp\ccwDaf54.s 			page 32


 764:Generated_Source\PSoC4/Timebase5s.c **** *
 765:Generated_Source\PSoC4/Timebase5s.c **** *******************************************************************************/
 766:Generated_Source\PSoC4/Timebase5s.c **** void Timebase5s_WritePeriodBuf(uint32 periodBuf)
 767:Generated_Source\PSoC4/Timebase5s.c **** {
 1005              		.loc 1 767 0
 1006              		.cfi_startproc
 1007 0000 80B5     		push	{r7, lr}
 1008              		.cfi_def_cfa_offset 8
 1009              		.cfi_offset 7, -8
 1010              		.cfi_offset 14, -4
 1011 0002 82B0     		sub	sp, sp, #8
 1012              		.cfi_def_cfa_offset 16
 1013 0004 00AF     		add	r7, sp, #0
 1014              		.cfi_def_cfa_register 7
 1015 0006 7860     		str	r0, [r7, #4]
 768:Generated_Source\PSoC4/Timebase5s.c ****     Timebase5s_PERIOD_BUF_REG = (periodBuf & Timebase5s_16BIT_MASK);
 1016              		.loc 1 768 0
 1017 0008 034B     		ldr	r3, .L62
 1018 000a 7A68     		ldr	r2, [r7, #4]
 1019 000c 1204     		lsl	r2, r2, #16
 1020 000e 120C     		lsr	r2, r2, #16
 1021 0010 1A60     		str	r2, [r3]
 769:Generated_Source\PSoC4/Timebase5s.c **** }
 1022              		.loc 1 769 0
 1023 0012 BD46     		mov	sp, r7
 1024 0014 02B0     		add	sp, sp, #8
 1025              		@ sp needed
 1026 0016 80BD     		pop	{r7, pc}
 1027              	.L63:
 1028              		.align	2
 1029              	.L62:
 1030 0018 18010140 		.word	1073807640
 1031              		.cfi_endproc
 1032              	.LFE20:
 1033              		.size	Timebase5s_WritePeriodBuf, .-Timebase5s_WritePeriodBuf
 1034              		.section	.text.Timebase5s_ReadPeriodBuf,"ax",%progbits
 1035              		.align	2
 1036              		.global	Timebase5s_ReadPeriodBuf
 1037              		.code	16
 1038              		.thumb_func
 1039              		.type	Timebase5s_ReadPeriodBuf, %function
 1040              	Timebase5s_ReadPeriodBuf:
 1041              	.LFB21:
 770:Generated_Source\PSoC4/Timebase5s.c **** 
 771:Generated_Source\PSoC4/Timebase5s.c **** 
 772:Generated_Source\PSoC4/Timebase5s.c **** /*******************************************************************************
 773:Generated_Source\PSoC4/Timebase5s.c **** * Function Name: Timebase5s_ReadPeriodBuf
 774:Generated_Source\PSoC4/Timebase5s.c **** ********************************************************************************
 775:Generated_Source\PSoC4/Timebase5s.c **** *
 776:Generated_Source\PSoC4/Timebase5s.c **** * Summary:
 777:Generated_Source\PSoC4/Timebase5s.c **** *  Reads the 16 bit period buf register.
 778:Generated_Source\PSoC4/Timebase5s.c **** *
 779:Generated_Source\PSoC4/Timebase5s.c **** * Parameters:
 780:Generated_Source\PSoC4/Timebase5s.c **** *  None
 781:Generated_Source\PSoC4/Timebase5s.c **** *
 782:Generated_Source\PSoC4/Timebase5s.c **** * Return:
 783:Generated_Source\PSoC4/Timebase5s.c **** *  Period value
ARM GAS  C:\Users\CHRIST~1\AppData\Local\Temp\ccwDaf54.s 			page 33


 784:Generated_Source\PSoC4/Timebase5s.c **** *
 785:Generated_Source\PSoC4/Timebase5s.c **** *******************************************************************************/
 786:Generated_Source\PSoC4/Timebase5s.c **** uint32 Timebase5s_ReadPeriodBuf(void)
 787:Generated_Source\PSoC4/Timebase5s.c **** {
 1042              		.loc 1 787 0
 1043              		.cfi_startproc
 1044 0000 80B5     		push	{r7, lr}
 1045              		.cfi_def_cfa_offset 8
 1046              		.cfi_offset 7, -8
 1047              		.cfi_offset 14, -4
 1048 0002 00AF     		add	r7, sp, #0
 1049              		.cfi_def_cfa_register 7
 788:Generated_Source\PSoC4/Timebase5s.c ****     return (Timebase5s_PERIOD_BUF_REG & Timebase5s_16BIT_MASK);
 1050              		.loc 1 788 0
 1051 0004 034B     		ldr	r3, .L66
 1052 0006 1B68     		ldr	r3, [r3]
 1053 0008 1B04     		lsl	r3, r3, #16
 1054 000a 1B0C     		lsr	r3, r3, #16
 789:Generated_Source\PSoC4/Timebase5s.c **** }
 1055              		.loc 1 789 0
 1056 000c 181C     		mov	r0, r3
 1057 000e BD46     		mov	sp, r7
 1058              		@ sp needed
 1059 0010 80BD     		pop	{r7, pc}
 1060              	.L67:
 1061 0012 C046     		.align	2
 1062              	.L66:
 1063 0014 18010140 		.word	1073807640
 1064              		.cfi_endproc
 1065              	.LFE21:
 1066              		.size	Timebase5s_ReadPeriodBuf, .-Timebase5s_ReadPeriodBuf
 1067              		.section	.text.Timebase5s_SetPeriodSwap,"ax",%progbits
 1068              		.align	2
 1069              		.global	Timebase5s_SetPeriodSwap
 1070              		.code	16
 1071              		.thumb_func
 1072              		.type	Timebase5s_SetPeriodSwap, %function
 1073              	Timebase5s_SetPeriodSwap:
 1074              	.LFB22:
 790:Generated_Source\PSoC4/Timebase5s.c **** 
 791:Generated_Source\PSoC4/Timebase5s.c **** 
 792:Generated_Source\PSoC4/Timebase5s.c **** /*******************************************************************************
 793:Generated_Source\PSoC4/Timebase5s.c **** * Function Name: Timebase5s_SetPeriodSwap
 794:Generated_Source\PSoC4/Timebase5s.c **** ********************************************************************************
 795:Generated_Source\PSoC4/Timebase5s.c **** *
 796:Generated_Source\PSoC4/Timebase5s.c **** * Summary:
 797:Generated_Source\PSoC4/Timebase5s.c **** *  Writes the register that controls whether the period registers are
 798:Generated_Source\PSoC4/Timebase5s.c **** *  swapped. When enabled in Timer/Counter mode the swap occurs at a TC event.
 799:Generated_Source\PSoC4/Timebase5s.c **** *  In the PWM mode the swap occurs at the next TC event following a hardware
 800:Generated_Source\PSoC4/Timebase5s.c **** *  switch event.
 801:Generated_Source\PSoC4/Timebase5s.c **** *
 802:Generated_Source\PSoC4/Timebase5s.c **** * Parameters:
 803:Generated_Source\PSoC4/Timebase5s.c **** *  swapEnable
 804:Generated_Source\PSoC4/Timebase5s.c **** *   Values:
 805:Generated_Source\PSoC4/Timebase5s.c **** *     - 0 - Disable swap
 806:Generated_Source\PSoC4/Timebase5s.c **** *     - 1 - Enable swap
 807:Generated_Source\PSoC4/Timebase5s.c **** *
ARM GAS  C:\Users\CHRIST~1\AppData\Local\Temp\ccwDaf54.s 			page 34


 808:Generated_Source\PSoC4/Timebase5s.c **** * Return:
 809:Generated_Source\PSoC4/Timebase5s.c **** *  None
 810:Generated_Source\PSoC4/Timebase5s.c **** *
 811:Generated_Source\PSoC4/Timebase5s.c **** *******************************************************************************/
 812:Generated_Source\PSoC4/Timebase5s.c **** void Timebase5s_SetPeriodSwap(uint32 swapEnable)
 813:Generated_Source\PSoC4/Timebase5s.c **** {
 1075              		.loc 1 813 0
 1076              		.cfi_startproc
 1077 0000 90B5     		push	{r4, r7, lr}
 1078              		.cfi_def_cfa_offset 12
 1079              		.cfi_offset 4, -12
 1080              		.cfi_offset 7, -8
 1081              		.cfi_offset 14, -4
 1082 0002 85B0     		sub	sp, sp, #20
 1083              		.cfi_def_cfa_offset 32
 1084 0004 00AF     		add	r7, sp, #0
 1085              		.cfi_def_cfa_register 7
 1086 0006 7860     		str	r0, [r7, #4]
 814:Generated_Source\PSoC4/Timebase5s.c ****     uint8 enableInterrupts;
 815:Generated_Source\PSoC4/Timebase5s.c **** 
 816:Generated_Source\PSoC4/Timebase5s.c ****     enableInterrupts = CyEnterCriticalSection();
 1087              		.loc 1 816 0
 1088 0008 0F23     		mov	r3, #15
 1089 000a FC18     		add	r4, r7, r3
 1090 000c FFF7FEFF 		bl	CyEnterCriticalSection
 1091 0010 031C     		mov	r3, r0
 1092 0012 2370     		strb	r3, [r4]
 817:Generated_Source\PSoC4/Timebase5s.c **** 
 818:Generated_Source\PSoC4/Timebase5s.c ****     Timebase5s_CONTROL_REG &= (uint32)~Timebase5s_RELOAD_PERIOD_MASK;
 1093              		.loc 1 818 0
 1094 0014 0B4B     		ldr	r3, .L69
 1095 0016 0B4A     		ldr	r2, .L69
 1096 0018 1268     		ldr	r2, [r2]
 1097 001a 0221     		mov	r1, #2
 1098 001c 8A43     		bic	r2, r1
 1099 001e 1A60     		str	r2, [r3]
 819:Generated_Source\PSoC4/Timebase5s.c ****     Timebase5s_CONTROL_REG |= ((uint32)((swapEnable & Timebase5s_1BIT_MASK) <<
 1100              		.loc 1 819 0
 1101 0020 084B     		ldr	r3, .L69
 1102 0022 084A     		ldr	r2, .L69
 1103 0024 1168     		ldr	r1, [r2]
 1104 0026 7A68     		ldr	r2, [r7, #4]
 1105 0028 0120     		mov	r0, #1
 1106 002a 0240     		and	r2, r0
 1107 002c 5200     		lsl	r2, r2, #1
 1108 002e 0A43     		orr	r2, r1
 1109 0030 1A60     		str	r2, [r3]
 820:Generated_Source\PSoC4/Timebase5s.c ****                                                             Timebase5s_RELOAD_PERIOD_SHIFT));
 821:Generated_Source\PSoC4/Timebase5s.c **** 
 822:Generated_Source\PSoC4/Timebase5s.c ****     CyExitCriticalSection(enableInterrupts);
 1110              		.loc 1 822 0
 1111 0032 0F23     		mov	r3, #15
 1112 0034 FB18     		add	r3, r7, r3
 1113 0036 1B78     		ldrb	r3, [r3]
 1114 0038 181C     		mov	r0, r3
 1115 003a FFF7FEFF 		bl	CyExitCriticalSection
 823:Generated_Source\PSoC4/Timebase5s.c **** }
ARM GAS  C:\Users\CHRIST~1\AppData\Local\Temp\ccwDaf54.s 			page 35


 1116              		.loc 1 823 0
 1117 003e BD46     		mov	sp, r7
 1118 0040 05B0     		add	sp, sp, #20
 1119              		@ sp needed
 1120 0042 90BD     		pop	{r4, r7, pc}
 1121              	.L70:
 1122              		.align	2
 1123              	.L69:
 1124 0044 00010140 		.word	1073807616
 1125              		.cfi_endproc
 1126              	.LFE22:
 1127              		.size	Timebase5s_SetPeriodSwap, .-Timebase5s_SetPeriodSwap
 1128              		.section	.text.Timebase5s_WriteCompare,"ax",%progbits
 1129              		.align	2
 1130              		.global	Timebase5s_WriteCompare
 1131              		.code	16
 1132              		.thumb_func
 1133              		.type	Timebase5s_WriteCompare, %function
 1134              	Timebase5s_WriteCompare:
 1135              	.LFB23:
 824:Generated_Source\PSoC4/Timebase5s.c **** 
 825:Generated_Source\PSoC4/Timebase5s.c **** 
 826:Generated_Source\PSoC4/Timebase5s.c **** /*******************************************************************************
 827:Generated_Source\PSoC4/Timebase5s.c **** * Function Name: Timebase5s_WriteCompare
 828:Generated_Source\PSoC4/Timebase5s.c **** ********************************************************************************
 829:Generated_Source\PSoC4/Timebase5s.c **** *
 830:Generated_Source\PSoC4/Timebase5s.c **** * Summary:
 831:Generated_Source\PSoC4/Timebase5s.c **** *  Writes the 16 bit compare register with the new compare value. Not
 832:Generated_Source\PSoC4/Timebase5s.c **** *  applicable for Timer/Counter with Capture or in Quadrature Decoder modes.
 833:Generated_Source\PSoC4/Timebase5s.c **** *
 834:Generated_Source\PSoC4/Timebase5s.c **** * Parameters:
 835:Generated_Source\PSoC4/Timebase5s.c **** *  compare: Compare value
 836:Generated_Source\PSoC4/Timebase5s.c **** *
 837:Generated_Source\PSoC4/Timebase5s.c **** * Return:
 838:Generated_Source\PSoC4/Timebase5s.c **** *  None
 839:Generated_Source\PSoC4/Timebase5s.c **** *
 840:Generated_Source\PSoC4/Timebase5s.c **** * Note:
 841:Generated_Source\PSoC4/Timebase5s.c **** *  It is not recommended to use the value equal to "0" or equal to 
 842:Generated_Source\PSoC4/Timebase5s.c **** *  "period value" in Center or Asymmetric align PWM modes on the 
 843:Generated_Source\PSoC4/Timebase5s.c **** *  PSoC 4100/PSoC 4200 devices.
 844:Generated_Source\PSoC4/Timebase5s.c **** *  PSoC 4000 devices write the 16 bit compare register with the decremented 
 845:Generated_Source\PSoC4/Timebase5s.c **** *  compare value in the Up counting mode (except 0x0u), and the incremented 
 846:Generated_Source\PSoC4/Timebase5s.c **** *  compare value in the Down counting mode (except 0xFFFFu).
 847:Generated_Source\PSoC4/Timebase5s.c **** *
 848:Generated_Source\PSoC4/Timebase5s.c **** *******************************************************************************/
 849:Generated_Source\PSoC4/Timebase5s.c **** void Timebase5s_WriteCompare(uint32 compare)
 850:Generated_Source\PSoC4/Timebase5s.c **** {
 1136              		.loc 1 850 0
 1137              		.cfi_startproc
 1138 0000 80B5     		push	{r7, lr}
 1139              		.cfi_def_cfa_offset 8
 1140              		.cfi_offset 7, -8
 1141              		.cfi_offset 14, -4
 1142 0002 82B0     		sub	sp, sp, #8
 1143              		.cfi_def_cfa_offset 16
 1144 0004 00AF     		add	r7, sp, #0
 1145              		.cfi_def_cfa_register 7
ARM GAS  C:\Users\CHRIST~1\AppData\Local\Temp\ccwDaf54.s 			page 36


 1146 0006 7860     		str	r0, [r7, #4]
 851:Generated_Source\PSoC4/Timebase5s.c ****     #if (Timebase5s_CY_TCPWM_4000)
 852:Generated_Source\PSoC4/Timebase5s.c ****         uint32 currentMode;
 853:Generated_Source\PSoC4/Timebase5s.c ****     #endif /* (Timebase5s_CY_TCPWM_4000) */
 854:Generated_Source\PSoC4/Timebase5s.c **** 
 855:Generated_Source\PSoC4/Timebase5s.c ****     #if (Timebase5s_CY_TCPWM_4000)
 856:Generated_Source\PSoC4/Timebase5s.c ****         currentMode = ((Timebase5s_CONTROL_REG & Timebase5s_UPDOWN_MASK) >> Timebase5s_UPDOWN_SHIFT
 857:Generated_Source\PSoC4/Timebase5s.c **** 
 858:Generated_Source\PSoC4/Timebase5s.c ****         if (((uint32)Timebase5s__COUNT_DOWN == currentMode) && (0xFFFFu != compare))
 859:Generated_Source\PSoC4/Timebase5s.c ****         {
 860:Generated_Source\PSoC4/Timebase5s.c ****             compare++;
 861:Generated_Source\PSoC4/Timebase5s.c ****         }
 862:Generated_Source\PSoC4/Timebase5s.c ****         else if (((uint32)Timebase5s__COUNT_UP == currentMode) && (0u != compare))
 863:Generated_Source\PSoC4/Timebase5s.c ****         {
 864:Generated_Source\PSoC4/Timebase5s.c ****             compare--;
 865:Generated_Source\PSoC4/Timebase5s.c ****         }
 866:Generated_Source\PSoC4/Timebase5s.c ****         else
 867:Generated_Source\PSoC4/Timebase5s.c ****         {
 868:Generated_Source\PSoC4/Timebase5s.c ****         }
 869:Generated_Source\PSoC4/Timebase5s.c ****         
 870:Generated_Source\PSoC4/Timebase5s.c ****     
 871:Generated_Source\PSoC4/Timebase5s.c ****     #endif /* (Timebase5s_CY_TCPWM_4000) */
 872:Generated_Source\PSoC4/Timebase5s.c ****     
 873:Generated_Source\PSoC4/Timebase5s.c ****     Timebase5s_COMP_CAP_REG = (compare & Timebase5s_16BIT_MASK);
 1147              		.loc 1 873 0
 1148 0008 034B     		ldr	r3, .L72
 1149 000a 7A68     		ldr	r2, [r7, #4]
 1150 000c 1204     		lsl	r2, r2, #16
 1151 000e 120C     		lsr	r2, r2, #16
 1152 0010 1A60     		str	r2, [r3]
 874:Generated_Source\PSoC4/Timebase5s.c **** }
 1153              		.loc 1 874 0
 1154 0012 BD46     		mov	sp, r7
 1155 0014 02B0     		add	sp, sp, #8
 1156              		@ sp needed
 1157 0016 80BD     		pop	{r7, pc}
 1158              	.L73:
 1159              		.align	2
 1160              	.L72:
 1161 0018 0C010140 		.word	1073807628
 1162              		.cfi_endproc
 1163              	.LFE23:
 1164              		.size	Timebase5s_WriteCompare, .-Timebase5s_WriteCompare
 1165              		.section	.text.Timebase5s_ReadCompare,"ax",%progbits
 1166              		.align	2
 1167              		.global	Timebase5s_ReadCompare
 1168              		.code	16
 1169              		.thumb_func
 1170              		.type	Timebase5s_ReadCompare, %function
 1171              	Timebase5s_ReadCompare:
 1172              	.LFB24:
 875:Generated_Source\PSoC4/Timebase5s.c **** 
 876:Generated_Source\PSoC4/Timebase5s.c **** 
 877:Generated_Source\PSoC4/Timebase5s.c **** /*******************************************************************************
 878:Generated_Source\PSoC4/Timebase5s.c **** * Function Name: Timebase5s_ReadCompare
 879:Generated_Source\PSoC4/Timebase5s.c **** ********************************************************************************
 880:Generated_Source\PSoC4/Timebase5s.c **** *
ARM GAS  C:\Users\CHRIST~1\AppData\Local\Temp\ccwDaf54.s 			page 37


 881:Generated_Source\PSoC4/Timebase5s.c **** * Summary:
 882:Generated_Source\PSoC4/Timebase5s.c **** *  Reads the compare register. Not applicable for Timer/Counter with Capture
 883:Generated_Source\PSoC4/Timebase5s.c **** *  or in Quadrature Decoder modes.
 884:Generated_Source\PSoC4/Timebase5s.c **** *  PSoC 4000 devices read the incremented compare register value in the 
 885:Generated_Source\PSoC4/Timebase5s.c **** *  Up counting mode (except 0xFFFFu), and the decremented value in the 
 886:Generated_Source\PSoC4/Timebase5s.c **** *  Down counting mode (except 0x0u).
 887:Generated_Source\PSoC4/Timebase5s.c **** *
 888:Generated_Source\PSoC4/Timebase5s.c **** * Parameters:
 889:Generated_Source\PSoC4/Timebase5s.c **** *  None
 890:Generated_Source\PSoC4/Timebase5s.c **** *
 891:Generated_Source\PSoC4/Timebase5s.c **** * Return:
 892:Generated_Source\PSoC4/Timebase5s.c **** *  Compare value
 893:Generated_Source\PSoC4/Timebase5s.c **** *
 894:Generated_Source\PSoC4/Timebase5s.c **** * Note:
 895:Generated_Source\PSoC4/Timebase5s.c **** *  PSoC 4000 devices read the incremented compare register value in the 
 896:Generated_Source\PSoC4/Timebase5s.c **** *  Up counting mode (except 0xFFFFu), and the decremented value in the 
 897:Generated_Source\PSoC4/Timebase5s.c **** *  Down counting mode (except 0x0u).
 898:Generated_Source\PSoC4/Timebase5s.c **** *
 899:Generated_Source\PSoC4/Timebase5s.c **** *******************************************************************************/
 900:Generated_Source\PSoC4/Timebase5s.c **** uint32 Timebase5s_ReadCompare(void)
 901:Generated_Source\PSoC4/Timebase5s.c **** {
 1173              		.loc 1 901 0
 1174              		.cfi_startproc
 1175 0000 80B5     		push	{r7, lr}
 1176              		.cfi_def_cfa_offset 8
 1177              		.cfi_offset 7, -8
 1178              		.cfi_offset 14, -4
 1179 0002 00AF     		add	r7, sp, #0
 1180              		.cfi_def_cfa_register 7
 902:Generated_Source\PSoC4/Timebase5s.c ****     #if (Timebase5s_CY_TCPWM_4000)
 903:Generated_Source\PSoC4/Timebase5s.c ****         uint32 currentMode;
 904:Generated_Source\PSoC4/Timebase5s.c ****         uint32 regVal;
 905:Generated_Source\PSoC4/Timebase5s.c ****     #endif /* (Timebase5s_CY_TCPWM_4000) */
 906:Generated_Source\PSoC4/Timebase5s.c **** 
 907:Generated_Source\PSoC4/Timebase5s.c ****     #if (Timebase5s_CY_TCPWM_4000)
 908:Generated_Source\PSoC4/Timebase5s.c ****         currentMode = ((Timebase5s_CONTROL_REG & Timebase5s_UPDOWN_MASK) >> Timebase5s_UPDOWN_SHIFT
 909:Generated_Source\PSoC4/Timebase5s.c ****         
 910:Generated_Source\PSoC4/Timebase5s.c ****         regVal = Timebase5s_COMP_CAP_REG;
 911:Generated_Source\PSoC4/Timebase5s.c ****         
 912:Generated_Source\PSoC4/Timebase5s.c ****         if (((uint32)Timebase5s__COUNT_DOWN == currentMode) && (0u != regVal))
 913:Generated_Source\PSoC4/Timebase5s.c ****         {
 914:Generated_Source\PSoC4/Timebase5s.c ****             regVal--;
 915:Generated_Source\PSoC4/Timebase5s.c ****         }
 916:Generated_Source\PSoC4/Timebase5s.c ****         else if (((uint32)Timebase5s__COUNT_UP == currentMode) && (0xFFFFu != regVal))
 917:Generated_Source\PSoC4/Timebase5s.c ****         {
 918:Generated_Source\PSoC4/Timebase5s.c ****             regVal++;
 919:Generated_Source\PSoC4/Timebase5s.c ****         }
 920:Generated_Source\PSoC4/Timebase5s.c ****         else
 921:Generated_Source\PSoC4/Timebase5s.c ****         {
 922:Generated_Source\PSoC4/Timebase5s.c ****         }
 923:Generated_Source\PSoC4/Timebase5s.c **** 
 924:Generated_Source\PSoC4/Timebase5s.c ****         return (regVal & Timebase5s_16BIT_MASK);
 925:Generated_Source\PSoC4/Timebase5s.c ****     #else
 926:Generated_Source\PSoC4/Timebase5s.c ****         return (Timebase5s_COMP_CAP_REG & Timebase5s_16BIT_MASK);
 1181              		.loc 1 926 0
 1182 0004 034B     		ldr	r3, .L76
 1183 0006 1B68     		ldr	r3, [r3]
ARM GAS  C:\Users\CHRIST~1\AppData\Local\Temp\ccwDaf54.s 			page 38


 1184 0008 1B04     		lsl	r3, r3, #16
 1185 000a 1B0C     		lsr	r3, r3, #16
 927:Generated_Source\PSoC4/Timebase5s.c ****     #endif /* (Timebase5s_CY_TCPWM_4000) */
 928:Generated_Source\PSoC4/Timebase5s.c **** }
 1186              		.loc 1 928 0
 1187 000c 181C     		mov	r0, r3
 1188 000e BD46     		mov	sp, r7
 1189              		@ sp needed
 1190 0010 80BD     		pop	{r7, pc}
 1191              	.L77:
 1192 0012 C046     		.align	2
 1193              	.L76:
 1194 0014 0C010140 		.word	1073807628
 1195              		.cfi_endproc
 1196              	.LFE24:
 1197              		.size	Timebase5s_ReadCompare, .-Timebase5s_ReadCompare
 1198              		.section	.text.Timebase5s_WriteCompareBuf,"ax",%progbits
 1199              		.align	2
 1200              		.global	Timebase5s_WriteCompareBuf
 1201              		.code	16
 1202              		.thumb_func
 1203              		.type	Timebase5s_WriteCompareBuf, %function
 1204              	Timebase5s_WriteCompareBuf:
 1205              	.LFB25:
 929:Generated_Source\PSoC4/Timebase5s.c **** 
 930:Generated_Source\PSoC4/Timebase5s.c **** 
 931:Generated_Source\PSoC4/Timebase5s.c **** /*******************************************************************************
 932:Generated_Source\PSoC4/Timebase5s.c **** * Function Name: Timebase5s_WriteCompareBuf
 933:Generated_Source\PSoC4/Timebase5s.c **** ********************************************************************************
 934:Generated_Source\PSoC4/Timebase5s.c **** *
 935:Generated_Source\PSoC4/Timebase5s.c **** * Summary:
 936:Generated_Source\PSoC4/Timebase5s.c **** *  Writes the 16 bit compare buffer register with the new compare value. Not
 937:Generated_Source\PSoC4/Timebase5s.c **** *  applicable for Timer/Counter with Capture or in Quadrature Decoder modes.
 938:Generated_Source\PSoC4/Timebase5s.c **** *
 939:Generated_Source\PSoC4/Timebase5s.c **** * Parameters:
 940:Generated_Source\PSoC4/Timebase5s.c **** *  compareBuf: Compare value
 941:Generated_Source\PSoC4/Timebase5s.c **** *
 942:Generated_Source\PSoC4/Timebase5s.c **** * Return:
 943:Generated_Source\PSoC4/Timebase5s.c **** *  None
 944:Generated_Source\PSoC4/Timebase5s.c **** *
 945:Generated_Source\PSoC4/Timebase5s.c **** * Note:
 946:Generated_Source\PSoC4/Timebase5s.c **** *  It is not recommended to use the value equal to "0" or equal to 
 947:Generated_Source\PSoC4/Timebase5s.c **** *  "period value" in Center or Asymmetric align PWM modes on the 
 948:Generated_Source\PSoC4/Timebase5s.c **** *  PSoC 4100/PSoC 4200 devices.
 949:Generated_Source\PSoC4/Timebase5s.c **** *  PSoC 4000 devices write the 16 bit compare register with the decremented 
 950:Generated_Source\PSoC4/Timebase5s.c **** *  compare value in the Up counting mode (except 0x0u), and the incremented 
 951:Generated_Source\PSoC4/Timebase5s.c **** *  compare value in the Down counting mode (except 0xFFFFu).
 952:Generated_Source\PSoC4/Timebase5s.c **** *
 953:Generated_Source\PSoC4/Timebase5s.c **** *******************************************************************************/
 954:Generated_Source\PSoC4/Timebase5s.c **** void Timebase5s_WriteCompareBuf(uint32 compareBuf)
 955:Generated_Source\PSoC4/Timebase5s.c **** {
 1206              		.loc 1 955 0
 1207              		.cfi_startproc
 1208 0000 80B5     		push	{r7, lr}
 1209              		.cfi_def_cfa_offset 8
 1210              		.cfi_offset 7, -8
 1211              		.cfi_offset 14, -4
ARM GAS  C:\Users\CHRIST~1\AppData\Local\Temp\ccwDaf54.s 			page 39


 1212 0002 82B0     		sub	sp, sp, #8
 1213              		.cfi_def_cfa_offset 16
 1214 0004 00AF     		add	r7, sp, #0
 1215              		.cfi_def_cfa_register 7
 1216 0006 7860     		str	r0, [r7, #4]
 956:Generated_Source\PSoC4/Timebase5s.c ****     #if (Timebase5s_CY_TCPWM_4000)
 957:Generated_Source\PSoC4/Timebase5s.c ****         uint32 currentMode;
 958:Generated_Source\PSoC4/Timebase5s.c ****     #endif /* (Timebase5s_CY_TCPWM_4000) */
 959:Generated_Source\PSoC4/Timebase5s.c **** 
 960:Generated_Source\PSoC4/Timebase5s.c ****     #if (Timebase5s_CY_TCPWM_4000)
 961:Generated_Source\PSoC4/Timebase5s.c ****         currentMode = ((Timebase5s_CONTROL_REG & Timebase5s_UPDOWN_MASK) >> Timebase5s_UPDOWN_SHIFT
 962:Generated_Source\PSoC4/Timebase5s.c **** 
 963:Generated_Source\PSoC4/Timebase5s.c ****         if (((uint32)Timebase5s__COUNT_DOWN == currentMode) && (0xFFFFu != compareBuf))
 964:Generated_Source\PSoC4/Timebase5s.c ****         {
 965:Generated_Source\PSoC4/Timebase5s.c ****             compareBuf++;
 966:Generated_Source\PSoC4/Timebase5s.c ****         }
 967:Generated_Source\PSoC4/Timebase5s.c ****         else if (((uint32)Timebase5s__COUNT_UP == currentMode) && (0u != compareBuf))
 968:Generated_Source\PSoC4/Timebase5s.c ****         {
 969:Generated_Source\PSoC4/Timebase5s.c ****             compareBuf --;
 970:Generated_Source\PSoC4/Timebase5s.c ****         }
 971:Generated_Source\PSoC4/Timebase5s.c ****         else
 972:Generated_Source\PSoC4/Timebase5s.c ****         {
 973:Generated_Source\PSoC4/Timebase5s.c ****         }
 974:Generated_Source\PSoC4/Timebase5s.c ****     #endif /* (Timebase5s_CY_TCPWM_4000) */
 975:Generated_Source\PSoC4/Timebase5s.c ****     
 976:Generated_Source\PSoC4/Timebase5s.c ****     Timebase5s_COMP_CAP_BUF_REG = (compareBuf & Timebase5s_16BIT_MASK);
 1217              		.loc 1 976 0
 1218 0008 034B     		ldr	r3, .L79
 1219 000a 7A68     		ldr	r2, [r7, #4]
 1220 000c 1204     		lsl	r2, r2, #16
 1221 000e 120C     		lsr	r2, r2, #16
 1222 0010 1A60     		str	r2, [r3]
 977:Generated_Source\PSoC4/Timebase5s.c **** }
 1223              		.loc 1 977 0
 1224 0012 BD46     		mov	sp, r7
 1225 0014 02B0     		add	sp, sp, #8
 1226              		@ sp needed
 1227 0016 80BD     		pop	{r7, pc}
 1228              	.L80:
 1229              		.align	2
 1230              	.L79:
 1231 0018 10010140 		.word	1073807632
 1232              		.cfi_endproc
 1233              	.LFE25:
 1234              		.size	Timebase5s_WriteCompareBuf, .-Timebase5s_WriteCompareBuf
 1235              		.section	.text.Timebase5s_ReadCompareBuf,"ax",%progbits
 1236              		.align	2
 1237              		.global	Timebase5s_ReadCompareBuf
 1238              		.code	16
 1239              		.thumb_func
 1240              		.type	Timebase5s_ReadCompareBuf, %function
 1241              	Timebase5s_ReadCompareBuf:
 1242              	.LFB26:
 978:Generated_Source\PSoC4/Timebase5s.c **** 
 979:Generated_Source\PSoC4/Timebase5s.c **** 
 980:Generated_Source\PSoC4/Timebase5s.c **** /*******************************************************************************
 981:Generated_Source\PSoC4/Timebase5s.c **** * Function Name: Timebase5s_ReadCompareBuf
ARM GAS  C:\Users\CHRIST~1\AppData\Local\Temp\ccwDaf54.s 			page 40


 982:Generated_Source\PSoC4/Timebase5s.c **** ********************************************************************************
 983:Generated_Source\PSoC4/Timebase5s.c **** *
 984:Generated_Source\PSoC4/Timebase5s.c **** * Summary:
 985:Generated_Source\PSoC4/Timebase5s.c **** *  Reads the compare buffer register. Not applicable for Timer/Counter with
 986:Generated_Source\PSoC4/Timebase5s.c **** *  Capture or in Quadrature Decoder modes.
 987:Generated_Source\PSoC4/Timebase5s.c **** *
 988:Generated_Source\PSoC4/Timebase5s.c **** * Parameters:
 989:Generated_Source\PSoC4/Timebase5s.c **** *  None
 990:Generated_Source\PSoC4/Timebase5s.c **** *
 991:Generated_Source\PSoC4/Timebase5s.c **** * Return:
 992:Generated_Source\PSoC4/Timebase5s.c **** *  Compare buffer value
 993:Generated_Source\PSoC4/Timebase5s.c **** *
 994:Generated_Source\PSoC4/Timebase5s.c **** * Note:
 995:Generated_Source\PSoC4/Timebase5s.c **** *  PSoC 4000 devices read the incremented compare register value in the 
 996:Generated_Source\PSoC4/Timebase5s.c **** *  Up counting mode (except 0xFFFFu), and the decremented value in the 
 997:Generated_Source\PSoC4/Timebase5s.c **** *  Down counting mode (except 0x0u).
 998:Generated_Source\PSoC4/Timebase5s.c **** *
 999:Generated_Source\PSoC4/Timebase5s.c **** *******************************************************************************/
1000:Generated_Source\PSoC4/Timebase5s.c **** uint32 Timebase5s_ReadCompareBuf(void)
1001:Generated_Source\PSoC4/Timebase5s.c **** {
 1243              		.loc 1 1001 0
 1244              		.cfi_startproc
 1245 0000 80B5     		push	{r7, lr}
 1246              		.cfi_def_cfa_offset 8
 1247              		.cfi_offset 7, -8
 1248              		.cfi_offset 14, -4
 1249 0002 00AF     		add	r7, sp, #0
 1250              		.cfi_def_cfa_register 7
1002:Generated_Source\PSoC4/Timebase5s.c ****     #if (Timebase5s_CY_TCPWM_4000)
1003:Generated_Source\PSoC4/Timebase5s.c ****         uint32 currentMode;
1004:Generated_Source\PSoC4/Timebase5s.c ****         uint32 regVal;
1005:Generated_Source\PSoC4/Timebase5s.c ****     #endif /* (Timebase5s_CY_TCPWM_4000) */
1006:Generated_Source\PSoC4/Timebase5s.c **** 
1007:Generated_Source\PSoC4/Timebase5s.c ****     #if (Timebase5s_CY_TCPWM_4000)
1008:Generated_Source\PSoC4/Timebase5s.c ****         currentMode = ((Timebase5s_CONTROL_REG & Timebase5s_UPDOWN_MASK) >> Timebase5s_UPDOWN_SHIFT
1009:Generated_Source\PSoC4/Timebase5s.c **** 
1010:Generated_Source\PSoC4/Timebase5s.c ****         regVal = Timebase5s_COMP_CAP_BUF_REG;
1011:Generated_Source\PSoC4/Timebase5s.c ****         
1012:Generated_Source\PSoC4/Timebase5s.c ****         if (((uint32)Timebase5s__COUNT_DOWN == currentMode) && (0u != regVal))
1013:Generated_Source\PSoC4/Timebase5s.c ****         {
1014:Generated_Source\PSoC4/Timebase5s.c ****             regVal--;
1015:Generated_Source\PSoC4/Timebase5s.c ****         }
1016:Generated_Source\PSoC4/Timebase5s.c ****         else if (((uint32)Timebase5s__COUNT_UP == currentMode) && (0xFFFFu != regVal))
1017:Generated_Source\PSoC4/Timebase5s.c ****         {
1018:Generated_Source\PSoC4/Timebase5s.c ****             regVal++;
1019:Generated_Source\PSoC4/Timebase5s.c ****         }
1020:Generated_Source\PSoC4/Timebase5s.c ****         else
1021:Generated_Source\PSoC4/Timebase5s.c ****         {
1022:Generated_Source\PSoC4/Timebase5s.c ****         }
1023:Generated_Source\PSoC4/Timebase5s.c **** 
1024:Generated_Source\PSoC4/Timebase5s.c ****         return (regVal & Timebase5s_16BIT_MASK);
1025:Generated_Source\PSoC4/Timebase5s.c ****     #else
1026:Generated_Source\PSoC4/Timebase5s.c ****         return (Timebase5s_COMP_CAP_BUF_REG & Timebase5s_16BIT_MASK);
 1251              		.loc 1 1026 0
 1252 0004 034B     		ldr	r3, .L83
 1253 0006 1B68     		ldr	r3, [r3]
 1254 0008 1B04     		lsl	r3, r3, #16
ARM GAS  C:\Users\CHRIST~1\AppData\Local\Temp\ccwDaf54.s 			page 41


 1255 000a 1B0C     		lsr	r3, r3, #16
1027:Generated_Source\PSoC4/Timebase5s.c ****     #endif /* (Timebase5s_CY_TCPWM_4000) */
1028:Generated_Source\PSoC4/Timebase5s.c **** }
 1256              		.loc 1 1028 0
 1257 000c 181C     		mov	r0, r3
 1258 000e BD46     		mov	sp, r7
 1259              		@ sp needed
 1260 0010 80BD     		pop	{r7, pc}
 1261              	.L84:
 1262 0012 C046     		.align	2
 1263              	.L83:
 1264 0014 10010140 		.word	1073807632
 1265              		.cfi_endproc
 1266              	.LFE26:
 1267              		.size	Timebase5s_ReadCompareBuf, .-Timebase5s_ReadCompareBuf
 1268              		.section	.text.Timebase5s_ReadCapture,"ax",%progbits
 1269              		.align	2
 1270              		.global	Timebase5s_ReadCapture
 1271              		.code	16
 1272              		.thumb_func
 1273              		.type	Timebase5s_ReadCapture, %function
 1274              	Timebase5s_ReadCapture:
 1275              	.LFB27:
1029:Generated_Source\PSoC4/Timebase5s.c **** 
1030:Generated_Source\PSoC4/Timebase5s.c **** 
1031:Generated_Source\PSoC4/Timebase5s.c **** /*******************************************************************************
1032:Generated_Source\PSoC4/Timebase5s.c **** * Function Name: Timebase5s_ReadCapture
1033:Generated_Source\PSoC4/Timebase5s.c **** ********************************************************************************
1034:Generated_Source\PSoC4/Timebase5s.c **** *
1035:Generated_Source\PSoC4/Timebase5s.c **** * Summary:
1036:Generated_Source\PSoC4/Timebase5s.c **** *  Reads the captured counter value. This API is applicable only for
1037:Generated_Source\PSoC4/Timebase5s.c **** *  Timer/Counter with the capture mode and Quadrature Decoder modes.
1038:Generated_Source\PSoC4/Timebase5s.c **** *
1039:Generated_Source\PSoC4/Timebase5s.c **** * Parameters:
1040:Generated_Source\PSoC4/Timebase5s.c **** *  None
1041:Generated_Source\PSoC4/Timebase5s.c **** *
1042:Generated_Source\PSoC4/Timebase5s.c **** * Return:
1043:Generated_Source\PSoC4/Timebase5s.c **** *  Capture value
1044:Generated_Source\PSoC4/Timebase5s.c **** *
1045:Generated_Source\PSoC4/Timebase5s.c **** *******************************************************************************/
1046:Generated_Source\PSoC4/Timebase5s.c **** uint32 Timebase5s_ReadCapture(void)
1047:Generated_Source\PSoC4/Timebase5s.c **** {
 1276              		.loc 1 1047 0
 1277              		.cfi_startproc
 1278 0000 80B5     		push	{r7, lr}
 1279              		.cfi_def_cfa_offset 8
 1280              		.cfi_offset 7, -8
 1281              		.cfi_offset 14, -4
 1282 0002 00AF     		add	r7, sp, #0
 1283              		.cfi_def_cfa_register 7
1048:Generated_Source\PSoC4/Timebase5s.c ****     return (Timebase5s_COMP_CAP_REG & Timebase5s_16BIT_MASK);
 1284              		.loc 1 1048 0
 1285 0004 034B     		ldr	r3, .L87
 1286 0006 1B68     		ldr	r3, [r3]
 1287 0008 1B04     		lsl	r3, r3, #16
 1288 000a 1B0C     		lsr	r3, r3, #16
1049:Generated_Source\PSoC4/Timebase5s.c **** }
ARM GAS  C:\Users\CHRIST~1\AppData\Local\Temp\ccwDaf54.s 			page 42


 1289              		.loc 1 1049 0
 1290 000c 181C     		mov	r0, r3
 1291 000e BD46     		mov	sp, r7
 1292              		@ sp needed
 1293 0010 80BD     		pop	{r7, pc}
 1294              	.L88:
 1295 0012 C046     		.align	2
 1296              	.L87:
 1297 0014 0C010140 		.word	1073807628
 1298              		.cfi_endproc
 1299              	.LFE27:
 1300              		.size	Timebase5s_ReadCapture, .-Timebase5s_ReadCapture
 1301              		.section	.text.Timebase5s_ReadCaptureBuf,"ax",%progbits
 1302              		.align	2
 1303              		.global	Timebase5s_ReadCaptureBuf
 1304              		.code	16
 1305              		.thumb_func
 1306              		.type	Timebase5s_ReadCaptureBuf, %function
 1307              	Timebase5s_ReadCaptureBuf:
 1308              	.LFB28:
1050:Generated_Source\PSoC4/Timebase5s.c **** 
1051:Generated_Source\PSoC4/Timebase5s.c **** 
1052:Generated_Source\PSoC4/Timebase5s.c **** /*******************************************************************************
1053:Generated_Source\PSoC4/Timebase5s.c **** * Function Name: Timebase5s_ReadCaptureBuf
1054:Generated_Source\PSoC4/Timebase5s.c **** ********************************************************************************
1055:Generated_Source\PSoC4/Timebase5s.c **** *
1056:Generated_Source\PSoC4/Timebase5s.c **** * Summary:
1057:Generated_Source\PSoC4/Timebase5s.c **** *  Reads the capture buffer register. This API is applicable only for
1058:Generated_Source\PSoC4/Timebase5s.c **** *  Timer/Counter with the capture mode and Quadrature Decoder modes.
1059:Generated_Source\PSoC4/Timebase5s.c **** *
1060:Generated_Source\PSoC4/Timebase5s.c **** * Parameters:
1061:Generated_Source\PSoC4/Timebase5s.c **** *  None
1062:Generated_Source\PSoC4/Timebase5s.c **** *
1063:Generated_Source\PSoC4/Timebase5s.c **** * Return:
1064:Generated_Source\PSoC4/Timebase5s.c **** *  Capture buffer value
1065:Generated_Source\PSoC4/Timebase5s.c **** *
1066:Generated_Source\PSoC4/Timebase5s.c **** *******************************************************************************/
1067:Generated_Source\PSoC4/Timebase5s.c **** uint32 Timebase5s_ReadCaptureBuf(void)
1068:Generated_Source\PSoC4/Timebase5s.c **** {
 1309              		.loc 1 1068 0
 1310              		.cfi_startproc
 1311 0000 80B5     		push	{r7, lr}
 1312              		.cfi_def_cfa_offset 8
 1313              		.cfi_offset 7, -8
 1314              		.cfi_offset 14, -4
 1315 0002 00AF     		add	r7, sp, #0
 1316              		.cfi_def_cfa_register 7
1069:Generated_Source\PSoC4/Timebase5s.c ****     return (Timebase5s_COMP_CAP_BUF_REG & Timebase5s_16BIT_MASK);
 1317              		.loc 1 1069 0
 1318 0004 034B     		ldr	r3, .L91
 1319 0006 1B68     		ldr	r3, [r3]
 1320 0008 1B04     		lsl	r3, r3, #16
 1321 000a 1B0C     		lsr	r3, r3, #16
1070:Generated_Source\PSoC4/Timebase5s.c **** }
 1322              		.loc 1 1070 0
 1323 000c 181C     		mov	r0, r3
 1324 000e BD46     		mov	sp, r7
ARM GAS  C:\Users\CHRIST~1\AppData\Local\Temp\ccwDaf54.s 			page 43


 1325              		@ sp needed
 1326 0010 80BD     		pop	{r7, pc}
 1327              	.L92:
 1328 0012 C046     		.align	2
 1329              	.L91:
 1330 0014 10010140 		.word	1073807632
 1331              		.cfi_endproc
 1332              	.LFE28:
 1333              		.size	Timebase5s_ReadCaptureBuf, .-Timebase5s_ReadCaptureBuf
 1334              		.section	.text.Timebase5s_SetCaptureMode,"ax",%progbits
 1335              		.align	2
 1336              		.global	Timebase5s_SetCaptureMode
 1337              		.code	16
 1338              		.thumb_func
 1339              		.type	Timebase5s_SetCaptureMode, %function
 1340              	Timebase5s_SetCaptureMode:
 1341              	.LFB29:
1071:Generated_Source\PSoC4/Timebase5s.c **** 
1072:Generated_Source\PSoC4/Timebase5s.c **** 
1073:Generated_Source\PSoC4/Timebase5s.c **** /*******************************************************************************
1074:Generated_Source\PSoC4/Timebase5s.c **** * Function Name: Timebase5s_SetCaptureMode
1075:Generated_Source\PSoC4/Timebase5s.c **** ********************************************************************************
1076:Generated_Source\PSoC4/Timebase5s.c **** *
1077:Generated_Source\PSoC4/Timebase5s.c **** * Summary:
1078:Generated_Source\PSoC4/Timebase5s.c **** *  Sets the capture trigger mode. For PWM mode this is the switch input.
1079:Generated_Source\PSoC4/Timebase5s.c **** *  This input is not applicable to the Timer/Counter without Capture and
1080:Generated_Source\PSoC4/Timebase5s.c **** *  Quadrature Decoder modes.
1081:Generated_Source\PSoC4/Timebase5s.c **** *
1082:Generated_Source\PSoC4/Timebase5s.c **** * Parameters:
1083:Generated_Source\PSoC4/Timebase5s.c **** *  triggerMode: Enumerated trigger mode value
1084:Generated_Source\PSoC4/Timebase5s.c **** *   Values:
1085:Generated_Source\PSoC4/Timebase5s.c **** *     - Timebase5s_TRIG_LEVEL     - Level
1086:Generated_Source\PSoC4/Timebase5s.c **** *     - Timebase5s_TRIG_RISING    - Rising edge
1087:Generated_Source\PSoC4/Timebase5s.c **** *     - Timebase5s_TRIG_FALLING   - Falling edge
1088:Generated_Source\PSoC4/Timebase5s.c **** *     - Timebase5s_TRIG_BOTH      - Both rising and falling edge
1089:Generated_Source\PSoC4/Timebase5s.c **** *
1090:Generated_Source\PSoC4/Timebase5s.c **** * Return:
1091:Generated_Source\PSoC4/Timebase5s.c **** *  None
1092:Generated_Source\PSoC4/Timebase5s.c **** *
1093:Generated_Source\PSoC4/Timebase5s.c **** *******************************************************************************/
1094:Generated_Source\PSoC4/Timebase5s.c **** void Timebase5s_SetCaptureMode(uint32 triggerMode)
1095:Generated_Source\PSoC4/Timebase5s.c **** {
 1342              		.loc 1 1095 0
 1343              		.cfi_startproc
 1344 0000 90B5     		push	{r4, r7, lr}
 1345              		.cfi_def_cfa_offset 12
 1346              		.cfi_offset 4, -12
 1347              		.cfi_offset 7, -8
 1348              		.cfi_offset 14, -4
 1349 0002 85B0     		sub	sp, sp, #20
 1350              		.cfi_def_cfa_offset 32
 1351 0004 00AF     		add	r7, sp, #0
 1352              		.cfi_def_cfa_register 7
 1353 0006 7860     		str	r0, [r7, #4]
1096:Generated_Source\PSoC4/Timebase5s.c ****     uint8 enableInterrupts;
1097:Generated_Source\PSoC4/Timebase5s.c **** 
1098:Generated_Source\PSoC4/Timebase5s.c ****     enableInterrupts = CyEnterCriticalSection();
ARM GAS  C:\Users\CHRIST~1\AppData\Local\Temp\ccwDaf54.s 			page 44


 1354              		.loc 1 1098 0
 1355 0008 0F23     		mov	r3, #15
 1356 000a FC18     		add	r4, r7, r3
 1357 000c FFF7FEFF 		bl	CyEnterCriticalSection
 1358 0010 031C     		mov	r3, r0
 1359 0012 2370     		strb	r3, [r4]
1099:Generated_Source\PSoC4/Timebase5s.c **** 
1100:Generated_Source\PSoC4/Timebase5s.c ****     Timebase5s_TRIG_CONTROL1_REG &= (uint32)~Timebase5s_CAPTURE_MASK;
 1360              		.loc 1 1100 0
 1361 0014 0A4B     		ldr	r3, .L94
 1362 0016 0A4A     		ldr	r2, .L94
 1363 0018 1268     		ldr	r2, [r2]
 1364 001a 0321     		mov	r1, #3
 1365 001c 8A43     		bic	r2, r1
 1366 001e 1A60     		str	r2, [r3]
1101:Generated_Source\PSoC4/Timebase5s.c ****     Timebase5s_TRIG_CONTROL1_REG |= triggerMode;
 1367              		.loc 1 1101 0
 1368 0020 074B     		ldr	r3, .L94
 1369 0022 074A     		ldr	r2, .L94
 1370 0024 1168     		ldr	r1, [r2]
 1371 0026 7A68     		ldr	r2, [r7, #4]
 1372 0028 0A43     		orr	r2, r1
 1373 002a 1A60     		str	r2, [r3]
1102:Generated_Source\PSoC4/Timebase5s.c **** 
1103:Generated_Source\PSoC4/Timebase5s.c ****     CyExitCriticalSection(enableInterrupts);
 1374              		.loc 1 1103 0
 1375 002c 0F23     		mov	r3, #15
 1376 002e FB18     		add	r3, r7, r3
 1377 0030 1B78     		ldrb	r3, [r3]
 1378 0032 181C     		mov	r0, r3
 1379 0034 FFF7FEFF 		bl	CyExitCriticalSection
1104:Generated_Source\PSoC4/Timebase5s.c **** }
 1380              		.loc 1 1104 0
 1381 0038 BD46     		mov	sp, r7
 1382 003a 05B0     		add	sp, sp, #20
 1383              		@ sp needed
 1384 003c 90BD     		pop	{r4, r7, pc}
 1385              	.L95:
 1386 003e C046     		.align	2
 1387              	.L94:
 1388 0040 24010140 		.word	1073807652
 1389              		.cfi_endproc
 1390              	.LFE29:
 1391              		.size	Timebase5s_SetCaptureMode, .-Timebase5s_SetCaptureMode
 1392              		.section	.text.Timebase5s_SetReloadMode,"ax",%progbits
 1393              		.align	2
 1394              		.global	Timebase5s_SetReloadMode
 1395              		.code	16
 1396              		.thumb_func
 1397              		.type	Timebase5s_SetReloadMode, %function
 1398              	Timebase5s_SetReloadMode:
 1399              	.LFB30:
1105:Generated_Source\PSoC4/Timebase5s.c **** 
1106:Generated_Source\PSoC4/Timebase5s.c **** 
1107:Generated_Source\PSoC4/Timebase5s.c **** /*******************************************************************************
1108:Generated_Source\PSoC4/Timebase5s.c **** * Function Name: Timebase5s_SetReloadMode
1109:Generated_Source\PSoC4/Timebase5s.c **** ********************************************************************************
ARM GAS  C:\Users\CHRIST~1\AppData\Local\Temp\ccwDaf54.s 			page 45


1110:Generated_Source\PSoC4/Timebase5s.c **** *
1111:Generated_Source\PSoC4/Timebase5s.c **** * Summary:
1112:Generated_Source\PSoC4/Timebase5s.c **** *  Sets the reload trigger mode. For Quadrature Decoder mode this is the index
1113:Generated_Source\PSoC4/Timebase5s.c **** *  input.
1114:Generated_Source\PSoC4/Timebase5s.c **** *
1115:Generated_Source\PSoC4/Timebase5s.c **** * Parameters:
1116:Generated_Source\PSoC4/Timebase5s.c **** *  triggerMode: Enumerated trigger mode value
1117:Generated_Source\PSoC4/Timebase5s.c **** *   Values:
1118:Generated_Source\PSoC4/Timebase5s.c **** *     - Timebase5s_TRIG_LEVEL     - Level
1119:Generated_Source\PSoC4/Timebase5s.c **** *     - Timebase5s_TRIG_RISING    - Rising edge
1120:Generated_Source\PSoC4/Timebase5s.c **** *     - Timebase5s_TRIG_FALLING   - Falling edge
1121:Generated_Source\PSoC4/Timebase5s.c **** *     - Timebase5s_TRIG_BOTH      - Both rising and falling edge
1122:Generated_Source\PSoC4/Timebase5s.c **** *
1123:Generated_Source\PSoC4/Timebase5s.c **** * Return:
1124:Generated_Source\PSoC4/Timebase5s.c **** *  None
1125:Generated_Source\PSoC4/Timebase5s.c **** *
1126:Generated_Source\PSoC4/Timebase5s.c **** *******************************************************************************/
1127:Generated_Source\PSoC4/Timebase5s.c **** void Timebase5s_SetReloadMode(uint32 triggerMode)
1128:Generated_Source\PSoC4/Timebase5s.c **** {
 1400              		.loc 1 1128 0
 1401              		.cfi_startproc
 1402 0000 90B5     		push	{r4, r7, lr}
 1403              		.cfi_def_cfa_offset 12
 1404              		.cfi_offset 4, -12
 1405              		.cfi_offset 7, -8
 1406              		.cfi_offset 14, -4
 1407 0002 85B0     		sub	sp, sp, #20
 1408              		.cfi_def_cfa_offset 32
 1409 0004 00AF     		add	r7, sp, #0
 1410              		.cfi_def_cfa_register 7
 1411 0006 7860     		str	r0, [r7, #4]
1129:Generated_Source\PSoC4/Timebase5s.c ****     uint8 enableInterrupts;
1130:Generated_Source\PSoC4/Timebase5s.c **** 
1131:Generated_Source\PSoC4/Timebase5s.c ****     enableInterrupts = CyEnterCriticalSection();
 1412              		.loc 1 1131 0
 1413 0008 0F23     		mov	r3, #15
 1414 000a FC18     		add	r4, r7, r3
 1415 000c FFF7FEFF 		bl	CyEnterCriticalSection
 1416 0010 031C     		mov	r3, r0
 1417 0012 2370     		strb	r3, [r4]
1132:Generated_Source\PSoC4/Timebase5s.c **** 
1133:Generated_Source\PSoC4/Timebase5s.c ****     Timebase5s_TRIG_CONTROL1_REG &= (uint32)~Timebase5s_RELOAD_MASK;
 1418              		.loc 1 1133 0
 1419 0014 0A4B     		ldr	r3, .L97
 1420 0016 0A4A     		ldr	r2, .L97
 1421 0018 1268     		ldr	r2, [r2]
 1422 001a 3021     		mov	r1, #48
 1423 001c 8A43     		bic	r2, r1
 1424 001e 1A60     		str	r2, [r3]
1134:Generated_Source\PSoC4/Timebase5s.c ****     Timebase5s_TRIG_CONTROL1_REG |= ((uint32)(triggerMode << Timebase5s_RELOAD_SHIFT));
 1425              		.loc 1 1134 0
 1426 0020 074B     		ldr	r3, .L97
 1427 0022 074A     		ldr	r2, .L97
 1428 0024 1168     		ldr	r1, [r2]
 1429 0026 7A68     		ldr	r2, [r7, #4]
 1430 0028 1201     		lsl	r2, r2, #4
 1431 002a 0A43     		orr	r2, r1
ARM GAS  C:\Users\CHRIST~1\AppData\Local\Temp\ccwDaf54.s 			page 46


 1432 002c 1A60     		str	r2, [r3]
1135:Generated_Source\PSoC4/Timebase5s.c **** 
1136:Generated_Source\PSoC4/Timebase5s.c ****     CyExitCriticalSection(enableInterrupts);
 1433              		.loc 1 1136 0
 1434 002e 0F23     		mov	r3, #15
 1435 0030 FB18     		add	r3, r7, r3
 1436 0032 1B78     		ldrb	r3, [r3]
 1437 0034 181C     		mov	r0, r3
 1438 0036 FFF7FEFF 		bl	CyExitCriticalSection
1137:Generated_Source\PSoC4/Timebase5s.c **** }
 1439              		.loc 1 1137 0
 1440 003a BD46     		mov	sp, r7
 1441 003c 05B0     		add	sp, sp, #20
 1442              		@ sp needed
 1443 003e 90BD     		pop	{r4, r7, pc}
 1444              	.L98:
 1445              		.align	2
 1446              	.L97:
 1447 0040 24010140 		.word	1073807652
 1448              		.cfi_endproc
 1449              	.LFE30:
 1450              		.size	Timebase5s_SetReloadMode, .-Timebase5s_SetReloadMode
 1451              		.section	.text.Timebase5s_SetStartMode,"ax",%progbits
 1452              		.align	2
 1453              		.global	Timebase5s_SetStartMode
 1454              		.code	16
 1455              		.thumb_func
 1456              		.type	Timebase5s_SetStartMode, %function
 1457              	Timebase5s_SetStartMode:
 1458              	.LFB31:
1138:Generated_Source\PSoC4/Timebase5s.c **** 
1139:Generated_Source\PSoC4/Timebase5s.c **** 
1140:Generated_Source\PSoC4/Timebase5s.c **** /*******************************************************************************
1141:Generated_Source\PSoC4/Timebase5s.c **** * Function Name: Timebase5s_SetStartMode
1142:Generated_Source\PSoC4/Timebase5s.c **** ********************************************************************************
1143:Generated_Source\PSoC4/Timebase5s.c **** *
1144:Generated_Source\PSoC4/Timebase5s.c **** * Summary:
1145:Generated_Source\PSoC4/Timebase5s.c **** *  Sets the start trigger mode. For Quadrature Decoder mode this is the
1146:Generated_Source\PSoC4/Timebase5s.c **** *  phiB input.
1147:Generated_Source\PSoC4/Timebase5s.c **** *
1148:Generated_Source\PSoC4/Timebase5s.c **** * Parameters:
1149:Generated_Source\PSoC4/Timebase5s.c **** *  triggerMode: Enumerated trigger mode value
1150:Generated_Source\PSoC4/Timebase5s.c **** *   Values:
1151:Generated_Source\PSoC4/Timebase5s.c **** *     - Timebase5s_TRIG_LEVEL     - Level
1152:Generated_Source\PSoC4/Timebase5s.c **** *     - Timebase5s_TRIG_RISING    - Rising edge
1153:Generated_Source\PSoC4/Timebase5s.c **** *     - Timebase5s_TRIG_FALLING   - Falling edge
1154:Generated_Source\PSoC4/Timebase5s.c **** *     - Timebase5s_TRIG_BOTH      - Both rising and falling edge
1155:Generated_Source\PSoC4/Timebase5s.c **** *
1156:Generated_Source\PSoC4/Timebase5s.c **** * Return:
1157:Generated_Source\PSoC4/Timebase5s.c **** *  None
1158:Generated_Source\PSoC4/Timebase5s.c **** *
1159:Generated_Source\PSoC4/Timebase5s.c **** *******************************************************************************/
1160:Generated_Source\PSoC4/Timebase5s.c **** void Timebase5s_SetStartMode(uint32 triggerMode)
1161:Generated_Source\PSoC4/Timebase5s.c **** {
 1459              		.loc 1 1161 0
 1460              		.cfi_startproc
 1461 0000 90B5     		push	{r4, r7, lr}
ARM GAS  C:\Users\CHRIST~1\AppData\Local\Temp\ccwDaf54.s 			page 47


 1462              		.cfi_def_cfa_offset 12
 1463              		.cfi_offset 4, -12
 1464              		.cfi_offset 7, -8
 1465              		.cfi_offset 14, -4
 1466 0002 85B0     		sub	sp, sp, #20
 1467              		.cfi_def_cfa_offset 32
 1468 0004 00AF     		add	r7, sp, #0
 1469              		.cfi_def_cfa_register 7
 1470 0006 7860     		str	r0, [r7, #4]
1162:Generated_Source\PSoC4/Timebase5s.c ****     uint8 enableInterrupts;
1163:Generated_Source\PSoC4/Timebase5s.c **** 
1164:Generated_Source\PSoC4/Timebase5s.c ****     enableInterrupts = CyEnterCriticalSection();
 1471              		.loc 1 1164 0
 1472 0008 0F23     		mov	r3, #15
 1473 000a FC18     		add	r4, r7, r3
 1474 000c FFF7FEFF 		bl	CyEnterCriticalSection
 1475 0010 031C     		mov	r3, r0
 1476 0012 2370     		strb	r3, [r4]
1165:Generated_Source\PSoC4/Timebase5s.c **** 
1166:Generated_Source\PSoC4/Timebase5s.c ****     Timebase5s_TRIG_CONTROL1_REG &= (uint32)~Timebase5s_START_MASK;
 1477              		.loc 1 1166 0
 1478 0014 0A4B     		ldr	r3, .L100
 1479 0016 0A4A     		ldr	r2, .L100
 1480 0018 1268     		ldr	r2, [r2]
 1481 001a 0A49     		ldr	r1, .L100+4
 1482 001c 0A40     		and	r2, r1
 1483 001e 1A60     		str	r2, [r3]
1167:Generated_Source\PSoC4/Timebase5s.c ****     Timebase5s_TRIG_CONTROL1_REG |= ((uint32)(triggerMode << Timebase5s_START_SHIFT));
 1484              		.loc 1 1167 0
 1485 0020 074B     		ldr	r3, .L100
 1486 0022 074A     		ldr	r2, .L100
 1487 0024 1168     		ldr	r1, [r2]
 1488 0026 7A68     		ldr	r2, [r7, #4]
 1489 0028 1202     		lsl	r2, r2, #8
 1490 002a 0A43     		orr	r2, r1
 1491 002c 1A60     		str	r2, [r3]
1168:Generated_Source\PSoC4/Timebase5s.c **** 
1169:Generated_Source\PSoC4/Timebase5s.c ****     CyExitCriticalSection(enableInterrupts);
 1492              		.loc 1 1169 0
 1493 002e 0F23     		mov	r3, #15
 1494 0030 FB18     		add	r3, r7, r3
 1495 0032 1B78     		ldrb	r3, [r3]
 1496 0034 181C     		mov	r0, r3
 1497 0036 FFF7FEFF 		bl	CyExitCriticalSection
1170:Generated_Source\PSoC4/Timebase5s.c **** }
 1498              		.loc 1 1170 0
 1499 003a BD46     		mov	sp, r7
 1500 003c 05B0     		add	sp, sp, #20
 1501              		@ sp needed
 1502 003e 90BD     		pop	{r4, r7, pc}
 1503              	.L101:
 1504              		.align	2
 1505              	.L100:
 1506 0040 24010140 		.word	1073807652
 1507 0044 FFFCFFFF 		.word	-769
 1508              		.cfi_endproc
 1509              	.LFE31:
ARM GAS  C:\Users\CHRIST~1\AppData\Local\Temp\ccwDaf54.s 			page 48


 1510              		.size	Timebase5s_SetStartMode, .-Timebase5s_SetStartMode
 1511              		.section	.text.Timebase5s_SetStopMode,"ax",%progbits
 1512              		.align	2
 1513              		.global	Timebase5s_SetStopMode
 1514              		.code	16
 1515              		.thumb_func
 1516              		.type	Timebase5s_SetStopMode, %function
 1517              	Timebase5s_SetStopMode:
 1518              	.LFB32:
1171:Generated_Source\PSoC4/Timebase5s.c **** 
1172:Generated_Source\PSoC4/Timebase5s.c **** 
1173:Generated_Source\PSoC4/Timebase5s.c **** /*******************************************************************************
1174:Generated_Source\PSoC4/Timebase5s.c **** * Function Name: Timebase5s_SetStopMode
1175:Generated_Source\PSoC4/Timebase5s.c **** ********************************************************************************
1176:Generated_Source\PSoC4/Timebase5s.c **** *
1177:Generated_Source\PSoC4/Timebase5s.c **** * Summary:
1178:Generated_Source\PSoC4/Timebase5s.c **** *  Sets the stop trigger mode. For PWM mode this is the kill input.
1179:Generated_Source\PSoC4/Timebase5s.c **** *
1180:Generated_Source\PSoC4/Timebase5s.c **** * Parameters:
1181:Generated_Source\PSoC4/Timebase5s.c **** *  triggerMode: Enumerated trigger mode value
1182:Generated_Source\PSoC4/Timebase5s.c **** *   Values:
1183:Generated_Source\PSoC4/Timebase5s.c **** *     - Timebase5s_TRIG_LEVEL     - Level
1184:Generated_Source\PSoC4/Timebase5s.c **** *     - Timebase5s_TRIG_RISING    - Rising edge
1185:Generated_Source\PSoC4/Timebase5s.c **** *     - Timebase5s_TRIG_FALLING   - Falling edge
1186:Generated_Source\PSoC4/Timebase5s.c **** *     - Timebase5s_TRIG_BOTH      - Both rising and falling edge
1187:Generated_Source\PSoC4/Timebase5s.c **** *
1188:Generated_Source\PSoC4/Timebase5s.c **** * Return:
1189:Generated_Source\PSoC4/Timebase5s.c **** *  None
1190:Generated_Source\PSoC4/Timebase5s.c **** *
1191:Generated_Source\PSoC4/Timebase5s.c **** *******************************************************************************/
1192:Generated_Source\PSoC4/Timebase5s.c **** void Timebase5s_SetStopMode(uint32 triggerMode)
1193:Generated_Source\PSoC4/Timebase5s.c **** {
 1519              		.loc 1 1193 0
 1520              		.cfi_startproc
 1521 0000 90B5     		push	{r4, r7, lr}
 1522              		.cfi_def_cfa_offset 12
 1523              		.cfi_offset 4, -12
 1524              		.cfi_offset 7, -8
 1525              		.cfi_offset 14, -4
 1526 0002 85B0     		sub	sp, sp, #20
 1527              		.cfi_def_cfa_offset 32
 1528 0004 00AF     		add	r7, sp, #0
 1529              		.cfi_def_cfa_register 7
 1530 0006 7860     		str	r0, [r7, #4]
1194:Generated_Source\PSoC4/Timebase5s.c ****     uint8 enableInterrupts;
1195:Generated_Source\PSoC4/Timebase5s.c **** 
1196:Generated_Source\PSoC4/Timebase5s.c ****     enableInterrupts = CyEnterCriticalSection();
 1531              		.loc 1 1196 0
 1532 0008 0F23     		mov	r3, #15
 1533 000a FC18     		add	r4, r7, r3
 1534 000c FFF7FEFF 		bl	CyEnterCriticalSection
 1535 0010 031C     		mov	r3, r0
 1536 0012 2370     		strb	r3, [r4]
1197:Generated_Source\PSoC4/Timebase5s.c **** 
1198:Generated_Source\PSoC4/Timebase5s.c ****     Timebase5s_TRIG_CONTROL1_REG &= (uint32)~Timebase5s_STOP_MASK;
 1537              		.loc 1 1198 0
 1538 0014 0A4B     		ldr	r3, .L103
ARM GAS  C:\Users\CHRIST~1\AppData\Local\Temp\ccwDaf54.s 			page 49


 1539 0016 0A4A     		ldr	r2, .L103
 1540 0018 1268     		ldr	r2, [r2]
 1541 001a C021     		mov	r1, #192
 1542 001c 8A43     		bic	r2, r1
 1543 001e 1A60     		str	r2, [r3]
1199:Generated_Source\PSoC4/Timebase5s.c ****     Timebase5s_TRIG_CONTROL1_REG |= ((uint32)(triggerMode << Timebase5s_STOP_SHIFT));
 1544              		.loc 1 1199 0
 1545 0020 074B     		ldr	r3, .L103
 1546 0022 074A     		ldr	r2, .L103
 1547 0024 1168     		ldr	r1, [r2]
 1548 0026 7A68     		ldr	r2, [r7, #4]
 1549 0028 9201     		lsl	r2, r2, #6
 1550 002a 0A43     		orr	r2, r1
 1551 002c 1A60     		str	r2, [r3]
1200:Generated_Source\PSoC4/Timebase5s.c **** 
1201:Generated_Source\PSoC4/Timebase5s.c ****     CyExitCriticalSection(enableInterrupts);
 1552              		.loc 1 1201 0
 1553 002e 0F23     		mov	r3, #15
 1554 0030 FB18     		add	r3, r7, r3
 1555 0032 1B78     		ldrb	r3, [r3]
 1556 0034 181C     		mov	r0, r3
 1557 0036 FFF7FEFF 		bl	CyExitCriticalSection
1202:Generated_Source\PSoC4/Timebase5s.c **** }
 1558              		.loc 1 1202 0
 1559 003a BD46     		mov	sp, r7
 1560 003c 05B0     		add	sp, sp, #20
 1561              		@ sp needed
 1562 003e 90BD     		pop	{r4, r7, pc}
 1563              	.L104:
 1564              		.align	2
 1565              	.L103:
 1566 0040 24010140 		.word	1073807652
 1567              		.cfi_endproc
 1568              	.LFE32:
 1569              		.size	Timebase5s_SetStopMode, .-Timebase5s_SetStopMode
 1570              		.section	.text.Timebase5s_SetCountMode,"ax",%progbits
 1571              		.align	2
 1572              		.global	Timebase5s_SetCountMode
 1573              		.code	16
 1574              		.thumb_func
 1575              		.type	Timebase5s_SetCountMode, %function
 1576              	Timebase5s_SetCountMode:
 1577              	.LFB33:
1203:Generated_Source\PSoC4/Timebase5s.c **** 
1204:Generated_Source\PSoC4/Timebase5s.c **** 
1205:Generated_Source\PSoC4/Timebase5s.c **** /*******************************************************************************
1206:Generated_Source\PSoC4/Timebase5s.c **** * Function Name: Timebase5s_SetCountMode
1207:Generated_Source\PSoC4/Timebase5s.c **** ********************************************************************************
1208:Generated_Source\PSoC4/Timebase5s.c **** *
1209:Generated_Source\PSoC4/Timebase5s.c **** * Summary:
1210:Generated_Source\PSoC4/Timebase5s.c **** *  Sets the count trigger mode. For Quadrature Decoder mode this is the phiA
1211:Generated_Source\PSoC4/Timebase5s.c **** *  input.
1212:Generated_Source\PSoC4/Timebase5s.c **** *
1213:Generated_Source\PSoC4/Timebase5s.c **** * Parameters:
1214:Generated_Source\PSoC4/Timebase5s.c **** *  triggerMode: Enumerated trigger mode value
1215:Generated_Source\PSoC4/Timebase5s.c **** *   Values:
1216:Generated_Source\PSoC4/Timebase5s.c **** *     - Timebase5s_TRIG_LEVEL     - Level
ARM GAS  C:\Users\CHRIST~1\AppData\Local\Temp\ccwDaf54.s 			page 50


1217:Generated_Source\PSoC4/Timebase5s.c **** *     - Timebase5s_TRIG_RISING    - Rising edge
1218:Generated_Source\PSoC4/Timebase5s.c **** *     - Timebase5s_TRIG_FALLING   - Falling edge
1219:Generated_Source\PSoC4/Timebase5s.c **** *     - Timebase5s_TRIG_BOTH      - Both rising and falling edge
1220:Generated_Source\PSoC4/Timebase5s.c **** *
1221:Generated_Source\PSoC4/Timebase5s.c **** * Return:
1222:Generated_Source\PSoC4/Timebase5s.c **** *  None
1223:Generated_Source\PSoC4/Timebase5s.c **** *
1224:Generated_Source\PSoC4/Timebase5s.c **** *******************************************************************************/
1225:Generated_Source\PSoC4/Timebase5s.c **** void Timebase5s_SetCountMode(uint32 triggerMode)
1226:Generated_Source\PSoC4/Timebase5s.c **** {
 1578              		.loc 1 1226 0
 1579              		.cfi_startproc
 1580 0000 90B5     		push	{r4, r7, lr}
 1581              		.cfi_def_cfa_offset 12
 1582              		.cfi_offset 4, -12
 1583              		.cfi_offset 7, -8
 1584              		.cfi_offset 14, -4
 1585 0002 85B0     		sub	sp, sp, #20
 1586              		.cfi_def_cfa_offset 32
 1587 0004 00AF     		add	r7, sp, #0
 1588              		.cfi_def_cfa_register 7
 1589 0006 7860     		str	r0, [r7, #4]
1227:Generated_Source\PSoC4/Timebase5s.c ****     uint8 enableInterrupts;
1228:Generated_Source\PSoC4/Timebase5s.c **** 
1229:Generated_Source\PSoC4/Timebase5s.c ****     enableInterrupts = CyEnterCriticalSection();
 1590              		.loc 1 1229 0
 1591 0008 0F23     		mov	r3, #15
 1592 000a FC18     		add	r4, r7, r3
 1593 000c FFF7FEFF 		bl	CyEnterCriticalSection
 1594 0010 031C     		mov	r3, r0
 1595 0012 2370     		strb	r3, [r4]
1230:Generated_Source\PSoC4/Timebase5s.c **** 
1231:Generated_Source\PSoC4/Timebase5s.c ****     Timebase5s_TRIG_CONTROL1_REG &= (uint32)~Timebase5s_COUNT_MASK;
 1596              		.loc 1 1231 0
 1597 0014 0A4B     		ldr	r3, .L106
 1598 0016 0A4A     		ldr	r2, .L106
 1599 0018 1268     		ldr	r2, [r2]
 1600 001a 0C21     		mov	r1, #12
 1601 001c 8A43     		bic	r2, r1
 1602 001e 1A60     		str	r2, [r3]
1232:Generated_Source\PSoC4/Timebase5s.c ****     Timebase5s_TRIG_CONTROL1_REG |= ((uint32)(triggerMode << Timebase5s_COUNT_SHIFT));
 1603              		.loc 1 1232 0
 1604 0020 074B     		ldr	r3, .L106
 1605 0022 074A     		ldr	r2, .L106
 1606 0024 1168     		ldr	r1, [r2]
 1607 0026 7A68     		ldr	r2, [r7, #4]
 1608 0028 9200     		lsl	r2, r2, #2
 1609 002a 0A43     		orr	r2, r1
 1610 002c 1A60     		str	r2, [r3]
1233:Generated_Source\PSoC4/Timebase5s.c **** 
1234:Generated_Source\PSoC4/Timebase5s.c ****     CyExitCriticalSection(enableInterrupts);
 1611              		.loc 1 1234 0
 1612 002e 0F23     		mov	r3, #15
 1613 0030 FB18     		add	r3, r7, r3
 1614 0032 1B78     		ldrb	r3, [r3]
 1615 0034 181C     		mov	r0, r3
 1616 0036 FFF7FEFF 		bl	CyExitCriticalSection
ARM GAS  C:\Users\CHRIST~1\AppData\Local\Temp\ccwDaf54.s 			page 51


1235:Generated_Source\PSoC4/Timebase5s.c **** }
 1617              		.loc 1 1235 0
 1618 003a BD46     		mov	sp, r7
 1619 003c 05B0     		add	sp, sp, #20
 1620              		@ sp needed
 1621 003e 90BD     		pop	{r4, r7, pc}
 1622              	.L107:
 1623              		.align	2
 1624              	.L106:
 1625 0040 24010140 		.word	1073807652
 1626              		.cfi_endproc
 1627              	.LFE33:
 1628              		.size	Timebase5s_SetCountMode, .-Timebase5s_SetCountMode
 1629              		.section	.text.Timebase5s_TriggerCommand,"ax",%progbits
 1630              		.align	2
 1631              		.global	Timebase5s_TriggerCommand
 1632              		.code	16
 1633              		.thumb_func
 1634              		.type	Timebase5s_TriggerCommand, %function
 1635              	Timebase5s_TriggerCommand:
 1636              	.LFB34:
1236:Generated_Source\PSoC4/Timebase5s.c **** 
1237:Generated_Source\PSoC4/Timebase5s.c **** 
1238:Generated_Source\PSoC4/Timebase5s.c **** /*******************************************************************************
1239:Generated_Source\PSoC4/Timebase5s.c **** * Function Name: Timebase5s_TriggerCommand
1240:Generated_Source\PSoC4/Timebase5s.c **** ********************************************************************************
1241:Generated_Source\PSoC4/Timebase5s.c **** *
1242:Generated_Source\PSoC4/Timebase5s.c **** * Summary:
1243:Generated_Source\PSoC4/Timebase5s.c **** *  Triggers the designated command to occur on the designated TCPWM instances.
1244:Generated_Source\PSoC4/Timebase5s.c **** *  The mask can be used to apply this command simultaneously to more than one
1245:Generated_Source\PSoC4/Timebase5s.c **** *  instance.  This allows multiple TCPWM instances to be synchronized.
1246:Generated_Source\PSoC4/Timebase5s.c **** *
1247:Generated_Source\PSoC4/Timebase5s.c **** * Parameters:
1248:Generated_Source\PSoC4/Timebase5s.c **** *  mask: A combination of mask bits for each instance of the TCPWM that the
1249:Generated_Source\PSoC4/Timebase5s.c **** *        command should apply to.  This function from one instance can be used
1250:Generated_Source\PSoC4/Timebase5s.c **** *        to apply the command to any of the instances in the design.
1251:Generated_Source\PSoC4/Timebase5s.c **** *        The mask value for a specific instance is available with the MASK
1252:Generated_Source\PSoC4/Timebase5s.c **** *        define.
1253:Generated_Source\PSoC4/Timebase5s.c **** *  command: Enumerated command values. Capture command only applicable for
1254:Generated_Source\PSoC4/Timebase5s.c **** *           Timer/Counter with Capture and PWM modes.
1255:Generated_Source\PSoC4/Timebase5s.c **** *   Values:
1256:Generated_Source\PSoC4/Timebase5s.c **** *     - Timebase5s_CMD_CAPTURE    - Trigger Capture/Switch command
1257:Generated_Source\PSoC4/Timebase5s.c **** *     - Timebase5s_CMD_RELOAD     - Trigger Reload/Index command
1258:Generated_Source\PSoC4/Timebase5s.c **** *     - Timebase5s_CMD_STOP       - Trigger Stop/Kill command
1259:Generated_Source\PSoC4/Timebase5s.c **** *     - Timebase5s_CMD_START      - Trigger Start/phiB command
1260:Generated_Source\PSoC4/Timebase5s.c **** *
1261:Generated_Source\PSoC4/Timebase5s.c **** * Return:
1262:Generated_Source\PSoC4/Timebase5s.c **** *  None
1263:Generated_Source\PSoC4/Timebase5s.c **** *
1264:Generated_Source\PSoC4/Timebase5s.c **** *******************************************************************************/
1265:Generated_Source\PSoC4/Timebase5s.c **** void Timebase5s_TriggerCommand(uint32 mask, uint32 command)
1266:Generated_Source\PSoC4/Timebase5s.c **** {
 1637              		.loc 1 1266 0
 1638              		.cfi_startproc
 1639 0000 90B5     		push	{r4, r7, lr}
 1640              		.cfi_def_cfa_offset 12
 1641              		.cfi_offset 4, -12
ARM GAS  C:\Users\CHRIST~1\AppData\Local\Temp\ccwDaf54.s 			page 52


 1642              		.cfi_offset 7, -8
 1643              		.cfi_offset 14, -4
 1644 0002 85B0     		sub	sp, sp, #20
 1645              		.cfi_def_cfa_offset 32
 1646 0004 00AF     		add	r7, sp, #0
 1647              		.cfi_def_cfa_register 7
 1648 0006 7860     		str	r0, [r7, #4]
 1649 0008 3960     		str	r1, [r7]
1267:Generated_Source\PSoC4/Timebase5s.c ****     uint8 enableInterrupts;
1268:Generated_Source\PSoC4/Timebase5s.c **** 
1269:Generated_Source\PSoC4/Timebase5s.c ****     enableInterrupts = CyEnterCriticalSection();
 1650              		.loc 1 1269 0
 1651 000a 0F23     		mov	r3, #15
 1652 000c FC18     		add	r4, r7, r3
 1653 000e FFF7FEFF 		bl	CyEnterCriticalSection
 1654 0012 031C     		mov	r3, r0
 1655 0014 2370     		strb	r3, [r4]
1270:Generated_Source\PSoC4/Timebase5s.c **** 
1271:Generated_Source\PSoC4/Timebase5s.c ****     Timebase5s_COMMAND_REG = ((uint32)(mask << command));
 1656              		.loc 1 1271 0
 1657 0016 074B     		ldr	r3, .L109
 1658 0018 3A68     		ldr	r2, [r7]
 1659 001a 7968     		ldr	r1, [r7, #4]
 1660 001c 9140     		lsl	r1, r1, r2
 1661 001e 0A1C     		mov	r2, r1
 1662 0020 1A60     		str	r2, [r3]
1272:Generated_Source\PSoC4/Timebase5s.c **** 
1273:Generated_Source\PSoC4/Timebase5s.c ****     CyExitCriticalSection(enableInterrupts);
 1663              		.loc 1 1273 0
 1664 0022 0F23     		mov	r3, #15
 1665 0024 FB18     		add	r3, r7, r3
 1666 0026 1B78     		ldrb	r3, [r3]
 1667 0028 181C     		mov	r0, r3
 1668 002a FFF7FEFF 		bl	CyExitCriticalSection
1274:Generated_Source\PSoC4/Timebase5s.c **** }
 1669              		.loc 1 1274 0
 1670 002e BD46     		mov	sp, r7
 1671 0030 05B0     		add	sp, sp, #20
 1672              		@ sp needed
 1673 0032 90BD     		pop	{r4, r7, pc}
 1674              	.L110:
 1675              		.align	2
 1676              	.L109:
 1677 0034 08000140 		.word	1073807368
 1678              		.cfi_endproc
 1679              	.LFE34:
 1680              		.size	Timebase5s_TriggerCommand, .-Timebase5s_TriggerCommand
 1681              		.section	.text.Timebase5s_ReadStatus,"ax",%progbits
 1682              		.align	2
 1683              		.global	Timebase5s_ReadStatus
 1684              		.code	16
 1685              		.thumb_func
 1686              		.type	Timebase5s_ReadStatus, %function
 1687              	Timebase5s_ReadStatus:
 1688              	.LFB35:
1275:Generated_Source\PSoC4/Timebase5s.c **** 
1276:Generated_Source\PSoC4/Timebase5s.c **** 
ARM GAS  C:\Users\CHRIST~1\AppData\Local\Temp\ccwDaf54.s 			page 53


1277:Generated_Source\PSoC4/Timebase5s.c **** /*******************************************************************************
1278:Generated_Source\PSoC4/Timebase5s.c **** * Function Name: Timebase5s_ReadStatus
1279:Generated_Source\PSoC4/Timebase5s.c **** ********************************************************************************
1280:Generated_Source\PSoC4/Timebase5s.c **** *
1281:Generated_Source\PSoC4/Timebase5s.c **** * Summary:
1282:Generated_Source\PSoC4/Timebase5s.c **** *  Reads the status of the Timebase5s.
1283:Generated_Source\PSoC4/Timebase5s.c **** *
1284:Generated_Source\PSoC4/Timebase5s.c **** * Parameters:
1285:Generated_Source\PSoC4/Timebase5s.c **** *  None
1286:Generated_Source\PSoC4/Timebase5s.c **** *
1287:Generated_Source\PSoC4/Timebase5s.c **** * Return:
1288:Generated_Source\PSoC4/Timebase5s.c **** *  Status
1289:Generated_Source\PSoC4/Timebase5s.c **** *   Values:
1290:Generated_Source\PSoC4/Timebase5s.c **** *     - Timebase5s_STATUS_DOWN    - Set if counting down
1291:Generated_Source\PSoC4/Timebase5s.c **** *     - Timebase5s_STATUS_RUNNING - Set if counter is running
1292:Generated_Source\PSoC4/Timebase5s.c **** *
1293:Generated_Source\PSoC4/Timebase5s.c **** *******************************************************************************/
1294:Generated_Source\PSoC4/Timebase5s.c **** uint32 Timebase5s_ReadStatus(void)
1295:Generated_Source\PSoC4/Timebase5s.c **** {
 1689              		.loc 1 1295 0
 1690              		.cfi_startproc
 1691 0000 80B5     		push	{r7, lr}
 1692              		.cfi_def_cfa_offset 8
 1693              		.cfi_offset 7, -8
 1694              		.cfi_offset 14, -4
 1695 0002 00AF     		add	r7, sp, #0
 1696              		.cfi_def_cfa_register 7
1296:Generated_Source\PSoC4/Timebase5s.c ****     return ((Timebase5s_STATUS_REG >> Timebase5s_RUNNING_STATUS_SHIFT) |
 1697              		.loc 1 1296 0
 1698 0004 054B     		ldr	r3, .L113
 1699 0006 1B68     		ldr	r3, [r3]
 1700 0008 9A0F     		lsr	r2, r3, #30
1297:Generated_Source\PSoC4/Timebase5s.c ****             (Timebase5s_STATUS_REG & Timebase5s_STATUS_DOWN));
 1701              		.loc 1 1297 0
 1702 000a 044B     		ldr	r3, .L113
 1703 000c 1B68     		ldr	r3, [r3]
 1704 000e 0121     		mov	r1, #1
 1705 0010 0B40     		and	r3, r1
1296:Generated_Source\PSoC4/Timebase5s.c ****     return ((Timebase5s_STATUS_REG >> Timebase5s_RUNNING_STATUS_SHIFT) |
 1706              		.loc 1 1296 0
 1707 0012 1343     		orr	r3, r2
1298:Generated_Source\PSoC4/Timebase5s.c **** }
 1708              		.loc 1 1298 0
 1709 0014 181C     		mov	r0, r3
 1710 0016 BD46     		mov	sp, r7
 1711              		@ sp needed
 1712 0018 80BD     		pop	{r7, pc}
 1713              	.L114:
 1714 001a C046     		.align	2
 1715              	.L113:
 1716 001c 04010140 		.word	1073807620
 1717              		.cfi_endproc
 1718              	.LFE35:
 1719              		.size	Timebase5s_ReadStatus, .-Timebase5s_ReadStatus
 1720              		.section	.text.Timebase5s_SetInterruptMode,"ax",%progbits
 1721              		.align	2
 1722              		.global	Timebase5s_SetInterruptMode
ARM GAS  C:\Users\CHRIST~1\AppData\Local\Temp\ccwDaf54.s 			page 54


 1723              		.code	16
 1724              		.thumb_func
 1725              		.type	Timebase5s_SetInterruptMode, %function
 1726              	Timebase5s_SetInterruptMode:
 1727              	.LFB36:
1299:Generated_Source\PSoC4/Timebase5s.c **** 
1300:Generated_Source\PSoC4/Timebase5s.c **** 
1301:Generated_Source\PSoC4/Timebase5s.c **** /*******************************************************************************
1302:Generated_Source\PSoC4/Timebase5s.c **** * Function Name: Timebase5s_SetInterruptMode
1303:Generated_Source\PSoC4/Timebase5s.c **** ********************************************************************************
1304:Generated_Source\PSoC4/Timebase5s.c **** *
1305:Generated_Source\PSoC4/Timebase5s.c **** * Summary:
1306:Generated_Source\PSoC4/Timebase5s.c **** *  Sets the interrupt mask to control which interrupt
1307:Generated_Source\PSoC4/Timebase5s.c **** *  requests generate the interrupt signal.
1308:Generated_Source\PSoC4/Timebase5s.c **** *
1309:Generated_Source\PSoC4/Timebase5s.c **** * Parameters:
1310:Generated_Source\PSoC4/Timebase5s.c **** *   interruptMask: Mask of bits to be enabled
1311:Generated_Source\PSoC4/Timebase5s.c **** *   Values:
1312:Generated_Source\PSoC4/Timebase5s.c **** *     - Timebase5s_INTR_MASK_TC       - Terminal count mask
1313:Generated_Source\PSoC4/Timebase5s.c **** *     - Timebase5s_INTR_MASK_CC_MATCH - Compare count / capture mask
1314:Generated_Source\PSoC4/Timebase5s.c **** *
1315:Generated_Source\PSoC4/Timebase5s.c **** * Return:
1316:Generated_Source\PSoC4/Timebase5s.c **** *  None
1317:Generated_Source\PSoC4/Timebase5s.c **** *
1318:Generated_Source\PSoC4/Timebase5s.c **** *******************************************************************************/
1319:Generated_Source\PSoC4/Timebase5s.c **** void Timebase5s_SetInterruptMode(uint32 interruptMask)
1320:Generated_Source\PSoC4/Timebase5s.c **** {
 1728              		.loc 1 1320 0
 1729              		.cfi_startproc
 1730 0000 80B5     		push	{r7, lr}
 1731              		.cfi_def_cfa_offset 8
 1732              		.cfi_offset 7, -8
 1733              		.cfi_offset 14, -4
 1734 0002 82B0     		sub	sp, sp, #8
 1735              		.cfi_def_cfa_offset 16
 1736 0004 00AF     		add	r7, sp, #0
 1737              		.cfi_def_cfa_register 7
 1738 0006 7860     		str	r0, [r7, #4]
1321:Generated_Source\PSoC4/Timebase5s.c ****     Timebase5s_INTERRUPT_MASK_REG =  interruptMask;
 1739              		.loc 1 1321 0
 1740 0008 024B     		ldr	r3, .L116
 1741 000a 7A68     		ldr	r2, [r7, #4]
 1742 000c 1A60     		str	r2, [r3]
1322:Generated_Source\PSoC4/Timebase5s.c **** }
 1743              		.loc 1 1322 0
 1744 000e BD46     		mov	sp, r7
 1745 0010 02B0     		add	sp, sp, #8
 1746              		@ sp needed
 1747 0012 80BD     		pop	{r7, pc}
 1748              	.L117:
 1749              		.align	2
 1750              	.L116:
 1751 0014 38010140 		.word	1073807672
 1752              		.cfi_endproc
 1753              	.LFE36:
 1754              		.size	Timebase5s_SetInterruptMode, .-Timebase5s_SetInterruptMode
 1755              		.section	.text.Timebase5s_GetInterruptSourceMasked,"ax",%progbits
ARM GAS  C:\Users\CHRIST~1\AppData\Local\Temp\ccwDaf54.s 			page 55


 1756              		.align	2
 1757              		.global	Timebase5s_GetInterruptSourceMasked
 1758              		.code	16
 1759              		.thumb_func
 1760              		.type	Timebase5s_GetInterruptSourceMasked, %function
 1761              	Timebase5s_GetInterruptSourceMasked:
 1762              	.LFB37:
1323:Generated_Source\PSoC4/Timebase5s.c **** 
1324:Generated_Source\PSoC4/Timebase5s.c **** 
1325:Generated_Source\PSoC4/Timebase5s.c **** /*******************************************************************************
1326:Generated_Source\PSoC4/Timebase5s.c **** * Function Name: Timebase5s_GetInterruptSourceMasked
1327:Generated_Source\PSoC4/Timebase5s.c **** ********************************************************************************
1328:Generated_Source\PSoC4/Timebase5s.c **** *
1329:Generated_Source\PSoC4/Timebase5s.c **** * Summary:
1330:Generated_Source\PSoC4/Timebase5s.c **** *  Gets the interrupt requests masked by the interrupt mask.
1331:Generated_Source\PSoC4/Timebase5s.c **** *
1332:Generated_Source\PSoC4/Timebase5s.c **** * Parameters:
1333:Generated_Source\PSoC4/Timebase5s.c **** *   None
1334:Generated_Source\PSoC4/Timebase5s.c **** *
1335:Generated_Source\PSoC4/Timebase5s.c **** * Return:
1336:Generated_Source\PSoC4/Timebase5s.c **** *  Masked interrupt source
1337:Generated_Source\PSoC4/Timebase5s.c **** *   Values:
1338:Generated_Source\PSoC4/Timebase5s.c **** *     - Timebase5s_INTR_MASK_TC       - Terminal count mask
1339:Generated_Source\PSoC4/Timebase5s.c **** *     - Timebase5s_INTR_MASK_CC_MATCH - Compare count / capture mask
1340:Generated_Source\PSoC4/Timebase5s.c **** *
1341:Generated_Source\PSoC4/Timebase5s.c **** *******************************************************************************/
1342:Generated_Source\PSoC4/Timebase5s.c **** uint32 Timebase5s_GetInterruptSourceMasked(void)
1343:Generated_Source\PSoC4/Timebase5s.c **** {
 1763              		.loc 1 1343 0
 1764              		.cfi_startproc
 1765 0000 80B5     		push	{r7, lr}
 1766              		.cfi_def_cfa_offset 8
 1767              		.cfi_offset 7, -8
 1768              		.cfi_offset 14, -4
 1769 0002 00AF     		add	r7, sp, #0
 1770              		.cfi_def_cfa_register 7
1344:Generated_Source\PSoC4/Timebase5s.c ****     return (Timebase5s_INTERRUPT_MASKED_REG);
 1771              		.loc 1 1344 0
 1772 0004 024B     		ldr	r3, .L120
 1773 0006 1B68     		ldr	r3, [r3]
1345:Generated_Source\PSoC4/Timebase5s.c **** }
 1774              		.loc 1 1345 0
 1775 0008 181C     		mov	r0, r3
 1776 000a BD46     		mov	sp, r7
 1777              		@ sp needed
 1778 000c 80BD     		pop	{r7, pc}
 1779              	.L121:
 1780 000e C046     		.align	2
 1781              	.L120:
 1782 0010 3C010140 		.word	1073807676
 1783              		.cfi_endproc
 1784              	.LFE37:
 1785              		.size	Timebase5s_GetInterruptSourceMasked, .-Timebase5s_GetInterruptSourceMasked
 1786              		.section	.text.Timebase5s_GetInterruptSource,"ax",%progbits
 1787              		.align	2
 1788              		.global	Timebase5s_GetInterruptSource
 1789              		.code	16
ARM GAS  C:\Users\CHRIST~1\AppData\Local\Temp\ccwDaf54.s 			page 56


 1790              		.thumb_func
 1791              		.type	Timebase5s_GetInterruptSource, %function
 1792              	Timebase5s_GetInterruptSource:
 1793              	.LFB38:
1346:Generated_Source\PSoC4/Timebase5s.c **** 
1347:Generated_Source\PSoC4/Timebase5s.c **** 
1348:Generated_Source\PSoC4/Timebase5s.c **** /*******************************************************************************
1349:Generated_Source\PSoC4/Timebase5s.c **** * Function Name: Timebase5s_GetInterruptSource
1350:Generated_Source\PSoC4/Timebase5s.c **** ********************************************************************************
1351:Generated_Source\PSoC4/Timebase5s.c **** *
1352:Generated_Source\PSoC4/Timebase5s.c **** * Summary:
1353:Generated_Source\PSoC4/Timebase5s.c **** *  Gets the interrupt requests (without masking).
1354:Generated_Source\PSoC4/Timebase5s.c **** *
1355:Generated_Source\PSoC4/Timebase5s.c **** * Parameters:
1356:Generated_Source\PSoC4/Timebase5s.c **** *  None
1357:Generated_Source\PSoC4/Timebase5s.c **** *
1358:Generated_Source\PSoC4/Timebase5s.c **** * Return:
1359:Generated_Source\PSoC4/Timebase5s.c **** *  Interrupt request value
1360:Generated_Source\PSoC4/Timebase5s.c **** *   Values:
1361:Generated_Source\PSoC4/Timebase5s.c **** *     - Timebase5s_INTR_MASK_TC       - Terminal count mask
1362:Generated_Source\PSoC4/Timebase5s.c **** *     - Timebase5s_INTR_MASK_CC_MATCH - Compare count / capture mask
1363:Generated_Source\PSoC4/Timebase5s.c **** *
1364:Generated_Source\PSoC4/Timebase5s.c **** *******************************************************************************/
1365:Generated_Source\PSoC4/Timebase5s.c **** uint32 Timebase5s_GetInterruptSource(void)
1366:Generated_Source\PSoC4/Timebase5s.c **** {
 1794              		.loc 1 1366 0
 1795              		.cfi_startproc
 1796 0000 80B5     		push	{r7, lr}
 1797              		.cfi_def_cfa_offset 8
 1798              		.cfi_offset 7, -8
 1799              		.cfi_offset 14, -4
 1800 0002 00AF     		add	r7, sp, #0
 1801              		.cfi_def_cfa_register 7
1367:Generated_Source\PSoC4/Timebase5s.c ****     return (Timebase5s_INTERRUPT_REQ_REG);
 1802              		.loc 1 1367 0
 1803 0004 024B     		ldr	r3, .L124
 1804 0006 1B68     		ldr	r3, [r3]
1368:Generated_Source\PSoC4/Timebase5s.c **** }
 1805              		.loc 1 1368 0
 1806 0008 181C     		mov	r0, r3
 1807 000a BD46     		mov	sp, r7
 1808              		@ sp needed
 1809 000c 80BD     		pop	{r7, pc}
 1810              	.L125:
 1811 000e C046     		.align	2
 1812              	.L124:
 1813 0010 30010140 		.word	1073807664
 1814              		.cfi_endproc
 1815              	.LFE38:
 1816              		.size	Timebase5s_GetInterruptSource, .-Timebase5s_GetInterruptSource
 1817              		.section	.text.Timebase5s_ClearInterrupt,"ax",%progbits
 1818              		.align	2
 1819              		.global	Timebase5s_ClearInterrupt
 1820              		.code	16
 1821              		.thumb_func
 1822              		.type	Timebase5s_ClearInterrupt, %function
 1823              	Timebase5s_ClearInterrupt:
ARM GAS  C:\Users\CHRIST~1\AppData\Local\Temp\ccwDaf54.s 			page 57


 1824              	.LFB39:
1369:Generated_Source\PSoC4/Timebase5s.c **** 
1370:Generated_Source\PSoC4/Timebase5s.c **** 
1371:Generated_Source\PSoC4/Timebase5s.c **** /*******************************************************************************
1372:Generated_Source\PSoC4/Timebase5s.c **** * Function Name: Timebase5s_ClearInterrupt
1373:Generated_Source\PSoC4/Timebase5s.c **** ********************************************************************************
1374:Generated_Source\PSoC4/Timebase5s.c **** *
1375:Generated_Source\PSoC4/Timebase5s.c **** * Summary:
1376:Generated_Source\PSoC4/Timebase5s.c **** *  Clears the interrupt request.
1377:Generated_Source\PSoC4/Timebase5s.c **** *
1378:Generated_Source\PSoC4/Timebase5s.c **** * Parameters:
1379:Generated_Source\PSoC4/Timebase5s.c **** *   interruptMask: Mask of interrupts to clear
1380:Generated_Source\PSoC4/Timebase5s.c **** *   Values:
1381:Generated_Source\PSoC4/Timebase5s.c **** *     - Timebase5s_INTR_MASK_TC       - Terminal count mask
1382:Generated_Source\PSoC4/Timebase5s.c **** *     - Timebase5s_INTR_MASK_CC_MATCH - Compare count / capture mask
1383:Generated_Source\PSoC4/Timebase5s.c **** *
1384:Generated_Source\PSoC4/Timebase5s.c **** * Return:
1385:Generated_Source\PSoC4/Timebase5s.c **** *  None
1386:Generated_Source\PSoC4/Timebase5s.c **** *
1387:Generated_Source\PSoC4/Timebase5s.c **** *******************************************************************************/
1388:Generated_Source\PSoC4/Timebase5s.c **** void Timebase5s_ClearInterrupt(uint32 interruptMask)
1389:Generated_Source\PSoC4/Timebase5s.c **** {
 1825              		.loc 1 1389 0
 1826              		.cfi_startproc
 1827 0000 80B5     		push	{r7, lr}
 1828              		.cfi_def_cfa_offset 8
 1829              		.cfi_offset 7, -8
 1830              		.cfi_offset 14, -4
 1831 0002 82B0     		sub	sp, sp, #8
 1832              		.cfi_def_cfa_offset 16
 1833 0004 00AF     		add	r7, sp, #0
 1834              		.cfi_def_cfa_register 7
 1835 0006 7860     		str	r0, [r7, #4]
1390:Generated_Source\PSoC4/Timebase5s.c ****     Timebase5s_INTERRUPT_REQ_REG = interruptMask;
 1836              		.loc 1 1390 0
 1837 0008 024B     		ldr	r3, .L127
 1838 000a 7A68     		ldr	r2, [r7, #4]
 1839 000c 1A60     		str	r2, [r3]
1391:Generated_Source\PSoC4/Timebase5s.c **** }
 1840              		.loc 1 1391 0
 1841 000e BD46     		mov	sp, r7
 1842 0010 02B0     		add	sp, sp, #8
 1843              		@ sp needed
 1844 0012 80BD     		pop	{r7, pc}
 1845              	.L128:
 1846              		.align	2
 1847              	.L127:
 1848 0014 30010140 		.word	1073807664
 1849              		.cfi_endproc
 1850              	.LFE39:
 1851              		.size	Timebase5s_ClearInterrupt, .-Timebase5s_ClearInterrupt
 1852              		.section	.text.Timebase5s_SetInterrupt,"ax",%progbits
 1853              		.align	2
 1854              		.global	Timebase5s_SetInterrupt
 1855              		.code	16
 1856              		.thumb_func
 1857              		.type	Timebase5s_SetInterrupt, %function
ARM GAS  C:\Users\CHRIST~1\AppData\Local\Temp\ccwDaf54.s 			page 58


 1858              	Timebase5s_SetInterrupt:
 1859              	.LFB40:
1392:Generated_Source\PSoC4/Timebase5s.c **** 
1393:Generated_Source\PSoC4/Timebase5s.c **** 
1394:Generated_Source\PSoC4/Timebase5s.c **** /*******************************************************************************
1395:Generated_Source\PSoC4/Timebase5s.c **** * Function Name: Timebase5s_SetInterrupt
1396:Generated_Source\PSoC4/Timebase5s.c **** ********************************************************************************
1397:Generated_Source\PSoC4/Timebase5s.c **** *
1398:Generated_Source\PSoC4/Timebase5s.c **** * Summary:
1399:Generated_Source\PSoC4/Timebase5s.c **** *  Sets a software interrupt request.
1400:Generated_Source\PSoC4/Timebase5s.c **** *
1401:Generated_Source\PSoC4/Timebase5s.c **** * Parameters:
1402:Generated_Source\PSoC4/Timebase5s.c **** *   interruptMask: Mask of interrupts to set
1403:Generated_Source\PSoC4/Timebase5s.c **** *   Values:
1404:Generated_Source\PSoC4/Timebase5s.c **** *     - Timebase5s_INTR_MASK_TC       - Terminal count mask
1405:Generated_Source\PSoC4/Timebase5s.c **** *     - Timebase5s_INTR_MASK_CC_MATCH - Compare count / capture mask
1406:Generated_Source\PSoC4/Timebase5s.c **** *
1407:Generated_Source\PSoC4/Timebase5s.c **** * Return:
1408:Generated_Source\PSoC4/Timebase5s.c **** *  None
1409:Generated_Source\PSoC4/Timebase5s.c **** *
1410:Generated_Source\PSoC4/Timebase5s.c **** *******************************************************************************/
1411:Generated_Source\PSoC4/Timebase5s.c **** void Timebase5s_SetInterrupt(uint32 interruptMask)
1412:Generated_Source\PSoC4/Timebase5s.c **** {
 1860              		.loc 1 1412 0
 1861              		.cfi_startproc
 1862 0000 80B5     		push	{r7, lr}
 1863              		.cfi_def_cfa_offset 8
 1864              		.cfi_offset 7, -8
 1865              		.cfi_offset 14, -4
 1866 0002 82B0     		sub	sp, sp, #8
 1867              		.cfi_def_cfa_offset 16
 1868 0004 00AF     		add	r7, sp, #0
 1869              		.cfi_def_cfa_register 7
 1870 0006 7860     		str	r0, [r7, #4]
1413:Generated_Source\PSoC4/Timebase5s.c ****     Timebase5s_INTERRUPT_SET_REG = interruptMask;
 1871              		.loc 1 1413 0
 1872 0008 024B     		ldr	r3, .L130
 1873 000a 7A68     		ldr	r2, [r7, #4]
 1874 000c 1A60     		str	r2, [r3]
1414:Generated_Source\PSoC4/Timebase5s.c **** }
 1875              		.loc 1 1414 0
 1876 000e BD46     		mov	sp, r7
 1877 0010 02B0     		add	sp, sp, #8
 1878              		@ sp needed
 1879 0012 80BD     		pop	{r7, pc}
 1880              	.L131:
 1881              		.align	2
 1882              	.L130:
 1883 0014 34010140 		.word	1073807668
 1884              		.cfi_endproc
 1885              	.LFE40:
 1886              		.size	Timebase5s_SetInterrupt, .-Timebase5s_SetInterrupt
 1887              		.text
 1888              	.Letext0:
 1889              		.file 2 "Generated_Source\\PSoC4\\cytypes.h"
 1890              		.section	.debug_info,"",%progbits
 1891              	.Ldebug_info0:
ARM GAS  C:\Users\CHRIST~1\AppData\Local\Temp\ccwDaf54.s 			page 59


 1892 0000 F0060000 		.4byte	0x6f0
 1893 0004 0400     		.2byte	0x4
 1894 0006 00000000 		.4byte	.Ldebug_abbrev0
 1895 000a 04       		.byte	0x4
 1896 000b 01       		.uleb128 0x1
 1897 000c D7010000 		.4byte	.LASF76
 1898 0010 01       		.byte	0x1
 1899 0011 7B030000 		.4byte	.LASF77
 1900 0015 69010000 		.4byte	.LASF78
 1901 0019 00000000 		.4byte	.Ldebug_ranges0+0
 1902 001d 00000000 		.4byte	0
 1903 0021 00000000 		.4byte	.Ldebug_line0
 1904 0025 02       		.uleb128 0x2
 1905 0026 01       		.byte	0x1
 1906 0027 06       		.byte	0x6
 1907 0028 C7000000 		.4byte	.LASF0
 1908 002c 02       		.uleb128 0x2
 1909 002d 01       		.byte	0x1
 1910 002e 08       		.byte	0x8
 1911 002f 33040000 		.4byte	.LASF1
 1912 0033 02       		.uleb128 0x2
 1913 0034 02       		.byte	0x2
 1914 0035 05       		.byte	0x5
 1915 0036 52040000 		.4byte	.LASF2
 1916 003a 02       		.uleb128 0x2
 1917 003b 02       		.byte	0x2
 1918 003c 07       		.byte	0x7
 1919 003d 9A020000 		.4byte	.LASF3
 1920 0041 02       		.uleb128 0x2
 1921 0042 04       		.byte	0x4
 1922 0043 05       		.byte	0x5
 1923 0044 EB000000 		.4byte	.LASF4
 1924 0048 02       		.uleb128 0x2
 1925 0049 04       		.byte	0x4
 1926 004a 07       		.byte	0x7
 1927 004b CF040000 		.4byte	.LASF5
 1928 004f 02       		.uleb128 0x2
 1929 0050 08       		.byte	0x8
 1930 0051 05       		.byte	0x5
 1931 0052 B9000000 		.4byte	.LASF6
 1932 0056 02       		.uleb128 0x2
 1933 0057 08       		.byte	0x8
 1934 0058 07       		.byte	0x7
 1935 0059 6A000000 		.4byte	.LASF7
 1936 005d 03       		.uleb128 0x3
 1937 005e 04       		.byte	0x4
 1938 005f 05       		.byte	0x5
 1939 0060 696E7400 		.ascii	"int\000"
 1940 0064 02       		.uleb128 0x2
 1941 0065 04       		.byte	0x4
 1942 0066 07       		.byte	0x7
 1943 0067 3C010000 		.4byte	.LASF8
 1944 006b 04       		.uleb128 0x4
 1945 006c F4000000 		.4byte	.LASF9
 1946 0070 02       		.byte	0x2
 1947 0071 9801     		.2byte	0x198
 1948 0073 2C000000 		.4byte	0x2c
ARM GAS  C:\Users\CHRIST~1\AppData\Local\Temp\ccwDaf54.s 			page 60


 1949 0077 04       		.uleb128 0x4
 1950 0078 1B010000 		.4byte	.LASF10
 1951 007c 02       		.byte	0x2
 1952 007d 9A01     		.2byte	0x19a
 1953 007f 48000000 		.4byte	0x48
 1954 0083 02       		.uleb128 0x2
 1955 0084 04       		.byte	0x4
 1956 0085 04       		.byte	0x4
 1957 0086 E1030000 		.4byte	.LASF11
 1958 008a 02       		.uleb128 0x2
 1959 008b 08       		.byte	0x8
 1960 008c 04       		.byte	0x4
 1961 008d FA000000 		.4byte	.LASF12
 1962 0091 02       		.uleb128 0x2
 1963 0092 01       		.byte	0x1
 1964 0093 08       		.byte	0x8
 1965 0094 E1040000 		.4byte	.LASF13
 1966 0098 04       		.uleb128 0x4
 1967 0099 D0020000 		.4byte	.LASF14
 1968 009d 02       		.byte	0x2
 1969 009e 4402     		.2byte	0x244
 1970 00a0 A4000000 		.4byte	0xa4
 1971 00a4 05       		.uleb128 0x5
 1972 00a5 77000000 		.4byte	0x77
 1973 00a9 02       		.uleb128 0x2
 1974 00aa 04       		.byte	0x4
 1975 00ab 07       		.byte	0x7
 1976 00ac F0020000 		.4byte	.LASF15
 1977 00b0 06       		.uleb128 0x6
 1978 00b1 53000000 		.4byte	.LASF16
 1979 00b5 01       		.byte	0x1
 1980 00b6 26       		.byte	0x26
 1981 00b7 00000000 		.4byte	.LFB1
 1982 00bb 44000000 		.4byte	.LFE1-.LFB1
 1983 00bf 01       		.uleb128 0x1
 1984 00c0 9C       		.byte	0x9c
 1985 00c1 07       		.uleb128 0x7
 1986 00c2 66050000 		.4byte	.LASF18
 1987 00c6 01       		.byte	0x1
 1988 00c7 B1       		.byte	0xb1
 1989 00c8 00000000 		.4byte	.LFB2
 1990 00cc 38000000 		.4byte	.LFE2-.LFB2
 1991 00d0 01       		.uleb128 0x1
 1992 00d1 9C       		.byte	0x9c
 1993 00d2 E5000000 		.4byte	0xe5
 1994 00d6 08       		.uleb128 0x8
 1995 00d7 B5050000 		.4byte	.LASF20
 1996 00db 01       		.byte	0x1
 1997 00dc B3       		.byte	0xb3
 1998 00dd 6B000000 		.4byte	0x6b
 1999 00e1 02       		.uleb128 0x2
 2000 00e2 91       		.byte	0x91
 2001 00e3 6F       		.sleb128 -17
 2002 00e4 00       		.byte	0
 2003 00e5 06       		.uleb128 0x6
 2004 00e6 30050000 		.4byte	.LASF17
 2005 00ea 01       		.byte	0x1
ARM GAS  C:\Users\CHRIST~1\AppData\Local\Temp\ccwDaf54.s 			page 61


 2006 00eb E6       		.byte	0xe6
 2007 00ec 00000000 		.4byte	.LFB3
 2008 00f0 24000000 		.4byte	.LFE3-.LFB3
 2009 00f4 01       		.uleb128 0x1
 2010 00f5 9C       		.byte	0x9c
 2011 00f6 09       		.uleb128 0x9
 2012 00f7 5C040000 		.4byte	.LASF19
 2013 00fb 01       		.byte	0x1
 2014 00fc 0001     		.2byte	0x100
 2015 00fe 00000000 		.4byte	.LFB4
 2016 0102 30000000 		.4byte	.LFE4-.LFB4
 2017 0106 01       		.uleb128 0x1
 2018 0107 9C       		.byte	0x9c
 2019 0108 1C010000 		.4byte	0x11c
 2020 010c 0A       		.uleb128 0xa
 2021 010d B5050000 		.4byte	.LASF20
 2022 0111 01       		.byte	0x1
 2023 0112 0201     		.2byte	0x102
 2024 0114 6B000000 		.4byte	0x6b
 2025 0118 02       		.uleb128 0x2
 2026 0119 91       		.byte	0x91
 2027 011a 6F       		.sleb128 -17
 2028 011b 00       		.byte	0
 2029 011c 09       		.uleb128 0x9
 2030 011d EB040000 		.4byte	.LASF21
 2031 0121 01       		.byte	0x1
 2032 0122 2501     		.2byte	0x125
 2033 0124 00000000 		.4byte	.LFB5
 2034 0128 48000000 		.4byte	.LFE5-.LFB5
 2035 012c 01       		.uleb128 0x1
 2036 012d 9C       		.byte	0x9c
 2037 012e 51010000 		.4byte	0x151
 2038 0132 0B       		.uleb128 0xb
 2039 0133 E6040000 		.4byte	.LASF23
 2040 0137 01       		.byte	0x1
 2041 0138 2501     		.2byte	0x125
 2042 013a 77000000 		.4byte	0x77
 2043 013e 02       		.uleb128 0x2
 2044 013f 91       		.byte	0x91
 2045 0140 64       		.sleb128 -28
 2046 0141 0A       		.uleb128 0xa
 2047 0142 B5050000 		.4byte	.LASF20
 2048 0146 01       		.byte	0x1
 2049 0147 2701     		.2byte	0x127
 2050 0149 6B000000 		.4byte	0x6b
 2051 014d 02       		.uleb128 0x2
 2052 014e 91       		.byte	0x91
 2053 014f 6F       		.sleb128 -17
 2054 0150 00       		.byte	0
 2055 0151 09       		.uleb128 0x9
 2056 0152 AD020000 		.4byte	.LASF22
 2057 0156 01       		.byte	0x1
 2058 0157 4601     		.2byte	0x146
 2059 0159 00000000 		.4byte	.LFB6
 2060 015d 48000000 		.4byte	.LFE6-.LFB6
 2061 0161 01       		.uleb128 0x1
 2062 0162 9C       		.byte	0x9c
ARM GAS  C:\Users\CHRIST~1\AppData\Local\Temp\ccwDaf54.s 			page 62


 2063 0163 86010000 		.4byte	0x186
 2064 0167 0B       		.uleb128 0xb
 2065 0168 81000000 		.4byte	.LASF24
 2066 016c 01       		.byte	0x1
 2067 016d 4601     		.2byte	0x146
 2068 016f 77000000 		.4byte	0x77
 2069 0173 02       		.uleb128 0x2
 2070 0174 91       		.byte	0x91
 2071 0175 64       		.sleb128 -28
 2072 0176 0A       		.uleb128 0xa
 2073 0177 B5050000 		.4byte	.LASF20
 2074 017b 01       		.byte	0x1
 2075 017c 4801     		.2byte	0x148
 2076 017e 6B000000 		.4byte	0x6b
 2077 0182 02       		.uleb128 0x2
 2078 0183 91       		.byte	0x91
 2079 0184 6F       		.sleb128 -17
 2080 0185 00       		.byte	0
 2081 0186 09       		.uleb128 0x9
 2082 0187 51010000 		.4byte	.LASF25
 2083 018b 01       		.byte	0x1
 2084 018c 6B01     		.2byte	0x16b
 2085 018e 00000000 		.4byte	.LFB7
 2086 0192 48000000 		.4byte	.LFE7-.LFB7
 2087 0196 01       		.uleb128 0x1
 2088 0197 9C       		.byte	0x9c
 2089 0198 BB010000 		.4byte	0x1bb
 2090 019c 0B       		.uleb128 0xb
 2091 019d F5030000 		.4byte	.LASF26
 2092 01a1 01       		.byte	0x1
 2093 01a2 6B01     		.2byte	0x16b
 2094 01a4 77000000 		.4byte	0x77
 2095 01a8 02       		.uleb128 0x2
 2096 01a9 91       		.byte	0x91
 2097 01aa 64       		.sleb128 -28
 2098 01ab 0A       		.uleb128 0xa
 2099 01ac B5050000 		.4byte	.LASF20
 2100 01b0 01       		.byte	0x1
 2101 01b1 6D01     		.2byte	0x16d
 2102 01b3 6B000000 		.4byte	0x6b
 2103 01b7 02       		.uleb128 0x2
 2104 01b8 91       		.byte	0x91
 2105 01b9 6F       		.sleb128 -17
 2106 01ba 00       		.byte	0
 2107 01bb 09       		.uleb128 0x9
 2108 01bc 43030000 		.4byte	.LASF27
 2109 01c0 01       		.byte	0x1
 2110 01c1 8B01     		.2byte	0x18b
 2111 01c3 00000000 		.4byte	.LFB8
 2112 01c7 4C000000 		.4byte	.LFE8-.LFB8
 2113 01cb 01       		.uleb128 0x1
 2114 01cc 9C       		.byte	0x9c
 2115 01cd F0010000 		.4byte	0x1f0
 2116 01d1 0B       		.uleb128 0xb
 2117 01d2 C2020000 		.4byte	.LASF28
 2118 01d6 01       		.byte	0x1
 2119 01d7 8B01     		.2byte	0x18b
ARM GAS  C:\Users\CHRIST~1\AppData\Local\Temp\ccwDaf54.s 			page 63


 2120 01d9 77000000 		.4byte	0x77
 2121 01dd 02       		.uleb128 0x2
 2122 01de 91       		.byte	0x91
 2123 01df 64       		.sleb128 -28
 2124 01e0 0A       		.uleb128 0xa
 2125 01e1 B5050000 		.4byte	.LASF20
 2126 01e5 01       		.byte	0x1
 2127 01e6 8D01     		.2byte	0x18d
 2128 01e8 6B000000 		.4byte	0x6b
 2129 01ec 02       		.uleb128 0x2
 2130 01ed 91       		.byte	0x91
 2131 01ee 6F       		.sleb128 -17
 2132 01ef 00       		.byte	0
 2133 01f0 0C       		.uleb128 0xc
 2134 01f1 22060000 		.4byte	.LASF29
 2135 01f5 01       		.byte	0x1
 2136 01f6 C101     		.2byte	0x1c1
 2137 01f8 00000000 		.4byte	.LFB9
 2138 01fc 1C000000 		.4byte	.LFE9-.LFB9
 2139 0200 01       		.uleb128 0x1
 2140 0201 9C       		.byte	0x9c
 2141 0202 16020000 		.4byte	0x216
 2142 0206 0B       		.uleb128 0xb
 2143 0207 CE010000 		.4byte	.LASF30
 2144 020b 01       		.byte	0x1
 2145 020c C101     		.2byte	0x1c1
 2146 020e 77000000 		.4byte	0x77
 2147 0212 02       		.uleb128 0x2
 2148 0213 91       		.byte	0x91
 2149 0214 74       		.sleb128 -12
 2150 0215 00       		.byte	0
 2151 0216 09       		.uleb128 0x9
 2152 0217 B5040000 		.4byte	.LASF31
 2153 021b 01       		.byte	0x1
 2154 021c E501     		.2byte	0x1e5
 2155 021e 00000000 		.4byte	.LFB10
 2156 0222 48000000 		.4byte	.LFE10-.LFB10
 2157 0226 01       		.uleb128 0x1
 2158 0227 9C       		.byte	0x9c
 2159 0228 4B020000 		.4byte	0x24b
 2160 022c 0B       		.uleb128 0xb
 2161 022d 10030000 		.4byte	.LASF32
 2162 0231 01       		.byte	0x1
 2163 0232 E501     		.2byte	0x1e5
 2164 0234 77000000 		.4byte	0x77
 2165 0238 02       		.uleb128 0x2
 2166 0239 91       		.byte	0x91
 2167 023a 64       		.sleb128 -28
 2168 023b 0A       		.uleb128 0xa
 2169 023c B5050000 		.4byte	.LASF20
 2170 0240 01       		.byte	0x1
 2171 0241 E701     		.2byte	0x1e7
 2172 0243 6B000000 		.4byte	0x6b
 2173 0247 02       		.uleb128 0x2
 2174 0248 91       		.byte	0x91
 2175 0249 6F       		.sleb128 -17
 2176 024a 00       		.byte	0
ARM GAS  C:\Users\CHRIST~1\AppData\Local\Temp\ccwDaf54.s 			page 64


 2177 024b 09       		.uleb128 0x9
 2178 024c 14050000 		.4byte	.LASF33
 2179 0250 01       		.byte	0x1
 2180 0251 0702     		.2byte	0x207
 2181 0253 00000000 		.4byte	.LFB11
 2182 0257 48000000 		.4byte	.LFE11-.LFB11
 2183 025b 01       		.uleb128 0x1
 2184 025c 9C       		.byte	0x9c
 2185 025d 80020000 		.4byte	0x280
 2186 0261 0B       		.uleb128 0xb
 2187 0262 41040000 		.4byte	.LASF34
 2188 0266 01       		.byte	0x1
 2189 0267 0702     		.2byte	0x207
 2190 0269 77000000 		.4byte	0x77
 2191 026d 02       		.uleb128 0x2
 2192 026e 91       		.byte	0x91
 2193 026f 64       		.sleb128 -28
 2194 0270 0A       		.uleb128 0xa
 2195 0271 B5050000 		.4byte	.LASF20
 2196 0275 01       		.byte	0x1
 2197 0276 0902     		.2byte	0x209
 2198 0278 6B000000 		.4byte	0x6b
 2199 027c 02       		.uleb128 0x2
 2200 027d 91       		.byte	0x91
 2201 027e 6F       		.sleb128 -17
 2202 027f 00       		.byte	0
 2203 0280 09       		.uleb128 0x9
 2204 0281 9B040000 		.4byte	.LASF35
 2205 0285 01       		.byte	0x1
 2206 0286 2802     		.2byte	0x228
 2207 0288 00000000 		.4byte	.LFB12
 2208 028c 4C000000 		.4byte	.LFE12-.LFB12
 2209 0290 01       		.uleb128 0x1
 2210 0291 9C       		.byte	0x9c
 2211 0292 B5020000 		.4byte	0x2b5
 2212 0296 0B       		.uleb128 0xb
 2213 0297 33010000 		.4byte	.LASF36
 2214 029b 01       		.byte	0x1
 2215 029c 2802     		.2byte	0x228
 2216 029e 77000000 		.4byte	0x77
 2217 02a2 02       		.uleb128 0x2
 2218 02a3 91       		.byte	0x91
 2219 02a4 64       		.sleb128 -28
 2220 02a5 0A       		.uleb128 0xa
 2221 02a6 B5050000 		.4byte	.LASF20
 2222 02aa 01       		.byte	0x1
 2223 02ab 2A02     		.2byte	0x22a
 2224 02ad 6B000000 		.4byte	0x6b
 2225 02b1 02       		.uleb128 0x2
 2226 02b2 91       		.byte	0x91
 2227 02b3 6F       		.sleb128 -17
 2228 02b4 00       		.byte	0
 2229 02b5 09       		.uleb128 0x9
 2230 02b6 D3000000 		.4byte	.LASF37
 2231 02ba 01       		.byte	0x1
 2232 02bb 4902     		.2byte	0x249
 2233 02bd 00000000 		.4byte	.LFB13
ARM GAS  C:\Users\CHRIST~1\AppData\Local\Temp\ccwDaf54.s 			page 65


 2234 02c1 48000000 		.4byte	.LFE13-.LFB13
 2235 02c5 01       		.uleb128 0x1
 2236 02c6 9C       		.byte	0x9c
 2237 02c7 EA020000 		.4byte	0x2ea
 2238 02cb 0B       		.uleb128 0xb
 2239 02cc 2E010000 		.4byte	.LASF38
 2240 02d0 01       		.byte	0x1
 2241 02d1 4902     		.2byte	0x249
 2242 02d3 77000000 		.4byte	0x77
 2243 02d7 02       		.uleb128 0x2
 2244 02d8 91       		.byte	0x91
 2245 02d9 64       		.sleb128 -28
 2246 02da 0A       		.uleb128 0xa
 2247 02db B5050000 		.4byte	.LASF20
 2248 02df 01       		.byte	0x1
 2249 02e0 4B02     		.2byte	0x24b
 2250 02e2 6B000000 		.4byte	0x6b
 2251 02e6 02       		.uleb128 0x2
 2252 02e7 91       		.byte	0x91
 2253 02e8 6F       		.sleb128 -17
 2254 02e9 00       		.byte	0
 2255 02ea 0C       		.uleb128 0xc
 2256 02eb 22000000 		.4byte	.LASF39
 2257 02ef 01       		.byte	0x1
 2258 02f0 6702     		.2byte	0x267
 2259 02f2 00000000 		.4byte	.LFB14
 2260 02f6 1C000000 		.4byte	.LFE14-.LFB14
 2261 02fa 01       		.uleb128 0x1
 2262 02fb 9C       		.byte	0x9c
 2263 02fc 10030000 		.4byte	0x310
 2264 0300 0B       		.uleb128 0xb
 2265 0301 00000000 		.4byte	.LASF40
 2266 0305 01       		.byte	0x1
 2267 0306 6702     		.2byte	0x267
 2268 0308 77000000 		.4byte	0x77
 2269 030c 02       		.uleb128 0x2
 2270 030d 91       		.byte	0x91
 2271 030e 74       		.sleb128 -12
 2272 030f 00       		.byte	0
 2273 0310 0D       		.uleb128 0xd
 2274 0311 F9020000 		.4byte	.LASF45
 2275 0315 01       		.byte	0x1
 2276 0316 7B02     		.2byte	0x27b
 2277 0318 77000000 		.4byte	0x77
 2278 031c 00000000 		.4byte	.LFB15
 2279 0320 18000000 		.4byte	.LFE15-.LFB15
 2280 0324 01       		.uleb128 0x1
 2281 0325 9C       		.byte	0x9c
 2282 0326 09       		.uleb128 0x9
 2283 0327 69020000 		.4byte	.LASF41
 2284 032b 01       		.byte	0x1
 2285 032c 9802     		.2byte	0x298
 2286 032e 00000000 		.4byte	.LFB16
 2287 0332 48000000 		.4byte	.LFE16-.LFB16
 2288 0336 01       		.uleb128 0x1
 2289 0337 9C       		.byte	0x9c
 2290 0338 5B030000 		.4byte	0x35b
ARM GAS  C:\Users\CHRIST~1\AppData\Local\Temp\ccwDaf54.s 			page 66


 2291 033c 0B       		.uleb128 0xb
 2292 033d 41050000 		.4byte	.LASF42
 2293 0341 01       		.byte	0x1
 2294 0342 9802     		.2byte	0x298
 2295 0344 77000000 		.4byte	0x77
 2296 0348 02       		.uleb128 0x2
 2297 0349 91       		.byte	0x91
 2298 034a 64       		.sleb128 -28
 2299 034b 0A       		.uleb128 0xa
 2300 034c B5050000 		.4byte	.LASF20
 2301 0350 01       		.byte	0x1
 2302 0351 9A02     		.2byte	0x29a
 2303 0353 6B000000 		.4byte	0x6b
 2304 0357 02       		.uleb128 0x2
 2305 0358 91       		.byte	0x91
 2306 0359 6F       		.sleb128 -17
 2307 035a 00       		.byte	0
 2308 035b 0C       		.uleb128 0xc
 2309 035c A2000000 		.4byte	.LASF43
 2310 0360 01       		.byte	0x1
 2311 0361 B502     		.2byte	0x2b5
 2312 0363 00000000 		.4byte	.LFB17
 2313 0367 1C000000 		.4byte	.LFE17-.LFB17
 2314 036b 01       		.uleb128 0x1
 2315 036c 9C       		.byte	0x9c
 2316 036d 81030000 		.4byte	0x381
 2317 0371 0B       		.uleb128 0xb
 2318 0372 63000000 		.4byte	.LASF44
 2319 0376 01       		.byte	0x1
 2320 0377 B502     		.2byte	0x2b5
 2321 0379 77000000 		.4byte	0x77
 2322 037d 02       		.uleb128 0x2
 2323 037e 91       		.byte	0x91
 2324 037f 74       		.sleb128 -12
 2325 0380 00       		.byte	0
 2326 0381 0D       		.uleb128 0xd
 2327 0382 FE040000 		.4byte	.LASF46
 2328 0386 01       		.byte	0x1
 2329 0387 C902     		.2byte	0x2c9
 2330 0389 77000000 		.4byte	0x77
 2331 038d 00000000 		.4byte	.LFB18
 2332 0391 18000000 		.4byte	.LFE18-.LFB18
 2333 0395 01       		.uleb128 0x1
 2334 0396 9C       		.byte	0x9c
 2335 0397 09       		.uleb128 0x9
 2336 0398 19040000 		.4byte	.LASF47
 2337 039c 01       		.byte	0x1
 2338 039d E302     		.2byte	0x2e3
 2339 039f 00000000 		.4byte	.LFB19
 2340 03a3 48000000 		.4byte	.LFE19-.LFB19
 2341 03a7 01       		.uleb128 0x1
 2342 03a8 9C       		.byte	0x9c
 2343 03a9 CC030000 		.4byte	0x3cc
 2344 03ad 0B       		.uleb128 0xb
 2345 03ae F9050000 		.4byte	.LASF48
 2346 03b2 01       		.byte	0x1
 2347 03b3 E302     		.2byte	0x2e3
ARM GAS  C:\Users\CHRIST~1\AppData\Local\Temp\ccwDaf54.s 			page 67


 2348 03b5 77000000 		.4byte	0x77
 2349 03b9 02       		.uleb128 0x2
 2350 03ba 91       		.byte	0x91
 2351 03bb 64       		.sleb128 -28
 2352 03bc 0A       		.uleb128 0xa
 2353 03bd B5050000 		.4byte	.LASF20
 2354 03c1 01       		.byte	0x1
 2355 03c2 E502     		.2byte	0x2e5
 2356 03c4 6B000000 		.4byte	0x6b
 2357 03c8 02       		.uleb128 0x2
 2358 03c9 91       		.byte	0x91
 2359 03ca 6F       		.sleb128 -17
 2360 03cb 00       		.byte	0
 2361 03cc 0C       		.uleb128 0xc
 2362 03cd 88000000 		.4byte	.LASF49
 2363 03d1 01       		.byte	0x1
 2364 03d2 FE02     		.2byte	0x2fe
 2365 03d4 00000000 		.4byte	.LFB20
 2366 03d8 1C000000 		.4byte	.LFE20-.LFB20
 2367 03dc 01       		.uleb128 0x1
 2368 03dd 9C       		.byte	0x9c
 2369 03de F2030000 		.4byte	0x3f2
 2370 03e2 0B       		.uleb128 0xb
 2371 03e3 50060000 		.4byte	.LASF50
 2372 03e7 01       		.byte	0x1
 2373 03e8 FE02     		.2byte	0x2fe
 2374 03ea 77000000 		.4byte	0x77
 2375 03ee 02       		.uleb128 0x2
 2376 03ef 91       		.byte	0x91
 2377 03f0 74       		.sleb128 -12
 2378 03f1 00       		.byte	0
 2379 03f2 0D       		.uleb128 0xd
 2380 03f3 4D050000 		.4byte	.LASF51
 2381 03f7 01       		.byte	0x1
 2382 03f8 1203     		.2byte	0x312
 2383 03fa 77000000 		.4byte	0x77
 2384 03fe 00000000 		.4byte	.LFB21
 2385 0402 18000000 		.4byte	.LFE21-.LFB21
 2386 0406 01       		.uleb128 0x1
 2387 0407 9C       		.byte	0x9c
 2388 0408 09       		.uleb128 0x9
 2389 0409 B2030000 		.4byte	.LASF52
 2390 040d 01       		.byte	0x1
 2391 040e 2C03     		.2byte	0x32c
 2392 0410 00000000 		.4byte	.LFB22
 2393 0414 48000000 		.4byte	.LFE22-.LFB22
 2394 0418 01       		.uleb128 0x1
 2395 0419 9C       		.byte	0x9c
 2396 041a 3D040000 		.4byte	0x43d
 2397 041e 0B       		.uleb128 0xb
 2398 041f F9050000 		.4byte	.LASF48
 2399 0423 01       		.byte	0x1
 2400 0424 2C03     		.2byte	0x32c
 2401 0426 77000000 		.4byte	0x77
 2402 042a 02       		.uleb128 0x2
 2403 042b 91       		.byte	0x91
 2404 042c 64       		.sleb128 -28
ARM GAS  C:\Users\CHRIST~1\AppData\Local\Temp\ccwDaf54.s 			page 68


 2405 042d 0A       		.uleb128 0xa
 2406 042e B5050000 		.4byte	.LASF20
 2407 0432 01       		.byte	0x1
 2408 0433 2E03     		.2byte	0x32e
 2409 0435 6B000000 		.4byte	0x6b
 2410 0439 02       		.uleb128 0x2
 2411 043a 91       		.byte	0x91
 2412 043b 6F       		.sleb128 -17
 2413 043c 00       		.byte	0
 2414 043d 0C       		.uleb128 0xc
 2415 043e E1050000 		.4byte	.LASF53
 2416 0442 01       		.byte	0x1
 2417 0443 5103     		.2byte	0x351
 2418 0445 00000000 		.4byte	.LFB23
 2419 0449 1C000000 		.4byte	.LFE23-.LFB23
 2420 044d 01       		.uleb128 0x1
 2421 044e 9C       		.byte	0x9c
 2422 044f 63040000 		.4byte	0x463
 2423 0453 0B       		.uleb128 0xb
 2424 0454 59030000 		.4byte	.LASF54
 2425 0458 01       		.byte	0x1
 2426 0459 5103     		.2byte	0x351
 2427 045b 77000000 		.4byte	0x77
 2428 045f 02       		.uleb128 0x2
 2429 0460 91       		.byte	0x91
 2430 0461 74       		.sleb128 -12
 2431 0462 00       		.byte	0
 2432 0463 0D       		.uleb128 0xd
 2433 0464 83020000 		.4byte	.LASF55
 2434 0468 01       		.byte	0x1
 2435 0469 8403     		.2byte	0x384
 2436 046b 77000000 		.4byte	0x77
 2437 046f 00000000 		.4byte	.LFB24
 2438 0473 18000000 		.4byte	.LFE24-.LFB24
 2439 0477 01       		.uleb128 0x1
 2440 0478 9C       		.byte	0x9c
 2441 0479 0C       		.uleb128 0xc
 2442 047a C6050000 		.4byte	.LASF56
 2443 047e 01       		.byte	0x1
 2444 047f BA03     		.2byte	0x3ba
 2445 0481 00000000 		.4byte	.LFB25
 2446 0485 1C000000 		.4byte	.LFE25-.LFB25
 2447 0489 01       		.uleb128 0x1
 2448 048a 9C       		.byte	0x9c
 2449 048b 9F040000 		.4byte	0x49f
 2450 048f 0B       		.uleb128 0xb
 2451 0490 90050000 		.4byte	.LASF57
 2452 0494 01       		.byte	0x1
 2453 0495 BA03     		.2byte	0x3ba
 2454 0497 77000000 		.4byte	0x77
 2455 049b 02       		.uleb128 0x2
 2456 049c 91       		.byte	0x91
 2457 049d 74       		.sleb128 -12
 2458 049e 00       		.byte	0
 2459 049f 0D       		.uleb128 0xd
 2460 04a0 FF030000 		.4byte	.LASF58
 2461 04a4 01       		.byte	0x1
ARM GAS  C:\Users\CHRIST~1\AppData\Local\Temp\ccwDaf54.s 			page 69


 2462 04a5 E803     		.2byte	0x3e8
 2463 04a7 77000000 		.4byte	0x77
 2464 04ab 00000000 		.4byte	.LFB26
 2465 04af 18000000 		.4byte	.LFE26-.LFB26
 2466 04b3 01       		.uleb128 0x1
 2467 04b4 9C       		.byte	0x9c
 2468 04b5 0D       		.uleb128 0xd
 2469 04b6 5A060000 		.4byte	.LASF59
 2470 04ba 01       		.byte	0x1
 2471 04bb 1604     		.2byte	0x416
 2472 04bd 77000000 		.4byte	0x77
 2473 04c1 00000000 		.4byte	.LFB27
 2474 04c5 18000000 		.4byte	.LFE27-.LFB27
 2475 04c9 01       		.uleb128 0x1
 2476 04ca 9C       		.byte	0x9c
 2477 04cb 0D       		.uleb128 0xd
 2478 04cc 01010000 		.4byte	.LASF60
 2479 04d0 01       		.byte	0x1
 2480 04d1 2B04     		.2byte	0x42b
 2481 04d3 77000000 		.4byte	0x77
 2482 04d7 00000000 		.4byte	.LFB28
 2483 04db 18000000 		.4byte	.LFE28-.LFB28
 2484 04df 01       		.uleb128 0x1
 2485 04e0 9C       		.byte	0x9c
 2486 04e1 09       		.uleb128 0x9
 2487 04e2 D6020000 		.4byte	.LASF61
 2488 04e6 01       		.byte	0x1
 2489 04e7 4604     		.2byte	0x446
 2490 04e9 00000000 		.4byte	.LFB29
 2491 04ed 44000000 		.4byte	.LFE29-.LFB29
 2492 04f1 01       		.uleb128 0x1
 2493 04f2 9C       		.byte	0x9c
 2494 04f3 16050000 		.4byte	0x516
 2495 04f7 0B       		.uleb128 0xb
 2496 04f8 22010000 		.4byte	.LASF62
 2497 04fc 01       		.byte	0x1
 2498 04fd 4604     		.2byte	0x446
 2499 04ff 77000000 		.4byte	0x77
 2500 0503 02       		.uleb128 0x2
 2501 0504 91       		.byte	0x91
 2502 0505 64       		.sleb128 -28
 2503 0506 0A       		.uleb128 0xa
 2504 0507 B5050000 		.4byte	.LASF20
 2505 050b 01       		.byte	0x1
 2506 050c 4804     		.2byte	0x448
 2507 050e 6B000000 		.4byte	0x6b
 2508 0512 02       		.uleb128 0x2
 2509 0513 91       		.byte	0x91
 2510 0514 6F       		.sleb128 -17
 2511 0515 00       		.byte	0
 2512 0516 09       		.uleb128 0x9
 2513 0517 3A000000 		.4byte	.LASF63
 2514 051b 01       		.byte	0x1
 2515 051c 6704     		.2byte	0x467
 2516 051e 00000000 		.4byte	.LFB30
 2517 0522 44000000 		.4byte	.LFE30-.LFB30
 2518 0526 01       		.uleb128 0x1
ARM GAS  C:\Users\CHRIST~1\AppData\Local\Temp\ccwDaf54.s 			page 70


 2519 0527 9C       		.byte	0x9c
 2520 0528 4B050000 		.4byte	0x54b
 2521 052c 0B       		.uleb128 0xb
 2522 052d 22010000 		.4byte	.LASF62
 2523 0531 01       		.byte	0x1
 2524 0532 6704     		.2byte	0x467
 2525 0534 77000000 		.4byte	0x77
 2526 0538 02       		.uleb128 0x2
 2527 0539 91       		.byte	0x91
 2528 053a 64       		.sleb128 -28
 2529 053b 0A       		.uleb128 0xa
 2530 053c B5050000 		.4byte	.LASF20
 2531 0540 01       		.byte	0x1
 2532 0541 6904     		.2byte	0x469
 2533 0543 6B000000 		.4byte	0x6b
 2534 0547 02       		.uleb128 0x2
 2535 0548 91       		.byte	0x91
 2536 0549 6F       		.sleb128 -17
 2537 054a 00       		.byte	0
 2538 054b 09       		.uleb128 0x9
 2539 054c 38060000 		.4byte	.LASF64
 2540 0550 01       		.byte	0x1
 2541 0551 8804     		.2byte	0x488
 2542 0553 00000000 		.4byte	.LFB31
 2543 0557 48000000 		.4byte	.LFE31-.LFB31
 2544 055b 01       		.uleb128 0x1
 2545 055c 9C       		.byte	0x9c
 2546 055d 80050000 		.4byte	0x580
 2547 0561 0B       		.uleb128 0xb
 2548 0562 22010000 		.4byte	.LASF62
 2549 0566 01       		.byte	0x1
 2550 0567 8804     		.2byte	0x488
 2551 0569 77000000 		.4byte	0x77
 2552 056d 02       		.uleb128 0x2
 2553 056e 91       		.byte	0x91
 2554 056f 64       		.sleb128 -28
 2555 0570 0A       		.uleb128 0xa
 2556 0571 B5050000 		.4byte	.LASF20
 2557 0575 01       		.byte	0x1
 2558 0576 8A04     		.2byte	0x48a
 2559 0578 6B000000 		.4byte	0x6b
 2560 057c 02       		.uleb128 0x2
 2561 057d 91       		.byte	0x91
 2562 057e 6F       		.sleb128 -17
 2563 057f 00       		.byte	0
 2564 0580 09       		.uleb128 0x9
 2565 0581 6C040000 		.4byte	.LASF65
 2566 0585 01       		.byte	0x1
 2567 0586 A804     		.2byte	0x4a8
 2568 0588 00000000 		.4byte	.LFB32
 2569 058c 44000000 		.4byte	.LFE32-.LFB32
 2570 0590 01       		.uleb128 0x1
 2571 0591 9C       		.byte	0x9c
 2572 0592 B5050000 		.4byte	0x5b5
 2573 0596 0B       		.uleb128 0xb
 2574 0597 22010000 		.4byte	.LASF62
 2575 059b 01       		.byte	0x1
ARM GAS  C:\Users\CHRIST~1\AppData\Local\Temp\ccwDaf54.s 			page 71


 2576 059c A804     		.2byte	0x4a8
 2577 059e 77000000 		.4byte	0x77
 2578 05a2 02       		.uleb128 0x2
 2579 05a3 91       		.byte	0x91
 2580 05a4 64       		.sleb128 -28
 2581 05a5 0A       		.uleb128 0xa
 2582 05a6 B5050000 		.4byte	.LASF20
 2583 05aa 01       		.byte	0x1
 2584 05ab AA04     		.2byte	0x4aa
 2585 05ad 6B000000 		.4byte	0x6b
 2586 05b1 02       		.uleb128 0x2
 2587 05b2 91       		.byte	0x91
 2588 05b3 6F       		.sleb128 -17
 2589 05b4 00       		.byte	0
 2590 05b5 09       		.uleb128 0x9
 2591 05b6 78050000 		.4byte	.LASF66
 2592 05ba 01       		.byte	0x1
 2593 05bb C904     		.2byte	0x4c9
 2594 05bd 00000000 		.4byte	.LFB33
 2595 05c1 44000000 		.4byte	.LFE33-.LFB33
 2596 05c5 01       		.uleb128 0x1
 2597 05c6 9C       		.byte	0x9c
 2598 05c7 EA050000 		.4byte	0x5ea
 2599 05cb 0B       		.uleb128 0xb
 2600 05cc 22010000 		.4byte	.LASF62
 2601 05d0 01       		.byte	0x1
 2602 05d1 C904     		.2byte	0x4c9
 2603 05d3 77000000 		.4byte	0x77
 2604 05d7 02       		.uleb128 0x2
 2605 05d8 91       		.byte	0x91
 2606 05d9 64       		.sleb128 -28
 2607 05da 0A       		.uleb128 0xa
 2608 05db B5050000 		.4byte	.LASF20
 2609 05df 01       		.byte	0x1
 2610 05e0 CB04     		.2byte	0x4cb
 2611 05e2 6B000000 		.4byte	0x6b
 2612 05e6 02       		.uleb128 0x2
 2613 05e7 91       		.byte	0x91
 2614 05e8 6F       		.sleb128 -17
 2615 05e9 00       		.byte	0
 2616 05ea 09       		.uleb128 0x9
 2617 05eb 9B050000 		.4byte	.LASF67
 2618 05ef 01       		.byte	0x1
 2619 05f0 F104     		.2byte	0x4f1
 2620 05f2 00000000 		.4byte	.LFB34
 2621 05f6 38000000 		.4byte	.LFE34-.LFB34
 2622 05fa 01       		.uleb128 0x1
 2623 05fb 9C       		.byte	0x9c
 2624 05fc 2E060000 		.4byte	0x62e
 2625 0600 0B       		.uleb128 0xb
 2626 0601 2E010000 		.4byte	.LASF38
 2627 0605 01       		.byte	0x1
 2628 0606 F104     		.2byte	0x4f1
 2629 0608 77000000 		.4byte	0x77
 2630 060c 02       		.uleb128 0x2
 2631 060d 91       		.byte	0x91
 2632 060e 64       		.sleb128 -28
ARM GAS  C:\Users\CHRIST~1\AppData\Local\Temp\ccwDaf54.s 			page 72


 2633 060f 0B       		.uleb128 0xb
 2634 0610 49010000 		.4byte	.LASF68
 2635 0614 01       		.byte	0x1
 2636 0615 F104     		.2byte	0x4f1
 2637 0617 77000000 		.4byte	0x77
 2638 061b 02       		.uleb128 0x2
 2639 061c 91       		.byte	0x91
 2640 061d 60       		.sleb128 -32
 2641 061e 0A       		.uleb128 0xa
 2642 061f B5050000 		.4byte	.LASF20
 2643 0623 01       		.byte	0x1
 2644 0624 F304     		.2byte	0x4f3
 2645 0626 6B000000 		.4byte	0x6b
 2646 062a 02       		.uleb128 0x2
 2647 062b 91       		.byte	0x91
 2648 062c 6F       		.sleb128 -17
 2649 062d 00       		.byte	0
 2650 062e 0D       		.uleb128 0xd
 2651 062f CB030000 		.4byte	.LASF69
 2652 0633 01       		.byte	0x1
 2653 0634 0E05     		.2byte	0x50e
 2654 0636 77000000 		.4byte	0x77
 2655 063a 00000000 		.4byte	.LFB35
 2656 063e 20000000 		.4byte	.LFE35-.LFB35
 2657 0642 01       		.uleb128 0x1
 2658 0643 9C       		.byte	0x9c
 2659 0644 0C       		.uleb128 0xc
 2660 0645 06000000 		.4byte	.LASF70
 2661 0649 01       		.byte	0x1
 2662 064a 2705     		.2byte	0x527
 2663 064c 00000000 		.4byte	.LFB36
 2664 0650 18000000 		.4byte	.LFE36-.LFB36
 2665 0654 01       		.uleb128 0x1
 2666 0655 9C       		.byte	0x9c
 2667 0656 6A060000 		.4byte	0x66a
 2668 065a 0B       		.uleb128 0xb
 2669 065b E7030000 		.4byte	.LASF71
 2670 065f 01       		.byte	0x1
 2671 0660 2705     		.2byte	0x527
 2672 0662 77000000 		.4byte	0x77
 2673 0666 02       		.uleb128 0x2
 2674 0667 91       		.byte	0x91
 2675 0668 74       		.sleb128 -12
 2676 0669 00       		.byte	0
 2677 066a 0D       		.uleb128 0xd
 2678 066b 1F030000 		.4byte	.LASF72
 2679 066f 01       		.byte	0x1
 2680 0670 3E05     		.2byte	0x53e
 2681 0672 77000000 		.4byte	0x77
 2682 0676 00000000 		.4byte	.LFB37
 2683 067a 14000000 		.4byte	.LFE37-.LFB37
 2684 067e 01       		.uleb128 0x1
 2685 067f 9C       		.byte	0x9c
 2686 0680 0D       		.uleb128 0xd
 2687 0681 04060000 		.4byte	.LASF73
 2688 0685 01       		.byte	0x1
 2689 0686 5505     		.2byte	0x555
ARM GAS  C:\Users\CHRIST~1\AppData\Local\Temp\ccwDaf54.s 			page 73


 2690 0688 77000000 		.4byte	0x77
 2691 068c 00000000 		.4byte	.LFB38
 2692 0690 14000000 		.4byte	.LFE38-.LFB38
 2693 0694 01       		.uleb128 0x1
 2694 0695 9C       		.byte	0x9c
 2695 0696 0C       		.uleb128 0xc
 2696 0697 61030000 		.4byte	.LASF74
 2697 069b 01       		.byte	0x1
 2698 069c 6C05     		.2byte	0x56c
 2699 069e 00000000 		.4byte	.LFB39
 2700 06a2 18000000 		.4byte	.LFE39-.LFB39
 2701 06a6 01       		.uleb128 0x1
 2702 06a7 9C       		.byte	0x9c
 2703 06a8 BC060000 		.4byte	0x6bc
 2704 06ac 0B       		.uleb128 0xb
 2705 06ad E7030000 		.4byte	.LASF71
 2706 06b1 01       		.byte	0x1
 2707 06b2 6C05     		.2byte	0x56c
 2708 06b4 77000000 		.4byte	0x77
 2709 06b8 02       		.uleb128 0x2
 2710 06b9 91       		.byte	0x91
 2711 06ba 74       		.sleb128 -12
 2712 06bb 00       		.byte	0
 2713 06bc 0C       		.uleb128 0xc
 2714 06bd 83040000 		.4byte	.LASF75
 2715 06c1 01       		.byte	0x1
 2716 06c2 8305     		.2byte	0x583
 2717 06c4 00000000 		.4byte	.LFB40
 2718 06c8 18000000 		.4byte	.LFE40-.LFB40
 2719 06cc 01       		.uleb128 0x1
 2720 06cd 9C       		.byte	0x9c
 2721 06ce E2060000 		.4byte	0x6e2
 2722 06d2 0B       		.uleb128 0xb
 2723 06d3 E7030000 		.4byte	.LASF71
 2724 06d7 01       		.byte	0x1
 2725 06d8 8305     		.2byte	0x583
 2726 06da 77000000 		.4byte	0x77
 2727 06de 02       		.uleb128 0x2
 2728 06df 91       		.byte	0x91
 2729 06e0 74       		.sleb128 -12
 2730 06e1 00       		.byte	0
 2731 06e2 0E       		.uleb128 0xe
 2732 06e3 9F030000 		.4byte	.LASF79
 2733 06e7 01       		.byte	0x1
 2734 06e8 15       		.byte	0x15
 2735 06e9 6B000000 		.4byte	0x6b
 2736 06ed 05       		.uleb128 0x5
 2737 06ee 03       		.byte	0x3
 2738 06ef 00000000 		.4byte	Timebase5s_initVar
 2739 06f3 00       		.byte	0
 2740              		.section	.debug_abbrev,"",%progbits
 2741              	.Ldebug_abbrev0:
 2742 0000 01       		.uleb128 0x1
 2743 0001 11       		.uleb128 0x11
 2744 0002 01       		.byte	0x1
 2745 0003 25       		.uleb128 0x25
 2746 0004 0E       		.uleb128 0xe
ARM GAS  C:\Users\CHRIST~1\AppData\Local\Temp\ccwDaf54.s 			page 74


 2747 0005 13       		.uleb128 0x13
 2748 0006 0B       		.uleb128 0xb
 2749 0007 03       		.uleb128 0x3
 2750 0008 0E       		.uleb128 0xe
 2751 0009 1B       		.uleb128 0x1b
 2752 000a 0E       		.uleb128 0xe
 2753 000b 55       		.uleb128 0x55
 2754 000c 17       		.uleb128 0x17
 2755 000d 11       		.uleb128 0x11
 2756 000e 01       		.uleb128 0x1
 2757 000f 10       		.uleb128 0x10
 2758 0010 17       		.uleb128 0x17
 2759 0011 00       		.byte	0
 2760 0012 00       		.byte	0
 2761 0013 02       		.uleb128 0x2
 2762 0014 24       		.uleb128 0x24
 2763 0015 00       		.byte	0
 2764 0016 0B       		.uleb128 0xb
 2765 0017 0B       		.uleb128 0xb
 2766 0018 3E       		.uleb128 0x3e
 2767 0019 0B       		.uleb128 0xb
 2768 001a 03       		.uleb128 0x3
 2769 001b 0E       		.uleb128 0xe
 2770 001c 00       		.byte	0
 2771 001d 00       		.byte	0
 2772 001e 03       		.uleb128 0x3
 2773 001f 24       		.uleb128 0x24
 2774 0020 00       		.byte	0
 2775 0021 0B       		.uleb128 0xb
 2776 0022 0B       		.uleb128 0xb
 2777 0023 3E       		.uleb128 0x3e
 2778 0024 0B       		.uleb128 0xb
 2779 0025 03       		.uleb128 0x3
 2780 0026 08       		.uleb128 0x8
 2781 0027 00       		.byte	0
 2782 0028 00       		.byte	0
 2783 0029 04       		.uleb128 0x4
 2784 002a 16       		.uleb128 0x16
 2785 002b 00       		.byte	0
 2786 002c 03       		.uleb128 0x3
 2787 002d 0E       		.uleb128 0xe
 2788 002e 3A       		.uleb128 0x3a
 2789 002f 0B       		.uleb128 0xb
 2790 0030 3B       		.uleb128 0x3b
 2791 0031 05       		.uleb128 0x5
 2792 0032 49       		.uleb128 0x49
 2793 0033 13       		.uleb128 0x13
 2794 0034 00       		.byte	0
 2795 0035 00       		.byte	0
 2796 0036 05       		.uleb128 0x5
 2797 0037 35       		.uleb128 0x35
 2798 0038 00       		.byte	0
 2799 0039 49       		.uleb128 0x49
 2800 003a 13       		.uleb128 0x13
 2801 003b 00       		.byte	0
 2802 003c 00       		.byte	0
 2803 003d 06       		.uleb128 0x6
ARM GAS  C:\Users\CHRIST~1\AppData\Local\Temp\ccwDaf54.s 			page 75


 2804 003e 2E       		.uleb128 0x2e
 2805 003f 00       		.byte	0
 2806 0040 3F       		.uleb128 0x3f
 2807 0041 19       		.uleb128 0x19
 2808 0042 03       		.uleb128 0x3
 2809 0043 0E       		.uleb128 0xe
 2810 0044 3A       		.uleb128 0x3a
 2811 0045 0B       		.uleb128 0xb
 2812 0046 3B       		.uleb128 0x3b
 2813 0047 0B       		.uleb128 0xb
 2814 0048 27       		.uleb128 0x27
 2815 0049 19       		.uleb128 0x19
 2816 004a 11       		.uleb128 0x11
 2817 004b 01       		.uleb128 0x1
 2818 004c 12       		.uleb128 0x12
 2819 004d 06       		.uleb128 0x6
 2820 004e 40       		.uleb128 0x40
 2821 004f 18       		.uleb128 0x18
 2822 0050 9642     		.uleb128 0x2116
 2823 0052 19       		.uleb128 0x19
 2824 0053 00       		.byte	0
 2825 0054 00       		.byte	0
 2826 0055 07       		.uleb128 0x7
 2827 0056 2E       		.uleb128 0x2e
 2828 0057 01       		.byte	0x1
 2829 0058 3F       		.uleb128 0x3f
 2830 0059 19       		.uleb128 0x19
 2831 005a 03       		.uleb128 0x3
 2832 005b 0E       		.uleb128 0xe
 2833 005c 3A       		.uleb128 0x3a
 2834 005d 0B       		.uleb128 0xb
 2835 005e 3B       		.uleb128 0x3b
 2836 005f 0B       		.uleb128 0xb
 2837 0060 27       		.uleb128 0x27
 2838 0061 19       		.uleb128 0x19
 2839 0062 11       		.uleb128 0x11
 2840 0063 01       		.uleb128 0x1
 2841 0064 12       		.uleb128 0x12
 2842 0065 06       		.uleb128 0x6
 2843 0066 40       		.uleb128 0x40
 2844 0067 18       		.uleb128 0x18
 2845 0068 9642     		.uleb128 0x2116
 2846 006a 19       		.uleb128 0x19
 2847 006b 01       		.uleb128 0x1
 2848 006c 13       		.uleb128 0x13
 2849 006d 00       		.byte	0
 2850 006e 00       		.byte	0
 2851 006f 08       		.uleb128 0x8
 2852 0070 34       		.uleb128 0x34
 2853 0071 00       		.byte	0
 2854 0072 03       		.uleb128 0x3
 2855 0073 0E       		.uleb128 0xe
 2856 0074 3A       		.uleb128 0x3a
 2857 0075 0B       		.uleb128 0xb
 2858 0076 3B       		.uleb128 0x3b
 2859 0077 0B       		.uleb128 0xb
 2860 0078 49       		.uleb128 0x49
ARM GAS  C:\Users\CHRIST~1\AppData\Local\Temp\ccwDaf54.s 			page 76


 2861 0079 13       		.uleb128 0x13
 2862 007a 02       		.uleb128 0x2
 2863 007b 18       		.uleb128 0x18
 2864 007c 00       		.byte	0
 2865 007d 00       		.byte	0
 2866 007e 09       		.uleb128 0x9
 2867 007f 2E       		.uleb128 0x2e
 2868 0080 01       		.byte	0x1
 2869 0081 3F       		.uleb128 0x3f
 2870 0082 19       		.uleb128 0x19
 2871 0083 03       		.uleb128 0x3
 2872 0084 0E       		.uleb128 0xe
 2873 0085 3A       		.uleb128 0x3a
 2874 0086 0B       		.uleb128 0xb
 2875 0087 3B       		.uleb128 0x3b
 2876 0088 05       		.uleb128 0x5
 2877 0089 27       		.uleb128 0x27
 2878 008a 19       		.uleb128 0x19
 2879 008b 11       		.uleb128 0x11
 2880 008c 01       		.uleb128 0x1
 2881 008d 12       		.uleb128 0x12
 2882 008e 06       		.uleb128 0x6
 2883 008f 40       		.uleb128 0x40
 2884 0090 18       		.uleb128 0x18
 2885 0091 9642     		.uleb128 0x2116
 2886 0093 19       		.uleb128 0x19
 2887 0094 01       		.uleb128 0x1
 2888 0095 13       		.uleb128 0x13
 2889 0096 00       		.byte	0
 2890 0097 00       		.byte	0
 2891 0098 0A       		.uleb128 0xa
 2892 0099 34       		.uleb128 0x34
 2893 009a 00       		.byte	0
 2894 009b 03       		.uleb128 0x3
 2895 009c 0E       		.uleb128 0xe
 2896 009d 3A       		.uleb128 0x3a
 2897 009e 0B       		.uleb128 0xb
 2898 009f 3B       		.uleb128 0x3b
 2899 00a0 05       		.uleb128 0x5
 2900 00a1 49       		.uleb128 0x49
 2901 00a2 13       		.uleb128 0x13
 2902 00a3 02       		.uleb128 0x2
 2903 00a4 18       		.uleb128 0x18
 2904 00a5 00       		.byte	0
 2905 00a6 00       		.byte	0
 2906 00a7 0B       		.uleb128 0xb
 2907 00a8 05       		.uleb128 0x5
 2908 00a9 00       		.byte	0
 2909 00aa 03       		.uleb128 0x3
 2910 00ab 0E       		.uleb128 0xe
 2911 00ac 3A       		.uleb128 0x3a
 2912 00ad 0B       		.uleb128 0xb
 2913 00ae 3B       		.uleb128 0x3b
 2914 00af 05       		.uleb128 0x5
 2915 00b0 49       		.uleb128 0x49
 2916 00b1 13       		.uleb128 0x13
 2917 00b2 02       		.uleb128 0x2
ARM GAS  C:\Users\CHRIST~1\AppData\Local\Temp\ccwDaf54.s 			page 77


 2918 00b3 18       		.uleb128 0x18
 2919 00b4 00       		.byte	0
 2920 00b5 00       		.byte	0
 2921 00b6 0C       		.uleb128 0xc
 2922 00b7 2E       		.uleb128 0x2e
 2923 00b8 01       		.byte	0x1
 2924 00b9 3F       		.uleb128 0x3f
 2925 00ba 19       		.uleb128 0x19
 2926 00bb 03       		.uleb128 0x3
 2927 00bc 0E       		.uleb128 0xe
 2928 00bd 3A       		.uleb128 0x3a
 2929 00be 0B       		.uleb128 0xb
 2930 00bf 3B       		.uleb128 0x3b
 2931 00c0 05       		.uleb128 0x5
 2932 00c1 27       		.uleb128 0x27
 2933 00c2 19       		.uleb128 0x19
 2934 00c3 11       		.uleb128 0x11
 2935 00c4 01       		.uleb128 0x1
 2936 00c5 12       		.uleb128 0x12
 2937 00c6 06       		.uleb128 0x6
 2938 00c7 40       		.uleb128 0x40
 2939 00c8 18       		.uleb128 0x18
 2940 00c9 9742     		.uleb128 0x2117
 2941 00cb 19       		.uleb128 0x19
 2942 00cc 01       		.uleb128 0x1
 2943 00cd 13       		.uleb128 0x13
 2944 00ce 00       		.byte	0
 2945 00cf 00       		.byte	0
 2946 00d0 0D       		.uleb128 0xd
 2947 00d1 2E       		.uleb128 0x2e
 2948 00d2 00       		.byte	0
 2949 00d3 3F       		.uleb128 0x3f
 2950 00d4 19       		.uleb128 0x19
 2951 00d5 03       		.uleb128 0x3
 2952 00d6 0E       		.uleb128 0xe
 2953 00d7 3A       		.uleb128 0x3a
 2954 00d8 0B       		.uleb128 0xb
 2955 00d9 3B       		.uleb128 0x3b
 2956 00da 05       		.uleb128 0x5
 2957 00db 27       		.uleb128 0x27
 2958 00dc 19       		.uleb128 0x19
 2959 00dd 49       		.uleb128 0x49
 2960 00de 13       		.uleb128 0x13
 2961 00df 11       		.uleb128 0x11
 2962 00e0 01       		.uleb128 0x1
 2963 00e1 12       		.uleb128 0x12
 2964 00e2 06       		.uleb128 0x6
 2965 00e3 40       		.uleb128 0x40
 2966 00e4 18       		.uleb128 0x18
 2967 00e5 9742     		.uleb128 0x2117
 2968 00e7 19       		.uleb128 0x19
 2969 00e8 00       		.byte	0
 2970 00e9 00       		.byte	0
 2971 00ea 0E       		.uleb128 0xe
 2972 00eb 34       		.uleb128 0x34
 2973 00ec 00       		.byte	0
 2974 00ed 03       		.uleb128 0x3
ARM GAS  C:\Users\CHRIST~1\AppData\Local\Temp\ccwDaf54.s 			page 78


 2975 00ee 0E       		.uleb128 0xe
 2976 00ef 3A       		.uleb128 0x3a
 2977 00f0 0B       		.uleb128 0xb
 2978 00f1 3B       		.uleb128 0x3b
 2979 00f2 0B       		.uleb128 0xb
 2980 00f3 49       		.uleb128 0x49
 2981 00f4 13       		.uleb128 0x13
 2982 00f5 3F       		.uleb128 0x3f
 2983 00f6 19       		.uleb128 0x19
 2984 00f7 02       		.uleb128 0x2
 2985 00f8 18       		.uleb128 0x18
 2986 00f9 00       		.byte	0
 2987 00fa 00       		.byte	0
 2988 00fb 00       		.byte	0
 2989              		.section	.debug_aranges,"",%progbits
 2990 0000 54010000 		.4byte	0x154
 2991 0004 0200     		.2byte	0x2
 2992 0006 00000000 		.4byte	.Ldebug_info0
 2993 000a 04       		.byte	0x4
 2994 000b 00       		.byte	0
 2995 000c 0000     		.2byte	0
 2996 000e 0000     		.2byte	0
 2997 0010 00000000 		.4byte	.LFB1
 2998 0014 44000000 		.4byte	.LFE1-.LFB1
 2999 0018 00000000 		.4byte	.LFB2
 3000 001c 38000000 		.4byte	.LFE2-.LFB2
 3001 0020 00000000 		.4byte	.LFB3
 3002 0024 24000000 		.4byte	.LFE3-.LFB3
 3003 0028 00000000 		.4byte	.LFB4
 3004 002c 30000000 		.4byte	.LFE4-.LFB4
 3005 0030 00000000 		.4byte	.LFB5
 3006 0034 48000000 		.4byte	.LFE5-.LFB5
 3007 0038 00000000 		.4byte	.LFB6
 3008 003c 48000000 		.4byte	.LFE6-.LFB6
 3009 0040 00000000 		.4byte	.LFB7
 3010 0044 48000000 		.4byte	.LFE7-.LFB7
 3011 0048 00000000 		.4byte	.LFB8
 3012 004c 4C000000 		.4byte	.LFE8-.LFB8
 3013 0050 00000000 		.4byte	.LFB9
 3014 0054 1C000000 		.4byte	.LFE9-.LFB9
 3015 0058 00000000 		.4byte	.LFB10
 3016 005c 48000000 		.4byte	.LFE10-.LFB10
 3017 0060 00000000 		.4byte	.LFB11
 3018 0064 48000000 		.4byte	.LFE11-.LFB11
 3019 0068 00000000 		.4byte	.LFB12
 3020 006c 4C000000 		.4byte	.LFE12-.LFB12
 3021 0070 00000000 		.4byte	.LFB13
 3022 0074 48000000 		.4byte	.LFE13-.LFB13
 3023 0078 00000000 		.4byte	.LFB14
 3024 007c 1C000000 		.4byte	.LFE14-.LFB14
 3025 0080 00000000 		.4byte	.LFB15
 3026 0084 18000000 		.4byte	.LFE15-.LFB15
 3027 0088 00000000 		.4byte	.LFB16
 3028 008c 48000000 		.4byte	.LFE16-.LFB16
 3029 0090 00000000 		.4byte	.LFB17
 3030 0094 1C000000 		.4byte	.LFE17-.LFB17
 3031 0098 00000000 		.4byte	.LFB18
ARM GAS  C:\Users\CHRIST~1\AppData\Local\Temp\ccwDaf54.s 			page 79


 3032 009c 18000000 		.4byte	.LFE18-.LFB18
 3033 00a0 00000000 		.4byte	.LFB19
 3034 00a4 48000000 		.4byte	.LFE19-.LFB19
 3035 00a8 00000000 		.4byte	.LFB20
 3036 00ac 1C000000 		.4byte	.LFE20-.LFB20
 3037 00b0 00000000 		.4byte	.LFB21
 3038 00b4 18000000 		.4byte	.LFE21-.LFB21
 3039 00b8 00000000 		.4byte	.LFB22
 3040 00bc 48000000 		.4byte	.LFE22-.LFB22
 3041 00c0 00000000 		.4byte	.LFB23
 3042 00c4 1C000000 		.4byte	.LFE23-.LFB23
 3043 00c8 00000000 		.4byte	.LFB24
 3044 00cc 18000000 		.4byte	.LFE24-.LFB24
 3045 00d0 00000000 		.4byte	.LFB25
 3046 00d4 1C000000 		.4byte	.LFE25-.LFB25
 3047 00d8 00000000 		.4byte	.LFB26
 3048 00dc 18000000 		.4byte	.LFE26-.LFB26
 3049 00e0 00000000 		.4byte	.LFB27
 3050 00e4 18000000 		.4byte	.LFE27-.LFB27
 3051 00e8 00000000 		.4byte	.LFB28
 3052 00ec 18000000 		.4byte	.LFE28-.LFB28
 3053 00f0 00000000 		.4byte	.LFB29
 3054 00f4 44000000 		.4byte	.LFE29-.LFB29
 3055 00f8 00000000 		.4byte	.LFB30
 3056 00fc 44000000 		.4byte	.LFE30-.LFB30
 3057 0100 00000000 		.4byte	.LFB31
 3058 0104 48000000 		.4byte	.LFE31-.LFB31
 3059 0108 00000000 		.4byte	.LFB32
 3060 010c 44000000 		.4byte	.LFE32-.LFB32
 3061 0110 00000000 		.4byte	.LFB33
 3062 0114 44000000 		.4byte	.LFE33-.LFB33
 3063 0118 00000000 		.4byte	.LFB34
 3064 011c 38000000 		.4byte	.LFE34-.LFB34
 3065 0120 00000000 		.4byte	.LFB35
 3066 0124 20000000 		.4byte	.LFE35-.LFB35
 3067 0128 00000000 		.4byte	.LFB36
 3068 012c 18000000 		.4byte	.LFE36-.LFB36
 3069 0130 00000000 		.4byte	.LFB37
 3070 0134 14000000 		.4byte	.LFE37-.LFB37
 3071 0138 00000000 		.4byte	.LFB38
 3072 013c 14000000 		.4byte	.LFE38-.LFB38
 3073 0140 00000000 		.4byte	.LFB39
 3074 0144 18000000 		.4byte	.LFE39-.LFB39
 3075 0148 00000000 		.4byte	.LFB40
 3076 014c 18000000 		.4byte	.LFE40-.LFB40
 3077 0150 00000000 		.4byte	0
 3078 0154 00000000 		.4byte	0
 3079              		.section	.debug_ranges,"",%progbits
 3080              	.Ldebug_ranges0:
 3081 0000 00000000 		.4byte	.LFB1
 3082 0004 44000000 		.4byte	.LFE1
 3083 0008 00000000 		.4byte	.LFB2
 3084 000c 38000000 		.4byte	.LFE2
 3085 0010 00000000 		.4byte	.LFB3
 3086 0014 24000000 		.4byte	.LFE3
 3087 0018 00000000 		.4byte	.LFB4
 3088 001c 30000000 		.4byte	.LFE4
ARM GAS  C:\Users\CHRIST~1\AppData\Local\Temp\ccwDaf54.s 			page 80


 3089 0020 00000000 		.4byte	.LFB5
 3090 0024 48000000 		.4byte	.LFE5
 3091 0028 00000000 		.4byte	.LFB6
 3092 002c 48000000 		.4byte	.LFE6
 3093 0030 00000000 		.4byte	.LFB7
 3094 0034 48000000 		.4byte	.LFE7
 3095 0038 00000000 		.4byte	.LFB8
 3096 003c 4C000000 		.4byte	.LFE8
 3097 0040 00000000 		.4byte	.LFB9
 3098 0044 1C000000 		.4byte	.LFE9
 3099 0048 00000000 		.4byte	.LFB10
 3100 004c 48000000 		.4byte	.LFE10
 3101 0050 00000000 		.4byte	.LFB11
 3102 0054 48000000 		.4byte	.LFE11
 3103 0058 00000000 		.4byte	.LFB12
 3104 005c 4C000000 		.4byte	.LFE12
 3105 0060 00000000 		.4byte	.LFB13
 3106 0064 48000000 		.4byte	.LFE13
 3107 0068 00000000 		.4byte	.LFB14
 3108 006c 1C000000 		.4byte	.LFE14
 3109 0070 00000000 		.4byte	.LFB15
 3110 0074 18000000 		.4byte	.LFE15
 3111 0078 00000000 		.4byte	.LFB16
 3112 007c 48000000 		.4byte	.LFE16
 3113 0080 00000000 		.4byte	.LFB17
 3114 0084 1C000000 		.4byte	.LFE17
 3115 0088 00000000 		.4byte	.LFB18
 3116 008c 18000000 		.4byte	.LFE18
 3117 0090 00000000 		.4byte	.LFB19
 3118 0094 48000000 		.4byte	.LFE19
 3119 0098 00000000 		.4byte	.LFB20
 3120 009c 1C000000 		.4byte	.LFE20
 3121 00a0 00000000 		.4byte	.LFB21
 3122 00a4 18000000 		.4byte	.LFE21
 3123 00a8 00000000 		.4byte	.LFB22
 3124 00ac 48000000 		.4byte	.LFE22
 3125 00b0 00000000 		.4byte	.LFB23
 3126 00b4 1C000000 		.4byte	.LFE23
 3127 00b8 00000000 		.4byte	.LFB24
 3128 00bc 18000000 		.4byte	.LFE24
 3129 00c0 00000000 		.4byte	.LFB25
 3130 00c4 1C000000 		.4byte	.LFE25
 3131 00c8 00000000 		.4byte	.LFB26
 3132 00cc 18000000 		.4byte	.LFE26
 3133 00d0 00000000 		.4byte	.LFB27
 3134 00d4 18000000 		.4byte	.LFE27
 3135 00d8 00000000 		.4byte	.LFB28
 3136 00dc 18000000 		.4byte	.LFE28
 3137 00e0 00000000 		.4byte	.LFB29
 3138 00e4 44000000 		.4byte	.LFE29
 3139 00e8 00000000 		.4byte	.LFB30
 3140 00ec 44000000 		.4byte	.LFE30
 3141 00f0 00000000 		.4byte	.LFB31
 3142 00f4 48000000 		.4byte	.LFE31
 3143 00f8 00000000 		.4byte	.LFB32
 3144 00fc 44000000 		.4byte	.LFE32
 3145 0100 00000000 		.4byte	.LFB33
ARM GAS  C:\Users\CHRIST~1\AppData\Local\Temp\ccwDaf54.s 			page 81


 3146 0104 44000000 		.4byte	.LFE33
 3147 0108 00000000 		.4byte	.LFB34
 3148 010c 38000000 		.4byte	.LFE34
 3149 0110 00000000 		.4byte	.LFB35
 3150 0114 20000000 		.4byte	.LFE35
 3151 0118 00000000 		.4byte	.LFB36
 3152 011c 18000000 		.4byte	.LFE36
 3153 0120 00000000 		.4byte	.LFB37
 3154 0124 14000000 		.4byte	.LFE37
 3155 0128 00000000 		.4byte	.LFB38
 3156 012c 14000000 		.4byte	.LFE38
 3157 0130 00000000 		.4byte	.LFB39
 3158 0134 18000000 		.4byte	.LFE39
 3159 0138 00000000 		.4byte	.LFB40
 3160 013c 18000000 		.4byte	.LFE40
 3161 0140 00000000 		.4byte	0
 3162 0144 00000000 		.4byte	0
 3163              		.section	.debug_line,"",%progbits
 3164              	.Ldebug_line0:
 3165 0000 70030000 		.section	.debug_str,"MS",%progbits,1
 3165      02004700 
 3165      00000201 
 3165      FB0E0D00 
 3165      01010101 
 3166              	.LASF40:
 3167 0000 636F756E 		.ascii	"count\000"
 3167      7400
 3168              	.LASF70:
 3169 0006 54696D65 		.ascii	"Timebase5s_SetInterruptMode\000"
 3169      62617365 
 3169      35735F53 
 3169      6574496E 
 3169      74657272 
 3170              	.LASF39:
 3171 0022 54696D65 		.ascii	"Timebase5s_WriteCounter\000"
 3171      62617365 
 3171      35735F57 
 3171      72697465 
 3171      436F756E 
 3172              	.LASF63:
 3173 003a 54696D65 		.ascii	"Timebase5s_SetReloadMode\000"
 3173      62617365 
 3173      35735F53 
 3173      65745265 
 3173      6C6F6164 
 3174              	.LASF16:
 3175 0053 54696D65 		.ascii	"Timebase5s_Init\000"
 3175      62617365 
 3175      35735F49 
 3175      6E697400 
 3176              	.LASF44:
 3177 0063 70657269 		.ascii	"period\000"
 3177      6F6400
 3178              	.LASF7:
 3179 006a 6C6F6E67 		.ascii	"long long unsigned int\000"
 3179      206C6F6E 
 3179      6720756E 
ARM GAS  C:\Users\CHRIST~1\AppData\Local\Temp\ccwDaf54.s 			page 82


 3179      7369676E 
 3179      65642069 
 3180              	.LASF24:
 3181 0081 71644D6F 		.ascii	"qdMode\000"
 3181      646500
 3182              	.LASF49:
 3183 0088 54696D65 		.ascii	"Timebase5s_WritePeriodBuf\000"
 3183      62617365 
 3183      35735F57 
 3183      72697465 
 3183      50657269 
 3184              	.LASF43:
 3185 00a2 54696D65 		.ascii	"Timebase5s_WritePeriod\000"
 3185      62617365 
 3185      35735F57 
 3185      72697465 
 3185      50657269 
 3186              	.LASF6:
 3187 00b9 6C6F6E67 		.ascii	"long long int\000"
 3187      206C6F6E 
 3187      6720696E 
 3187      7400
 3188              	.LASF0:
 3189 00c7 7369676E 		.ascii	"signed char\000"
 3189      65642063 
 3189      68617200 
 3190              	.LASF37:
 3191 00d3 54696D65 		.ascii	"Timebase5s_SetPWMInvert\000"
 3191      62617365 
 3191      35735F53 
 3191      65745057 
 3191      4D496E76 
 3192              	.LASF4:
 3193 00eb 6C6F6E67 		.ascii	"long int\000"
 3193      20696E74 
 3193      00
 3194              	.LASF9:
 3195 00f4 75696E74 		.ascii	"uint8\000"
 3195      3800
 3196              	.LASF12:
 3197 00fa 646F7562 		.ascii	"double\000"
 3197      6C6500
 3198              	.LASF60:
 3199 0101 54696D65 		.ascii	"Timebase5s_ReadCaptureBuf\000"
 3199      62617365 
 3199      35735F52 
 3199      65616443 
 3199      61707475 
 3200              	.LASF10:
 3201 011b 75696E74 		.ascii	"uint32\000"
 3201      333200
 3202              	.LASF62:
 3203 0122 74726967 		.ascii	"triggerMode\000"
 3203      6765724D 
 3203      6F646500 
 3204              	.LASF38:
 3205 012e 6D61736B 		.ascii	"mask\000"
ARM GAS  C:\Users\CHRIST~1\AppData\Local\Temp\ccwDaf54.s 			page 83


 3205      00
 3206              	.LASF36:
 3207 0133 64656164 		.ascii	"deadTime\000"
 3207      54696D65 
 3207      00
 3208              	.LASF8:
 3209 013c 756E7369 		.ascii	"unsigned int\000"
 3209      676E6564 
 3209      20696E74 
 3209      00
 3210              	.LASF68:
 3211 0149 636F6D6D 		.ascii	"command\000"
 3211      616E6400 
 3212              	.LASF25:
 3213 0151 54696D65 		.ascii	"Timebase5s_SetPrescaler\000"
 3213      62617365 
 3213      35735F53 
 3213      65745072 
 3213      65736361 
 3214              	.LASF78:
 3215 0169 433A5C55 		.ascii	"C:\\Users\\Christopher Kuzma\\Downloads\\Cypress Th"
 3215      73657273 
 3215      5C436872 
 3215      6973746F 
 3215      70686572 
 3216 0198 696E675C 		.ascii	"ing\\EnvironmentSensing.cydsn\\EnvironmentSensing.c"
 3216      456E7669 
 3216      726F6E6D 
 3216      656E7453 
 3216      656E7369 
 3217 01c9 7964736E 		.ascii	"ydsn\000"
 3217      00
 3218              	.LASF30:
 3219 01ce 6D6F6465 		.ascii	"modeMask\000"
 3219      4D61736B 
 3219      00
 3220              	.LASF76:
 3221 01d7 474E5520 		.ascii	"GNU C 4.9.3 20150303 (release) [ARM/embedded-4_9-br"
 3221      4320342E 
 3221      392E3320 
 3221      32303135 
 3221      30333033 
 3222 020a 616E6368 		.ascii	"anch revision 221220] -mcpu=cortex-m0plus -mthumb -"
 3222      20726576 
 3222      6973696F 
 3222      6E203232 
 3222      31323230 
 3223 023d 67202D4F 		.ascii	"g -O0 -ffunction-sections -ffat-lto-objects\000"
 3223      30202D66 
 3223      66756E63 
 3223      74696F6E 
 3223      2D736563 
 3224              	.LASF41:
 3225 0269 54696D65 		.ascii	"Timebase5s_SetCounterMode\000"
 3225      62617365 
 3225      35735F53 
 3225      6574436F 
ARM GAS  C:\Users\CHRIST~1\AppData\Local\Temp\ccwDaf54.s 			page 84


 3225      756E7465 
 3226              	.LASF55:
 3227 0283 54696D65 		.ascii	"Timebase5s_ReadCompare\000"
 3227      62617365 
 3227      35735F52 
 3227      65616443 
 3227      6F6D7061 
 3228              	.LASF3:
 3229 029a 73686F72 		.ascii	"short unsigned int\000"
 3229      7420756E 
 3229      7369676E 
 3229      65642069 
 3229      6E7400
 3230              	.LASF22:
 3231 02ad 54696D65 		.ascii	"Timebase5s_SetQDMode\000"
 3231      62617365 
 3231      35735F53 
 3231      65745144 
 3231      4D6F6465 
 3232              	.LASF28:
 3233 02c2 6F6E6553 		.ascii	"oneShotEnable\000"
 3233      686F7445 
 3233      6E61626C 
 3233      6500
 3234              	.LASF14:
 3235 02d0 72656733 		.ascii	"reg32\000"
 3235      3200
 3236              	.LASF61:
 3237 02d6 54696D65 		.ascii	"Timebase5s_SetCaptureMode\000"
 3237      62617365 
 3237      35735F53 
 3237      65744361 
 3237      70747572 
 3238              	.LASF15:
 3239 02f0 73697A65 		.ascii	"sizetype\000"
 3239      74797065 
 3239      00
 3240              	.LASF45:
 3241 02f9 54696D65 		.ascii	"Timebase5s_ReadCounter\000"
 3241      62617365 
 3241      35735F52 
 3241      65616443 
 3241      6F756E74 
 3242              	.LASF32:
 3243 0310 73796E63 		.ascii	"syncKillEnable\000"
 3243      4B696C6C 
 3243      456E6162 
 3243      6C6500
 3244              	.LASF72:
 3245 031f 54696D65 		.ascii	"Timebase5s_GetInterruptSourceMasked\000"
 3245      62617365 
 3245      35735F47 
 3245      6574496E 
 3245      74657272 
 3246              	.LASF27:
 3247 0343 54696D65 		.ascii	"Timebase5s_SetOneShot\000"
 3247      62617365 
ARM GAS  C:\Users\CHRIST~1\AppData\Local\Temp\ccwDaf54.s 			page 85


 3247      35735F53 
 3247      65744F6E 
 3247      6553686F 
 3248              	.LASF54:
 3249 0359 636F6D70 		.ascii	"compare\000"
 3249      61726500 
 3250              	.LASF74:
 3251 0361 54696D65 		.ascii	"Timebase5s_ClearInterrupt\000"
 3251      62617365 
 3251      35735F43 
 3251      6C656172 
 3251      496E7465 
 3252              	.LASF77:
 3253 037b 47656E65 		.ascii	"Generated_Source\\PSoC4\\Timebase5s.c\000"
 3253      72617465 
 3253      645F536F 
 3253      75726365 
 3253      5C50536F 
 3254              	.LASF79:
 3255 039f 54696D65 		.ascii	"Timebase5s_initVar\000"
 3255      62617365 
 3255      35735F69 
 3255      6E697456 
 3255      617200
 3256              	.LASF52:
 3257 03b2 54696D65 		.ascii	"Timebase5s_SetPeriodSwap\000"
 3257      62617365 
 3257      35735F53 
 3257      65745065 
 3257      72696F64 
 3258              	.LASF69:
 3259 03cb 54696D65 		.ascii	"Timebase5s_ReadStatus\000"
 3259      62617365 
 3259      35735F52 
 3259      65616453 
 3259      74617475 
 3260              	.LASF11:
 3261 03e1 666C6F61 		.ascii	"float\000"
 3261      7400
 3262              	.LASF71:
 3263 03e7 696E7465 		.ascii	"interruptMask\000"
 3263      72727570 
 3263      744D6173 
 3263      6B00
 3264              	.LASF26:
 3265 03f5 70726573 		.ascii	"prescaler\000"
 3265      63616C65 
 3265      7200
 3266              	.LASF58:
 3267 03ff 54696D65 		.ascii	"Timebase5s_ReadCompareBuf\000"
 3267      62617365 
 3267      35735F52 
 3267      65616443 
 3267      6F6D7061 
 3268              	.LASF47:
 3269 0419 54696D65 		.ascii	"Timebase5s_SetCompareSwap\000"
 3269      62617365 
ARM GAS  C:\Users\CHRIST~1\AppData\Local\Temp\ccwDaf54.s 			page 86


 3269      35735F53 
 3269      6574436F 
 3269      6D706172 
 3270              	.LASF1:
 3271 0433 756E7369 		.ascii	"unsigned char\000"
 3271      676E6564 
 3271      20636861 
 3271      7200
 3272              	.LASF34:
 3273 0441 73746F70 		.ascii	"stopOnKillEnable\000"
 3273      4F6E4B69 
 3273      6C6C456E 
 3273      61626C65 
 3273      00
 3274              	.LASF2:
 3275 0452 73686F72 		.ascii	"short int\000"
 3275      7420696E 
 3275      7400
 3276              	.LASF19:
 3277 045c 54696D65 		.ascii	"Timebase5s_Stop\000"
 3277      62617365 
 3277      35735F53 
 3277      746F7000 
 3278              	.LASF65:
 3279 046c 54696D65 		.ascii	"Timebase5s_SetStopMode\000"
 3279      62617365 
 3279      35735F53 
 3279      65745374 
 3279      6F704D6F 
 3280              	.LASF75:
 3281 0483 54696D65 		.ascii	"Timebase5s_SetInterrupt\000"
 3281      62617365 
 3281      35735F53 
 3281      6574496E 
 3281      74657272 
 3282              	.LASF35:
 3283 049b 54696D65 		.ascii	"Timebase5s_SetPWMDeadTime\000"
 3283      62617365 
 3283      35735F53 
 3283      65745057 
 3283      4D446561 
 3284              	.LASF31:
 3285 04b5 54696D65 		.ascii	"Timebase5s_SetPWMSyncKill\000"
 3285      62617365 
 3285      35735F53 
 3285      65745057 
 3285      4D53796E 
 3286              	.LASF5:
 3287 04cf 6C6F6E67 		.ascii	"long unsigned int\000"
 3287      20756E73 
 3287      69676E65 
 3287      6420696E 
 3287      7400
 3288              	.LASF13:
 3289 04e1 63686172 		.ascii	"char\000"
 3289      00
 3290              	.LASF23:
ARM GAS  C:\Users\CHRIST~1\AppData\Local\Temp\ccwDaf54.s 			page 87


 3291 04e6 6D6F6465 		.ascii	"mode\000"
 3291      00
 3292              	.LASF21:
 3293 04eb 54696D65 		.ascii	"Timebase5s_SetMode\000"
 3293      62617365 
 3293      35735F53 
 3293      65744D6F 
 3293      646500
 3294              	.LASF46:
 3295 04fe 54696D65 		.ascii	"Timebase5s_ReadPeriod\000"
 3295      62617365 
 3295      35735F52 
 3295      65616450 
 3295      6572696F 
 3296              	.LASF33:
 3297 0514 54696D65 		.ascii	"Timebase5s_SetPWMStopOnKill\000"
 3297      62617365 
 3297      35735F53 
 3297      65745057 
 3297      4D53746F 
 3298              	.LASF17:
 3299 0530 54696D65 		.ascii	"Timebase5s_Start\000"
 3299      62617365 
 3299      35735F53 
 3299      74617274 
 3299      00
 3300              	.LASF42:
 3301 0541 636F756E 		.ascii	"counterMode\000"
 3301      7465724D 
 3301      6F646500 
 3302              	.LASF51:
 3303 054d 54696D65 		.ascii	"Timebase5s_ReadPeriodBuf\000"
 3303      62617365 
 3303      35735F52 
 3303      65616450 
 3303      6572696F 
 3304              	.LASF18:
 3305 0566 54696D65 		.ascii	"Timebase5s_Enable\000"
 3305      62617365 
 3305      35735F45 
 3305      6E61626C 
 3305      6500
 3306              	.LASF66:
 3307 0578 54696D65 		.ascii	"Timebase5s_SetCountMode\000"
 3307      62617365 
 3307      35735F53 
 3307      6574436F 
 3307      756E744D 
 3308              	.LASF57:
 3309 0590 636F6D70 		.ascii	"compareBuf\000"
 3309      61726542 
 3309      756600
 3310              	.LASF67:
 3311 059b 54696D65 		.ascii	"Timebase5s_TriggerCommand\000"
 3311      62617365 
 3311      35735F54 
 3311      72696767 
ARM GAS  C:\Users\CHRIST~1\AppData\Local\Temp\ccwDaf54.s 			page 88


 3311      6572436F 
 3312              	.LASF20:
 3313 05b5 656E6162 		.ascii	"enableInterrupts\000"
 3313      6C65496E 
 3313      74657272 
 3313      75707473 
 3313      00
 3314              	.LASF56:
 3315 05c6 54696D65 		.ascii	"Timebase5s_WriteCompareBuf\000"
 3315      62617365 
 3315      35735F57 
 3315      72697465 
 3315      436F6D70 
 3316              	.LASF53:
 3317 05e1 54696D65 		.ascii	"Timebase5s_WriteCompare\000"
 3317      62617365 
 3317      35735F57 
 3317      72697465 
 3317      436F6D70 
 3318              	.LASF48:
 3319 05f9 73776170 		.ascii	"swapEnable\000"
 3319      456E6162 
 3319      6C6500
 3320              	.LASF73:
 3321 0604 54696D65 		.ascii	"Timebase5s_GetInterruptSource\000"
 3321      62617365 
 3321      35735F47 
 3321      6574496E 
 3321      74657272 
 3322              	.LASF29:
 3323 0622 54696D65 		.ascii	"Timebase5s_SetPWMMode\000"
 3323      62617365 
 3323      35735F53 
 3323      65745057 
 3323      4D4D6F64 
 3324              	.LASF64:
 3325 0638 54696D65 		.ascii	"Timebase5s_SetStartMode\000"
 3325      62617365 
 3325      35735F53 
 3325      65745374 
 3325      6172744D 
 3326              	.LASF50:
 3327 0650 70657269 		.ascii	"periodBuf\000"
 3327      6F644275 
 3327      6600
 3328              	.LASF59:
 3329 065a 54696D65 		.ascii	"Timebase5s_ReadCapture\000"
 3329      62617365 
 3329      35735F52 
 3329      65616443 
 3329      61707475 
 3330              		.ident	"GCC: (GNU Tools for ARM Embedded Processors) 4.9.3 20150303 (release) [ARM/embedded-4_9-br
